ARM GAS  C:\msys64\tmp\ccIBuhGY.s 			page 1


   1              		.syntax unified
   2              		.cpu cortex-m4
   3              		.eabi_attribute 27, 1
   4              		.eabi_attribute 28, 1
   5              		.fpu fpv4-sp-d16
   6              		.eabi_attribute 20, 1
   7              		.eabi_attribute 21, 1
   8              		.eabi_attribute 23, 3
   9              		.eabi_attribute 24, 1
  10              		.eabi_attribute 25, 1
  11              		.eabi_attribute 26, 1
  12              		.eabi_attribute 30, 4
  13              		.eabi_attribute 34, 1
  14              		.eabi_attribute 18, 4
  15              		.thumb
  16              		.syntax unified
  17              		.file	"pd_2.cpp"
  18              		.text
  19              	.Ltext0:
  20              		.cfi_sections	.debug_frame
  21              		.align	1
  22              		.global	_hook_init
  23              		.thumb
  24              		.thumb_func
  25              		.type	_hook_init, %function
  26              	_hook_init:
  27              	.LFB293:
  28              		.file 1 "pd_2.cpp"
  29              		.loc 1 14 0
  30              		.cfi_startproc
  31              		@ args = 0, pretend = 0, frame = 0
  32              		@ frame_needed = 0, uses_anonymous_args = 0
  33              		@ link register save eliminated.
  34              	.LVL0:
  35 0000 7047     		bx	lr
  36              		.cfi_endproc
  37              	.LFE293:
  38              		.size	_hook_init, .-_hook_init
  39              		.align	1
  40              		.global	_hook_cycle
  41              		.thumb
  42              		.thumb_func
  43              		.type	_hook_cycle, %function
  44              	_hook_cycle:
  45              	.LFB294:
  46              		.loc 1 19 0
  47              		.cfi_startproc
  48              		@ args = 0, pretend = 0, frame = 0
  49              		@ frame_needed = 0, uses_anonymous_args = 0
  50              	.LVL1:
  51              		.loc 1 25 0
  52 0002 9A4B     		ldr	r3, .L29
  53              	.LBB219:
  54              	.LBB220:
  55              	.LBB221:
  56              	.LBB222:
  57              		.file 2 "C:/msys64/home/logue-sdk/platform/nutekt-digital/inc/utils/float_math.h"
ARM GAS  C:\msys64\tmp\ccIBuhGY.s 			page 2


  58              		.loc 2 826 0
  59 0004 9FED9A7A 		vldr.32	s14, .L29+4
  60              	.LBE222:
  61              	.LBE221:
  62              	.LBE220:
  63              	.LBE219:
  64              	.LBB260:
  65              	.LBB261:
  66              		.file 3 "pd_2.hpp"
  67              		.loc 3 59 0
  68 0008 D3ED044A 		vldr.32	s9, [r3, #16]
  69              	.LBB262:
  70              	.LBB263:
  71              		.file 4 "C:/msys64/home/logue-sdk/platform/nutekt-digital/inc/osc_api.h"
  72              		.loc 4 615 0
  73 000c 9FED995A 		vldr.32	s10, .L29+8
  74              	.LBE263:
  75              	.LBE262:
  76              	.LBE261:
  77              	.LBE260:
  78              	.LBB322:
  79              	.LBB323:
  80              	.LBB324:
  81              	.LBB325:
  82              		.loc 3 65 0
  83 0010 93ED034A 		vldr.32	s8, [r3, #12]
  84              	.LBE325:
  85              	.LBE324:
  86              		.loc 1 63 0
  87 0014 9FED980A 		vldr.32	s0, .L29+12
  88 0018 DFED980A 		vldr.32	s1, .L29+16
  89              	.LBE323:
  90              	.LBE322:
  91              		.loc 1 19 0
  92 001c 70B5     		push	{r4, r5, r6, lr}
  93              		.cfi_def_cfa_offset 16
  94              		.cfi_offset 4, -16
  95              		.cfi_offset 5, -12
  96              		.cfi_offset 6, -8
  97              		.cfi_offset 14, -4
  98              		.loc 1 25 0
  99 001e 1C7A     		ldrb	r4, [r3, #8]	@ zero_extendqisi2
 100              	.LVL2:
 101              		.loc 1 31 0
 102 0020 14F0010F 		tst	r4, #1
 103              		.loc 1 28 0
 104 0024 2546     		mov	r5, r4
 105              		.loc 1 36 0
 106 0026 8488     		ldrh	r4, [r0, #4]
 107              	.LVL3:
 108              		.loc 1 28 0
 109 0028 6FF30005 		bfc	r5, #0, #1
 110              		.loc 1 19 0
 111 002c 2DED068B 		vpush.64	{d8, d9, d10}
 112              		.cfi_def_cfa_offset 40
 113              		.cfi_offset 80, -40
 114              		.cfi_offset 81, -36
ARM GAS  C:\msys64\tmp\ccIBuhGY.s 			page 3


 115              		.cfi_offset 82, -32
 116              		.cfi_offset 83, -28
 117              		.cfi_offset 84, -24
 118              		.cfi_offset 85, -20
 119              		.loc 1 36 0
 120 0030 4FEA2420 		asr	r0, r4, #8
 121              	.LVL4:
 122              		.loc 1 28 0
 123 0034 1D72     		strb	r5, [r3, #8]
 124 0036 4FF00005 		mov	r5, #0
 125              	.LVL5:
 126              	.LBB400:
 127              	.LBB401:
 128              		.loc 3 49 0
 129 003a 18BF     		it	ne
 130 003c 1D60     		strne	r5, [r3]	@ float
 131              	.LBE401:
 132              	.LBE400:
 133              	.LBB402:
 134              	.LBB251:
 135              	.LBB227:
 136              	.LBB228:
 137              		.loc 4 109 0
 138 003e 9628     		cmp	r0, #150
 139 0040 D8BF     		it	le
 140 0042 0646     		movle	r6, r0
 141              	.LBE228:
 142              	.LBE227:
 143              	.LBE251:
 144              	.LBE402:
 145              		.loc 1 39 0
 146 0044 E4B2     		uxtb	r4, r4
 147              	.LBB403:
 148              	.LBB252:
 149              		.loc 4 120 0
 150 0046 00F10100 		add	r0, r0, #1
 151              	.LVL6:
 152 004a C0B2     		uxtb	r0, r0
 153              	.LVL7:
 154              	.LBE252:
 155              	.LBE403:
 156              		.loc 1 39 0
 157 004c 07EE904A 		vmov	s15, r4	@ int
 158              	.LVL8:
 159              	.LBB404:
 160              	.LBB253:
 161              	.LBB232:
 162              	.LBB229:
 163              		.loc 4 109 0
 164 0050 C8BF     		it	gt
 165 0052 9726     		movgt	r6, #151
 166              	.LVL9:
 167 0054 8A4C     		ldr	r4, .L29+20
 168              	.LVL10:
 169              	.LBE229:
 170              	.LBE232:
 171              	.LBE253:
ARM GAS  C:\msys64\tmp\ccIBuhGY.s 			page 4


 172              	.LBE404:
 173              	.LBB405:
 174              	.LBB312:
 175              	.LBB273:
 176              	.LBB274:
 177              		.file 5 "c:\\msys64\\home\\logue-sdk\\platform\\nutekt-digital\\inc\\dsp\\biquad.hpp"
 178              		.loc 5 143 0
 179 0056 DD61     		str	r5, [r3, #28]	@ float
 180              	.LBE274:
 181              	.LBE273:
 182              	.LBE312:
 183              	.LBE405:
 184              	.LBB406:
 185              	.LBB254:
 186              	.LBB233:
 187              	.LBB234:
 188              		.loc 4 109 0
 189 0058 9628     		cmp	r0, #150
 190 005a 88BF     		it	hi
 191 005c 9720     		movhi	r0, #151
 192              	.LBE234:
 193              	.LBE233:
 194              	.LBB236:
 195              	.LBB223:
 196              		.loc 2 826 0
 197 005e F8EEE77A 		vcvt.f32.s32	s15, s15
 198              	.LVL11:
 199              	.LBE223:
 200              	.LBE236:
 201              	.LBB237:
 202              	.LBB230:
 203              		.loc 4 109 0
 204 0062 04EB8606 		add	r6, r4, r6, lsl #2
 205              	.LBE230:
 206              	.LBE237:
 207              	.LBB238:
 208              	.LBB235:
 209 0066 04EB8000 		add	r0, r4, r0, lsl #2
 210              	.LBE235:
 211              	.LBE238:
 212              	.LBB239:
 213              	.LBB231:
 214 006a D6ED005A 		vldr.32	s11, [r6]
 215              	.LVL12:
 216              	.LBE231:
 217              	.LBE239:
 218              	.LBE254:
 219              	.LBE406:
 220              	.LBB407:
 221              	.LBB313:
 222              	.LBB280:
 223              	.LBB275:
 224              		.loc 5 143 0
 225 006e 5D62     		str	r5, [r3, #36]	@ float
 226              	.LBE275:
 227              	.LBE280:
 228              	.LBE313:
ARM GAS  C:\msys64\tmp\ccIBuhGY.s 			page 5


 229              	.LBE407:
 230              	.LBB408:
 231              	.LBB255:
 232              	.LBB240:
 233              	.LBB224:
 234              		.loc 2 826 0
 235 0070 67EE877A 		vmul.f32	s15, s15, s14
 236 0074 90ED007A 		vldr.32	s14, [r0]
 237              	.LBE224:
 238              	.LBE240:
 239              	.LBE255:
 240              	.LBE408:
 241              	.LBB409:
 242              	.LBB314:
 243              	.LBB281:
 244              	.LBB268:
 245              		.loc 4 617 0
 246 0078 8248     		ldr	r0, .L29+24
 247              	.LBE268:
 248              	.LBE281:
 249              	.LBB282:
 250              	.LBB283:
 251              		.loc 5 159 0
 252 007a 9D63     		str	r5, [r3, #56]	@ float
 253              	.LBE283:
 254              	.LBE282:
 255              	.LBE314:
 256              	.LBE409:
 257              	.LBB410:
 258              	.LBB256:
 259              	.LBB241:
 260              	.LBB225:
 261              		.loc 2 826 0
 262 007c 37EE657A 		vsub.f32	s14, s14, s11
 263              	.LBE225:
 264              	.LBE241:
 265              	.LBE256:
 266              	.LBE410:
 267              	.LBB411:
 268              	.LBB315:
 269              	.LBB286:
 270              	.LBB284:
 271              		.loc 5 159 0
 272 0080 1D64     		str	r5, [r3, #64]	@ float
 273              	.LBE284:
 274              	.LBE286:
 275              	.LBE315:
 276              	.LBE411:
 277              	.LBB412:
 278              	.LBB257:
 279              	.LBB242:
 280              	.LBB226:
 281              		.loc 2 826 0
 282 0082 E7EE875A 		vfma.f32	s11, s15, s14
 283              	.LVL13:
 284              	.LBE226:
 285              	.LBE242:
ARM GAS  C:\msys64\tmp\ccIBuhGY.s 			page 6


 286              	.LBE257:
 287              	.LBE412:
 288              	.LBB413:
 289              	.LBB394:
 290              	.LBB365:
 291              	.LBB360:
 292              	.LBB326:
 293              	.LBB327:
 294              	.LBB328:
 295              	.LBB329:
 296              		.loc 4 160 0
 297 0086 804D     		ldr	r5, .L29+28
 298              	.LBE329:
 299              	.LBE328:
 300              	.LBE327:
 301              	.LBE326:
 302              	.LBE360:
 303              	.LBE365:
 304              	.LBE394:
 305              	.LBE413:
 306              	.LBB414:
 307              	.LBB258:
 308              	.LBB243:
 309              	.LBB244:
 310              	.LBB245:
 311              	.LBB246:
 312              		.loc 2 193 0
 313 0088 DFED807A 		vldr.32	s15, .L29+32
 314              	.LBE246:
 315              	.LBE245:
 316              	.LBE244:
 317              	.LBE243:
 318              	.LBE258:
 319              	.LBE414:
 320              	.LBB415:
 321              	.LBB395:
 322              	.LBB366:
 323              	.LBB361:
 324              	.LBB347:
 325              	.LBB344:
 326              	.LBB342:
 327              	.LBB340:
 328              		.loc 4 154 0
 329 008c DFED808A 		vldr.32	s17, .L29+36
 330              	.LBE340:
 331              	.LBE342:
 332              	.LBE344:
 333              	.LBE347:
 334              	.LBE361:
 335              	.LBE366:
 336              	.LBE395:
 337              	.LBE415:
 338              	.LBB416:
 339              	.LBB259:
 340              	.LBB250:
 341              	.LBB249:
 342              	.LBB248:
ARM GAS  C:\msys64\tmp\ccIBuhGY.s 			page 7


 343              	.LBB247:
 344              		.loc 2 193 0
 345 0090 F4EEE75A 		vcmpe.f32	s11, s15
 346 0094 F1EE10FA 		vmrs	APSR_nzcv, FPSCR
 347 0098 A8BF     		it	ge
 348 009a F0EE675A 		vmovge.f32	s11, s15
 349              	.LVL14:
 350              	.LBE247:
 351              	.LBE248:
 352              	.LBE249:
 353              	.LBE250:
 354              		.loc 4 124 0
 355 009e DFED7D7A 		vldr.32	s15, .L29+40
 356 00a2 65EEA75A 		vmul.f32	s11, s11, s15
 357              	.LVL15:
 358              	.LBE259:
 359              	.LBE416:
 360              		.loc 1 51 0
 361 00a6 01EB8202 		add	r2, r1, r2, lsl #2
 362              	.LVL16:
 363              	.LBB417:
 364              	.LBB316:
 365              	.LBB287:
 366              	.LBB269:
 367              		.loc 4 615 0
 368 00aa 65EEA46A 		vmul.f32	s13, s11, s9
 369              	.LBE269:
 370              	.LBE287:
 371              	.LBE316:
 372              	.LBE417:
 373              		.loc 1 39 0
 374 00ae C3ED015A 		vstr.32	s11, [r3, #4]
 375              	.LVL17:
 376              	.LBB418:
 377              	.LBB317:
 378              	.LBB288:
 379              	.LBB270:
 380              		.loc 4 615 0
 381 00b2 66EE856A 		vmul.f32	s13, s13, s10
 382              	.LVL18:
 383 00b6 B6EE001A 		vmov.f32	s2, #5.0e-1
 384              		.loc 4 616 0
 385 00ba FCEEE67A 		vcvt.u32.f32	s15, s13
 386              	.LBE270:
 387              	.LBE288:
 388              	.LBE317:
 389              	.LBE418:
 390              	.LBB419:
 391              	.LBB396:
 392              	.LBB367:
 393              	.LBB362:
 394              	.LBB348:
 395              	.LBB345:
 396              		.loc 4 171 0
 397 00be B5EE008A 		vmov.f32	s16, #2.5e-1
 398              	.LBE345:
 399              	.LBE348:
ARM GAS  C:\msys64\tmp\ccIBuhGY.s 			page 8


 400              	.LBE362:
 401              	.LBE367:
 402              	.LBE396:
 403              	.LBE419:
 404              	.LBB420:
 405              	.LBB318:
 406              	.LBB289:
 407              	.LBB271:
 408              		.loc 4 616 0
 409 00c2 17EE904A 		vmov	r4, s15	@ int
 410              	.LVL19:
 411              		.loc 4 617 0
 412 00c6 00EB8406 		add	r6, r0, r4, lsl #2
 413 00ca 96ED007A 		vldr.32	s14, [r6]
 414              	.LVL20:
 415              	.LBB264:
 416              	.LBB265:
 417              		.loc 2 826 0
 418 00ce 96ED016A 		vldr.32	s12, [r6, #4]
 419 00d2 F8EE677A 		vcvt.f32.u32	s15, s15
 420 00d6 36EE476A 		vsub.f32	s12, s12, s14
 421 00da 76EEE76A 		vsub.f32	s13, s13, s15
 422              	.LVL21:
 423              	.LBE265:
 424              	.LBE264:
 425              	.LBE271:
 426              	.LBE289:
 427              	.LBE318:
 428              	.LBE420:
 429              	.LBB421:
 430              	.LBB397:
 431              	.LBB368:
 432              	.LBB369:
 433              	.LBB370:
 434              	.LBB371:
 435              	.LBB372:
 436              	.LBB373:
 437              		.loc 2 193 0
 438 00de BFEE009A 		vmov.f32	s18, #-1.0e+0
 439              	.LBE373:
 440              	.LBE372:
 441              	.LBE371:
 442              	.LBE370:
 443              	.LBE369:
 444              	.LBE368:
 445              	.LBE397:
 446              	.LBE421:
 447              	.LBB422:
 448              	.LBB319:
 449              	.LBB290:
 450              	.LBB272:
 451              	.LBB267:
 452              	.LBB266:
 453              		.loc 2 826 0
 454 00e2 A6EE867A 		vfma.f32	s14, s13, s12
 455              	.LVL22:
 456              	.LBE266:
ARM GAS  C:\msys64\tmp\ccIBuhGY.s 			page 9


 457              	.LBE267:
 458              	.LBE272:
 459              	.LBE290:
 460              	.LBB291:
 461              	.LBB276:
 462              		.loc 5 139 0
 463 00e6 F7EE006A 		vmov.f32	s13, #1.0e+0
 464 00ea 77EE267A 		vadd.f32	s15, s14, s13
 465              	.LVL23:
 466              	.LBE276:
 467              	.LBE291:
 468              	.LBE319:
 469              	.LBE422:
 470              	.LBB423:
 471              	.LBB398:
 472              	.LBB389:
 473              	.LBB386:
 474              	.LBB383:
 475              	.LBB380:
 476              	.LBB377:
 477              	.LBB374:
 478              		.loc 2 193 0
 479 00ee F0EE669A 		vmov.f32	s19, s13
 480              	.LBE374:
 481              	.LBE377:
 482              	.LBE380:
 483              	.LBE383:
 484              	.LBE386:
 485              	.LBE389:
 486              	.LBE398:
 487              	.LBE423:
 488              	.LBB424:
 489              	.LBB320:
 490              	.LBB292:
 491              	.LBB277:
 492              		.loc 5 141 0
 493 00f2 C7EE273A 		vdiv.f32	s7, s14, s15
 494              		.loc 5 142 0
 495 00f6 37EE667A 		vsub.f32	s14, s14, s13
 496              		.loc 5 141 0
 497 00fa C3ED063A 		vstr.32	s7, [r3, #24]
 498              		.loc 5 142 0
 499 00fe C7EE272A 		vdiv.f32	s5, s14, s15
 500              	.LBE277:
 501              	.LBE292:
 502              	.LBB293:
 503              	.LBB294:
 504              		.loc 4 615 0
 505 0102 C6EEA47A 		vdiv.f32	s15, s13, s9
 506 0106 D3ED0A4A 		vldr.32	s9, [r3, #40]
 507              	.LVL24:
 508              	.LBE294:
 509              	.LBE293:
 510              	.LBB306:
 511              	.LBB278:
 512              		.loc 5 141 0
 513 010a C3ED053A 		vstr.32	s7, [r3, #20]
ARM GAS  C:\msys64\tmp\ccIBuhGY.s 			page 10


 514              	.LBE278:
 515              	.LBE306:
 516              	.LBB307:
 517              	.LBB303:
 518              		.loc 4 615 0
 519 010e 67EEA57A 		vmul.f32	s15, s15, s11
 520              	.LVL25:
 521              	.LBE303:
 522              	.LBE307:
 523              	.LBB308:
 524              	.LBB279:
 525              		.loc 5 142 0
 526 0112 C3ED082A 		vstr.32	s5, [r3, #32]
 527              	.LBE279:
 528              	.LBE308:
 529              	.LBB309:
 530              	.LBB304:
 531              		.loc 4 615 0
 532 0116 67EE857A 		vmul.f32	s15, s15, s10
 533              	.LVL26:
 534 011a 93ED115A 		vldr.32	s10, [r3, #68]
 535              		.loc 4 616 0
 536 011e BCEEE77A 		vcvt.u32.f32	s14, s15
 537 0122 17EE104A 		vmov	r4, s14	@ int
 538              	.LVL27:
 539              	.LBB295:
 540              	.LBB296:
 541              		.loc 2 826 0
 542 0126 06EE104A 		vmov	s12, r4	@ int
 543 012a B8EE466A 		vcvt.f32.u32	s12, s12
 544              	.LBE296:
 545              	.LBE295:
 546              		.loc 4 617 0
 547 012e 00EB8406 		add	r6, r0, r4, lsl #2
 548              	.LBB300:
 549              	.LBB297:
 550              		.loc 2 826 0
 551 0132 77EEC67A 		vsub.f32	s15, s15, s12
 552              	.LVL28:
 553              	.LBE297:
 554              	.LBE300:
 555              		.loc 4 617 0
 556 0136 96ED007A 		vldr.32	s14, [r6]
 557              	.LVL29:
 558              	.LBB301:
 559              	.LBB298:
 560              		.loc 2 826 0
 561 013a 96ED016A 		vldr.32	s12, [r6, #4]
 562 013e 36EE476A 		vsub.f32	s12, s12, s14
 563 0142 A7EE867A 		vfma.f32	s14, s15, s12
 564              	.LVL30:
 565              	.LBE298:
 566              	.LBE301:
 567              	.LBE304:
 568              	.LBE309:
 569              	.LBE320:
 570              	.LBE424:
ARM GAS  C:\msys64\tmp\ccIBuhGY.s 			page 11


 571              		.loc 1 45 0
 572 0146 93ED006A 		vldr.32	s12, [r3]
 573              	.LBB425:
 574              	.LBB321:
 575              	.LBB310:
 576              	.LBB305:
 577              	.LBB302:
 578              	.LBB299:
 579              		.loc 2 826 0
 580 014a F0EE477A 		vmov.f32	s15, s14
 581              	.LVL31:
 582              	.LBE299:
 583              	.LBE302:
 584              	.LBE305:
 585              	.LBE310:
 586              	.LBB311:
 587              	.LBB285:
 588              		.loc 5 154 0
 589 014e 37EE267A 		vadd.f32	s14, s14, s13
 590              	.LVL32:
 591              		.loc 5 158 0
 592 0152 77EEE67A 		vsub.f32	s15, s15, s13
 593              		.loc 5 156 0
 594 0156 86EE873A 		vdiv.f32	s6, s13, s14
 595              		.loc 5 158 0
 596 015a C7EE871A 		vdiv.f32	s3, s15, s14
 597              		.loc 5 157 0
 598 015e B1EE432A 		vneg.f32	s4, s6
 599              		.loc 5 156 0
 600 0162 83ED0C3A 		vstr.32	s6, [r3, #48]
 601              		.loc 5 157 0
 602 0166 83ED0D2A 		vstr.32	s4, [r3, #52]
 603              		.loc 5 158 0
 604 016a C3ED0F1A 		vstr.32	s3, [r3, #60]
 605              	.LVL33:
 606              	.L14:
 607              	.LBE285:
 608              	.LBE311:
 609              	.LBE321:
 610              	.LBE425:
 611              	.LBB426:
 612              		.loc 1 54 0
 613 016e 9142     		cmp	r1, r2
 614 0170 72D0     		beq	.L7
 615              	.LVL34:
 616              	.LBB399:
 617              	.LBB390:
 618              	.LBB363:
 619              	.LBB349:
 620              		.loc 3 68 0
 621 0172 B4EEC46A 		vcmpe.f32	s12, s8
 622 0176 F1EE10FA 		vmrs	APSR_nzcv, FPSCR
 623              	.LVL35:
 624              	.LBB350:
 625              		.loc 3 75 0
 626 017a 5BBF     		ittet	pl
 627 017c 76EE447A 		vsubpl.f32	s15, s12, s8
ARM GAS  C:\msys64\tmp\ccIBuhGY.s 			page 12


 628 0180 36EEC4AA 		vsubpl.f32	s20, s13, s8
 629              	.LBE350:
 630              	.LBB351:
 631              		.loc 3 70 0
 632 0184 86EE047A 		vdivmi.f32	s14, s12, s8
 633              	.LVL36:
 634              	.LBE351:
 635              	.LBB352:
 636              		.loc 3 75 0
 637 0188 87EE8A7A 		vdivpl.f32	s14, s15, s20
 638 018c 58BF     		it	pl
 639 018e 37EE267A 		vaddpl.f32	s14, s14, s13
 640 0192 27EE017A 		vmul.f32	s14, s14, s2
 641              	.LVL37:
 642              	.LBE352:
 643              	.LBE349:
 644              	.LBB353:
 645              	.LBB346:
 646              		.loc 4 171 0
 647 0196 37EE087A 		vadd.f32	s14, s14, s16
 648              	.LVL38:
 649              	.LBB343:
 650              	.LBB341:
 651              		.loc 4 154 0
 652 019a FCEEC77A 		vcvt.u32.f32	s15, s14
 653 019e F8EE677A 		vcvt.f32.u32	s15, s15
 654 01a2 77EE677A 		vsub.f32	s15, s14, s15
 655 01a6 67EEA87A 		vmul.f32	s15, s15, s17
 656              	.LVL39:
 657              		.loc 4 155 0
 658 01aa BCEEE77A 		vcvt.u32.f32	s14, s15
 659              	.LVL40:
 660 01ae 17EE104A 		vmov	r4, s14	@ int
 661              	.LVL41:
 662              		.loc 4 157 0
 663 01b2 04F07F00 		and	r0, r4, #127
 664              	.LVL42:
 665              	.LBB330:
 666              	.LBB331:
 667              		.loc 2 826 0
 668 01b6 0AEE104A 		vmov	s20, r4	@ int
 669              	.LBE331:
 670              	.LBE330:
 671              		.loc 4 160 0
 672 01ba 05EB8006 		add	r6, r5, r0, lsl #2
 673 01be 0130     		adds	r0, r0, #1
 674              	.LVL43:
 675              	.LBB336:
 676              	.LBB332:
 677              		.loc 2 826 0
 678 01c0 B8EE4AAA 		vcvt.f32.u32	s20, s20
 679              	.LBE332:
 680              	.LBE336:
 681              		.loc 4 160 0
 682 01c4 00F07F00 		and	r0, r0, #127
 683              	.LVL44:
 684 01c8 05EB8000 		add	r0, r5, r0, lsl #2
ARM GAS  C:\msys64\tmp\ccIBuhGY.s 			page 13


 685              	.LVL45:
 686              	.LBB337:
 687              	.LBB333:
 688              		.loc 2 826 0
 689 01cc 77EECA7A 		vsub.f32	s15, s15, s20
 690              	.LVL46:
 691              	.LBE333:
 692              	.LBE337:
 693              		.loc 4 160 0
 694 01d0 96ED007A 		vldr.32	s14, [r6]
 695              	.LVL47:
 696              	.LBB338:
 697              	.LBB334:
 698              		.loc 2 826 0
 699 01d4 90ED00AA 		vldr.32	s20, [r0]
 700 01d8 3AEE47AA 		vsub.f32	s20, s20, s14
 701              	.LBE334:
 702              	.LBE338:
 703              		.loc 4 161 0
 704 01dc 7F2C     		cmp	r4, #127
 705              	.LBB339:
 706              	.LBB335:
 707              		.loc 2 826 0
 708 01de A7EE8A7A 		vfma.f32	s14, s15, s20
 709              	.LVL48:
 710 01e2 F0EE477A 		vmov.f32	s15, s14
 711              	.LVL49:
 712              	.LBE335:
 713              	.LBE339:
 714              		.loc 4 161 0
 715 01e6 88BF     		it	hi
 716 01e8 F1EE477A 		vneghi.f32	s15, s14
 717              	.LVL50:
 718              	.LBE341:
 719              	.LBE343:
 720              	.LBE346:
 721              	.LBE353:
 722              		.loc 3 78 0
 723 01ec F1EE677A 		vneg.f32	s15, s15
 724              	.LVL51:
 725              	.LBB354:
 726              	.LBB355:
 727              		.loc 5 385 0
 728 01f0 B0EE647A 		vmov.f32	s14, s9
 729 01f4 A3EEA77A 		vfma.f32	s14, s7, s15
 730              	.LVL52:
 731              		.loc 5 387 0
 732 01f8 67EE624A 		vnmul.f32	s9, s14, s5
 733 01fc E3EEA74A 		vfma.f32	s9, s7, s15
 734              	.LVL53:
 735              	.LBE355:
 736              	.LBE354:
 737              	.LBB356:
 738              	.LBB357:
 739              		.loc 5 385 0
 740 0200 F0EE457A 		vmov.f32	s15, s10
 741 0204 E3EE077A 		vfma.f32	s15, s6, s14
ARM GAS  C:\msys64\tmp\ccIBuhGY.s 			page 14


 742              	.LVL54:
 743              		.loc 5 387 0
 744 0208 27EEE15A 		vnmul.f32	s10, s15, s3
 745              	.LBE357:
 746              	.LBE356:
 747              	.LBE363:
 748              	.LBE390:
 749              	.LBB391:
 750              	.LBB387:
 751              	.LBB384:
 752              	.LBB381:
 753              	.LBB378:
 754              	.LBB375:
 755              		.loc 2 193 0
 756 020c F4EEC97A 		vcmpe.f32	s15, s18
 757 0210 F1EE10FA 		vmrs	APSR_nzcv, FPSCR
 758              	.LBE375:
 759              	.LBE378:
 760              	.LBE381:
 761              	.LBE384:
 762              	.LBE387:
 763              	.LBE391:
 764              	.LBB392:
 765              	.LBB364:
 766              	.LBB359:
 767              	.LBB358:
 768              		.loc 5 387 0
 769 0214 A2EE075A 		vfma.f32	s10, s4, s14
 770              	.LVL55:
 771              	.LBE358:
 772              	.LBE359:
 773              	.LBE364:
 774              	.LBE392:
 775              	.LBB393:
 776              	.LBB388:
 777              	.LBB385:
 778              	.LBB382:
 779              	.LBB379:
 780              	.LBB376:
 781              		.loc 2 193 0
 782 0218 07DB     		blt	.L27
 783              	.LVL56:
 784 021a F4EEE67A 		vcmpe.f32	s15, s13
 785 021e F1EE10FA 		vmrs	APSR_nzcv, FPSCR
 786 0222 A8BF     		it	ge
 787 0224 F0EE697A 		vmovge.f32	s15, s19
 788              	.LVL57:
 789 0228 01E0     		b	.L12
 790              	.LVL58:
 791              	.L27:
 792 022a FFEE007A 		vmov.f32	s15, #-1.0e+0
 793              	.LVL59:
 794              	.L12:
 795              	.LBE376:
 796              	.LBE379:
 797              	.LBE382:
 798              	.LBE385:
ARM GAS  C:\msys64\tmp\ccIBuhGY.s 			page 15


 799              	.LBE388:
 800              	.LBE393:
 801              		.loc 1 63 0
 802 022e 27EEA77A 		vmul.f32	s14, s15, s15
 803              		.loc 1 66 0
 804 0232 36EE256A 		vadd.f32	s12, s12, s11
 805              	.LVL60:
 806              		.loc 1 63 0
 807 0236 27EEC77A 		vnmul.f32	s14, s15, s14
 808 023a E7EE007A 		vfma.f32	s15, s14, s0
 809 023e 67EEA07A 		vmul.f32	s15, s15, s1
 810 0242 FDEEE77A 		vcvt.s32.f32	s15, s15
 811 0246 E1EC017A 		vstmia.32	r1!, {s15}	@ int
 812              	.LVL61:
 813              		.loc 1 67 0
 814 024a FCEEC67A 		vcvt.u32.f32	s15, s12
 815 024e F8EE677A 		vcvt.f32.u32	s15, s15
 816 0252 36EE676A 		vsub.f32	s12, s12, s15
 817              	.LVL62:
 818              	.LBE399:
 819              		.loc 1 54 0
 820 0256 8AE7     		b	.L14
 821              	.LVL63:
 822              	.L7:
 823              	.LBE426:
 824              		.loc 1 72 0
 825 0258 BDEC068B 		vldm	sp!, {d8-d10}
 826              		.cfi_restore 84
 827              		.cfi_restore 85
 828              		.cfi_restore 82
 829              		.cfi_restore 83
 830              		.cfi_restore 80
 831              		.cfi_restore 81
 832              		.cfi_def_cfa_offset 16
 833 025c C3ED0A4A 		vstr.32	s9, [r3, #40]
 834 0260 83ED115A 		vstr.32	s10, [r3, #68]
 835              		.loc 1 71 0
 836 0264 83ED006A 		vstr.32	s12, [r3]
 837              		.loc 1 72 0
 838 0268 70BD     		pop	{r4, r5, r6, pc}
 839              	.L30:
 840 026a 00BF     		.align	2
 841              	.L29:
 842 026c 00000000 		.word	.LANCHOR0
 843 0270 8180803B 		.word	998277249
 844 0274 BC9C0244 		.word	1141021884
 845 0278 CDCC4C3D 		.word	1028443341
 846 027c 0000004F 		.word	1325400064
 847 0280 00000000 		.word	midi_to_hz_lut_f
 848 0284 00000000 		.word	tanpi_lut_f
 849 0288 00000000 		.word	wt_sine_lut_f
 850 028c 49FFB846 		.word	1186529097
 851 0290 00008043 		.word	1132462080
 852 0294 3EC3AE37 		.word	934200126
 853              		.cfi_endproc
 854              	.LFE294:
 855              		.size	_hook_cycle, .-_hook_cycle
ARM GAS  C:\msys64\tmp\ccIBuhGY.s 			page 16


 856              		.align	1
 857              		.global	_hook_on
 858              		.thumb
 859              		.thumb_func
 860              		.type	_hook_on, %function
 861              	_hook_on:
 862              	.LFB295:
 863              		.loc 1 74 0
 864              		.cfi_startproc
 865              		@ args = 0, pretend = 0, frame = 0
 866              		@ frame_needed = 0, uses_anonymous_args = 0
 867              		@ link register save eliminated.
 868              	.LVL64:
 869              		.loc 1 77 0
 870 0298 024A     		ldr	r2, .L32
 871 029a 137A     		ldrb	r3, [r2, #8]	@ zero_extendqisi2
 872 029c 43F00103 		orr	r3, r3, #1
 873 02a0 1372     		strb	r3, [r2, #8]
 874 02a2 7047     		bx	lr
 875              	.L33:
 876              		.align	2
 877              	.L32:
 878 02a4 00000000 		.word	.LANCHOR0
 879              		.cfi_endproc
 880              	.LFE295:
 881              		.size	_hook_on, .-_hook_on
 882              		.align	1
 883              		.global	_hook_off
 884              		.thumb
 885              		.thumb_func
 886              		.type	_hook_off, %function
 887              	_hook_off:
 888              	.LFB296:
 889              		.loc 1 81 0
 890              		.cfi_startproc
 891              		@ args = 0, pretend = 0, frame = 0
 892              		@ frame_needed = 0, uses_anonymous_args = 0
 893              		@ link register save eliminated.
 894              	.LVL65:
 895 02a8 7047     		bx	lr
 896              		.cfi_endproc
 897              	.LFE296:
 898              		.size	_hook_off, .-_hook_off
 899              		.align	1
 900              		.global	_hook_param
 901              		.thumb
 902              		.thumb_func
 903              		.type	_hook_param, %function
 904              	_hook_param:
 905              	.LFB297:
 906              		.loc 1 86 0
 907              		.cfi_startproc
 908              		@ args = 0, pretend = 0, frame = 0
 909              		@ frame_needed = 0, uses_anonymous_args = 0
 910              		@ link register save eliminated.
 911              	.LVL66:
 912              		.loc 1 86 0
ARM GAS  C:\msys64\tmp\ccIBuhGY.s 			page 17


 913 02aa 07EE901A 		vmov	s15, r1	@ int
 914              		.loc 1 91 0
 915 02ae 10B1     		cbz	r0, .L37
 916 02b0 0128     		cmp	r0, #1
 917 02b2 1BD0     		beq	.L38
 918 02b4 7047     		bx	lr
 919              	.L37:
 920              		.loc 1 95 0
 921 02b6 F8EEE77A 		vcvt.f32.s32	s15, s15
 922 02ba 9FED117A 		vldr.32	s14, .L45
 923 02be 67EE877A 		vmul.f32	s15, s15, s14
 924              	.LVL67:
 925              	.LBB427:
 926              	.LBB428:
 927              	.LBB429:
 928              	.LBB430:
 929              		.loc 2 193 0
 930 02c2 F5EEC07A 		vcmpe.f32	s15, #0
 931 02c6 F1EE10FA 		vmrs	APSR_nzcv, FPSCR
 932 02ca 09DB     		blt	.L44
 933              	.LVL68:
 934              	.LBE430:
 935              	.LBE429:
 936              	.LBB432:
 937              	.LBB433:
 938 02cc B7EE007A 		vmov.f32	s14, #1.0e+0
 939              	.LBE433:
 940              	.LBE432:
 941              	.LBB434:
 942              	.LBB431:
 943 02d0 F4EEC77A 		vcmpe.f32	s15, s14
 944 02d4 F1EE10FA 		vmrs	APSR_nzcv, FPSCR
 945 02d8 A8BF     		it	ge
 946 02da F0EE477A 		vmovge.f32	s15, s14
 947              	.LVL69:
 948 02de 01E0     		b	.L39
 949              	.LVL70:
 950              	.L44:
 951 02e0 DFED087A 		vldr.32	s15, .L45+4
 952              	.LVL71:
 953              	.L39:
 954              	.LBE431:
 955              	.LBE434:
 956              	.LBE428:
 957              	.LBE427:
 958              		.loc 1 95 0
 959 02e4 084B     		ldr	r3, .L45+8
 960 02e6 C3ED037A 		vstr.32	s15, [r3, #12]
 961              		.loc 1 96 0
 962 02ea 7047     		bx	lr
 963              	.L38:
 964              		.loc 1 100 0
 965 02ec F8EEE77A 		vcvt.f32.s32	s15, s15
 966 02f0 B7EE007A 		vmov.f32	s14, #1.0e+0
 967 02f4 77EE877A 		vadd.f32	s15, s15, s14
 968 02f8 034B     		ldr	r3, .L45+8
 969 02fa C3ED047A 		vstr.32	s15, [r3, #16]
ARM GAS  C:\msys64\tmp\ccIBuhGY.s 			page 18


 970 02fe 7047     		bx	lr
 971              	.L46:
 972              		.align	2
 973              	.L45:
 974 0300 0AD7233C 		.word	1008981770
 975 0304 00000000 		.word	0
 976 0308 00000000 		.word	.LANCHOR0
 977              		.cfi_endproc
 978              	.LFE297:
 979              		.size	_hook_param, .-_hook_param
 980              		.section	.text.startup,"ax",%progbits
 981              		.align	1
 982              		.thumb
 983              		.thumb_func
 984              		.type	_GLOBAL__sub_I__hook_init, %function
 985              	_GLOBAL__sub_I__hook_init:
 986              	.LFB299:
 987              		.loc 1 123 0
 988              		.cfi_startproc
 989              		@ args = 0, pretend = 0, frame = 0
 990              		@ frame_needed = 0, uses_anonymous_args = 0
 991              		@ link register save eliminated.
 992              	.LVL72:
 993              	.LBB458:
 994              	.LBB459:
 995              	.LBB460:
 996              	.LBB461:
 997              	.LBB462:
 998              		.loc 3 43 0
 999 0000 0E4B     		ldr	r3, .L48
 1000 0002 197A     		ldrb	r1, [r3, #8]	@ zero_extendqisi2
 1001 0004 6FF30001 		bfc	r1, #0, #1
 1002 0008 1972     		strb	r1, [r3, #8]
 1003              	.LVL73:
 1004              	.LBE462:
 1005              	.LBE461:
 1006              	.LBB465:
 1007              	.LBB466:
 1008              		.loc 3 31 0
 1009 000a 4FF07C51 		mov	r1, #1056964608
 1010              	.LBE466:
 1011              	.LBE465:
 1012              	.LBB469:
 1013              	.LBB463:
 1014              		.loc 3 43 0
 1015 000e 0022     		movs	r2, #0
 1016              	.LBE463:
 1017              	.LBE469:
 1018              	.LBB470:
 1019              	.LBB467:
 1020              		.loc 3 31 0
 1021 0010 D960     		str	r1, [r3, #12]	@ float
 1022 0012 4FF07E51 		mov	r1, #1065353216
 1023              	.LBE467:
 1024              	.LBE470:
 1025              	.LBB471:
 1026              	.LBB464:
ARM GAS  C:\msys64\tmp\ccIBuhGY.s 			page 19


 1027              		.loc 3 43 0
 1028 0016 1A60     		str	r2, [r3]	@ float
 1029 0018 5A60     		str	r2, [r3, #4]	@ float
 1030              	.LBE464:
 1031              	.LBE471:
 1032              	.LBB472:
 1033              	.LBB468:
 1034              		.loc 3 31 0
 1035 001a 1961     		str	r1, [r3, #16]	@ float
 1036              	.LVL74:
 1037              	.LBE468:
 1038              	.LBE472:
 1039              	.LBB473:
 1040              	.LBB474:
 1041              	.LBB475:
 1042              	.LBB476:
 1043              		.loc 5 77 0
 1044 001c 5A61     		str	r2, [r3, #20]	@ float
 1045 001e 9A61     		str	r2, [r3, #24]	@ float
 1046 0020 DA61     		str	r2, [r3, #28]	@ float
 1047 0022 1A62     		str	r2, [r3, #32]	@ float
 1048 0024 5A62     		str	r2, [r3, #36]	@ float
 1049              	.LVL75:
 1050              	.LBE476:
 1051              	.LBE475:
 1052              		.loc 5 344 0
 1053 0026 9A62     		str	r2, [r3, #40]	@ float
 1054 0028 DA62     		str	r2, [r3, #44]	@ float
 1055              	.LVL76:
 1056              	.LBE474:
 1057              	.LBE473:
 1058              	.LBB477:
 1059              	.LBB478:
 1060              	.LBB479:
 1061              	.LBB480:
 1062              		.loc 5 77 0
 1063 002a 1A63     		str	r2, [r3, #48]	@ float
 1064 002c 5A63     		str	r2, [r3, #52]	@ float
 1065 002e 9A63     		str	r2, [r3, #56]	@ float
 1066 0030 DA63     		str	r2, [r3, #60]	@ float
 1067 0032 1A64     		str	r2, [r3, #64]	@ float
 1068              	.LVL77:
 1069              	.LBE480:
 1070              	.LBE479:
 1071              		.loc 5 344 0
 1072 0034 5A64     		str	r2, [r3, #68]	@ float
 1073 0036 9A64     		str	r2, [r3, #72]	@ float
 1074              	.LVL78:
 1075 0038 7047     		bx	lr
 1076              	.L49:
 1077 003a 00BF     		.align	2
 1078              	.L48:
 1079 003c 00000000 		.word	.LANCHOR0
 1080              	.LBE478:
 1081              	.LBE477:
 1082              	.LBE460:
 1083              	.LBE459:
ARM GAS  C:\msys64\tmp\ccIBuhGY.s 			page 20


 1084              	.LBE458:
 1085              		.cfi_endproc
 1086              	.LFE299:
 1087              		.size	_GLOBAL__sub_I__hook_init, .-_GLOBAL__sub_I__hook_init
 1088              		.section	.init_array,"aw",%init_array
 1089              		.align	2
 1090 0000 00000000 		.word	_GLOBAL__sub_I__hook_init(target1)
 1091              		.bss
 1092              		.align	2
 1093              		.set	.LANCHOR0,. + 0
 1094              		.type	_ZL2pd, %object
 1095              		.size	_ZL2pd, 76
 1096              	_ZL2pd:
 1097 0000 00000000 		.space	76
 1097      00000000 
 1097      00000000 
 1097      00000000 
 1097      00000000 
 1098              		.text
 1099              	.Letext0:
 1100              		.file 6 "c:\\msys64\\home\\logue-sdk\\tools\\gcc\\gcc-arm-none-eabi-5_4-2016q3\\arm-none-eabi\\inc
 1101              		.file 7 "c:\\msys64\\home\\logue-sdk\\tools\\gcc\\gcc-arm-none-eabi-5_4-2016q3\\arm-none-eabi\\inc
 1102              		.file 8 "c:\\msys64\\home\\logue-sdk\\platform\\ext\\cmsis\\cmsis\\include\\arm_math.h"
 1103              		.file 9 "C:/msys64/home/logue-sdk/platform/nutekt-digital/inc/userosc.h"
 1104              		.file 10 "C:/msys64/home/logue-sdk/platform/nutekt-digital/inc/userprg.h"
 1105              		.file 11 "C:/msys64/home/logue-sdk/platform/nutekt-digital/inc/utils/int_math.h"