ARM GAS  C:\msys64\tmp\cco5sYXD.s 			page 1


   1              		.syntax unified
   2              		.cpu cortex-m4
   3              		.eabi_attribute 27, 1
   4              		.eabi_attribute 28, 1
   5              		.fpu fpv4-sp-d16
   6              		.eabi_attribute 20, 1
   7              		.eabi_attribute 21, 1
   8              		.eabi_attribute 23, 3
   9              		.eabi_attribute 24, 1
  10              		.eabi_attribute 25, 1
  11              		.eabi_attribute 26, 1
  12              		.eabi_attribute 30, 4
  13              		.eabi_attribute 34, 1
  14              		.eabi_attribute 18, 4
  15              		.thumb
  16              		.syntax unified
  17              		.file	"vps_basic.cpp"
  18              		.text
  19              	.Ltext0:
  20              		.cfi_sections	.debug_frame
  21              		.align	1
  22              		.global	_hook_init
  23              		.thumb
  24              		.thumb_func
  25              		.type	_hook_init, %function
  26              	_hook_init:
  27              	.LFB293:
  28              		.file 1 "vps_basic.cpp"
  29              		.loc 1 14 0
  30              		.cfi_startproc
  31              		@ args = 0, pretend = 0, frame = 0
  32              		@ frame_needed = 0, uses_anonymous_args = 0
  33              		@ link register save eliminated.
  34              	.LVL0:
  35 0000 7047     		bx	lr
  36              		.cfi_endproc
  37              	.LFE293:
  38              		.size	_hook_init, .-_hook_init
  39              		.align	1
  40              		.global	_hook_cycle
  41              		.thumb
  42              		.thumb_func
  43              		.type	_hook_cycle, %function
  44              	_hook_cycle:
  45              	.LFB294:
  46              		.loc 1 19 0
  47              		.cfi_startproc
  48              		@ args = 0, pretend = 0, frame = 0
  49              		@ frame_needed = 0, uses_anonymous_args = 0
  50              	.LVL1:
  51              		.loc 1 25 0
  52 0002 8088     		ldrh	r0, [r0, #4]
  53              	.LVL2:
  54              	.LBB220:
  55              	.LBB221:
  56              	.LBB222:
  57              	.LBB223:
ARM GAS  C:\msys64\tmp\cco5sYXD.s 			page 2


  58              		.file 2 "C:/msys64/home/logue-sdk/platform/nutekt-digital/inc/utils/float_math.h"
  59              		.loc 2 826 0
  60 0004 DFED9B6A 		vldr.32	s13, .L29
  61              	.LBE223:
  62              	.LBE222:
  63              	.LBB228:
  64              	.LBB229:
  65              	.LBB230:
  66              	.LBB231:
  67              		.loc 2 193 0
  68 0008 9FED9B6A 		vldr.32	s12, .L29+4
  69              	.LBE231:
  70              	.LBE230:
  71              	.LBE229:
  72              	.LBE228:
  73              	.LBE221:
  74              	.LBE220:
  75              	.LBB261:
  76              	.LBB262:
  77              		.loc 1 63 0
  78 000c 9FED9B0A 		vldr.32	s0, .L29+8
  79              	.LBE262:
  80              	.LBE261:
  81              		.loc 1 25 0
  82 0010 0312     		asrs	r3, r0, #8
  83              	.LVL3:
  84              	.LBB331:
  85              	.LBB254:
  86              	.LBB235:
  87              	.LBB236:
  88              		.file 3 "C:/msys64/home/logue-sdk/platform/nutekt-digital/inc/osc_api.h"
  89              		.loc 3 109 0
  90 0012 962B     		cmp	r3, #150
  91              	.LBE236:
  92              	.LBE235:
  93              	.LBE254:
  94              	.LBE331:
  95              		.loc 1 19 0
  96 0014 70B5     		push	{r4, r5, r6, lr}
  97              		.cfi_def_cfa_offset 16
  98              		.cfi_offset 4, -16
  99              		.cfi_offset 5, -12
 100              		.cfi_offset 6, -8
 101              		.cfi_offset 14, -4
 102              		.loc 1 28 0
 103 0016 C0B2     		uxtb	r0, r0
 104              	.LBB332:
 105              	.LBB255:
 106              	.LBB241:
 107              	.LBB237:
 108              		.loc 3 109 0
 109 0018 D8BF     		it	le
 110 001a 1C46     		movle	r4, r3
 111              	.LBE237:
 112              	.LBE241:
 113              		.loc 3 120 0
 114 001c 03F10103 		add	r3, r3, #1
ARM GAS  C:\msys64\tmp\cco5sYXD.s 			page 3


 115              	.LVL4:
 116 0020 DBB2     		uxtb	r3, r3
 117              	.LVL5:
 118              	.LBE255:
 119              	.LBE332:
 120              		.loc 1 28 0
 121 0022 07EE900A 		vmov	s15, r0	@ int
 122              	.LVL6:
 123              	.LBB333:
 124              	.LBB256:
 125              	.LBB242:
 126              	.LBB238:
 127              		.loc 3 109 0
 128 0026 C8BF     		it	gt
 129 0028 9724     		movgt	r4, #151
 130              	.LVL7:
 131 002a 9548     		ldr	r0, .L29+12
 132              	.LVL8:
 133              	.LBE238:
 134              	.LBE242:
 135              	.LBB243:
 136              	.LBB244:
 137 002c 962B     		cmp	r3, #150
 138 002e 88BF     		it	hi
 139 0030 9723     		movhi	r3, #151
 140              	.LBE244:
 141              	.LBE243:
 142              	.LBB246:
 143              	.LBB224:
 144              		.loc 2 826 0
 145 0032 F8EEE77A 		vcvt.f32.s32	s15, s15
 146              	.LVL9:
 147              	.LBE224:
 148              	.LBE246:
 149              	.LBB247:
 150              	.LBB239:
 151              		.loc 3 109 0
 152 0036 00EB8404 		add	r4, r0, r4, lsl #2
 153              	.LBE239:
 154              	.LBE247:
 155              	.LBB248:
 156              	.LBB245:
 157 003a 00EB8303 		add	r3, r0, r3, lsl #2
 158              	.LBE245:
 159              	.LBE248:
 160              	.LBB249:
 161              	.LBB240:
 162 003e 94ED007A 		vldr.32	s14, [r4]
 163              	.LVL10:
 164              	.LBE240:
 165              	.LBE249:
 166              	.LBB250:
 167              	.LBB225:
 168              		.loc 2 826 0
 169 0042 67EEA67A 		vmul.f32	s15, s15, s13
 170 0046 D3ED006A 		vldr.32	s13, [r3]
 171              	.LBE225:
ARM GAS  C:\msys64\tmp\cco5sYXD.s 			page 4


 172              	.LBE250:
 173              	.LBE256:
 174              	.LBE333:
 175              		.loc 1 28 0
 176 004a 8E4B     		ldr	r3, .L29+16
 177              	.LBB334:
 178              	.LBB257:
 179              	.LBB251:
 180              	.LBB226:
 181              		.loc 2 826 0
 182 004c 76EEC76A 		vsub.f32	s13, s13, s14
 183              	.LBE226:
 184              	.LBE251:
 185              	.LBE257:
 186              	.LBE334:
 187              		.loc 1 31 0
 188 0050 187A     		ldrb	r0, [r3, #8]	@ zero_extendqisi2
 189              	.LBB335:
 190              	.LBB325:
 191              	.LBB263:
 192              	.LBB264:
 193              		.file 4 "vps_basic.hpp"
 194              		.loc 4 63 0
 195 0052 93ED034A 		vldr.32	s8, [r3, #12]
 196              		.loc 4 64 0
 197 0056 D3ED041A 		vldr.32	s3, [r3, #16]
 198 005a D3ED0A4A 		vldr.32	s9, [r3, #40]
 199 005e 93ED115A 		vldr.32	s10, [r3, #68]
 200              	.LBE264:
 201              	.LBE263:
 202              	.LBE325:
 203              	.LBE335:
 204              	.LBB336:
 205              	.LBB258:
 206              	.LBB252:
 207              	.LBB227:
 208              		.loc 2 826 0
 209 0062 A7EEA67A 		vfma.f32	s14, s15, s13
 210              	.LVL11:
 211              	.LBE227:
 212              	.LBE252:
 213              	.LBE258:
 214              	.LBE336:
 215              		.loc 1 34 0
 216 0066 0446     		mov	r4, r0
 217 0068 6FF30004 		bfc	r4, #0, #1
 218              	.LBB337:
 219              	.LBB259:
 220              		.loc 3 124 0
 221 006c DFED867A 		vldr.32	s15, .L29+20
 222              	.LBE259:
 223              	.LBE337:
 224              	.LBB338:
 225              	.LBB339:
 226              	.LBB340:
 227              	.LBB341:
 228              		.loc 3 615 0
ARM GAS  C:\msys64\tmp\cco5sYXD.s 			page 5


 229 0070 DFED866A 		vldr.32	s13, .L29+24
 230              	.LBE341:
 231              	.LBE340:
 232              	.LBE339:
 233              	.LBE338:
 234              	.LBB408:
 235              	.LBB260:
 236              	.LBB253:
 237              	.LBB234:
 238              	.LBB233:
 239              	.LBB232:
 240              		.loc 2 193 0
 241 0074 B4EEC67A 		vcmpe.f32	s14, s12
 242 0078 F1EE10FA 		vmrs	APSR_nzcv, FPSCR
 243 007c B8BF     		it	lt
 244 007e B0EE476A 		vmovlt.f32	s12, s14
 245              	.LVL12:
 246              	.LBE232:
 247              	.LBE233:
 248              	.LBE234:
 249              	.LBE253:
 250              		.loc 3 124 0
 251 0082 26EE276A 		vmul.f32	s12, s12, s15
 252              	.LVL13:
 253              	.LBE260:
 254              	.LBE408:
 255              	.LBB409:
 256              	.LBB398:
 257              	.LBB352:
 258              	.LBB348:
 259              		.loc 3 615 0
 260 0086 B1EE007A 		vmov.f32	s14, #4.0e+0
 261 008a 26EE077A 		vmul.f32	s14, s12, s14
 262              	.LBE348:
 263              	.LBE352:
 264              	.LBE398:
 265              	.LBE409:
 266              		.loc 1 37 0
 267 008e 10F0010F 		tst	r0, #1
 268              	.LBB410:
 269              	.LBB399:
 270              	.LBB353:
 271              	.LBB349:
 272              		.loc 3 615 0
 273 0092 27EE267A 		vmul.f32	s14, s14, s13
 274              		.loc 3 617 0
 275 0096 7E48     		ldr	r0, .L29+28
 276              		.loc 3 616 0
 277 0098 FCEEC77A 		vcvt.u32.f32	s15, s14
 278              	.LBE349:
 279              	.LBE353:
 280              	.LBB354:
 281              	.LBB355:
 282              		.loc 3 615 0
 283 009c B5EE003A 		vmov.f32	s6, #2.5e-1
 284              	.LBE355:
 285              	.LBE354:
ARM GAS  C:\msys64\tmp\cco5sYXD.s 			page 6


 286              	.LBB372:
 287              	.LBB350:
 288              		.loc 3 616 0
 289 00a0 17EE905A 		vmov	r5, s15	@ int
 290              	.LBB342:
 291              	.LBB343:
 292              		.loc 2 826 0
 293 00a4 05EE905A 		vmov	s11, r5	@ int
 294 00a8 F8EE655A 		vcvt.f32.u32	s11, s11
 295              	.LBE343:
 296              	.LBE342:
 297              		.loc 3 617 0
 298 00ac 00EB8506 		add	r6, r0, r5, lsl #2
 299 00b0 D6ED007A 		vldr.32	s15, [r6]
 300              	.LBB346:
 301              	.LBB344:
 302              		.loc 2 826 0
 303 00b4 37EE657A 		vsub.f32	s14, s14, s11
 304 00b8 D6ED015A 		vldr.32	s11, [r6, #4]
 305 00bc 75EEE75A 		vsub.f32	s11, s11, s15
 306              	.LBE344:
 307              	.LBE346:
 308              	.LBE350:
 309              	.LBE372:
 310              	.LBE399:
 311              	.LBE410:
 312              		.loc 1 19 0
 313 00c0 2DED068B 		vpush.64	{d8, d9, d10}
 314              		.cfi_def_cfa_offset 40
 315              		.cfi_offset 80, -40
 316              		.cfi_offset 81, -36
 317              		.cfi_offset 82, -32
 318              		.cfi_offset 83, -28
 319              		.cfi_offset 84, -24
 320              		.cfi_offset 85, -20
 321              	.LBB411:
 322              	.LBB400:
 323              	.LBB373:
 324              	.LBB351:
 325              	.LBB347:
 326              	.LBB345:
 327              		.loc 2 826 0
 328 00c4 E7EE257A 		vfma.f32	s15, s14, s11
 329              	.LBE345:
 330              	.LBE347:
 331              	.LBE351:
 332              	.LBE373:
 333              	.LBE400:
 334              	.LBE411:
 335              		.loc 1 34 0
 336 00c8 1C72     		strb	r4, [r3, #8]
 337 00ca 4FF00004 		mov	r4, #0
 338              	.LBB412:
 339              	.LBB401:
 340              	.LBB374:
 341              	.LBB375:
 342              		.file 5 "c:\\msys64\\home\\logue-sdk\\platform\\nutekt-digital\\inc\\dsp\\biquad.hpp"
ARM GAS  C:\msys64\tmp\cco5sYXD.s 			page 7


 343              		.loc 5 139 0
 344 00ce B7EE007A 		vmov.f32	s14, #1.0e+0
 345 00d2 77EE875A 		vadd.f32	s11, s15, s14
 346              	.LBE375:
 347              	.LBE374:
 348              	.LBE401:
 349              	.LBE412:
 350              	.LBB413:
 351              	.LBB414:
 352              		.loc 4 47 0
 353 00d6 18BF     		it	ne
 354 00d8 1C60     		strne	r4, [r3]	@ float
 355              	.LBE414:
 356              	.LBE413:
 357              	.LBB415:
 358              	.LBB402:
 359              	.LBB382:
 360              	.LBB376:
 361              		.loc 5 141 0
 362 00da C7EEA53A 		vdiv.f32	s7, s15, s11
 363              		.loc 5 143 0
 364 00de DC61     		str	r4, [r3, #28]	@ float
 365 00e0 5C62     		str	r4, [r3, #36]	@ float
 366              	.LBE376:
 367              	.LBE382:
 368              	.LBB383:
 369              	.LBB384:
 370              		.loc 5 159 0
 371 00e2 9C63     		str	r4, [r3, #56]	@ float
 372 00e4 1C64     		str	r4, [r3, #64]	@ float
 373              	.LBE384:
 374              	.LBE383:
 375              	.LBE402:
 376              	.LBE415:
 377              		.loc 1 51 0
 378 00e6 01EB8202 		add	r2, r1, r2, lsl #2
 379              	.LVL14:
 380              	.LBB416:
 381              	.LBB403:
 382              	.LBB386:
 383              	.LBB377:
 384              		.loc 5 142 0
 385 00ea 77EEC77A 		vsub.f32	s15, s15, s14
 386              	.LBE377:
 387              	.LBE386:
 388              	.LBE403:
 389              	.LBE416:
 390              	.LBB417:
 391              	.LBB326:
 392              	.LBB297:
 393              	.LBB293:
 394              	.LBB265:
 395              	.LBB266:
 396              	.LBB267:
 397              	.LBB268:
 398              		.loc 3 154 0
 399 00ee DFED698A 		vldr.32	s17, .L29+32
ARM GAS  C:\msys64\tmp\cco5sYXD.s 			page 8


 400              	.LBE268:
 401              	.LBE267:
 402              	.LBE266:
 403              	.LBE265:
 404              	.LBE293:
 405              	.LBE297:
 406              		.loc 1 63 0
 407 00f2 9FED698A 		vldr.32	s16, .L29+36
 408              	.LBE326:
 409              	.LBE417:
 410              		.loc 1 28 0
 411 00f6 83ED016A 		vstr.32	s12, [r3, #4]
 412              	.LVL15:
 413              	.LBB418:
 414              	.LBB404:
 415              	.LBB387:
 416              	.LBB378:
 417              		.loc 5 142 0
 418 00fa C7EEA52A 		vdiv.f32	s5, s15, s11
 419              	.LBE378:
 420              	.LBE387:
 421              	.LBB388:
 422              	.LBB366:
 423              		.loc 3 615 0
 424 00fe 66EE037A 		vmul.f32	s15, s12, s6
 425              	.LVL16:
 426              	.LBE366:
 427              	.LBE388:
 428              	.LBB389:
 429              	.LBB379:
 430              		.loc 5 141 0
 431 0102 C3ED063A 		vstr.32	s7, [r3, #24]
 432              	.LBE379:
 433              	.LBE389:
 434              	.LBB390:
 435              	.LBB367:
 436              		.loc 3 615 0
 437 0106 67EEA66A 		vmul.f32	s13, s15, s13
 438              	.LVL17:
 439              	.LBE367:
 440              	.LBE390:
 441              	.LBB391:
 442              	.LBB380:
 443              		.loc 5 141 0
 444 010a C3ED053A 		vstr.32	s7, [r3, #20]
 445              	.LBE380:
 446              	.LBE391:
 447              	.LBB392:
 448              	.LBB368:
 449              		.loc 3 616 0
 450 010e FCEEE67A 		vcvt.u32.f32	s15, s13
 451              	.LVL18:
 452              	.LBE368:
 453              	.LBE392:
 454              	.LBB393:
 455              	.LBB381:
 456              		.loc 5 142 0
ARM GAS  C:\msys64\tmp\cco5sYXD.s 			page 9


 457 0112 C3ED082A 		vstr.32	s5, [r3, #32]
 458              	.LBE381:
 459              	.LBE393:
 460              	.LBB394:
 461              	.LBB369:
 462              		.loc 3 616 0
 463 0116 17EE905A 		vmov	r5, s15	@ int
 464              	.LVL19:
 465              	.LBB356:
 466              	.LBB357:
 467              		.loc 2 826 0
 468 011a 05EE905A 		vmov	s11, r5	@ int
 469 011e F8EE655A 		vcvt.f32.u32	s11, s11
 470              	.LBE357:
 471              	.LBE356:
 472              		.loc 3 617 0
 473 0122 00EB8506 		add	r6, r0, r5, lsl #2
 474              	.LBB362:
 475              	.LBB358:
 476              		.loc 2 826 0
 477 0126 76EEE56A 		vsub.f32	s13, s13, s11
 478              	.LVL20:
 479              	.LBE358:
 480              	.LBE362:
 481              		.loc 3 617 0
 482 012a D6ED007A 		vldr.32	s15, [r6]
 483              	.LVL21:
 484              	.LBB363:
 485              	.LBB359:
 486              		.loc 2 826 0
 487 012e D6ED015A 		vldr.32	s11, [r6, #4]
 488              	.LBE359:
 489              	.LBE363:
 490              	.LBE369:
 491              	.LBE394:
 492              	.LBE404:
 493              	.LBE418:
 494              	.LBB419:
 495              	.LBB327:
 496              	.LBB298:
 497              	.LBB294:
 498              	.LBB285:
 499              	.LBB283:
 500              	.LBB281:
 501              	.LBB279:
 502              		.loc 3 160 0
 503 0132 5A4D     		ldr	r5, .L29+40
 504              	.LVL22:
 505              	.LBE279:
 506              	.LBE281:
 507              	.LBE283:
 508              	.LBE285:
 509              	.LBE294:
 510              	.LBE298:
 511              	.LBE327:
 512              	.LBE419:
 513              	.LBB420:
ARM GAS  C:\msys64\tmp\cco5sYXD.s 			page 10


 514              	.LBB405:
 515              	.LBB395:
 516              	.LBB370:
 517              	.LBB364:
 518              	.LBB360:
 519              		.loc 2 826 0
 520 0134 75EEE75A 		vsub.f32	s11, s11, s15
 521              	.LBE360:
 522              	.LBE364:
 523              	.LBE370:
 524              	.LBE395:
 525              	.LBE405:
 526              	.LBE420:
 527              	.LBB421:
 528              	.LBB328:
 529              	.LBB299:
 530              	.LBB300:
 531              	.LBB301:
 532              	.LBB302:
 533              	.LBB303:
 534              	.LBB304:
 535              		.loc 2 193 0
 536 0138 BFEE009A 		vmov.f32	s18, #-1.0e+0
 537              	.LBE304:
 538              	.LBE303:
 539              	.LBE302:
 540              	.LBE301:
 541              	.LBE300:
 542              	.LBE299:
 543              	.LBE328:
 544              	.LBE421:
 545              	.LBB422:
 546              	.LBB406:
 547              	.LBB396:
 548              	.LBB371:
 549              	.LBB365:
 550              	.LBB361:
 551              		.loc 2 826 0
 552 013c E6EEA57A 		vfma.f32	s15, s13, s11
 553              	.LVL23:
 554              	.LBE361:
 555              	.LBE365:
 556              	.LBE371:
 557              	.LBE396:
 558              	.LBE406:
 559              	.LBE422:
 560              		.loc 1 45 0
 561 0140 D3ED005A 		vldr.32	s11, [r3]
 562              	.LBB423:
 563              	.LBB407:
 564              	.LBB397:
 565              	.LBB385:
 566              		.loc 5 154 0
 567 0144 77EE876A 		vadd.f32	s13, s15, s14
 568              	.LVL24:
 569              		.loc 5 158 0
 570 0148 77EEC77A 		vsub.f32	s15, s15, s14
ARM GAS  C:\msys64\tmp\cco5sYXD.s 			page 11


 571              		.loc 5 156 0
 572 014c 87EE262A 		vdiv.f32	s4, s14, s13
 573              		.loc 5 158 0
 574 0150 C7EEA60A 		vdiv.f32	s1, s15, s13
 575              		.loc 5 157 0
 576 0154 B1EE421A 		vneg.f32	s2, s4
 577              		.loc 5 156 0
 578 0158 83ED0C2A 		vstr.32	s4, [r3, #48]
 579              		.loc 5 157 0
 580 015c 83ED0D1A 		vstr.32	s2, [r3, #52]
 581              		.loc 5 158 0
 582 0160 C3ED0F0A 		vstr.32	s1, [r3, #60]
 583 0164 F0EE476A 		vmov.f32	s13, s14
 584              	.LBE385:
 585              	.LBE397:
 586              	.LBE407:
 587              	.LBE423:
 588              	.LBB424:
 589              	.LBB329:
 590              	.LBB320:
 591              	.LBB317:
 592              	.LBB314:
 593              	.LBB311:
 594              	.LBB308:
 595              	.LBB305:
 596              		.loc 2 193 0
 597 0168 F0EE479A 		vmov.f32	s19, s14
 598              	.LVL25:
 599              	.L14:
 600              	.LBE305:
 601              	.LBE308:
 602              	.LBE311:
 603              	.LBE314:
 604              	.LBE317:
 605              	.LBE320:
 606              	.LBE329:
 607              		.loc 1 54 0
 608 016c 9142     		cmp	r1, r2
 609 016e 78D0     		beq	.L7
 610              	.LVL26:
 611              	.LBB330:
 612              	.LBB321:
 613              	.LBB295:
 614              		.loc 4 67 0
 615 0170 F4EEC45A 		vcmpe.f32	s11, s8
 616 0174 F1EE10FA 		vmrs	APSR_nzcv, FPSCR
 617 0178 04D5     		bpl	.L26
 618              		.loc 4 68 0
 619 017a 85EE847A 		vdiv.f32	s14, s11, s8
 620              	.LVL27:
 621              		.loc 4 69 0
 622 017e 21EE877A 		vmul.f32	s14, s3, s14
 623              	.LVL28:
 624 0182 0DE0     		b	.L10
 625              	.LVL29:
 626              	.L26:
 627              		.loc 4 71 0
ARM GAS  C:\msys64\tmp\cco5sYXD.s 			page 12


 628 0184 75EEC47A 		vsub.f32	s15, s11, s8
 629              		.loc 4 72 0
 630 0188 36EEC4AA 		vsub.f32	s20, s13, s8
 631 018c 87EE8A7A 		vdiv.f32	s14, s15, s20
 632              	.LVL30:
 633              		.loc 4 74 0
 634 0190 76EEE17A 		vsub.f32	s15, s13, s3
 635 0194 B0EE61AA 		vmov.f32	s20, s3
 636 0198 A7EE27AA 		vfma.f32	s20, s14, s15
 637 019c B0EE4A7A 		vmov.f32	s14, s20
 638              	.LVL31:
 639              	.L10:
 640              	.LBB286:
 641              	.LBB284:
 642              		.loc 3 171 0
 643 01a0 37EE037A 		vadd.f32	s14, s14, s6
 644              	.LVL32:
 645              	.LBB282:
 646              	.LBB280:
 647              		.loc 3 154 0
 648 01a4 FCEEC77A 		vcvt.u32.f32	s15, s14
 649 01a8 F8EE677A 		vcvt.f32.u32	s15, s15
 650 01ac 77EE677A 		vsub.f32	s15, s14, s15
 651 01b0 67EEA87A 		vmul.f32	s15, s15, s17
 652              	.LVL33:
 653              		.loc 3 155 0
 654 01b4 BCEEE77A 		vcvt.u32.f32	s14, s15
 655              	.LVL34:
 656 01b8 17EE104A 		vmov	r4, s14	@ int
 657              	.LVL35:
 658              		.loc 3 157 0
 659 01bc 04F07F00 		and	r0, r4, #127
 660              	.LVL36:
 661              	.LBB269:
 662              	.LBB270:
 663              		.loc 2 826 0
 664 01c0 0AEE104A 		vmov	s20, r4	@ int
 665              	.LBE270:
 666              	.LBE269:
 667              		.loc 3 160 0
 668 01c4 05EB8006 		add	r6, r5, r0, lsl #2
 669 01c8 0130     		adds	r0, r0, #1
 670              	.LVL37:
 671              	.LBB275:
 672              	.LBB271:
 673              		.loc 2 826 0
 674 01ca B8EE4AAA 		vcvt.f32.u32	s20, s20
 675              	.LBE271:
 676              	.LBE275:
 677              		.loc 3 160 0
 678 01ce 00F07F00 		and	r0, r0, #127
 679              	.LVL38:
 680 01d2 05EB8000 		add	r0, r5, r0, lsl #2
 681              	.LVL39:
 682              	.LBB276:
 683              	.LBB272:
 684              		.loc 2 826 0
ARM GAS  C:\msys64\tmp\cco5sYXD.s 			page 13


 685 01d6 77EECA7A 		vsub.f32	s15, s15, s20
 686              	.LVL40:
 687              	.LBE272:
 688              	.LBE276:
 689              		.loc 3 160 0
 690 01da 96ED007A 		vldr.32	s14, [r6]
 691              	.LVL41:
 692              	.LBB277:
 693              	.LBB273:
 694              		.loc 2 826 0
 695 01de 90ED00AA 		vldr.32	s20, [r0]
 696 01e2 3AEE47AA 		vsub.f32	s20, s20, s14
 697              	.LBE273:
 698              	.LBE277:
 699              		.loc 3 161 0
 700 01e6 7F2C     		cmp	r4, #127
 701              	.LBB278:
 702              	.LBB274:
 703              		.loc 2 826 0
 704 01e8 A7EE8A7A 		vfma.f32	s14, s15, s20
 705              	.LVL42:
 706 01ec F0EE477A 		vmov.f32	s15, s14
 707              	.LVL43:
 708              	.LBE274:
 709              	.LBE278:
 710              		.loc 3 161 0
 711 01f0 88BF     		it	hi
 712 01f2 F1EE477A 		vneghi.f32	s15, s14
 713              	.LVL44:
 714              	.LBE280:
 715              	.LBE282:
 716              	.LBE284:
 717              	.LBE286:
 718              		.loc 4 76 0
 719 01f6 F1EE677A 		vneg.f32	s15, s15
 720              	.LVL45:
 721              	.LBB287:
 722              	.LBB288:
 723              		.loc 5 385 0
 724 01fa B0EE647A 		vmov.f32	s14, s9
 725 01fe A3EEA77A 		vfma.f32	s14, s7, s15
 726              	.LVL46:
 727              		.loc 5 387 0
 728 0202 67EE624A 		vnmul.f32	s9, s14, s5
 729 0206 E3EEA74A 		vfma.f32	s9, s7, s15
 730              	.LVL47:
 731              	.LBE288:
 732              	.LBE287:
 733              	.LBB289:
 734              	.LBB290:
 735              		.loc 5 385 0
 736 020a F0EE457A 		vmov.f32	s15, s10
 737 020e E2EE077A 		vfma.f32	s15, s4, s14
 738              	.LVL48:
 739              		.loc 5 387 0
 740 0212 27EEE05A 		vnmul.f32	s10, s15, s1
 741              	.LBE290:
ARM GAS  C:\msys64\tmp\cco5sYXD.s 			page 14


 742              	.LBE289:
 743              	.LBE295:
 744              	.LBE321:
 745              	.LBB322:
 746              	.LBB318:
 747              	.LBB315:
 748              	.LBB312:
 749              	.LBB309:
 750              	.LBB306:
 751              		.loc 2 193 0
 752 0216 F4EEC97A 		vcmpe.f32	s15, s18
 753 021a F1EE10FA 		vmrs	APSR_nzcv, FPSCR
 754              	.LBE306:
 755              	.LBE309:
 756              	.LBE312:
 757              	.LBE315:
 758              	.LBE318:
 759              	.LBE322:
 760              	.LBB323:
 761              	.LBB296:
 762              	.LBB292:
 763              	.LBB291:
 764              		.loc 5 387 0
 765 021e A1EE075A 		vfma.f32	s10, s2, s14
 766              	.LVL49:
 767              	.LBE291:
 768              	.LBE292:
 769              	.LBE296:
 770              	.LBE323:
 771              	.LBB324:
 772              	.LBB319:
 773              	.LBB316:
 774              	.LBB313:
 775              	.LBB310:
 776              	.LBB307:
 777              		.loc 2 193 0
 778 0222 07DB     		blt	.L27
 779              	.LVL50:
 780 0224 F4EEE67A 		vcmpe.f32	s15, s13
 781 0228 F1EE10FA 		vmrs	APSR_nzcv, FPSCR
 782 022c A8BF     		it	ge
 783 022e F0EE697A 		vmovge.f32	s15, s19
 784              	.LVL51:
 785 0232 01E0     		b	.L12
 786              	.LVL52:
 787              	.L27:
 788 0234 FFEE007A 		vmov.f32	s15, #-1.0e+0
 789              	.LVL53:
 790              	.L12:
 791              	.LBE307:
 792              	.LBE310:
 793              	.LBE313:
 794              	.LBE316:
 795              	.LBE319:
 796              	.LBE324:
 797              		.loc 1 63 0
 798 0238 27EEA77A 		vmul.f32	s14, s15, s15
ARM GAS  C:\msys64\tmp\cco5sYXD.s 			page 15


 799              		.loc 1 66 0
 800 023c 75EE865A 		vadd.f32	s11, s11, s12
 801              	.LVL54:
 802              		.loc 1 63 0
 803 0240 27EEC77A 		vnmul.f32	s14, s15, s14
 804 0244 E7EE087A 		vfma.f32	s15, s14, s16
 805 0248 67EE807A 		vmul.f32	s15, s15, s0
 806 024c FDEEE77A 		vcvt.s32.f32	s15, s15
 807 0250 E1EC017A 		vstmia.32	r1!, {s15}	@ int
 808              	.LVL55:
 809              		.loc 1 67 0
 810 0254 FCEEE57A 		vcvt.u32.f32	s15, s11
 811 0258 F8EE677A 		vcvt.f32.u32	s15, s15
 812 025c 75EEE75A 		vsub.f32	s11, s11, s15
 813              	.LVL56:
 814              	.LBE330:
 815              		.loc 1 54 0
 816 0260 84E7     		b	.L14
 817              	.LVL57:
 818              	.L7:
 819              	.LBE424:
 820              		.loc 1 73 0
 821 0262 BDEC068B 		vldm	sp!, {d8-d10}
 822              		.cfi_restore 84
 823              		.cfi_restore 85
 824              		.cfi_restore 82
 825              		.cfi_restore 83
 826              		.cfi_restore 80
 827              		.cfi_restore 81
 828              		.cfi_def_cfa_offset 16
 829 0266 C3ED0A4A 		vstr.32	s9, [r3, #40]
 830 026a 83ED115A 		vstr.32	s10, [r3, #68]
 831              		.loc 1 71 0
 832 026e C3ED005A 		vstr.32	s11, [r3]
 833              		.loc 1 73 0
 834 0272 70BD     		pop	{r4, r5, r6, pc}
 835              	.L30:
 836              		.align	2
 837              	.L29:
 838 0274 8180803B 		.word	998277249
 839 0278 49FFB846 		.word	1186529097
 840 027c 0000004F 		.word	1325400064
 841 0280 00000000 		.word	midi_to_hz_lut_f
 842 0284 00000000 		.word	.LANCHOR0
 843 0288 3EC3AE37 		.word	934200126
 844 028c BC9C0244 		.word	1141021884
 845 0290 00000000 		.word	tanpi_lut_f
 846 0294 00008043 		.word	1132462080
 847 0298 E17A943E 		.word	1049918177
 848 029c 00000000 		.word	wt_sine_lut_f
 849              		.cfi_endproc
 850              	.LFE294:
 851              		.size	_hook_cycle, .-_hook_cycle
 852              		.align	1
 853              		.global	_hook_on
 854              		.thumb
 855              		.thumb_func
ARM GAS  C:\msys64\tmp\cco5sYXD.s 			page 16


 856              		.type	_hook_on, %function
 857              	_hook_on:
 858              	.LFB295:
 859              		.loc 1 75 0
 860              		.cfi_startproc
 861              		@ args = 0, pretend = 0, frame = 0
 862              		@ frame_needed = 0, uses_anonymous_args = 0
 863              		@ link register save eliminated.
 864              	.LVL58:
 865              		.loc 1 78 0
 866 02a0 024A     		ldr	r2, .L32
 867 02a2 137A     		ldrb	r3, [r2, #8]	@ zero_extendqisi2
 868 02a4 43F00103 		orr	r3, r3, #1
 869 02a8 1372     		strb	r3, [r2, #8]
 870 02aa 7047     		bx	lr
 871              	.L33:
 872              		.align	2
 873              	.L32:
 874 02ac 00000000 		.word	.LANCHOR0
 875              		.cfi_endproc
 876              	.LFE295:
 877              		.size	_hook_on, .-_hook_on
 878              		.align	1
 879              		.global	_hook_off
 880              		.thumb
 881              		.thumb_func
 882              		.type	_hook_off, %function
 883              	_hook_off:
 884              	.LFB296:
 885              		.loc 1 81 0
 886              		.cfi_startproc
 887              		@ args = 0, pretend = 0, frame = 0
 888              		@ frame_needed = 0, uses_anonymous_args = 0
 889              		@ link register save eliminated.
 890              	.LVL59:
 891 02b0 7047     		bx	lr
 892              		.cfi_endproc
 893              	.LFE296:
 894              		.size	_hook_off, .-_hook_off
 895              		.align	1
 896              		.global	_hook_param
 897              		.thumb
 898              		.thumb_func
 899              		.type	_hook_param, %function
 900              	_hook_param:
 901              	.LFB297:
 902              		.loc 1 86 0
 903              		.cfi_startproc
 904              		@ args = 0, pretend = 0, frame = 0
 905              		@ frame_needed = 0, uses_anonymous_args = 0
 906              		@ link register save eliminated.
 907              	.LVL60:
 908              		.loc 1 90 0
 909 02b2 07EE901A 		vmov	s15, r1	@ int
 910 02b6 B8EEE77A 		vcvt.f32.s32	s14, s15
 911 02ba DFED207A 		vldr.32	s15, .L54
 912 02be 67EE277A 		vmul.f32	s15, s14, s15
ARM GAS  C:\msys64\tmp\cco5sYXD.s 			page 17


 913              	.LVL61:
 914              		.loc 1 92 0
 915 02c2 0728     		cmp	r0, #7
 916 02c4 38D8     		bhi	.L35
 917 02c6 DFE800F0 		tbb	[pc, r0]
 918              	.L38:
 919 02ca 04       		.byte	(.L37-.L38)/2
 920 02cb 1A       		.byte	(.L39-.L38)/2
 921 02cc 37       		.byte	(.L35-.L38)/2
 922 02cd 37       		.byte	(.L35-.L38)/2
 923 02ce 37       		.byte	(.L35-.L38)/2
 924 02cf 37       		.byte	(.L35-.L38)/2
 925 02d0 30       		.byte	(.L40-.L38)/2
 926 02d1 34       		.byte	(.L41-.L38)/2
 927              		.p2align 1
 928              	.L37:
 929              		.loc 1 95 0
 930 02d2 DFED1B7A 		vldr.32	s15, .L54+4
 931              	.LVL62:
 932 02d6 67EE277A 		vmul.f32	s15, s14, s15
 933              	.LVL63:
 934              	.LBB425:
 935              	.LBB426:
 936              	.LBB427:
 937              	.LBB428:
 938              		.loc 2 193 0
 939 02da F5EEC07A 		vcmpe.f32	s15, #0
 940 02de F1EE10FA 		vmrs	APSR_nzcv, FPSCR
 941 02e2 09DB     		blt	.L52
 942              	.LVL64:
 943              	.LBE428:
 944              	.LBE427:
 945              	.LBB430:
 946              	.LBB431:
 947 02e4 B7EE007A 		vmov.f32	s14, #1.0e+0
 948              	.LVL65:
 949              	.LBE431:
 950              	.LBE430:
 951              	.LBB432:
 952              	.LBB429:
 953 02e8 F4EEC77A 		vcmpe.f32	s15, s14
 954 02ec F1EE10FA 		vmrs	APSR_nzcv, FPSCR
 955 02f0 A8BF     		it	ge
 956 02f2 F0EE477A 		vmovge.f32	s15, s14
 957              	.LVL66:
 958 02f6 18E0     		b	.L40
 959              	.LVL67:
 960              	.L52:
 961 02f8 DFED127A 		vldr.32	s15, .L54+8
 962              	.LVL68:
 963 02fc 15E0     		b	.L40
 964              	.LVL69:
 965              	.L39:
 966              	.LBE429:
 967              	.LBE432:
 968              	.LBE426:
 969              	.LBE425:
ARM GAS  C:\msys64\tmp\cco5sYXD.s 			page 18


 970              		.loc 1 100 0
 971 02fe DFED107A 		vldr.32	s15, .L54+4
 972              	.LVL70:
 973 0302 67EE277A 		vmul.f32	s15, s14, s15
 974              	.LVL71:
 975              	.LBB433:
 976              	.LBB434:
 977              	.LBB435:
 978              	.LBB436:
 979              		.loc 2 193 0
 980 0306 F5EEC07A 		vcmpe.f32	s15, #0
 981 030a F1EE10FA 		vmrs	APSR_nzcv, FPSCR
 982 030e 09DB     		blt	.L53
 983              	.LVL72:
 984              	.LBE436:
 985              	.LBE435:
 986              	.LBB438:
 987              	.LBB439:
 988 0310 B7EE007A 		vmov.f32	s14, #1.0e+0
 989              	.LVL73:
 990              	.LBE439:
 991              	.LBE438:
 992              	.LBB440:
 993              	.LBB437:
 994 0314 F4EEC77A 		vcmpe.f32	s15, s14
 995 0318 F1EE10FA 		vmrs	APSR_nzcv, FPSCR
 996 031c A8BF     		it	ge
 997 031e F0EE477A 		vmovge.f32	s15, s14
 998              	.LVL74:
 999 0322 06E0     		b	.L41
 1000              	.LVL75:
 1001              	.L53:
 1002 0324 DFED077A 		vldr.32	s15, .L54+8
 1003              	.LVL76:
 1004 0328 03E0     		b	.L41
 1005              	.LVL77:
 1006              	.L40:
 1007              	.LBE437:
 1008              	.LBE440:
 1009              	.LBE434:
 1010              	.LBE433:
 1011              		.loc 1 113 0
 1012 032a 074B     		ldr	r3, .L54+12
 1013 032c C3ED037A 		vstr.32	s15, [r3, #12]
 1014              		.loc 1 114 0
 1015 0330 7047     		bx	lr
 1016              	.L41:
 1017              		.loc 1 118 0
 1018 0332 054B     		ldr	r3, .L54+12
 1019 0334 C3ED047A 		vstr.32	s15, [r3, #16]
 1020              	.L35:
 1021 0338 7047     		bx	lr
 1022              	.L55:
 1023 033a 00BF     		.align	2
 1024              	.L54:
 1025 033c 0820803A 		.word	981475336
 1026 0340 0AD7233C 		.word	1008981770
ARM GAS  C:\msys64\tmp\cco5sYXD.s 			page 19


 1027 0344 00000000 		.word	0
 1028 0348 00000000 		.word	.LANCHOR0
 1029              		.cfi_endproc
 1030              	.LFE297:
 1031              		.size	_hook_param, .-_hook_param
 1032              		.section	.text.startup,"ax",%progbits
 1033              		.align	1
 1034              		.thumb
 1035              		.thumb_func
 1036              		.type	_GLOBAL__sub_I__hook_init, %function
 1037              	_GLOBAL__sub_I__hook_init:
 1038              	.LFB299:
 1039              		.loc 1 123 0
 1040              		.cfi_startproc
 1041              		@ args = 0, pretend = 0, frame = 0
 1042              		@ frame_needed = 0, uses_anonymous_args = 0
 1043              		@ link register save eliminated.
 1044              	.LVL78:
 1045              	.LBB464:
 1046              	.LBB465:
 1047              	.LBB466:
 1048              	.LBB467:
 1049              	.LBB468:
 1050              		.loc 4 41 0
 1051 0000 0D4B     		ldr	r3, .L57
 1052 0002 197A     		ldrb	r1, [r3, #8]	@ zero_extendqisi2
 1053 0004 6FF30001 		bfc	r1, #0, #1
 1054 0008 0022     		movs	r2, #0
 1055 000a 1972     		strb	r1, [r3, #8]
 1056              	.LVL79:
 1057              	.LBE468:
 1058              	.LBE467:
 1059              	.LBB470:
 1060              	.LBB471:
 1061              		.loc 4 30 0
 1062 000c 4FF07C51 		mov	r1, #1056964608
 1063              	.LBE471:
 1064              	.LBE470:
 1065              	.LBB473:
 1066              	.LBB469:
 1067              		.loc 4 41 0
 1068 0010 1A60     		str	r2, [r3]	@ float
 1069 0012 5A60     		str	r2, [r3, #4]	@ float
 1070              	.LBE469:
 1071              	.LBE473:
 1072              	.LBB474:
 1073              	.LBB472:
 1074              		.loc 4 30 0
 1075 0014 D960     		str	r1, [r3, #12]	@ float
 1076 0016 1961     		str	r1, [r3, #16]	@ float
 1077              	.LVL80:
 1078              	.LBE472:
 1079              	.LBE474:
 1080              	.LBB475:
 1081              	.LBB476:
 1082              	.LBB477:
 1083              	.LBB478:
ARM GAS  C:\msys64\tmp\cco5sYXD.s 			page 20


 1084              		.loc 5 77 0
 1085 0018 5A61     		str	r2, [r3, #20]	@ float
 1086 001a 9A61     		str	r2, [r3, #24]	@ float
 1087 001c DA61     		str	r2, [r3, #28]	@ float
 1088 001e 1A62     		str	r2, [r3, #32]	@ float
 1089 0020 5A62     		str	r2, [r3, #36]	@ float
 1090              	.LVL81:
 1091              	.LBE478:
 1092              	.LBE477:
 1093              		.loc 5 344 0
 1094 0022 9A62     		str	r2, [r3, #40]	@ float
 1095 0024 DA62     		str	r2, [r3, #44]	@ float
 1096              	.LVL82:
 1097              	.LBE476:
 1098              	.LBE475:
 1099              	.LBB479:
 1100              	.LBB480:
 1101              	.LBB481:
 1102              	.LBB482:
 1103              		.loc 5 77 0
 1104 0026 1A63     		str	r2, [r3, #48]	@ float
 1105 0028 5A63     		str	r2, [r3, #52]	@ float
 1106 002a 9A63     		str	r2, [r3, #56]	@ float
 1107 002c DA63     		str	r2, [r3, #60]	@ float
 1108 002e 1A64     		str	r2, [r3, #64]	@ float
 1109              	.LVL83:
 1110              	.LBE482:
 1111              	.LBE481:
 1112              		.loc 5 344 0
 1113 0030 5A64     		str	r2, [r3, #68]	@ float
 1114 0032 9A64     		str	r2, [r3, #72]	@ float
 1115              	.LVL84:
 1116 0034 7047     		bx	lr
 1117              	.L58:
 1118 0036 00BF     		.align	2
 1119              	.L57:
 1120 0038 00000000 		.word	.LANCHOR0
 1121              	.LBE480:
 1122              	.LBE479:
 1123              	.LBE466:
 1124              	.LBE465:
 1125              	.LBE464:
 1126              		.cfi_endproc
 1127              	.LFE299:
 1128              		.size	_GLOBAL__sub_I__hook_init, .-_GLOBAL__sub_I__hook_init
 1129              		.section	.init_array,"aw",%init_array
 1130              		.align	2
 1131 0000 00000000 		.word	_GLOBAL__sub_I__hook_init(target1)
 1132              		.bss
 1133              		.align	2
 1134              		.set	.LANCHOR0,. + 0
 1135              		.type	_ZL3vps, %object
 1136              		.size	_ZL3vps, 76
 1137              	_ZL3vps:
 1138 0000 00000000 		.space	76
 1138      00000000 
 1138      00000000 
ARM GAS  C:\msys64\tmp\cco5sYXD.s 			page 21


 1138      00000000 
 1138      00000000 
 1139              		.text
 1140              	.Letext0:
 1141              		.file 6 "c:\\msys64\\home\\logue-sdk\\tools\\gcc\\gcc-arm-none-eabi-5_4-2016q3\\arm-none-eabi\\inc
 1142              		.file 7 "c:\\msys64\\home\\logue-sdk\\tools\\gcc\\gcc-arm-none-eabi-5_4-2016q3\\arm-none-eabi\\inc
 1143              		.file 8 "c:\\msys64\\home\\logue-sdk\\platform\\ext\\cmsis\\cmsis\\include\\arm_math.h"
 1144              		.file 9 "C:/msys64/home/logue-sdk/platform/nutekt-digital/inc/userosc.h"
 1145              		.file 10 "C:/msys64/home/logue-sdk/platform/nutekt-digital/inc/userprg.h"
 1146              		.file 11 "C:/msys64/home/logue-sdk/platform/nutekt-digital/inc/utils/int_math.h"