ARM GAS  C:\msys64\tmp\ccdwucoK.s 			page 1


   1              		.syntax unified
   2              		.cpu cortex-m4
   3              		.eabi_attribute 27, 1
   4              		.eabi_attribute 28, 1
   5              		.fpu fpv4-sp-d16
   6              		.eabi_attribute 20, 1
   7              		.eabi_attribute 21, 1
   8              		.eabi_attribute 23, 3
   9              		.eabi_attribute 24, 1
  10              		.eabi_attribute 25, 1
  11              		.eabi_attribute 26, 1
  12              		.eabi_attribute 30, 4
  13              		.eabi_attribute 34, 1
  14              		.eabi_attribute 18, 4
  15              		.thumb
  16              		.syntax unified
  17              		.file	"vpsf_2.cpp"
  18              		.text
  19              	.Ltext0:
  20              		.cfi_sections	.debug_frame
  21              		.section	.text._ZN5VPSFI11PhaseShaperEfffPf,"axG",%progbits,_ZN5VPSFI11PhaseShaperEfffPf,comdat
  22              		.align	1
  23              		.weak	_ZN5VPSFI11PhaseShaperEfffPf
  24              		.thumb
  25              		.thumb_func
  26              		.type	_ZN5VPSFI11PhaseShaperEfffPf, %function
  27              	_ZN5VPSFI11PhaseShaperEfffPf:
  28              	.LFB293:
  29              		.file 1 "vpsf_2.hpp"
  30              		.loc 1 89 0
  31              		.cfi_startproc
  32              		@ args = 0, pretend = 0, frame = 0
  33              		@ frame_needed = 0, uses_anonymous_args = 0
  34              	.LVL0:
  35              		.loc 1 93 0
  36 0000 B4EEE00A 		vcmpe.f32	s0, s1
  37 0004 F1EE10FA 		vmrs	APSR_nzcv, FPSCR
  38              		.loc 1 98 0
  39 0008 5DBF     		ittte	pl
  40 000a F7EE007A 		vmovpl.f32	s15, #1.0e+0
  41              		.loc 1 97 0
  42 000e 70EE606A 		vsubpl.f32	s13, s0, s1
  43              		.loc 1 98 0
  44 0012 77EEE00A 		vsubpl.f32	s1, s15, s1
  45              	.LVL1:
  46              		.loc 1 94 0
  47 0016 C0EE207A 		vdivmi.f32	s15, s0, s1
  48              		.loc 1 89 0
  49 001a 30B5     		push	{r4, r5, lr}
  50              		.cfi_def_cfa_offset 12
  51              		.cfi_offset 4, -12
  52              		.cfi_offset 5, -8
  53              		.cfi_offset 14, -4
  54              	.LBB188:
  55              	.LBB189:
  56              	.LBB190:
  57              	.LBB191:
ARM GAS  C:\msys64\tmp\ccdwucoK.s 			page 2


  58              		.file 2 "C:/msys64/home/logue-sdk/platform/nutekt-digital/inc/osc_api.h"
  59              		.loc 2 160 0
  60 001c 304A     		ldr	r2, .L8
  61              	.LBE191:
  62              	.LBE190:
  63              	.LBE189:
  64              	.LBE188:
  65              		.loc 1 98 0
  66 001e 5BBF     		ittet	pl
  67 0020 86EEA07A 		vdivpl.f32	s14, s13, s1
  68              		.loc 1 100 0
  69 0024 77EEC17A 		vsubpl.f32	s15, s15, s2
  70              		.loc 1 95 0
  71 0028 27EE811A 		vmulmi.f32	s2, s15, s2
  72              	.LVL2:
  73              		.loc 1 100 0
  74 002c A7EE271A 		vfmapl.f32	s2, s14, s15
  75              	.LVL3:
  76              	.LBB207:
  77              	.LBB204:
  78              		.loc 2 171 0
  79 0030 F5EE007A 		vmov.f32	s15, #2.5e-1
  80 0034 31EE271A 		vadd.f32	s2, s2, s15
  81              	.LVL4:
  82              	.LBE204:
  83              	.LBE207:
  84              	.LBB208:
  85              	.LBB209:
  86              		.file 3 "c:\\msys64\\home\\logue-sdk\\platform\\nutekt-digital\\inc\\dsp\\biquad.hpp"
  87              		.loc 3 385 0
  88 0038 D0ED0F6A 		vldr.32	s13, [r0, #60]
  89              		.loc 3 387 0
  90 003c 90ED0B6A 		vldr.32	s12, [r0, #44]
  91              	.LBE209:
  92              	.LBE208:
  93              	.LBB213:
  94              	.LBB205:
  95              	.LBB202:
  96              	.LBB200:
  97              		.loc 2 154 0
  98 0040 FCEEC17A 		vcvt.u32.f32	s15, s2
  99 0044 F8EE677A 		vcvt.f32.u32	s15, s15
 100 0048 31EE671A 		vsub.f32	s2, s2, s15
 101              	.LVL5:
 102 004c DFED257A 		vldr.32	s15, .L8+4
 103 0050 21EE271A 		vmul.f32	s2, s2, s15
 104              	.LVL6:
 105              		.loc 2 155 0
 106 0054 FCEEC17A 		vcvt.u32.f32	s15, s2
 107 0058 17EE904A 		vmov	r4, s15	@ int
 108              	.LVL7:
 109              		.loc 2 157 0
 110 005c 04F07F03 		and	r3, r4, #127
 111              	.LVL8:
 112              	.LBB192:
 113              	.LBB193:
 114              		.file 4 "C:/msys64/home/logue-sdk/platform/nutekt-digital/inc/utils/float_math.h"
ARM GAS  C:\msys64\tmp\ccdwucoK.s 			page 3


 115              		.loc 4 826 0
 116 0060 07EE104A 		vmov	s14, r4	@ int
 117              	.LBE193:
 118              	.LBE192:
 119              		.loc 2 160 0
 120 0064 02EB8305 		add	r5, r2, r3, lsl #2
 121 0068 0133     		adds	r3, r3, #1
 122              	.LVL9:
 123              	.LBB197:
 124              	.LBB194:
 125              		.loc 4 826 0
 126 006a B8EE477A 		vcvt.f32.u32	s14, s14
 127              	.LBE194:
 128              	.LBE197:
 129              		.loc 2 160 0
 130 006e 03F07F03 		and	r3, r3, #127
 131              	.LVL10:
 132 0072 02EB8303 		add	r3, r2, r3, lsl #2
 133              	.LVL11:
 134 0076 D5ED007A 		vldr.32	s15, [r5]
 135              	.LVL12:
 136              	.LBB198:
 137              	.LBB195:
 138              		.loc 4 826 0
 139 007a 31EE471A 		vsub.f32	s2, s2, s14
 140              	.LVL13:
 141 007e 93ED007A 		vldr.32	s14, [r3]
 142 0082 37EE677A 		vsub.f32	s14, s14, s15
 143              	.LBE195:
 144              	.LBE198:
 145              		.loc 2 161 0
 146 0086 7F2C     		cmp	r4, #127
 147              	.LBB199:
 148              	.LBB196:
 149              		.loc 4 826 0
 150 0088 E1EE077A 		vfma.f32	s15, s2, s14
 151              	.LVL14:
 152              	.LBE196:
 153              	.LBE199:
 154              	.LBE200:
 155              	.LBE202:
 156              	.LBE205:
 157              	.LBE213:
 158              	.LBB214:
 159              	.LBB210:
 160              		.loc 3 385 0
 161 008c 90ED0A7A 		vldr.32	s14, [r0, #40]
 162              	.LBE210:
 163              	.LBE214:
 164              	.LBB215:
 165              	.LBB206:
 166              	.LBB203:
 167              	.LBB201:
 168              		.loc 2 161 0
 169 0090 88BF     		it	hi
 170 0092 F1EE677A 		vneghi.f32	s15, s15
 171              	.LVL15:
ARM GAS  C:\msys64\tmp\ccdwucoK.s 			page 4


 172              	.LBE201:
 173              	.LBE203:
 174              	.LBE206:
 175              	.LBE215:
 176              		.loc 1 103 0
 177 0096 F1EE677A 		vneg.f32	s15, s15
 178              	.LVL16:
 179              	.LBB216:
 180              	.LBB211:
 181              		.loc 3 385 0
 182 009a E7EE876A 		vfma.f32	s13, s15, s14
 183              	.LVL17:
 184              		.loc 3 387 0
 185 009e 90ED0D7A 		vldr.32	s14, [r0, #52]
 186 00a2 27EE667A 		vnmul.f32	s14, s14, s13
 187 00a6 A7EE867A 		vfma.f32	s14, s15, s12
 188              	.LBE211:
 189              	.LBE216:
 190              	.LBB217:
 191              	.LBB218:
 192              		.loc 3 385 0
 193 00aa D0ED167A 		vldr.32	s15, [r0, #88]
 194              	.LVL18:
 195              	.LBE218:
 196              	.LBE217:
 197              	.LBB220:
 198              	.LBB212:
 199              		.loc 3 387 0
 200 00ae 80ED0F7A 		vstr.32	s14, [r0, #60]
 201              	.LVL19:
 202              	.LBE212:
 203              	.LBE220:
 204              	.LBB221:
 205              	.LBB219:
 206              		.loc 3 385 0
 207 00b2 90ED117A 		vldr.32	s14, [r0, #68]
 208              		.loc 3 387 0
 209 00b6 90ED126A 		vldr.32	s12, [r0, #72]
 210              		.loc 3 385 0
 211 00ba E7EE267A 		vfma.f32	s15, s14, s13
 212              	.LVL20:
 213              		.loc 3 387 0
 214 00be 90ED147A 		vldr.32	s14, [r0, #80]
 215 00c2 27EE677A 		vnmul.f32	s14, s14, s15
 216 00c6 A6EE267A 		vfma.f32	s14, s12, s13
 217 00ca 80ED167A 		vstr.32	s14, [r0, #88]
 218              	.LVL21:
 219              	.LBE219:
 220              	.LBE221:
 221              		.loc 1 106 0
 222 00ce 91ED007A 		vldr.32	s14, [r1]
 223              		.loc 1 108 0
 224 00d2 77EEC77A 		vsub.f32	s15, s15, s14
 225              		.loc 1 109 0
 226 00d6 A0EE277A 		vfma.f32	s14, s0, s15
 227 00da B0EE470A 		vmov.f32	s0, s14
 228              	.LVL22:
ARM GAS  C:\msys64\tmp\ccdwucoK.s 			page 5


 229 00de 30BD     		pop	{r4, r5, pc}
 230              	.L9:
 231              		.align	2
 232              	.L8:
 233 00e0 00000000 		.word	wt_sine_lut_f
 234 00e4 00008043 		.word	1132462080
 235              		.cfi_endproc
 236              	.LFE293:
 237              		.size	_ZN5VPSFI11PhaseShaperEfffPf, .-_ZN5VPSFI11PhaseShaperEfffPf
 238              		.text
 239              		.align	1
 240              		.global	_hook_init
 241              		.thumb
 242              		.thumb_func
 243              		.type	_hook_init, %function
 244              	_hook_init:
 245              	.LFB295:
 246              		.file 5 "vpsf_2.cpp"
 247              		.loc 5 14 0
 248              		.cfi_startproc
 249              		@ args = 0, pretend = 0, frame = 0
 250              		@ frame_needed = 0, uses_anonymous_args = 0
 251              		@ link register save eliminated.
 252              	.LVL23:
 253 0000 7047     		bx	lr
 254              		.cfi_endproc
 255              	.LFE295:
 256              		.size	_hook_init, .-_hook_init
 257              		.align	1
 258              		.global	_hook_cycle
 259              		.thumb
 260              		.thumb_func
 261              		.type	_hook_cycle, %function
 262              	_hook_cycle:
 263              	.LFB296:
 264              		.loc 5 19 0
 265              		.cfi_startproc
 266              		@ args = 0, pretend = 0, frame = 0
 267              		@ frame_needed = 0, uses_anonymous_args = 0
 268              	.LVL24:
 269              		.loc 5 19 0
 270 0002 70B5     		push	{r4, r5, r6, lr}
 271              		.cfi_def_cfa_offset 16
 272              		.cfi_offset 4, -16
 273              		.cfi_offset 5, -12
 274              		.cfi_offset 6, -8
 275              		.cfi_offset 14, -4
 276              		.loc 5 26 0
 277 0004 A74C     		ldr	r4, .L35
 278 0006 9FEDA86A 		vldr.32	s12, .L35+4
 279 000a 237D     		ldrb	r3, [r4, #20]	@ zero_extendqisi2
 280              	.LVL25:
 281              	.LBB286:
 282              	.LBB287:
 283              	.LBB288:
 284              	.LBB289:
 285              		.loc 4 826 0
ARM GAS  C:\msys64\tmp\ccdwucoK.s 			page 6


 286 000c 9FEDA77A 		vldr.32	s14, .L35+8
 287              	.LBE289:
 288              	.LBE288:
 289              	.LBE287:
 290              	.LBE286:
 291              	.LBB329:
 292              	.LBB330:
 293              		.loc 1 76 0
 294 0010 D4ED096A 		vldr.32	s13, [r4, #36]
 295              	.LBB331:
 296              	.LBB332:
 297              		.loc 2 615 0
 298 0014 9FEDA65A 		vldr.32	s10, .L35+12
 299              	.LBE332:
 300              	.LBE331:
 301              	.LBE330:
 302              	.LBE329:
 303              		.loc 5 19 0
 304 0018 0D46     		mov	r5, r1
 305              		.loc 5 29 0
 306 001a 1946     		mov	r1, r3
 307              	.LVL26:
 308 001c 6FF30001 		bfc	r1, #0, #1
 309 0020 2175     		strb	r1, [r4, #20]
 310              		.loc 5 37 0
 311 0022 8188     		ldrh	r1, [r0, #4]
 312              	.LBB396:
 313              	.LBB388:
 314              	.LBB340:
 315              	.LBB341:
 316              		.loc 3 143 0
 317 0024 84ED0C6A 		vstr.32	s12, [r4, #48]
 318              	.LBE341:
 319              	.LBE340:
 320              	.LBE388:
 321              	.LBE396:
 322              		.loc 5 32 0
 323 0028 13F0010F 		tst	r3, #1
 324              		.loc 5 37 0
 325 002c 4FEA2123 		asr	r3, r1, #8
 326              	.LVL27:
 327              	.LBB397:
 328              	.LBB398:
 329              		.loc 1 59 0
 330 0030 18BF     		it	ne
 331 0032 84ED006A 		vstrne.32	s12, [r4]
 332              	.LBE398:
 333              	.LBE397:
 334              	.LBB399:
 335              	.LBB320:
 336              	.LBB295:
 337              	.LBB296:
 338              		.loc 2 109 0
 339 0036 962B     		cmp	r3, #150
 340 0038 D8BF     		it	le
 341 003a 1846     		movle	r0, r3
 342              	.LVL28:
ARM GAS  C:\msys64\tmp\ccdwucoK.s 			page 7


 343              	.LBE296:
 344              	.LBE295:
 345              	.LBE320:
 346              	.LBE399:
 347              		.loc 5 40 0
 348 003c C9B2     		uxtb	r1, r1
 349              	.LBB400:
 350              	.LBB321:
 351              		.loc 2 120 0
 352 003e 03F10103 		add	r3, r3, #1
 353              	.LVL29:
 354 0042 DBB2     		uxtb	r3, r3
 355              	.LVL30:
 356              	.LBE321:
 357              	.LBE400:
 358              		.loc 5 40 0
 359 0044 07EE901A 		vmov	s15, r1	@ int
 360              	.LVL31:
 361              	.LBB401:
 362              	.LBB322:
 363              	.LBB300:
 364              	.LBB297:
 365              		.loc 2 109 0
 366 0048 C8BF     		it	gt
 367 004a 9720     		movgt	r0, #151
 368              	.LVL32:
 369 004c 9949     		ldr	r1, .L35+16
 370              	.LVL33:
 371              	.LBE297:
 372              	.LBE300:
 373              	.LBE322:
 374              	.LBE401:
 375              	.LBB402:
 376              	.LBB389:
 377              	.LBB345:
 378              	.LBB342:
 379              		.loc 3 143 0
 380 004e 84ED0E6A 		vstr.32	s12, [r4, #56]
 381              	.LBE342:
 382              	.LBE345:
 383              	.LBE389:
 384              	.LBE402:
 385              	.LBB403:
 386              	.LBB323:
 387              	.LBB301:
 388              	.LBB302:
 389              		.loc 2 109 0
 390 0052 962B     		cmp	r3, #150
 391 0054 88BF     		it	hi
 392 0056 9723     		movhi	r3, #151
 393              	.LBE302:
 394              	.LBE301:
 395              	.LBB304:
 396              	.LBB290:
 397              		.loc 4 826 0
 398 0058 F8EEE77A 		vcvt.f32.s32	s15, s15
 399              	.LVL34:
ARM GAS  C:\msys64\tmp\ccdwucoK.s 			page 8


 400              	.LBE290:
 401              	.LBE304:
 402              	.LBB305:
 403              	.LBB298:
 404              		.loc 2 109 0
 405 005c 01EB8000 		add	r0, r1, r0, lsl #2
 406              	.LBE298:
 407              	.LBE305:
 408              	.LBB306:
 409              	.LBB303:
 410 0060 01EB8303 		add	r3, r1, r3, lsl #2
 411              	.LBE303:
 412              	.LBE306:
 413              	.LBE323:
 414              	.LBE403:
 415              		.loc 5 19 0
 416 0064 2DED0A8B 		vpush.64	{d8, d9, d10, d11, d12}
 417              		.cfi_def_cfa_offset 56
 418              		.cfi_offset 80, -56
 419              		.cfi_offset 81, -52
 420              		.cfi_offset 82, -48
 421              		.cfi_offset 83, -44
 422              		.cfi_offset 84, -40
 423              		.cfi_offset 85, -36
 424              		.cfi_offset 86, -32
 425              		.cfi_offset 87, -28
 426              		.cfi_offset 88, -24
 427              		.cfi_offset 89, -20
 428              	.LBB404:
 429              	.LBB324:
 430              	.LBB307:
 431              	.LBB291:
 432              		.loc 4 826 0
 433 0068 67EE877A 		vmul.f32	s15, s15, s14
 434              	.LBE291:
 435              	.LBE307:
 436              	.LBB308:
 437              	.LBB299:
 438              		.loc 2 109 0
 439 006c D0ED009A 		vldr.32	s19, [r0]
 440              	.LVL35:
 441              	.LBE299:
 442              	.LBE308:
 443              	.LBB309:
 444              	.LBB292:
 445              		.loc 4 826 0
 446 0070 93ED007A 		vldr.32	s14, [r3]
 447              	.LBE292:
 448              	.LBE309:
 449              	.LBE324:
 450              	.LBE404:
 451              	.LBB405:
 452              	.LBB390:
 453              	.LBB346:
 454              	.LBB337:
 455              		.loc 2 617 0
 456 0074 904B     		ldr	r3, .L35+20
ARM GAS  C:\msys64\tmp\ccdwucoK.s 			page 9


 457              	.LBE337:
 458              	.LBE346:
 459              	.LBE390:
 460              	.LBE405:
 461              		.loc 5 46 0
 462 0076 94ED009A 		vldr.32	s18, [r4]
 463              	.LBB406:
 464              	.LBB407:
 465              		.loc 5 68 0
 466 007a 9FED90BA 		vldr.32	s22, .L35+24
 467              	.LBE407:
 468              	.LBE406:
 469              	.LBB463:
 470              	.LBB391:
 471              	.LBB347:
 472              	.LBB348:
 473              		.loc 3 159 0
 474 007e 84ED136A 		vstr.32	s12, [r4, #76]
 475              	.LBE348:
 476              	.LBE347:
 477              	.LBE391:
 478              	.LBE463:
 479              	.LBB464:
 480              	.LBB325:
 481              	.LBB310:
 482              	.LBB293:
 483              		.loc 4 826 0
 484 0082 37EE697A 		vsub.f32	s14, s14, s19
 485              	.LBE293:
 486              	.LBE310:
 487              	.LBE325:
 488              	.LBE464:
 489              	.LBB465:
 490              	.LBB392:
 491              		.loc 1 78 0
 492 0086 B7EE00AA 		vmov.f32	s20, #1.0e+0
 493              	.LBE392:
 494              	.LBE465:
 495              	.LBB466:
 496              	.LBB326:
 497              	.LBB311:
 498              	.LBB294:
 499              		.loc 4 826 0
 500 008a E7EE879A 		vfma.f32	s19, s15, s14
 501              	.LVL36:
 502              	.LBE294:
 503              	.LBE311:
 504              	.LBE326:
 505              	.LBE466:
 506              		.loc 5 53 0
 507 008e 05EB8206 		add	r6, r5, r2, lsl #2
 508              	.LBB467:
 509              	.LBB327:
 510              	.LBB312:
 511              	.LBB313:
 512              	.LBB314:
 513              	.LBB315:
ARM GAS  C:\msys64\tmp\ccdwucoK.s 			page 10


 514              		.loc 4 193 0
 515 0092 DFED8B7A 		vldr.32	s15, .L35+28
 516              	.LBE315:
 517              	.LBE314:
 518              	.LBE313:
 519              	.LBE312:
 520              	.LBE327:
 521              	.LBE467:
 522              	.LBB468:
 523              	.LBB393:
 524              	.LBB352:
 525              	.LBB349:
 526              		.loc 3 159 0
 527 0096 84ED156A 		vstr.32	s12, [r4, #84]
 528              	.LBE349:
 529              	.LBE352:
 530              	.LBE393:
 531              	.LBE468:
 532              	.LBB469:
 533              	.LBB328:
 534              	.LBB319:
 535              	.LBB318:
 536              	.LBB317:
 537              	.LBB316:
 538              		.loc 4 193 0
 539 009a F4EEE79A 		vcmpe.f32	s19, s15
 540 009e F1EE10FA 		vmrs	APSR_nzcv, FPSCR
 541 00a2 A8BF     		it	ge
 542 00a4 F0EE679A 		vmovge.f32	s19, s15
 543              	.LVL37:
 544              	.LBE316:
 545              	.LBE317:
 546              	.LBE318:
 547              	.LBE319:
 548              		.loc 2 124 0
 549 00a8 DFED867A 		vldr.32	s15, .L35+32
 550 00ac 69EEA79A 		vmul.f32	s19, s19, s15
 551              	.LVL38:
 552              	.LBE328:
 553              	.LBE469:
 554              	.LBB470:
 555              	.LBB394:
 556              	.LBB353:
 557              	.LBB354:
 558              	.LBB355:
 559              	.LBB356:
 560              	.LBB357:
 561              		.loc 4 193 0
 562 00b0 DFED857A 		vldr.32	s15, .L35+36
 563              	.LBE357:
 564              	.LBE356:
 565              	.LBE355:
 566              	.LBE354:
 567              	.LBE353:
 568              	.LBE394:
 569              	.LBE470:
 570              		.loc 5 40 0
ARM GAS  C:\msys64\tmp\ccdwucoK.s 			page 11


 571 00b4 C4ED019A 		vstr.32	s19, [r4, #4]
 572              	.LVL39:
 573              	.LBB471:
 574              	.LBB395:
 575              		.loc 1 77 0
 576 00b8 29EEA67A 		vmul.f32	s14, s19, s13
 577              	.LVL40:
 578              	.LBB362:
 579              	.LBB361:
 580              	.LBB360:
 581              	.LBB359:
 582              	.LBB358:
 583              		.loc 4 193 0
 584 00bc 77EE675A 		vsub.f32	s11, s14, s15
 585              	.LVL41:
 586 00c0 F5EEC05A 		vcmpe.f32	s11, #0
 587 00c4 F1EE10FA 		vmrs	APSR_nzcv, FPSCR
 588 00c8 B8BF     		it	lt
 589 00ca F0EE477A 		vmovlt.f32	s15, s14
 590              	.LVL42:
 591              	.LBE358:
 592              	.LBE359:
 593              	.LBE360:
 594              	.LBE361:
 595              	.LBE362:
 596              		.loc 1 78 0
 597 00ce 8AEE267A 		vdiv.f32	s14, s20, s13
 598              	.LBB363:
 599              	.LBB338:
 600              		.loc 2 615 0
 601 00d2 67EE857A 		vmul.f32	s15, s15, s10
 602              	.LBE338:
 603              	.LBE363:
 604              		.loc 1 78 0
 605 00d6 67EE296A 		vmul.f32	s13, s14, s19
 606              	.LVL43:
 607              	.LBB364:
 608              	.LBB365:
 609              	.LBB366:
 610              	.LBB367:
 611              	.LBB368:
 612              		.loc 4 193 0
 613 00da 36EE667A 		vsub.f32	s14, s12, s13
 614              	.LVL44:
 615 00de B5EEC07A 		vcmpe.f32	s14, #0
 616 00e2 9FED717A 		vldr.32	s14, .L35+4
 617              	.LVL45:
 618 00e6 F1EE10FA 		vmrs	APSR_nzcv, FPSCR
 619 00ea B8BF     		it	lt
 620 00ec B0EE667A 		vmovlt.f32	s14, s13
 621              	.LVL46:
 622              	.LBE368:
 623              	.LBE367:
 624              	.LBE366:
 625              	.LBE365:
 626              	.LBE364:
 627              	.LBB369:
ARM GAS  C:\msys64\tmp\ccdwucoK.s 			page 12


 628              	.LBB339:
 629              		.loc 2 616 0
 630 00f0 FCEEE76A 		vcvt.u32.f32	s13, s15
 631 00f4 16EE901A 		vmov	r1, s13	@ int
 632              	.LVL47:
 633              	.LBB333:
 634              	.LBB334:
 635              		.loc 4 826 0
 636 00f8 05EE901A 		vmov	s11, r1	@ int
 637 00fc F8EE655A 		vcvt.f32.u32	s11, s11
 638              	.LBE334:
 639              	.LBE333:
 640              		.loc 2 617 0
 641 0100 03EB8100 		add	r0, r3, r1, lsl #2
 642 0104 D0ED006A 		vldr.32	s13, [r0]
 643              	.LVL48:
 644              	.LBB336:
 645              	.LBB335:
 646              		.loc 4 826 0
 647 0108 77EEE57A 		vsub.f32	s15, s15, s11
 648              	.LVL49:
 649 010c D0ED015A 		vldr.32	s11, [r0, #4]
 650 0110 75EEE65A 		vsub.f32	s11, s11, s13
 651 0114 E7EEA56A 		vfma.f32	s13, s15, s11
 652              	.LVL50:
 653              	.LBE335:
 654              	.LBE336:
 655              	.LBE339:
 656              	.LBE369:
 657              	.LBB370:
 658              	.LBB343:
 659              		.loc 3 139 0
 660 0118 76EE8A7A 		vadd.f32	s15, s13, s20
 661              	.LVL51:
 662              		.loc 3 141 0
 663 011c C6EEA75A 		vdiv.f32	s11, s13, s15
 664              		.loc 3 142 0
 665 0120 76EECA6A 		vsub.f32	s13, s13, s20
 666              		.loc 3 141 0
 667 0124 C4ED0B5A 		vstr.32	s11, [r4, #44]
 668 0128 C4ED0A5A 		vstr.32	s11, [r4, #40]
 669              		.loc 3 142 0
 670 012c C6EEA75A 		vdiv.f32	s11, s13, s15
 671              	.LBE343:
 672              	.LBE370:
 673              	.LBB371:
 674              	.LBB372:
 675              		.loc 2 615 0
 676 0130 67EE057A 		vmul.f32	s15, s14, s10
 677              	.LVL52:
 678              	.LBE372:
 679              	.LBE371:
 680              	.LBB383:
 681              	.LBB344:
 682              		.loc 3 142 0
 683 0134 C4ED0D5A 		vstr.32	s11, [r4, #52]
 684              	.LBE344:
ARM GAS  C:\msys64\tmp\ccdwucoK.s 			page 13


 685              	.LBE383:
 686              	.LBB384:
 687              	.LBB381:
 688              		.loc 2 616 0
 689 0138 BCEEE77A 		vcvt.u32.f32	s14, s15
 690 013c 17EE101A 		vmov	r1, s14	@ int
 691              	.LVL53:
 692              	.LBB373:
 693              	.LBB374:
 694              		.loc 4 826 0
 695 0140 06EE901A 		vmov	s13, r1	@ int
 696 0144 F8EE666A 		vcvt.f32.u32	s13, s13
 697              	.LBE374:
 698              	.LBE373:
 699              		.loc 2 617 0
 700 0148 03EB8100 		add	r0, r3, r1, lsl #2
 701              	.LBB378:
 702              	.LBB375:
 703              		.loc 4 826 0
 704 014c 77EEE67A 		vsub.f32	s15, s15, s13
 705              	.LVL54:
 706              	.LBE375:
 707              	.LBE378:
 708              		.loc 2 617 0
 709 0150 90ED007A 		vldr.32	s14, [r0]
 710              	.LVL55:
 711              	.LBB379:
 712              	.LBB376:
 713              		.loc 4 826 0
 714 0154 D0ED016A 		vldr.32	s13, [r0, #4]
 715 0158 76EEC76A 		vsub.f32	s13, s13, s14
 716 015c A7EEA67A 		vfma.f32	s14, s15, s13
 717              	.LVL56:
 718              	.LBE376:
 719              	.LBE379:
 720              	.LBE381:
 721              	.LBE384:
 722              	.LBB385:
 723              	.LBB350:
 724              		.loc 3 154 0
 725 0160 77EE0A6A 		vadd.f32	s13, s14, s20
 726              	.LBE350:
 727              	.LBE385:
 728              	.LBB386:
 729              	.LBB382:
 730              	.LBB380:
 731              	.LBB377:
 732              		.loc 4 826 0
 733 0164 F0EE477A 		vmov.f32	s15, s14
 734              	.LVL57:
 735              	.LBE377:
 736              	.LBE380:
 737              	.LBE382:
 738              	.LBE386:
 739              	.LBB387:
 740              	.LBB351:
 741              		.loc 3 156 0
ARM GAS  C:\msys64\tmp\ccdwucoK.s 			page 14


 742 0168 8AEE267A 		vdiv.f32	s14, s20, s13
 743              		.loc 3 158 0
 744 016c 77EECA7A 		vsub.f32	s15, s15, s20
 745              		.loc 3 156 0
 746 0170 84ED117A 		vstr.32	s14, [r4, #68]
 747              		.loc 3 157 0
 748 0174 B1EE477A 		vneg.f32	s14, s14
 749 0178 84ED127A 		vstr.32	s14, [r4, #72]
 750              		.loc 3 158 0
 751 017c 87EEA67A 		vdiv.f32	s14, s15, s13
 752 0180 84ED147A 		vstr.32	s14, [r4, #80]
 753              	.LVL58:
 754              	.L21:
 755              	.LBE351:
 756              	.LBE387:
 757              	.LBE395:
 758              	.LBE471:
 759              	.LBB472:
 760              		.loc 5 56 0
 761 0184 B542     		cmp	r5, r6
 762 0186 00F08880 		beq	.L18
 763              	.LVL59:
 764              	.LBB462:
 765              	.LBB408:
 766              	.LBB409:
 767              		.loc 1 114 0
 768 018a D4ED07BA 		vldr.32	s23, [r4, #28]
 769              		.loc 1 113 0
 770 018e D4ED06CA 		vldr.32	s25, [r4, #24]
 771              	.LVL60:
 772              		.loc 1 126 0
 773 0192 4E49     		ldr	r1, .L35+40
 774              	.LBB410:
 775              	.LBB411:
 776              		.loc 4 287 0
 777 0194 BFEE008A 		vmov.f32	s16, #-1.0e+0
 778 0198 F0EE007A 		vmov.f32	s15, #2.0e+0
 779 019c F0EE488A 		vmov.f32	s17, s16
 780 01a0 EBEEA78A 		vfma.f32	s17, s23, s15
 781              	.LVL61:
 782              	.LBE411:
 783              	.LBE410:
 784              		.loc 1 126 0
 785 01a4 A1F10C00 		sub	r0, r1, #12
 786 01a8 B0EE6B1A 		vmov.f32	s2, s23
 787              	.LBB413:
 788              	.LBB412:
 789              		.loc 4 287 0
 790 01ac 18EE903A 		vmov	r3, s17	@ int
 791 01b0 23F00043 		bic	r3, r3, #-2147483648
 792 01b4 07EE903A 		vmov	s15, r3	@ int
 793              	.LVL62:
 794              	.LBE412:
 795              	.LBE413:
 796              		.loc 1 121 0
 797 01b8 FCEEE78A 		vcvt.u32.f32	s17, s15
 798              		.loc 1 126 0
ARM GAS  C:\msys64\tmp\ccdwucoK.s 			page 15


 799 01bc F0EE6C0A 		vmov.f32	s1, s25
 800              		.loc 1 121 0
 801 01c0 F8EE688A 		vcvt.f32.u32	s17, s17
 802              		.loc 1 126 0
 803 01c4 B0EE490A 		vmov.f32	s0, s18
 804              		.loc 1 121 0
 805 01c8 77EEE88A 		vsub.f32	s17, s15, s17
 806              	.LVL63:
 807              		.loc 1 126 0
 808 01cc FFF7FEFF 		bl	_ZN5VPSFI11PhaseShaperEfffPf
 809              	.LVL64:
 810              		.loc 1 127 0
 811 01d0 7AEE68AA 		vsub.f32	s21, s20, s17
 812              		.loc 1 130 0
 813 01d4 3E49     		ldr	r1, .L35+44
 814              		.loc 1 127 0
 815 01d6 6AEE80AA 		vmul.f32	s21, s21, s0
 816              	.LVL65:
 817              		.loc 1 130 0
 818 01da B6EE001A 		vmov.f32	s2, #5.0e-1
 819 01de B0EE490A 		vmov.f32	s0, s18
 820 01e2 3BEE811A 		vadd.f32	s2, s23, s2
 821              	.LVL66:
 822 01e6 F0EE6C0A 		vmov.f32	s1, s25
 823 01ea A1F11000 		sub	r0, r1, #16
 824              		.loc 1 128 0
 825 01ee C4ED03AA 		vstr.32	s21, [r4, #12]
 826              		.loc 1 130 0
 827 01f2 FFF7FEFF 		bl	_ZN5VPSFI11PhaseShaperEfffPf
 828              	.LVL67:
 829              		.loc 1 131 0
 830 01f6 28EE800A 		vmul.f32	s0, s17, s0
 831              	.LVL68:
 832              	.LBB414:
 833              	.LBB415:
 834              		.loc 3 385 0
 835 01fa D4ED0A7A 		vldr.32	s15, [r4, #40]
 836 01fe 94ED0F6A 		vldr.32	s12, [r4, #60]
 837              	.LBE415:
 838              	.LBE414:
 839              		.loc 1 132 0
 840 0202 84ED040A 		vstr.32	s0, [r4, #16]
 841              		.loc 1 134 0
 842 0206 3AEE800A 		vadd.f32	s0, s21, s0
 843              	.LVL69:
 844              	.LBB420:
 845              	.LBB416:
 846              		.loc 3 387 0
 847 020a 94ED0D7A 		vldr.32	s14, [r4, #52]
 848              	.LBE416:
 849              	.LBE420:
 850              	.LBB421:
 851              	.LBB422:
 852 020e D4ED146A 		vldr.32	s13, [r4, #80]
 853              	.LBE422:
 854              	.LBE421:
 855              	.LBB426:
ARM GAS  C:\msys64\tmp\ccdwucoK.s 			page 16


 856              	.LBB417:
 857              		.loc 3 385 0
 858 0212 A0EE276A 		vfma.f32	s12, s0, s15
 859              	.LVL70:
 860              		.loc 3 387 0
 861 0216 D4ED0B7A 		vldr.32	s15, [r4, #44]
 862 021a 27EE467A 		vnmul.f32	s14, s14, s12
 863              	.LBE417:
 864              	.LBE426:
 865              		.loc 1 127 0
 866 021e B7EE00CA 		vmov.f32	s24, #1.0e+0
 867              	.LBB427:
 868              	.LBB418:
 869              		.loc 3 387 0
 870 0222 A0EE277A 		vfma.f32	s14, s0, s15
 871              	.LBE418:
 872              	.LBE427:
 873              	.LBB428:
 874              	.LBB423:
 875              		.loc 3 385 0
 876 0226 D4ED117A 		vldr.32	s15, [r4, #68]
 877              	.LBE423:
 878              	.LBE428:
 879              	.LBB429:
 880              	.LBB419:
 881              		.loc 3 387 0
 882 022a 84ED0F7A 		vstr.32	s14, [r4, #60]
 883              	.LVL71:
 884              	.LBE419:
 885              	.LBE429:
 886              	.LBB430:
 887              	.LBB424:
 888              		.loc 3 385 0
 889 022e 94ED167A 		vldr.32	s14, [r4, #88]
 890 0232 A6EE277A 		vfma.f32	s14, s12, s15
 891              	.LVL72:
 892              		.loc 3 387 0
 893 0236 D4ED127A 		vldr.32	s15, [r4, #72]
 894 023a 66EEC76A 		vnmul.f32	s13, s13, s14
 895 023e E6EE276A 		vfma.f32	s13, s12, s15
 896              	.LBE424:
 897              	.LBE430:
 898              		.loc 1 137 0
 899 0242 D4ED027A 		vldr.32	s15, [r4, #8]
 900              	.LBB431:
 901              	.LBB425:
 902              		.loc 3 387 0
 903 0246 C4ED166A 		vstr.32	s13, [r4, #88]
 904              	.LVL73:
 905              	.LBE425:
 906              	.LBE431:
 907              	.LBB432:
 908              	.LBB433:
 909              		.loc 4 826 0
 910 024a 37EE677A 		vsub.f32	s14, s14, s15
 911 024e E9EE077A 		vfma.f32	s15, s18, s14
 912              	.LVL74:
ARM GAS  C:\msys64\tmp\ccdwucoK.s 			page 17


 913              	.LBE433:
 914              	.LBE432:
 915              	.LBE409:
 916              	.LBE408:
 917              	.LBB435:
 918              	.LBB436:
 919              		.loc 1 85 0
 920 0252 39EE299A 		vadd.f32	s18, s18, s19
 921              	.LVL75:
 922              	.LBE436:
 923              	.LBE435:
 924              	.LBB440:
 925              	.LBB441:
 926              	.LBB442:
 927              	.LBB443:
 928              	.LBB444:
 929              	.LBB445:
 930              		.loc 4 193 0
 931 0256 F4EEC87A 		vcmpe.f32	s15, s16
 932              	.LBE445:
 933              	.LBE444:
 934              	.LBE443:
 935              	.LBE442:
 936              	.LBE441:
 937              	.LBE440:
 938              	.LBB456:
 939              	.LBB437:
 940              		.loc 1 86 0
 941 025a BCEEC97A 		vcvt.u32.f32	s14, s18
 942              	.LBE437:
 943              	.LBE456:
 944              	.LBB457:
 945              	.LBB454:
 946              	.LBB452:
 947              	.LBB450:
 948              	.LBB448:
 949              	.LBB446:
 950              		.loc 4 193 0
 951 025e F1EE10FA 		vmrs	APSR_nzcv, FPSCR
 952              	.LBE446:
 953              	.LBE448:
 954              	.LBE450:
 955              	.LBE452:
 956              	.LBE454:
 957              	.LBE457:
 958              	.LBB458:
 959              	.LBB438:
 960              		.loc 1 86 0
 961 0262 B8EE477A 		vcvt.f32.u32	s14, s14
 962              	.LBE438:
 963              	.LBE458:
 964              	.LBB459:
 965              	.LBB434:
 966              		.loc 1 138 0
 967 0266 C4ED027A 		vstr.32	s15, [r4, #8]
 968              	.LVL76:
 969              	.LBE434:
ARM GAS  C:\msys64\tmp\ccdwucoK.s 			page 18


 970              	.LBE459:
 971              	.LBB460:
 972              	.LBB439:
 973              		.loc 1 86 0
 974 026a 39EE479A 		vsub.f32	s18, s18, s14
 975              	.LVL77:
 976              	.LBE439:
 977              	.LBE460:
 978              	.LBB461:
 979              	.LBB455:
 980              	.LBB453:
 981              	.LBB451:
 982              	.LBB449:
 983              	.LBB447:
 984              		.loc 4 193 0
 985 026e 07DB     		blt	.L33
 986              	.LVL78:
 987 0270 F4EECC7A 		vcmpe.f32	s15, s24
 988 0274 F1EE10FA 		vmrs	APSR_nzcv, FPSCR
 989 0278 A8BF     		it	ge
 990 027a F0EE4C7A 		vmovge.f32	s15, s24
 991              	.LVL79:
 992 027e 01E0     		b	.L19
 993              	.LVL80:
 994              	.L33:
 995 0280 F0EE487A 		vmov.f32	s15, s16
 996              	.LVL81:
 997              	.L19:
 998              	.LBE447:
 999              	.LBE449:
 1000              	.LBE451:
 1001              	.LBE453:
 1002              	.LBE455:
 1003              	.LBE461:
 1004              		.loc 5 68 0
 1005 0284 27EEA77A 		vmul.f32	s14, s15, s15
 1006 0288 27EEC77A 		vnmul.f32	s14, s15, s14
 1007 028c E7EE0B7A 		vfma.f32	s15, s14, s22
 1008 0290 FEEEE07A 		vcvt.s32.f32	s15, s15, #31
 1009 0294 E5EC017A 		vstmia.32	r5!, {s15}	@ int
 1010              	.LVL82:
 1011              	.LBE462:
 1012              		.loc 5 56 0
 1013 0298 74E7     		b	.L21
 1014              	.LVL83:
 1015              	.L18:
 1016              	.LBE472:
 1017              		.loc 5 72 0
 1018 029a 84ED009A 		vstr.32	s18, [r4]
 1019              	.LVL84:
 1020              		.loc 5 74 0
 1021 029e BDEC0A8B 		vldm	sp!, {d8-d12}
 1022              		.cfi_restore 88
 1023              		.cfi_restore 89
 1024              		.cfi_restore 86
 1025              		.cfi_restore 87
 1026              		.cfi_restore 84
ARM GAS  C:\msys64\tmp\ccdwucoK.s 			page 19


 1027              		.cfi_restore 85
 1028              		.cfi_restore 82
 1029              		.cfi_restore 83
 1030              		.cfi_restore 80
 1031              		.cfi_restore 81
 1032              		.cfi_def_cfa_offset 16
 1033 02a2 70BD     		pop	{r4, r5, r6, pc}
 1034              	.LVL85:
 1035              	.L36:
 1036              		.align	2
 1037              	.L35:
 1038 02a4 00000000 		.word	.LANCHOR0
 1039 02a8 00000000 		.word	0
 1040 02ac 8180803B 		.word	998277249
 1041 02b0 BC9C0244 		.word	1141021884
 1042 02b4 00000000 		.word	midi_to_hz_lut_f
 1043 02b8 00000000 		.word	tanpi_lut_f
 1044 02bc CDCC4C3C 		.word	1011666125
 1045 02c0 49FFB846 		.word	1186529097
 1046 02c4 3EC3AE37 		.word	934200126
 1047 02c8 48E1FA3E 		.word	1056629064
 1048 02cc 0C000000 		.word	.LANCHOR0+12
 1049 02d0 10000000 		.word	.LANCHOR0+16
 1050              		.cfi_endproc
 1051              	.LFE296:
 1052              		.size	_hook_cycle, .-_hook_cycle
 1053              		.align	1
 1054              		.global	_hook_on
 1055              		.thumb
 1056              		.thumb_func
 1057              		.type	_hook_on, %function
 1058              	_hook_on:
 1059              	.LFB297:
 1060              		.loc 5 76 0
 1061              		.cfi_startproc
 1062              		@ args = 0, pretend = 0, frame = 0
 1063              		@ frame_needed = 0, uses_anonymous_args = 0
 1064              		@ link register save eliminated.
 1065              	.LVL86:
 1066              		.loc 5 79 0
 1067 02d4 024A     		ldr	r2, .L38
 1068 02d6 137D     		ldrb	r3, [r2, #20]	@ zero_extendqisi2
 1069 02d8 43F00103 		orr	r3, r3, #1
 1070 02dc 1375     		strb	r3, [r2, #20]
 1071 02de 7047     		bx	lr
 1072              	.L39:
 1073              		.align	2
 1074              	.L38:
 1075 02e0 00000000 		.word	.LANCHOR0
 1076              		.cfi_endproc
 1077              	.LFE297:
 1078              		.size	_hook_on, .-_hook_on
 1079              		.align	1
 1080              		.global	_hook_off
 1081              		.thumb
 1082              		.thumb_func
 1083              		.type	_hook_off, %function
ARM GAS  C:\msys64\tmp\ccdwucoK.s 			page 20


 1084              	_hook_off:
 1085              	.LFB298:
 1086              		.loc 5 82 0
 1087              		.cfi_startproc
 1088              		@ args = 0, pretend = 0, frame = 0
 1089              		@ frame_needed = 0, uses_anonymous_args = 0
 1090              		@ link register save eliminated.
 1091              	.LVL87:
 1092 02e4 7047     		bx	lr
 1093              		.cfi_endproc
 1094              	.LFE298:
 1095              		.size	_hook_off, .-_hook_off
 1096              		.align	1
 1097              		.global	_hook_param
 1098              		.thumb
 1099              		.thumb_func
 1100              		.type	_hook_param, %function
 1101              	_hook_param:
 1102              	.LFB299:
 1103              		.loc 5 87 0
 1104              		.cfi_startproc
 1105              		@ args = 0, pretend = 0, frame = 0
 1106              		@ frame_needed = 0, uses_anonymous_args = 0
 1107              		@ link register save eliminated.
 1108              	.LVL88:
 1109              		.loc 5 87 0
 1110 02e6 07EE901A 		vmov	s15, r1	@ int
 1111              		.loc 5 91 0
 1112 02ea 0328     		cmp	r0, #3
 1113 02ec 52D8     		bhi	.L41
 1114 02ee DFE800F0 		tbb	[pc, r0]
 1115              	.L44:
 1116 02f2 02       		.byte	(.L43-.L44)/2
 1117 02f3 1D       		.byte	(.L45-.L44)/2
 1118 02f4 3C       		.byte	(.L46-.L44)/2
 1119 02f5 48       		.byte	(.L47-.L44)/2
 1120              		.p2align 1
 1121              	.L43:
 1122              		.loc 5 94 0
 1123 02f6 F8EEE77A 		vcvt.f32.s32	s15, s15
 1124 02fa 9FED277A 		vldr.32	s14, .L60
 1125 02fe 67EE877A 		vmul.f32	s15, s15, s14
 1126              	.LVL89:
 1127              	.LBB473:
 1128              	.LBB474:
 1129              	.LBB475:
 1130              	.LBB476:
 1131              		.loc 4 193 0
 1132 0302 F5EEC07A 		vcmpe.f32	s15, #0
 1133 0306 F1EE10FA 		vmrs	APSR_nzcv, FPSCR
 1134 030a 09DB     		blt	.L58
 1135              	.LVL90:
 1136              	.LBE476:
 1137              	.LBE475:
 1138              	.LBB478:
 1139              	.LBB479:
 1140 030c B7EE007A 		vmov.f32	s14, #1.0e+0
ARM GAS  C:\msys64\tmp\ccdwucoK.s 			page 21


 1141              	.LBE479:
 1142              	.LBE478:
 1143              	.LBB480:
 1144              	.LBB477:
 1145 0310 F4EEC77A 		vcmpe.f32	s15, s14
 1146 0314 F1EE10FA 		vmrs	APSR_nzcv, FPSCR
 1147 0318 A8BF     		it	ge
 1148 031a F0EE477A 		vmovge.f32	s15, s14
 1149              	.LVL91:
 1150 031e 01E0     		b	.L48
 1151              	.LVL92:
 1152              	.L58:
 1153 0320 DFED1E7A 		vldr.32	s15, .L60+4
 1154              	.LVL93:
 1155              	.L48:
 1156              	.LBE477:
 1157              	.LBE480:
 1158              	.LBE474:
 1159              	.LBE473:
 1160              		.loc 5 94 0
 1161 0324 1E4B     		ldr	r3, .L60+8
 1162 0326 C3ED067A 		vstr.32	s15, [r3, #24]
 1163              		.loc 5 95 0
 1164 032a 7047     		bx	lr
 1165              	.L45:
 1166              		.loc 5 99 0
 1167 032c F8EEE77A 		vcvt.f32.s32	s15, s15
 1168 0330 9FED197A 		vldr.32	s14, .L60
 1169 0334 67EE877A 		vmul.f32	s15, s15, s14
 1170              	.LVL94:
 1171              	.LBB481:
 1172              	.LBB482:
 1173              	.LBB483:
 1174              	.LBB484:
 1175              		.loc 4 193 0
 1176 0338 F5EEC07A 		vcmpe.f32	s15, #0
 1177 033c F1EE10FA 		vmrs	APSR_nzcv, FPSCR
 1178 0340 09DB     		blt	.L59
 1179              	.LVL95:
 1180              	.LBE484:
 1181              	.LBE483:
 1182              	.LBB486:
 1183              	.LBB487:
 1184 0342 B7EE007A 		vmov.f32	s14, #1.0e+0
 1185              	.LBE487:
 1186              	.LBE486:
 1187              	.LBB488:
 1188              	.LBB485:
 1189 0346 F4EEC77A 		vcmpe.f32	s15, s14
 1190 034a F1EE10FA 		vmrs	APSR_nzcv, FPSCR
 1191 034e A8BF     		it	ge
 1192 0350 F0EE477A 		vmovge.f32	s15, s14
 1193              	.LVL96:
 1194 0354 01E0     		b	.L50
 1195              	.LVL97:
 1196              	.L59:
 1197 0356 DFED117A 		vldr.32	s15, .L60+4
ARM GAS  C:\msys64\tmp\ccdwucoK.s 			page 22


 1198              	.LVL98:
 1199              	.L50:
 1200              	.LBE485:
 1201              	.LBE488:
 1202              	.LBE482:
 1203              	.LBE481:
 1204              		.loc 5 99 0
 1205 035a 114B     		ldr	r3, .L60+8
 1206 035c 93ED087A 		vldr.32	s14, [r3, #32]
 1207 0360 67EE277A 		vmul.f32	s15, s14, s15
 1208 0364 C3ED077A 		vstr.32	s15, [r3, #28]
 1209              		.loc 5 100 0
 1210 0368 7047     		bx	lr
 1211              	.L46:
 1212              		.loc 5 104 0
 1213 036a F8EEE77A 		vcvt.f32.s32	s15, s15
 1214 036e DFED0D6A 		vldr.32	s13, .L60+12
 1215 0372 0B4B     		ldr	r3, .L60+8
 1216 0374 B7EE007A 		vmov.f32	s14, #1.0e+0
 1217 0378 A7EEA67A 		vfma.f32	s14, s15, s13
 1218 037c 83ED087A 		vstr.32	s14, [r3, #32]
 1219              		.loc 5 105 0
 1220 0380 7047     		bx	lr
 1221              	.L47:
 1222              		.loc 5 109 0
 1223 0382 F8EEE77A 		vcvt.f32.s32	s15, s15
 1224 0386 B7EE007A 		vmov.f32	s14, #1.0e+0
 1225 038a 77EE877A 		vadd.f32	s15, s15, s14
 1226 038e 044B     		ldr	r3, .L60+8
 1227 0390 C3ED097A 		vstr.32	s15, [r3, #36]
 1228              	.L41:
 1229 0394 7047     		bx	lr
 1230              	.L61:
 1231 0396 00BF     		.align	2
 1232              	.L60:
 1233 0398 0AD7A33B 		.word	1000593162
 1234 039c 00000000 		.word	0
 1235 03a0 00000000 		.word	.LANCHOR0
 1236 03a4 EC51B83D 		.word	1035489772
 1237              		.cfi_endproc
 1238              	.LFE299:
 1239              		.size	_hook_param, .-_hook_param
 1240              		.section	.text.startup,"ax",%progbits
 1241              		.align	1
 1242              		.thumb
 1243              		.thumb_func
 1244              		.type	_GLOBAL__sub_I__hook_init, %function
 1245              	_GLOBAL__sub_I__hook_init:
 1246              	.LFB301:
 1247              		.loc 5 122 0
 1248              		.cfi_startproc
 1249              		@ args = 0, pretend = 0, frame = 0
 1250              		@ frame_needed = 0, uses_anonymous_args = 0
 1251              		@ link register save eliminated.
 1252              	.LVL99:
 1253              	.LBB515:
 1254              	.LBB516:
ARM GAS  C:\msys64\tmp\ccdwucoK.s 			page 23


 1255              	.LBB517:
 1256              	.LBB518:
 1257              	.LBB519:
 1258              	.LBB520:
 1259              		.loc 1 35 0
 1260 0000 104B     		ldr	r3, .L63
 1261 0002 4FF07C52 		mov	r2, #1056964608
 1262 0006 9A61     		str	r2, [r3, #24]	@ float
 1263 0008 DA61     		str	r2, [r3, #28]	@ float
 1264 000a 4FF07E52 		mov	r2, #1065353216
 1265 000e 1A62     		str	r2, [r3, #32]	@ float
 1266 0010 5A62     		str	r2, [r3, #36]	@ float
 1267              	.LVL100:
 1268              	.LBE520:
 1269              	.LBE519:
 1270              	.LBB521:
 1271              	.LBB522:
 1272              	.LBB523:
 1273              	.LBB524:
 1274              		.loc 3 77 0
 1275 0012 0022     		movs	r2, #0
 1276 0014 9A62     		str	r2, [r3, #40]	@ float
 1277 0016 DA62     		str	r2, [r3, #44]	@ float
 1278 0018 1A63     		str	r2, [r3, #48]	@ float
 1279 001a 5A63     		str	r2, [r3, #52]	@ float
 1280 001c 9A63     		str	r2, [r3, #56]	@ float
 1281              	.LVL101:
 1282              	.LBE524:
 1283              	.LBE523:
 1284              		.loc 3 344 0
 1285 001e DA63     		str	r2, [r3, #60]	@ float
 1286 0020 1A64     		str	r2, [r3, #64]	@ float
 1287              	.LVL102:
 1288              	.LBE522:
 1289              	.LBE521:
 1290              	.LBB525:
 1291              	.LBB526:
 1292              	.LBB527:
 1293              	.LBB528:
 1294              		.loc 3 77 0
 1295 0022 5A64     		str	r2, [r3, #68]	@ float
 1296 0024 9A64     		str	r2, [r3, #72]	@ float
 1297 0026 DA64     		str	r2, [r3, #76]	@ float
 1298 0028 1A65     		str	r2, [r3, #80]	@ float
 1299 002a 5A65     		str	r2, [r3, #84]	@ float
 1300              	.LVL103:
 1301              	.LBE528:
 1302              	.LBE527:
 1303              		.loc 3 344 0
 1304 002c 9A65     		str	r2, [r3, #88]	@ float
 1305 002e DA65     		str	r2, [r3, #92]	@ float
 1306              	.LVL104:
 1307              	.LBE526:
 1308              	.LBE525:
 1309              		.loc 1 65 0
 1310 0030 1A60     		str	r2, [r3]	@ float
 1311 0032 5A60     		str	r2, [r3, #4]	@ float
ARM GAS  C:\msys64\tmp\ccdwucoK.s 			page 24


 1312 0034 9A60     		str	r2, [r3, #8]	@ float
 1313 0036 DA60     		str	r2, [r3, #12]	@ float
 1314 0038 1A61     		str	r2, [r3, #16]	@ float
 1315 003a 1A7D     		ldrb	r2, [r3, #20]	@ zero_extendqisi2
 1316 003c 6FF30002 		bfc	r2, #0, #1
 1317 0040 1A75     		strb	r2, [r3, #20]
 1318              	.LVL105:
 1319 0042 7047     		bx	lr
 1320              	.L64:
 1321              		.align	2
 1322              	.L63:
 1323 0044 00000000 		.word	.LANCHOR0
 1324              	.LBE518:
 1325              	.LBE517:
 1326              	.LBE516:
 1327              	.LBE515:
 1328              		.cfi_endproc
 1329              	.LFE301:
 1330              		.size	_GLOBAL__sub_I__hook_init, .-_GLOBAL__sub_I__hook_init
 1331              		.section	.init_array,"aw",%init_array
 1332              		.align	2
 1333 0000 00000000 		.word	_GLOBAL__sub_I__hook_init(target1)
 1334              		.bss
 1335              		.align	2
 1336              		.set	.LANCHOR0,. + 0
 1337              		.type	_ZL5vpsfi, %object
 1338              		.size	_ZL5vpsfi, 96
 1339              	_ZL5vpsfi:
 1340 0000 00000000 		.space	96
 1340      00000000 
 1340      00000000 
 1340      00000000 
 1340      00000000 
 1341              		.text
 1342              	.Letext0:
 1343              		.file 6 "c:\\msys64\\home\\logue-sdk\\tools\\gcc\\gcc-arm-none-eabi-5_4-2016q3\\arm-none-eabi\\inc
 1344              		.file 7 "c:\\msys64\\home\\logue-sdk\\tools\\gcc\\gcc-arm-none-eabi-5_4-2016q3\\arm-none-eabi\\inc
 1345              		.file 8 "c:\\msys64\\home\\logue-sdk\\platform\\ext\\cmsis\\cmsis\\include\\arm_math.h"
 1346              		.file 9 "C:/msys64/home/logue-sdk/platform/nutekt-digital/inc/userosc.h"
 1347              		.file 10 "C:/msys64/home/logue-sdk/platform/nutekt-digital/inc/userprg.h"
 1348              		.file 11 "C:/msys64/home/logue-sdk/platform/nutekt-digital/inc/utils/int_math.h"