ARM GAS  C:\msys64\tmp\ccw9AezN.s 			page 1


   1              		.syntax unified
   2              		.cpu cortex-m4
   3              		.eabi_attribute 27, 1
   4              		.eabi_attribute 28, 1
   5              		.fpu fpv4-sp-d16
   6              		.eabi_attribute 20, 1
   7              		.eabi_attribute 21, 1
   8              		.eabi_attribute 23, 3
   9              		.eabi_attribute 24, 1
  10              		.eabi_attribute 25, 1
  11              		.eabi_attribute 26, 1
  12              		.eabi_attribute 30, 4
  13              		.eabi_attribute 34, 1
  14              		.eabi_attribute 18, 4
  15              		.thumb
  16              		.syntax unified
  17              		.file	"vps_formants_intpl.cpp"
  18              		.text
  19              	.Ltext0:
  20              		.cfi_sections	.debug_frame
  21              		.align	1
  22              		.thumb
  23              		.thumb_func
  24              		.type	_ZN5VPSFI11PhaseShaperEfff.isra.0, %function
  25              	_ZN5VPSFI11PhaseShaperEfff.isra.0:
  26              	.LFB258:
  27              		.file 1 "vps_formants_intpl.hpp"
  28              		.loc 1 55 0
  29              		.cfi_startproc
  30              		@ args = 0, pretend = 0, frame = 0
  31              		@ frame_needed = 0, uses_anonymous_args = 0
  32              		@ link register save eliminated.
  33              	.LVL0:
  34              	.LBB119:
  35              		.loc 1 58 0
  36 0000 B4EEE00A 		vcmpe.f32	s0, s1
  37 0004 F1EE10FA 		vmrs	APSR_nzcv, FPSCR
  38              	.LVL1:
  39              	.LBB120:
  40              		.loc 1 65 0
  41 0008 5DBF     		ittte	pl
  42 000a F7EE007A 		vmovpl.f32	s15, #1.0e+0
  43 000e 30EE600A 		vsubpl.f32	s0, s0, s1
  44              	.LVL2:
  45 0012 77EEE00A 		vsubpl.f32	s1, s15, s1
  46              	.LVL3:
  47              	.LBE120:
  48              	.LBB121:
  49              		.loc 1 60 0
  50 0016 C0EE207A 		vdivmi.f32	s15, s0, s1
  51              	.LBE121:
  52              	.LBE119:
  53              	.LBB125:
  54              	.LBB126:
  55              	.LBB127:
  56              	.LBB128:
  57              		.file 2 "C:/msys64/home/logue-sdk/platform/nutekt-digital/inc/osc_api.h"
ARM GAS  C:\msys64\tmp\ccw9AezN.s 			page 2


  58              		.loc 2 160 0
  59 001a 1C4A     		ldr	r2, .L8
  60              	.LBE128:
  61              	.LBE127:
  62              	.LBE126:
  63              	.LBE125:
  64              	.LBB138:
  65              	.LBB122:
  66              		.loc 1 65 0
  67 001c 5BBF     		ittet	pl
  68 001e 80EE207A 		vdivpl.f32	s14, s0, s1
  69 0022 77EEC17A 		vsubpl.f32	s15, s15, s2
  70              	.LBE122:
  71              	.LBB123:
  72              		.loc 1 60 0
  73 0026 27EE811A 		vmulmi.f32	s2, s15, s2
  74              	.LVL4:
  75              	.LBE123:
  76              	.LBB124:
  77              		.loc 1 65 0
  78 002a A7EE271A 		vfmapl.f32	s2, s14, s15
  79              	.LVL5:
  80              	.LBE124:
  81              	.LBE138:
  82              	.LBB139:
  83              	.LBB137:
  84              		.loc 2 171 0
  85 002e F5EE007A 		vmov.f32	s15, #2.5e-1
  86 0032 31EE271A 		vadd.f32	s2, s2, s15
  87              	.LVL6:
  88              	.LBB136:
  89              	.LBB135:
  90              		.loc 2 154 0
  91 0036 FCEEC17A 		vcvt.u32.f32	s15, s2
  92 003a F8EE677A 		vcvt.f32.u32	s15, s15
  93 003e 31EE671A 		vsub.f32	s2, s2, s15
  94              	.LVL7:
  95 0042 DFED137A 		vldr.32	s15, .L8+4
  96 0046 21EE271A 		vmul.f32	s2, s2, s15
  97              	.LVL8:
  98              		.loc 2 155 0
  99 004a FCEEC17A 		vcvt.u32.f32	s15, s2
 100 004e 17EE901A 		vmov	r1, s15	@ int
 101              	.LVL9:
 102              		.loc 2 157 0
 103 0052 01F07F03 		and	r3, r1, #127
 104              	.LVL10:
 105              		.loc 2 160 0
 106 0056 02EB8300 		add	r0, r2, r3, lsl #2
 107 005a 0133     		adds	r3, r3, #1
 108              	.LVL11:
 109              	.LBB129:
 110              	.LBB130:
 111              		.file 3 "C:/msys64/home/logue-sdk/platform/nutekt-digital/inc/utils/float_math.h"
 112              		.loc 3 826 0
 113 005c F8EE677A 		vcvt.f32.u32	s15, s15
 114              	.LBE130:
ARM GAS  C:\msys64\tmp\ccw9AezN.s 			page 3


 115              	.LBE129:
 116              		.loc 2 160 0
 117 0060 03F07F03 		and	r3, r3, #127
 118              	.LVL12:
 119 0064 02EB8303 		add	r3, r2, r3, lsl #2
 120              	.LVL13:
 121 0068 90ED000A 		vldr.32	s0, [r0]
 122              	.LVL14:
 123              	.LBB133:
 124              	.LBB131:
 125              		.loc 3 826 0
 126 006c 31EE671A 		vsub.f32	s2, s2, s15
 127              	.LVL15:
 128 0070 D3ED007A 		vldr.32	s15, [r3]
 129 0074 77EEC07A 		vsub.f32	s15, s15, s0
 130              	.LBE131:
 131              	.LBE133:
 132              		.loc 2 161 0
 133 0078 7F29     		cmp	r1, #127
 134              	.LBB134:
 135              	.LBB132:
 136              		.loc 3 826 0
 137 007a A1EE270A 		vfma.f32	s0, s2, s15
 138              	.LVL16:
 139              	.LBE132:
 140              	.LBE134:
 141              		.loc 2 161 0
 142 007e 88BF     		it	hi
 143 0080 B1EE400A 		vneghi.f32	s0, s0
 144              	.LVL17:
 145              	.LBE135:
 146              	.LBE136:
 147              	.LBE137:
 148              	.LBE139:
 149              		.loc 1 69 0
 150 0084 B1EE400A 		vneg.f32	s0, s0
 151 0088 7047     		bx	lr
 152              	.L9:
 153 008a 00BF     		.align	2
 154              	.L8:
 155 008c 00000000 		.word	wt_sine_lut_f
 156 0090 00008043 		.word	1132462080
 157              		.cfi_endproc
 158              	.LFE258:
 159              		.size	_ZN5VPSFI11PhaseShaperEfff.isra.0, .-_ZN5VPSFI11PhaseShaperEfff.isra.0
 160              		.section	.text._ZN5VPSFI7FormantEf,"axG",%progbits,_ZN5VPSFI7FormantEf,comdat
 161              		.align	1
 162              		.weak	_ZN5VPSFI7FormantEf
 163              		.thumb
 164              		.thumb_func
 165              		.type	_ZN5VPSFI7FormantEf, %function
 166              	_ZN5VPSFI7FormantEf:
 167              	.LFB249:
 168              		.loc 1 71 0
 169              		.cfi_startproc
 170              		@ args = 0, pretend = 0, frame = 0
 171              		@ frame_needed = 0, uses_anonymous_args = 0
ARM GAS  C:\msys64\tmp\ccw9AezN.s 			page 4


 172              	.LVL18:
 173              		.loc 1 74 0
 174 0000 90ED066A 		vldr.32	s12, [r0, #24]
 175              		.loc 1 73 0
 176 0004 90ED045A 		vldr.32	s10, [r0, #16]
 177              	.LVL19:
 178              		.loc 1 76 0
 179 0008 F0EE007A 		vmov.f32	s15, #2.0e+0
 180 000c FFEE006A 		vmov.f32	s13, #-1.0e+0
 181 0010 E6EE276A 		vfma.f32	s13, s12, s15
 182              		.loc 1 71 0
 183 0014 10B5     		push	{r4, lr}
 184              		.cfi_def_cfa_offset 8
 185              		.cfi_offset 4, -8
 186              		.cfi_offset 14, -4
 187              		.loc 1 76 0
 188 0016 F0EE667A 		vmov.f32	s15, s13
 189              	.LVL20:
 190              		.loc 1 77 0
 191 001a FCEEE66A 		vcvt.u32.f32	s13, s13
 192              	.LVL21:
 193              		.loc 1 81 0
 194 001e B0EE461A 		vmov.f32	s2, s12
 195              		.loc 1 77 0
 196 0022 F8EE666A 		vcvt.f32.u32	s13, s13
 197              		.loc 1 81 0
 198 0026 F0EE450A 		vmov.f32	s1, s10
 199              		.loc 1 71 0
 200 002a 0446     		mov	r4, r0
 201 002c F0EE405A 		vmov.f32	s11, s0
 202              		.loc 1 77 0
 203 0030 77EEE66A 		vsub.f32	s13, s15, s13
 204              	.LVL22:
 205              		.loc 1 81 0
 206 0034 FFF7FEFF 		bl	_ZN5VPSFI11PhaseShaperEfff.isra.0
 207              	.LVL23:
 208              		.loc 1 84 0
 209 0038 B6EE001A 		vmov.f32	s2, #5.0e-1
 210              		.loc 1 81 0
 211 003c F0EE404A 		vmov.f32	s9, s0
 212              	.LVL24:
 213              		.loc 1 84 0
 214 0040 36EE011A 		vadd.f32	s2, s12, s2
 215 0044 F0EE450A 		vmov.f32	s1, s10
 216 0048 B0EE650A 		vmov.f32	s0, s11
 217              	.LVL25:
 218 004c FFF7FEFF 		bl	_ZN5VPSFI11PhaseShaperEfff.isra.0
 219              	.LVL26:
 220              	.LBB140:
 221              	.LBB141:
 222              		.loc 2 171 0
 223 0050 F7EE007A 		vmov.f32	s15, #1.0e+0
 224 0054 26EE800A 		vmul.f32	s0, s13, s0
 225              	.LVL27:
 226 0058 77EEE66A 		vsub.f32	s13, s15, s13
 227 005c B5EE007A 		vmov.f32	s14, #2.5e-1
 228 0060 A4EEA60A 		vfma.f32	s0, s9, s13
ARM GAS  C:\msys64\tmp\ccw9AezN.s 			page 5


 229              	.LVL28:
 230              	.LBB142:
 231              	.LBB143:
 232              		.loc 2 160 0
 233 0064 1C4A     		ldr	r2, .L12
 234              	.LBE143:
 235              	.LBE142:
 236              	.LBE141:
 237              	.LBE140:
 238              		.loc 1 88 0
 239 0066 94ED026A 		vldr.32	s12, [r4, #8]
 240              	.LBB155:
 241              	.LBB154:
 242              		.loc 2 171 0
 243 006a 30EE077A 		vadd.f32	s14, s0, s14
 244              	.LVL29:
 245              	.LBB153:
 246              	.LBB152:
 247              		.loc 2 154 0
 248 006e FCEEC77A 		vcvt.u32.f32	s15, s14
 249 0072 F8EE677A 		vcvt.f32.u32	s15, s15
 250 0076 37EE677A 		vsub.f32	s14, s14, s15
 251              	.LVL30:
 252 007a DFED187A 		vldr.32	s15, .L12+4
 253 007e 67EE277A 		vmul.f32	s15, s14, s15
 254              	.LVL31:
 255              		.loc 2 155 0
 256 0082 BCEEE77A 		vcvt.u32.f32	s14, s15
 257 0086 17EE101A 		vmov	r1, s14	@ int
 258              	.LVL32:
 259              		.loc 2 157 0
 260 008a 01F07F03 		and	r3, r1, #127
 261              	.LVL33:
 262              	.LBB144:
 263              	.LBB145:
 264              		.loc 3 826 0
 265 008e 06EE901A 		vmov	s13, r1	@ int
 266              	.LBE145:
 267              	.LBE144:
 268              		.loc 2 160 0
 269 0092 02EB8300 		add	r0, r2, r3, lsl #2
 270 0096 0133     		adds	r3, r3, #1
 271              	.LVL34:
 272              	.LBB149:
 273              	.LBB146:
 274              		.loc 3 826 0
 275 0098 F8EE666A 		vcvt.f32.u32	s13, s13
 276              	.LBE146:
 277              	.LBE149:
 278              		.loc 2 160 0
 279 009c 03F07F03 		and	r3, r3, #127
 280              	.LVL35:
 281 00a0 02EB8303 		add	r3, r2, r3, lsl #2
 282              	.LVL36:
 283 00a4 90ED007A 		vldr.32	s14, [r0]
 284              	.LVL37:
 285              	.LBB150:
ARM GAS  C:\msys64\tmp\ccw9AezN.s 			page 6


 286              	.LBB147:
 287              		.loc 3 826 0
 288 00a8 77EEE67A 		vsub.f32	s15, s15, s13
 289              	.LVL38:
 290 00ac D3ED006A 		vldr.32	s13, [r3]
 291 00b0 76EEC76A 		vsub.f32	s13, s13, s14
 292              	.LBE147:
 293              	.LBE150:
 294              		.loc 2 161 0
 295 00b4 7F29     		cmp	r1, #127
 296              	.LBB151:
 297              	.LBB148:
 298              		.loc 3 826 0
 299 00b6 A7EEA67A 		vfma.f32	s14, s15, s13
 300              	.LVL39:
 301 00ba F0EE477A 		vmov.f32	s15, s14
 302              	.LVL40:
 303              	.LBE148:
 304              	.LBE151:
 305              		.loc 2 161 0
 306 00be 88BF     		it	hi
 307 00c0 F1EE477A 		vneghi.f32	s15, s14
 308              	.LVL41:
 309              	.LBE152:
 310              	.LBE153:
 311              	.LBE154:
 312              	.LBE155:
 313              	.LBB156:
 314              	.LBB157:
 315              		.loc 3 826 0
 316 00c4 77EEC67A 		vsub.f32	s15, s15, s12
 317 00c8 A5EEA76A 		vfma.f32	s12, s11, s15
 318              	.LVL42:
 319 00cc B0EE460A 		vmov.f32	s0, s12
 320              	.LVL43:
 321              	.LBE157:
 322              	.LBE156:
 323              		.loc 1 88 0
 324 00d0 84ED026A 		vstr.32	s12, [r4, #8]
 325              		.loc 1 90 0
 326 00d4 10BD     		pop	{r4, pc}
 327              	.LVL44:
 328              	.L13:
 329 00d6 00BF     		.align	2
 330              	.L12:
 331 00d8 00000000 		.word	wt_sine_lut_f
 332 00dc 00008043 		.word	1132462080
 333              		.cfi_endproc
 334              	.LFE249:
 335              		.size	_ZN5VPSFI7FormantEf, .-_ZN5VPSFI7FormantEf
 336              		.text
 337              		.align	1
 338              		.global	_hook_init
 339              		.thumb
 340              		.thumb_func
 341              		.type	_hook_init, %function
 342              	_hook_init:
ARM GAS  C:\msys64\tmp\ccw9AezN.s 			page 7


 343              	.LFB251:
 344              		.file 4 "vps_formants_intpl.cpp"
 345              		.loc 4 14 0
 346              		.cfi_startproc
 347              		@ args = 0, pretend = 0, frame = 0
 348              		@ frame_needed = 0, uses_anonymous_args = 0
 349              		@ link register save eliminated.
 350              	.LVL45:
 351 0094 7047     		bx	lr
 352              		.cfi_endproc
 353              	.LFE251:
 354              		.size	_hook_init, .-_hook_init
 355              		.align	1
 356              		.global	_hook_cycle
 357              		.thumb
 358              		.thumb_func
 359              		.type	_hook_cycle, %function
 360              	_hook_cycle:
 361              	.LFB252:
 362              		.loc 4 19 0
 363              		.cfi_startproc
 364              		@ args = 0, pretend = 0, frame = 0
 365              		@ frame_needed = 0, uses_anonymous_args = 0
 366              	.LVL46:
 367              		.loc 4 29 0
 368 0096 8088     		ldrh	r0, [r0, #4]
 369              	.LVL47:
 370              	.LBB188:
 371              	.LBB189:
 372              	.LBB190:
 373              	.LBB191:
 374              		.loc 3 826 0
 375 0098 9FED417A 		vldr.32	s14, .L37
 376              	.LBE191:
 377              	.LBE190:
 378              	.LBE189:
 379              	.LBE188:
 380              		.loc 4 29 0
 381 009c 0312     		asrs	r3, r0, #8
 382              	.LBB228:
 383              	.LBB220:
 384              	.LBB197:
 385              	.LBB198:
 386              		.loc 2 109 0
 387 009e 962B     		cmp	r3, #150
 388              	.LBE198:
 389              	.LBE197:
 390              	.LBE220:
 391              	.LBE228:
 392              		.loc 4 19 0
 393 00a0 2DE9F041 		push	{r4, r5, r6, r7, r8, lr}
 394              		.cfi_def_cfa_offset 24
 395              		.cfi_offset 4, -24
 396              		.cfi_offset 5, -20
 397              		.cfi_offset 6, -16
 398              		.cfi_offset 7, -12
 399              		.cfi_offset 8, -8
ARM GAS  C:\msys64\tmp\ccw9AezN.s 			page 8


 400              		.cfi_offset 14, -4
 401 00a4 0E46     		mov	r6, r1
 402              		.loc 4 32 0
 403 00a6 C1B2     		uxtb	r1, r0
 404              	.LVL48:
 405              	.LBB229:
 406              	.LBB221:
 407              	.LBB203:
 408              	.LBB199:
 409              		.loc 2 109 0
 410 00a8 D8BF     		it	le
 411 00aa 1846     		movle	r0, r3
 412              	.LBE199:
 413              	.LBE203:
 414              		.loc 2 120 0
 415 00ac 03F10103 		add	r3, r3, #1
 416 00b0 DBB2     		uxtb	r3, r3
 417              	.LBE221:
 418              	.LBE229:
 419              		.loc 4 32 0
 420 00b2 07EE901A 		vmov	s15, r1	@ int
 421              	.LBB230:
 422              	.LBB222:
 423              	.LBB204:
 424              	.LBB200:
 425              		.loc 2 109 0
 426 00b6 C8BF     		it	gt
 427 00b8 9720     		movgt	r0, #151
 428 00ba 3A49     		ldr	r1, .L37+4
 429              	.LBE200:
 430              	.LBE204:
 431              	.LBE222:
 432              	.LBE230:
 433              		.loc 4 26 0
 434 00bc 3A4C     		ldr	r4, .L37+8
 435              	.LBB231:
 436              	.LBB223:
 437              	.LBB205:
 438              	.LBB206:
 439              		.loc 2 109 0
 440 00be 962B     		cmp	r3, #150
 441 00c0 88BF     		it	hi
 442 00c2 9723     		movhi	r3, #151
 443              	.LBE206:
 444              	.LBE205:
 445              	.LBB208:
 446              	.LBB192:
 447              		.loc 3 826 0
 448 00c4 F8EEE77A 		vcvt.f32.s32	s15, s15
 449              	.LBE192:
 450              	.LBE208:
 451              	.LBB209:
 452              	.LBB201:
 453              		.loc 2 109 0
 454 00c8 01EB8000 		add	r0, r1, r0, lsl #2
 455              	.LBE201:
 456              	.LBE209:
ARM GAS  C:\msys64\tmp\ccw9AezN.s 			page 9


 457              	.LBB210:
 458              	.LBB207:
 459 00cc 01EB8303 		add	r3, r1, r3, lsl #2
 460              	.LBE207:
 461              	.LBE210:
 462              	.LBB211:
 463              	.LBB193:
 464              		.loc 3 826 0
 465 00d0 67EE877A 		vmul.f32	s15, s15, s14
 466              	.LBE193:
 467              	.LBE211:
 468              	.LBE223:
 469              	.LBE231:
 470              		.loc 4 19 0
 471 00d4 2DED028B 		vpush.64	{d8}
 472              		.cfi_def_cfa_offset 32
 473              		.cfi_offset 80, -32
 474              		.cfi_offset 81, -28
 475              	.LBB232:
 476              	.LBB224:
 477              	.LBB212:
 478              	.LBB194:
 479              		.loc 3 826 0
 480 00d8 93ED007A 		vldr.32	s14, [r3]
 481              	.LBE194:
 482              	.LBE212:
 483              	.LBB213:
 484              	.LBB202:
 485              		.loc 2 109 0
 486 00dc D0ED008A 		vldr.32	s17, [r0]
 487              	.LBE202:
 488              	.LBE213:
 489              	.LBE224:
 490              	.LBE232:
 491              		.loc 4 26 0
 492 00e0 257B     		ldrb	r5, [r4, #12]	@ zero_extendqisi2
 493              		.loc 4 35 0
 494 00e2 94ED008A 		vldr.32	s16, [r4]
 495              	.LBB233:
 496              	.LBB225:
 497              	.LBB214:
 498              	.LBB195:
 499              		.loc 3 826 0
 500 00e6 37EE687A 		vsub.f32	s14, s14, s17
 501              	.LBE195:
 502              	.LBE214:
 503              	.LBE225:
 504              	.LBE233:
 505              		.loc 4 26 0
 506 00ea 05F00305 		and	r5, r5, #3
 507              	.LVL49:
 508              	.LBB234:
 509              	.LBB226:
 510              	.LBB215:
 511              	.LBB196:
 512              		.loc 3 826 0
 513 00ee E7EE878A 		vfma.f32	s17, s15, s14
ARM GAS  C:\msys64\tmp\ccw9AezN.s 			page 10


 514              	.LVL50:
 515              	.LBE196:
 516              	.LBE215:
 517              	.LBE226:
 518              	.LBE234:
 519              	.LBB235:
 520              	.LBB236:
 521              		.loc 4 46 0
 522 00f2 05F00207 		and	r7, r5, #2
 523              	.LBE236:
 524              	.LBE235:
 525              		.loc 4 40 0
 526 00f6 06EB8208 		add	r8, r6, r2, lsl #2
 527              	.LBB253:
 528              	.LBB227:
 529              	.LBB216:
 530              	.LBB217:
 531              	.LBB218:
 532              	.LBB219:
 533              		.loc 3 193 0
 534 00fa DFED2C7A 		vldr.32	s15, .L37+12
 535 00fe F4EEE78A 		vcmpe.f32	s17, s15
 536 0102 F1EE10FA 		vmrs	APSR_nzcv, FPSCR
 537 0106 B8BF     		it	lt
 538 0108 F0EE687A 		vmovlt.f32	s15, s17
 539              	.LVL51:
 540              	.LBE219:
 541              	.LBE218:
 542              	.LBE217:
 543              	.LBE216:
 544              		.loc 2 124 0
 545 010c DFED288A 		vldr.32	s17, .L37+16
 546 0110 67EEA88A 		vmul.f32	s17, s15, s17
 547              	.LBE227:
 548              	.LBE253:
 549              	.LBB254:
 550              	.LBB251:
 551              		.loc 4 46 0
 552 0114 FFB2     		uxtb	r7, r7
 553              	.LBE251:
 554              	.LBE254:
 555              		.loc 4 32 0
 556 0116 C4ED018A 		vstr.32	s17, [r4, #4]
 557              	.LVL52:
 558              	.L24:
 559              	.LBB255:
 560              		.loc 4 43 0
 561 011a 4645     		cmp	r6, r8
 562 011c 3AD0     		beq	.L19
 563              	.LVL53:
 564              	.LBB252:
 565              		.loc 4 46 0
 566 011e 2FB1     		cbz	r7, .L28
 567              		.loc 4 47 0
 568 0120 B0EE480A 		vmov.f32	s0, s16
 569 0124 2048     		ldr	r0, .L37+8
 570 0126 FFF7FEFF 		bl	_ZN5VPSFI7FormantEf
ARM GAS  C:\msys64\tmp\ccw9AezN.s 			page 11


 571              	.LVL54:
 572 012a 01E0     		b	.L20
 573              	.LVL55:
 574              	.L28:
 575              		.loc 4 44 0
 576 012c 9FED210A 		vldr.32	s0, .L37+20
 577              	.LVL56:
 578              	.L20:
 579              	.LBB237:
 580              		.loc 4 50 0
 581 0130 EB07     		lsls	r3, r5, #31
 582 0132 07D5     		bpl	.L21
 583              	.LVL57:
 584              	.LBB238:
 585              		.loc 4 53 0
 586 0134 94ED051A 		vldr.32	s2, [r4, #20]
 587 0138 D4ED040A 		vldr.32	s1, [r4, #16]
 588 013c B0EE480A 		vmov.f32	s0, s16
 589              	.LVL58:
 590 0140 FFF75EFF 		bl	_ZN5VPSFI11PhaseShaperEfff.isra.0
 591              	.LVL59:
 592              	.L21:
 593              	.LBE238:
 594              	.LBE237:
 595              	.LBB239:
 596              	.LBB240:
 597              		.loc 1 93 0
 598 0144 38EE288A 		vadd.f32	s16, s16, s17
 599              	.LVL60:
 600              		.loc 1 94 0
 601 0148 FCEEC87A 		vcvt.u32.f32	s15, s16
 602 014c F8EE677A 		vcvt.f32.u32	s15, s15
 603 0150 38EE678A 		vsub.f32	s16, s16, s15
 604              	.LVL61:
 605              	.LBE240:
 606              	.LBE239:
 607              	.LBB241:
 608              	.LBB242:
 609              	.LBB243:
 610              	.LBB244:
 611              	.LBB245:
 612              	.LBB246:
 613              		.loc 3 193 0
 614 0154 FFEE007A 		vmov.f32	s15, #-1.0e+0
 615 0158 B4EEE70A 		vcmpe.f32	s0, s15
 616 015c F1EE10FA 		vmrs	APSR_nzcv, FPSCR
 617 0160 09DB     		blt	.L35
 618              	.LVL62:
 619              	.LBE246:
 620              	.LBE245:
 621              	.LBB248:
 622              	.LBB249:
 623 0162 F7EE007A 		vmov.f32	s15, #1.0e+0
 624              	.LBE249:
 625              	.LBE248:
 626              	.LBB250:
 627              	.LBB247:
ARM GAS  C:\msys64\tmp\ccw9AezN.s 			page 12


 628 0166 B4EEE70A 		vcmpe.f32	s0, s15
 629 016a F1EE10FA 		vmrs	APSR_nzcv, FPSCR
 630 016e A8BF     		it	ge
 631 0170 B0EE670A 		vmovge.f32	s0, s15
 632              	.LVL63:
 633 0174 01E0     		b	.L22
 634              	.LVL64:
 635              	.L35:
 636 0176 B0EE670A 		vmov.f32	s0, s15
 637              	.LVL65:
 638              	.L22:
 639              	.LBE247:
 640              	.LBE250:
 641              	.LBE244:
 642              	.LBE243:
 643              	.LBE242:
 644              	.LBE241:
 645              		.loc 4 63 0
 646 017a 60EE007A 		vmul.f32	s15, s0, s0
 647 017e 9FED0E7A 		vldr.32	s14, .L37+24
 648 0182 60EE677A 		vnmul.f32	s15, s0, s15
 649 0186 A7EE870A 		vfma.f32	s0, s15, s14
 650 018a BEEEE00A 		vcvt.s32.f32	s0, s0, #31
 651 018e A6EC010A 		vstmia.32	r6!, {s0}	@ int
 652              	.LVL66:
 653              	.LBE252:
 654              		.loc 4 43 0
 655 0192 C2E7     		b	.L24
 656              	.LVL67:
 657              	.L19:
 658              	.LBE255:
 659              		.loc 4 68 0
 660 0194 84ED008A 		vstr.32	s16, [r4]
 661              	.LVL68:
 662              		.loc 4 70 0
 663 0198 BDEC028B 		vldm	sp!, {d8}
 664              		.cfi_restore 80
 665              		.cfi_restore 81
 666              		.cfi_def_cfa_offset 24
 667 019c BDE8F081 		pop	{r4, r5, r6, r7, r8, pc}
 668              	.LVL69:
 669              	.L38:
 670              		.align	2
 671              	.L37:
 672 01a0 8180803B 		.word	998277249
 673 01a4 00000000 		.word	midi_to_hz_lut_f
 674 01a8 00000000 		.word	.LANCHOR0
 675 01ac 49FFB846 		.word	1186529097
 676 01b0 3EC3AE37 		.word	934200126
 677 01b4 00000000 		.word	0
 678 01b8 CDCC4C3D 		.word	1028443341
 679              		.cfi_endproc
 680              	.LFE252:
 681              		.size	_hook_cycle, .-_hook_cycle
 682              		.align	1
 683              		.global	_hook_on
 684              		.thumb
ARM GAS  C:\msys64\tmp\ccw9AezN.s 			page 13


 685              		.thumb_func
 686              		.type	_hook_on, %function
 687              	_hook_on:
 688              	.LFB261:
 689              		.cfi_startproc
 690              		@ args = 0, pretend = 0, frame = 0
 691              		@ frame_needed = 0, uses_anonymous_args = 0
 692              		@ link register save eliminated.
 693 01bc 7047     		bx	lr
 694              		.cfi_endproc
 695              	.LFE261:
 696              		.size	_hook_on, .-_hook_on
 697              		.align	1
 698              		.global	_hook_off
 699              		.thumb
 700              		.thumb_func
 701              		.type	_hook_off, %function
 702              	_hook_off:
 703              	.LFB254:
 704              		.loc 4 77 0
 705              		.cfi_startproc
 706              		@ args = 0, pretend = 0, frame = 0
 707              		@ frame_needed = 0, uses_anonymous_args = 0
 708              		@ link register save eliminated.
 709              	.LVL70:
 710 01be 7047     		bx	lr
 711              		.cfi_endproc
 712              	.LFE254:
 713              		.size	_hook_off, .-_hook_off
 714              		.align	1
 715              		.global	_hook_param
 716              		.thumb
 717              		.thumb_func
 718              		.type	_hook_param, %function
 719              	_hook_param:
 720              	.LFB255:
 721              		.loc 4 82 0
 722              		.cfi_startproc
 723              		@ args = 0, pretend = 0, frame = 0
 724              		@ frame_needed = 0, uses_anonymous_args = 0
 725              		@ link register save eliminated.
 726              	.LVL71:
 727              		.loc 4 88 0
 728 01c0 07EE901A 		vmov	s15, r1	@ int
 729 01c4 B8EEE77A 		vcvt.f32.s32	s14, s15
 730 01c8 DFED117A 		vldr.32	s15, .L46
 731              		.loc 4 89 0
 732 01cc 0628     		cmp	r0, #6
 733              		.loc 4 88 0
 734 01ce 67EE277A 		vmul.f32	s15, s14, s15
 735              	.LVL72:
 736              		.loc 4 89 0
 737 01d2 0FD0     		beq	.L43
 738 01d4 0728     		cmp	r0, #7
 739 01d6 11D0     		beq	.L44
 740 01d8 C0B9     		cbnz	r0, .L41
 741              		.loc 4 92 0
ARM GAS  C:\msys64\tmp\ccw9AezN.s 			page 14


 742 01da 0E4B     		ldr	r3, .L46+4
 743 01dc DFED0E7A 		vldr.32	s15, .L46+8
 744              	.LVL73:
 745              		.loc 4 95 0
 746 01e0 1A7B     		ldrb	r2, [r3, #12]	@ zero_extendqisi2
 747              		.loc 4 92 0
 748 01e2 27EE277A 		vmul.f32	s14, s14, s15
 749              	.LVL74:
 750              		.loc 4 95 0
 751 01e6 0221     		movs	r1, #2
 752              	.LVL75:
 753 01e8 61F30102 		bfi	r2, r1, #0, #2
 754              		.loc 4 92 0
 755 01ec 83ED067A 		vstr.32	s14, [r3, #24]
 756              		.loc 4 95 0
 757 01f0 1A73     		strb	r2, [r3, #12]
 758              		.loc 4 96 0
 759 01f2 7047     		bx	lr
 760              	.LVL76:
 761              	.L43:
 762              		.loc 4 110 0
 763 01f4 074B     		ldr	r3, .L46+4
 764 01f6 C3ED047A 		vstr.32	s15, [r3, #16]
 765              		.loc 4 111 0
 766 01fa 7047     		bx	lr
 767              	.L44:
 768              		.loc 4 115 0
 769 01fc 054B     		ldr	r3, .L46+4
 770              		.loc 4 118 0
 771 01fe 1A7B     		ldrb	r2, [r3, #12]	@ zero_extendqisi2
 772              		.loc 4 115 0
 773 0200 C3ED057A 		vstr.32	s15, [r3, #20]
 774              		.loc 4 118 0
 775 0204 0121     		movs	r1, #1
 776              	.LVL77:
 777 0206 61F30102 		bfi	r2, r1, #0, #2
 778 020a 1A73     		strb	r2, [r3, #12]
 779              	.L41:
 780 020c 7047     		bx	lr
 781              	.L47:
 782 020e 00BF     		.align	2
 783              	.L46:
 784 0210 0820803A 		.word	981475336
 785 0214 00000000 		.word	.LANCHOR0
 786 0218 CDCCCC3D 		.word	1036831949
 787              		.cfi_endproc
 788              	.LFE255:
 789              		.size	_hook_param, .-_hook_param
 790              		.section	.text.startup,"ax",%progbits
 791              		.align	1
 792              		.thumb
 793              		.thumb_func
 794              		.type	_GLOBAL__sub_I__hook_init, %function
 795              	_GLOBAL__sub_I__hook_init:
 796              	.LFB257:
 797              		.loc 4 123 0
 798              		.cfi_startproc
ARM GAS  C:\msys64\tmp\ccw9AezN.s 			page 15


 799              		@ args = 0, pretend = 0, frame = 0
 800              		@ frame_needed = 0, uses_anonymous_args = 0
 801              		@ link register save eliminated.
 802              	.LVL78:
 803              	.LBB266:
 804              	.LBB267:
 805              	.LBB268:
 806              	.LBB269:
 807              	.LBB270:
 808              		.loc 1 46 0
 809 0000 084B     		ldr	r3, .L49
 810 0002 0022     		movs	r2, #0
 811 0004 1A60     		str	r2, [r3]	@ float
 812 0006 5A60     		str	r2, [r3, #4]	@ float
 813 0008 9A60     		str	r2, [r3, #8]	@ float
 814 000a 1A7B     		ldrb	r2, [r3, #12]	@ zero_extendqisi2
 815 000c 0121     		movs	r1, #1
 816 000e 61F30102 		bfi	r2, r1, #0, #2
 817 0012 1A73     		strb	r2, [r3, #12]
 818              	.LVL79:
 819              	.LBE270:
 820              	.LBE269:
 821              	.LBB271:
 822              	.LBB272:
 823              		.loc 1 32 0
 824 0014 4FF07C52 		mov	r2, #1056964608
 825 0018 1A61     		str	r2, [r3, #16]	@ float
 826 001a 5A61     		str	r2, [r3, #20]	@ float
 827 001c 4FF07F52 		mov	r2, #1069547520
 828 0020 9A61     		str	r2, [r3, #24]	@ float
 829              	.LVL80:
 830 0022 7047     		bx	lr
 831              	.L50:
 832              		.align	2
 833              	.L49:
 834 0024 00000000 		.word	.LANCHOR0
 835              	.LBE272:
 836              	.LBE271:
 837              	.LBE268:
 838              	.LBE267:
 839              	.LBE266:
 840              		.cfi_endproc
 841              	.LFE257:
 842              		.size	_GLOBAL__sub_I__hook_init, .-_GLOBAL__sub_I__hook_init
 843              		.section	.init_array,"aw",%init_array
 844              		.align	2
 845 0000 00000000 		.word	_GLOBAL__sub_I__hook_init(target1)
 846              		.bss
 847              		.align	2
 848              		.set	.LANCHOR0,. + 0
 849              		.type	_ZL5vpsfi, %object
 850              		.size	_ZL5vpsfi, 28
 851              	_ZL5vpsfi:
 852 0000 00000000 		.space	28
 852      00000000 
 852      00000000 
 852      00000000 
ARM GAS  C:\msys64\tmp\ccw9AezN.s 			page 16


 852      00000000 
 853              		.text
 854              	.Letext0:
 855              		.file 5 "c:\\msys64\\home\\logue-sdk\\tools\\gcc\\gcc-arm-none-eabi-5_4-2016q3\\arm-none-eabi\\inc
 856              		.file 6 "c:\\msys64\\home\\logue-sdk\\tools\\gcc\\gcc-arm-none-eabi-5_4-2016q3\\arm-none-eabi\\inc
 857              		.file 7 "c:\\msys64\\home\\logue-sdk\\platform\\ext\\cmsis\\cmsis\\include\\arm_math.h"
 858              		.file 8 "C:/msys64/home/logue-sdk/platform/nutekt-digital/inc/userosc.h"
 859              		.file 9 "C:/msys64/home/logue-sdk/platform/nutekt-digital/inc/userprg.h"
 860              		.file 10 "C:/msys64/home/logue-sdk/platform/nutekt-digital/inc/utils/int_math.h"
 861              		.section	.debug_info,"",%progbits
 862              	.Ldebug_info0:
 863 0000 F70E0000 		.4byte	0xef7
 864 0004 0400     		.2byte	0x4
 865 0006 00000000 		.4byte	.Ldebug_abbrev0
 866 000a 04       		.byte	0x4
 867 000b 01       		.uleb128 0x1
 868 000c 56000000 		.4byte	.LASF112
 869 0010 04       		.byte	0x4
 870 0011 67050000 		.4byte	.LASF113
 871 0015 FD060000 		.4byte	.LASF114
 872 0019 E8010000 		.4byte	.Ldebug_ranges0+0x1e8
 873 001d 00000000 		.4byte	0
 874 0021 00000000 		.4byte	.Ldebug_line0
 875 0025 02       		.uleb128 0x2
 876 0026 04       		.byte	0x4
 877 0027 04       		.byte	0x4
 878 0028 D0020000 		.4byte	.LASF0
 879 002c 02       		.uleb128 0x2
 880 002d 04       		.byte	0x4
 881 002e 07       		.byte	0x7
 882 002f 6E010000 		.4byte	.LASF1
 883 0033 03       		.uleb128 0x3
 884 0034 04       		.byte	0x4
 885 0035 05       		.byte	0x5
 886 0036 696E7400 		.ascii	"int\000"
 887 003a 02       		.uleb128 0x2
 888 003b 01       		.byte	0x1
 889 003c 06       		.byte	0x6
 890 003d BC060000 		.4byte	.LASF2
 891 0041 04       		.uleb128 0x4
 892 0042 CD050000 		.4byte	.LASF5
 893 0046 05       		.byte	0x5
 894 0047 1D       		.byte	0x1d
 895 0048 4C000000 		.4byte	0x4c
 896 004c 02       		.uleb128 0x2
 897 004d 01       		.byte	0x1
 898 004e 08       		.byte	0x8
 899 004f 5A060000 		.4byte	.LASF3
 900 0053 02       		.uleb128 0x2
 901 0054 02       		.byte	0x2
 902 0055 05       		.byte	0x5
 903 0056 FA040000 		.4byte	.LASF4
 904 005a 04       		.uleb128 0x4
 905 005b 10030000 		.4byte	.LASF6
 906 005f 05       		.byte	0x5
 907 0060 2B       		.byte	0x2b
 908 0061 65000000 		.4byte	0x65
ARM GAS  C:\msys64\tmp\ccw9AezN.s 			page 17


 909 0065 02       		.uleb128 0x2
 910 0066 02       		.byte	0x2
 911 0067 07       		.byte	0x7
 912 0068 C8060000 		.4byte	.LASF7
 913 006c 04       		.uleb128 0x4
 914 006d 91010000 		.4byte	.LASF8
 915 0071 05       		.byte	0x5
 916 0072 3F       		.byte	0x3f
 917 0073 77000000 		.4byte	0x77
 918 0077 02       		.uleb128 0x2
 919 0078 04       		.byte	0x4
 920 0079 05       		.byte	0x5
 921 007a 3C050000 		.4byte	.LASF9
 922 007e 04       		.uleb128 0x4
 923 007f 68060000 		.4byte	.LASF10
 924 0083 05       		.byte	0x5
 925 0084 41       		.byte	0x41
 926 0085 89000000 		.4byte	0x89
 927 0089 02       		.uleb128 0x2
 928 008a 04       		.byte	0x4
 929 008b 07       		.byte	0x7
 930 008c 1C060000 		.4byte	.LASF11
 931 0090 02       		.uleb128 0x2
 932 0091 08       		.byte	0x8
 933 0092 05       		.byte	0x5
 934 0093 F7030000 		.4byte	.LASF12
 935 0097 02       		.uleb128 0x2
 936 0098 08       		.byte	0x8
 937 0099 07       		.byte	0x7
 938 009a F0020000 		.4byte	.LASF13
 939 009e 04       		.uleb128 0x4
 940 009f BF030000 		.4byte	.LASF14
 941 00a3 06       		.byte	0x6
 942 00a4 18       		.byte	0x18
 943 00a5 41000000 		.4byte	0x41
 944 00a9 04       		.uleb128 0x4
 945 00aa 94040000 		.4byte	.LASF15
 946 00ae 06       		.byte	0x6
 947 00af 24       		.byte	0x24
 948 00b0 5A000000 		.4byte	0x5a
 949 00b4 04       		.uleb128 0x4
 950 00b5 3C060000 		.4byte	.LASF16
 951 00b9 06       		.byte	0x6
 952 00ba 2C       		.byte	0x2c
 953 00bb 6C000000 		.4byte	0x6c
 954 00bf 04       		.uleb128 0x4
 955 00c0 B1020000 		.4byte	.LASF17
 956 00c4 06       		.byte	0x6
 957 00c5 30       		.byte	0x30
 958 00c6 7E000000 		.4byte	0x7e
 959 00ca 02       		.uleb128 0x2
 960 00cb 08       		.byte	0x8
 961 00cc 04       		.byte	0x4
 962 00cd 88040000 		.4byte	.LASF18
 963 00d1 05       		.uleb128 0x5
 964 00d2 91060000 		.4byte	.LASF115
 965 00d6 02       		.uleb128 0x2
ARM GAS  C:\msys64\tmp\ccw9AezN.s 			page 18


 966 00d7 04       		.byte	0x4
 967 00d8 07       		.byte	0x7
 968 00d9 FF050000 		.4byte	.LASF19
 969 00dd 02       		.uleb128 0x2
 970 00de 01       		.byte	0x1
 971 00df 08       		.byte	0x8
 972 00e0 86030000 		.4byte	.LASF20
 973 00e4 02       		.uleb128 0x2
 974 00e5 08       		.byte	0x8
 975 00e6 04       		.byte	0x4
 976 00e7 61070000 		.4byte	.LASF21
 977 00eb 06       		.uleb128 0x6
 978 00ec F9050000 		.4byte	.LASF22
 979 00f0 07       		.byte	0x7
 980 00f1 8D01     		.2byte	0x18d
 981 00f3 B4000000 		.4byte	0xb4
 982 00f7 07       		.uleb128 0x7
 983 00f8 04       		.byte	0x4
 984 00f9 EB000000 		.4byte	0xeb
 985 00fd 07       		.uleb128 0x7
 986 00fe 04       		.byte	0x4
 987 00ff 03010000 		.4byte	0x103
 988 0103 08       		.uleb128 0x8
 989 0104 EB000000 		.4byte	0xeb
 990 0108 07       		.uleb128 0x7
 991 0109 04       		.byte	0x4
 992 010a B4000000 		.4byte	0xb4
 993 010e 09       		.uleb128 0x9
 994 010f 01       		.byte	0x1
 995 0110 4C000000 		.4byte	0x4c
 996 0114 09       		.byte	0x9
 997 0115 35       		.byte	0x35
 998 0116 3F010000 		.4byte	0x13f
 999 011a 0A       		.uleb128 0xa
 1000 011b 7C060000 		.4byte	.LASF23
 1001 011f 00       		.byte	0
 1002 0120 0A       		.uleb128 0xa
 1003 0121 53050000 		.4byte	.LASF24
 1004 0125 01       		.byte	0x1
 1005 0126 0A       		.uleb128 0xa
 1006 0127 DC020000 		.4byte	.LASF25
 1007 012b 02       		.byte	0x2
 1008 012c 0A       		.uleb128 0xa
 1009 012d 48030000 		.4byte	.LASF26
 1010 0131 03       		.byte	0x3
 1011 0132 0A       		.uleb128 0xa
 1012 0133 6C040000 		.4byte	.LASF27
 1013 0137 04       		.byte	0x4
 1014 0138 0A       		.uleb128 0xa
 1015 0139 17040000 		.4byte	.LASF28
 1016 013d 05       		.byte	0x5
 1017 013e 00       		.byte	0
 1018 013f 0B       		.uleb128 0xb
 1019 0140 1B030000 		.4byte	.LASF45
 1020 0144 10       		.byte	0x10
 1021 0145 08       		.byte	0x8
 1022 0146 3C       		.byte	0x3c
ARM GAS  C:\msys64\tmp\ccw9AezN.s 			page 19


 1023 0147 88010000 		.4byte	0x188
 1024 014b 0C       		.uleb128 0xc
 1025 014c 68070000 		.4byte	.LASF29
 1026 0150 08       		.byte	0x8
 1027 0151 3E       		.byte	0x3e
 1028 0152 B4000000 		.4byte	0xb4
 1029 0156 00       		.byte	0
 1030 0157 0C       		.uleb128 0xc
 1031 0158 A4010000 		.4byte	.LASF30
 1032 015c 08       		.byte	0x8
 1033 015d 40       		.byte	0x40
 1034 015e A9000000 		.4byte	0xa9
 1035 0162 04       		.byte	0x4
 1036 0163 0C       		.uleb128 0xc
 1037 0164 7F030000 		.4byte	.LASF31
 1038 0168 08       		.byte	0x8
 1039 0169 42       		.byte	0x42
 1040 016a A9000000 		.4byte	0xa9
 1041 016e 06       		.byte	0x6
 1042 016f 0C       		.uleb128 0xc
 1043 0170 0D040000 		.4byte	.LASF32
 1044 0174 08       		.byte	0x8
 1045 0175 44       		.byte	0x44
 1046 0176 A9000000 		.4byte	0xa9
 1047 017a 08       		.byte	0x8
 1048 017b 0C       		.uleb128 0xc
 1049 017c B7050000 		.4byte	.LASF33
 1050 0180 08       		.byte	0x8
 1051 0181 45       		.byte	0x45
 1052 0182 88010000 		.4byte	0x188
 1053 0186 0A       		.byte	0xa
 1054 0187 00       		.byte	0
 1055 0188 0D       		.uleb128 0xd
 1056 0189 A9000000 		.4byte	0xa9
 1057 018d 98010000 		.4byte	0x198
 1058 0191 0E       		.uleb128 0xe
 1059 0192 D6000000 		.4byte	0xd6
 1060 0196 02       		.byte	0x2
 1061 0197 00       		.byte	0
 1062 0198 04       		.uleb128 0x4
 1063 0199 EC060000 		.4byte	.LASF34
 1064 019d 08       		.byte	0x8
 1065 019e 46       		.byte	0x46
 1066 019f 3F010000 		.4byte	0x13f
 1067 01a3 0F       		.uleb128 0xf
 1068 01a4 01       		.byte	0x1
 1069 01a5 4C000000 		.4byte	0x4c
 1070 01a9 08       		.byte	0x8
 1071 01aa 4B       		.byte	0x4b
 1072 01ab 9B050000 		.4byte	.LASF116
 1073 01af EA010000 		.4byte	0x1ea
 1074 01b3 0A       		.uleb128 0xa
 1075 01b4 D0010000 		.4byte	.LASF35
 1076 01b8 00       		.byte	0
 1077 01b9 0A       		.uleb128 0xa
 1078 01ba E5010000 		.4byte	.LASF36
 1079 01be 01       		.byte	0x1
ARM GAS  C:\msys64\tmp\ccw9AezN.s 			page 20


 1080 01bf 0A       		.uleb128 0xa
 1081 01c0 FA010000 		.4byte	.LASF37
 1082 01c4 02       		.byte	0x2
 1083 01c5 0A       		.uleb128 0xa
 1084 01c6 0F020000 		.4byte	.LASF38
 1085 01ca 03       		.byte	0x3
 1086 01cb 0A       		.uleb128 0xa
 1087 01cc 24020000 		.4byte	.LASF39
 1088 01d0 04       		.byte	0x4
 1089 01d1 0A       		.uleb128 0xa
 1090 01d2 39020000 		.4byte	.LASF40
 1091 01d6 05       		.byte	0x5
 1092 01d7 0A       		.uleb128 0xa
 1093 01d8 7E050000 		.4byte	.LASF41
 1094 01dc 06       		.byte	0x6
 1095 01dd 0A       		.uleb128 0xa
 1096 01de D3040000 		.4byte	.LASF42
 1097 01e2 07       		.byte	0x7
 1098 01e3 0A       		.uleb128 0xa
 1099 01e4 4E020000 		.4byte	.LASF43
 1100 01e8 08       		.byte	0x8
 1101 01e9 00       		.byte	0
 1102 01ea 04       		.uleb128 0x4
 1103 01eb AA010000 		.4byte	.LASF44
 1104 01ef 08       		.byte	0x8
 1105 01f0 5D       		.byte	0x5d
 1106 01f1 A3010000 		.4byte	0x1a3
 1107 01f5 07       		.uleb128 0x7
 1108 01f6 04       		.byte	0x4
 1109 01f7 FB010000 		.4byte	0x1fb
 1110 01fb 08       		.uleb128 0x8
 1111 01fc 98010000 		.4byte	0x198
 1112 0200 0B       		.uleb128 0xb
 1113 0201 95050000 		.4byte	.LASF46
 1114 0205 1C       		.byte	0x1c
 1115 0206 01       		.byte	0x1
 1116 0207 10       		.byte	0x10
 1117 0208 7D030000 		.4byte	0x37d
 1118 020c 09       		.uleb128 0x9
 1119 020d 01       		.byte	0x1
 1120 020e 4C000000 		.4byte	0x4c
 1121 0212 01       		.byte	0x1
 1122 0213 12       		.byte	0x12
 1123 0214 2B020000 		.4byte	0x22b
 1124 0218 0A       		.uleb128 0xa
 1125 0219 C7030000 		.4byte	.LASF47
 1126 021d 00       		.byte	0
 1127 021e 0A       		.uleb128 0xa
 1128 021f 4F040000 		.4byte	.LASF48
 1129 0223 01       		.byte	0x1
 1130 0224 0A       		.uleb128 0xa
 1131 0225 67030000 		.4byte	.LASF49
 1132 0229 02       		.byte	0x2
 1133 022a 00       		.byte	0
 1134 022b 0B       		.uleb128 0xb
 1135 022c A2040000 		.4byte	.LASF50
 1136 0230 0C       		.byte	0xc
ARM GAS  C:\msys64\tmp\ccw9AezN.s 			page 21


 1137 0231 01       		.byte	0x1
 1138 0232 18       		.byte	0x18
 1139 0233 75020000 		.4byte	0x275
 1140 0237 0C       		.uleb128 0xc
 1141 0238 45050000 		.4byte	.LASF51
 1142 023c 01       		.byte	0x1
 1143 023d 19       		.byte	0x19
 1144 023e 25000000 		.4byte	0x25
 1145 0242 00       		.byte	0
 1146 0243 0C       		.uleb128 0xc
 1147 0244 74030000 		.4byte	.LASF52
 1148 0248 01       		.byte	0x1
 1149 0249 1A       		.byte	0x1a
 1150 024a 25000000 		.4byte	0x25
 1151 024e 04       		.byte	0x4
 1152 024f 0C       		.uleb128 0xc
 1153 0250 05040000 		.4byte	.LASF53
 1154 0254 01       		.byte	0x1
 1155 0255 1B       		.byte	0x1b
 1156 0256 25000000 		.4byte	0x25
 1157 025a 08       		.byte	0x8
 1158 025b 10       		.uleb128 0x10
 1159 025c A2040000 		.4byte	.LASF50
 1160 0260 01       		.byte	0x1
 1161 0261 1D       		.byte	0x1d
 1162 0262 3B000000 		.4byte	.LASF56
 1163 0266 7D030000 		.4byte	0x37d
 1164 026a 6E020000 		.4byte	0x26e
 1165 026e 11       		.uleb128 0x11
 1166 026f 7D030000 		.4byte	0x37d
 1167 0273 00       		.byte	0
 1168 0274 00       		.byte	0
 1169 0275 0B       		.uleb128 0xb
 1170 0276 CA010000 		.4byte	.LASF54
 1171 027a 10       		.byte	0x10
 1172 027b 01       		.byte	0x1
 1173 027c 24       		.byte	0x24
 1174 027d CD020000 		.4byte	0x2cd
 1175 0281 12       		.uleb128 0x12
 1176 0282 70686900 		.ascii	"phi\000"
 1177 0286 01       		.byte	0x1
 1178 0287 25       		.byte	0x25
 1179 0288 25000000 		.4byte	0x25
 1180 028c 00       		.byte	0
 1181 028d 12       		.uleb128 0x12
 1182 028e 773000   		.ascii	"w0\000"
 1183 0291 01       		.byte	0x1
 1184 0292 26       		.byte	0x26
 1185 0293 25000000 		.4byte	0x25
 1186 0297 04       		.byte	0x4
 1187 0298 0C       		.uleb128 0xc
 1188 0299 30030000 		.4byte	.LASF55
 1189 029d 01       		.byte	0x1
 1190 029e 27       		.byte	0x27
 1191 029f 25000000 		.4byte	0x25
 1192 02a3 08       		.byte	0x8
 1193 02a4 13       		.uleb128 0x13
ARM GAS  C:\msys64\tmp\ccw9AezN.s 			page 22


 1194 02a5 50000000 		.4byte	.LASF93
 1195 02a9 01       		.byte	0x1
 1196 02aa 28       		.byte	0x28
 1197 02ab 9E000000 		.4byte	0x9e
 1198 02af 01       		.byte	0x1
 1199 02b0 02       		.byte	0x2
 1200 02b1 06       		.byte	0x6
 1201 02b2 0C       		.byte	0xc
 1202 02b3 10       		.uleb128 0x10
 1203 02b4 CA010000 		.4byte	.LASF54
 1204 02b8 01       		.byte	0x1
 1205 02b9 2A       		.byte	0x2a
 1206 02ba 08060000 		.4byte	.LASF57
 1207 02be 83030000 		.4byte	0x383
 1208 02c2 C6020000 		.4byte	0x2c6
 1209 02c6 11       		.uleb128 0x11
 1210 02c7 83030000 		.4byte	0x383
 1211 02cb 00       		.byte	0
 1212 02cc 00       		.byte	0
 1213 02cd 0C       		.uleb128 0xc
 1214 02ce A3060000 		.4byte	.LASF58
 1215 02d2 01       		.byte	0x1
 1216 02d3 61       		.byte	0x61
 1217 02d4 75020000 		.4byte	0x275
 1218 02d8 00       		.byte	0
 1219 02d9 0C       		.uleb128 0xc
 1220 02da 00000000 		.4byte	.LASF59
 1221 02de 01       		.byte	0x1
 1222 02df 62       		.byte	0x62
 1223 02e0 2B020000 		.4byte	0x22b
 1224 02e4 10       		.byte	0x10
 1225 02e5 14       		.uleb128 0x14
 1226 02e6 95050000 		.4byte	.LASF46
 1227 02ea 01       		.byte	0x1
 1228 02eb 32       		.byte	0x32
 1229 02ec 44060000 		.4byte	.LASF61
 1230 02f0 89030000 		.4byte	0x389
 1231 02f4 FC020000 		.4byte	0x2fc
 1232 02f8 02030000 		.4byte	0x302
 1233 02fc 11       		.uleb128 0x11
 1234 02fd 89030000 		.4byte	0x389
 1235 0301 00       		.byte	0
 1236 0302 14       		.uleb128 0x14
 1237 0303 14050000 		.4byte	.LASF60
 1238 0307 01       		.byte	0x1
 1239 0308 37       		.byte	0x37
 1240 0309 07000000 		.4byte	.LASF62
 1241 030d 25000000 		.4byte	0x25
 1242 0311 19030000 		.4byte	0x319
 1243 0315 2E030000 		.4byte	0x32e
 1244 0319 11       		.uleb128 0x11
 1245 031a 89030000 		.4byte	0x389
 1246 031e 15       		.uleb128 0x15
 1247 031f 25000000 		.4byte	0x25
 1248 0323 15       		.uleb128 0x15
 1249 0324 25000000 		.4byte	0x25
 1250 0328 15       		.uleb128 0x15
ARM GAS  C:\msys64\tmp\ccw9AezN.s 			page 23


 1251 0329 25000000 		.4byte	0x25
 1252 032d 00       		.byte	0
 1253 032e 14       		.uleb128 0x14
 1254 032f 4B050000 		.4byte	.LASF63
 1255 0333 01       		.byte	0x1
 1256 0334 47       		.byte	0x47
 1257 0335 8B030000 		.4byte	.LASF64
 1258 0339 25000000 		.4byte	0x25
 1259 033d 45030000 		.4byte	0x345
 1260 0341 50030000 		.4byte	0x350
 1261 0345 11       		.uleb128 0x11
 1262 0346 89030000 		.4byte	0x389
 1263 034a 15       		.uleb128 0x15
 1264 034b 25000000 		.4byte	0x25
 1265 034f 00       		.byte	0
 1266 0350 14       		.uleb128 0x14
 1267 0351 BE010000 		.4byte	.LASF65
 1268 0355 01       		.byte	0x1
 1269 0356 5C       		.byte	0x5c
 1270 0357 66020000 		.4byte	.LASF66
 1271 035b 25000000 		.4byte	0x25
 1272 035f 67030000 		.4byte	0x367
 1273 0363 77030000 		.4byte	0x377
 1274 0367 11       		.uleb128 0x11
 1275 0368 89030000 		.4byte	0x389
 1276 036c 15       		.uleb128 0x15
 1277 036d 8F030000 		.4byte	0x38f
 1278 0371 15       		.uleb128 0x15
 1279 0372 25000000 		.4byte	0x25
 1280 0376 00       		.byte	0
 1281 0377 08       		.uleb128 0x8
 1282 0378 2B020000 		.4byte	0x22b
 1283 037c 00       		.byte	0
 1284 037d 07       		.uleb128 0x7
 1285 037e 04       		.byte	0x4
 1286 037f 2B020000 		.4byte	0x22b
 1287 0383 07       		.uleb128 0x7
 1288 0384 04       		.byte	0x4
 1289 0385 75020000 		.4byte	0x275
 1290 0389 07       		.uleb128 0x7
 1291 038a 04       		.byte	0x4
 1292 038b 00020000 		.4byte	0x200
 1293 038f 07       		.uleb128 0x7
 1294 0390 04       		.byte	0x4
 1295 0391 25000000 		.4byte	0x25
 1296 0395 16       		.uleb128 0x16
 1297 0396 EF050000 		.4byte	.LASF67
 1298 039a 03       		.byte	0x3
 1299 039b C0       		.byte	0xc0
 1300 039c 25000000 		.4byte	0x25
 1301 03a0 03       		.byte	0x3
 1302 03a1 C1030000 		.4byte	0x3c1
 1303 03a5 17       		.uleb128 0x17
 1304 03a6 6100     		.ascii	"a\000"
 1305 03a8 03       		.byte	0x3
 1306 03a9 C0       		.byte	0xc0
 1307 03aa C1030000 		.4byte	0x3c1
ARM GAS  C:\msys64\tmp\ccw9AezN.s 			page 24


 1308 03ae 17       		.uleb128 0x17
 1309 03af 6200     		.ascii	"b\000"
 1310 03b1 03       		.byte	0x3
 1311 03b2 C0       		.byte	0xc0
 1312 03b3 C1030000 		.4byte	0x3c1
 1313 03b7 17       		.uleb128 0x17
 1314 03b8 6300     		.ascii	"c\000"
 1315 03ba 03       		.byte	0x3
 1316 03bb C0       		.byte	0xc0
 1317 03bc C1030000 		.4byte	0x3c1
 1318 03c0 00       		.byte	0
 1319 03c1 08       		.uleb128 0x8
 1320 03c2 25000000 		.4byte	0x25
 1321 03c6 18       		.uleb128 0x18
 1322 03c7 7B070000 		.4byte	.LASF68
 1323 03cb 03       		.byte	0x3
 1324 03cc 4901     		.2byte	0x149
 1325 03ce 25000000 		.4byte	0x25
 1326 03d2 03       		.byte	0x3
 1327 03d3 EE030000 		.4byte	0x3ee
 1328 03d7 19       		.uleb128 0x19
 1329 03d8 7800     		.ascii	"x\000"
 1330 03da 03       		.byte	0x3
 1331 03db 4901     		.2byte	0x149
 1332 03dd C1030000 		.4byte	0x3c1
 1333 03e1 19       		.uleb128 0x19
 1334 03e2 6D617800 		.ascii	"max\000"
 1335 03e6 03       		.byte	0x3
 1336 03e7 4901     		.2byte	0x149
 1337 03e9 C1030000 		.4byte	0x3c1
 1338 03ed 00       		.byte	0
 1339 03ee 18       		.uleb128 0x18
 1340 03ef A7020000 		.4byte	.LASF69
 1341 03f3 03       		.byte	0x3
 1342 03f4 3C01     		.2byte	0x13c
 1343 03f6 25000000 		.4byte	0x25
 1344 03fa 03       		.byte	0x3
 1345 03fb 22040000 		.4byte	0x422
 1346 03ff 19       		.uleb128 0x19
 1347 0400 6D696E00 		.ascii	"min\000"
 1348 0404 03       		.byte	0x3
 1349 0405 3C01     		.2byte	0x13c
 1350 0407 C1030000 		.4byte	0x3c1
 1351 040b 19       		.uleb128 0x19
 1352 040c 7800     		.ascii	"x\000"
 1353 040e 03       		.byte	0x3
 1354 040f 3C01     		.2byte	0x13c
 1355 0411 25000000 		.4byte	0x25
 1356 0415 19       		.uleb128 0x19
 1357 0416 6D617800 		.ascii	"max\000"
 1358 041a 03       		.byte	0x3
 1359 041b 3C01     		.2byte	0x13c
 1360 041d C1030000 		.4byte	0x3c1
 1361 0421 00       		.byte	0
 1362 0422 16       		.uleb128 0x16
 1363 0423 2A040000 		.4byte	.LASF70
 1364 0427 0A       		.byte	0xa
ARM GAS  C:\msys64\tmp\ccw9AezN.s 			page 25


 1365 0428 54       		.byte	0x54
 1366 0429 BF000000 		.4byte	0xbf
 1367 042d 03       		.byte	0x3
 1368 042e 45040000 		.4byte	0x445
 1369 0432 17       		.uleb128 0x17
 1370 0433 7800     		.ascii	"x\000"
 1371 0435 0A       		.byte	0xa
 1372 0436 54       		.byte	0x54
 1373 0437 45040000 		.4byte	0x445
 1374 043b 17       		.uleb128 0x17
 1375 043c 6D00     		.ascii	"m\000"
 1376 043e 0A       		.byte	0xa
 1377 043f 54       		.byte	0x54
 1378 0440 45040000 		.4byte	0x445
 1379 0444 00       		.byte	0
 1380 0445 08       		.uleb128 0x8
 1381 0446 BF000000 		.4byte	0xbf
 1382 044a 18       		.uleb128 0x18
 1383 044b E8030000 		.4byte	.LASF71
 1384 044f 03       		.byte	0x3
 1385 0450 8501     		.2byte	0x185
 1386 0452 25000000 		.4byte	0x25
 1387 0456 03       		.byte	0x3
 1388 0457 70040000 		.4byte	0x470
 1389 045b 19       		.uleb128 0x19
 1390 045c 7800     		.ascii	"x\000"
 1391 045e 03       		.byte	0x3
 1392 045f 8501     		.2byte	0x185
 1393 0461 C1030000 		.4byte	0x3c1
 1394 0465 19       		.uleb128 0x19
 1395 0466 6D00     		.ascii	"m\000"
 1396 0468 03       		.byte	0x3
 1397 0469 8501     		.2byte	0x185
 1398 046b C1030000 		.4byte	0x3c1
 1399 046f 00       		.byte	0
 1400 0470 18       		.uleb128 0x18
 1401 0471 52060000 		.4byte	.LASF72
 1402 0475 03       		.byte	0x3
 1403 0476 3903     		.2byte	0x339
 1404 0478 25000000 		.4byte	0x25
 1405 047c 03       		.byte	0x3
 1406 047d A3040000 		.4byte	0x4a3
 1407 0481 19       		.uleb128 0x19
 1408 0482 667200   		.ascii	"fr\000"
 1409 0485 03       		.byte	0x3
 1410 0486 3903     		.2byte	0x339
 1411 0488 C1030000 		.4byte	0x3c1
 1412 048c 19       		.uleb128 0x19
 1413 048d 783000   		.ascii	"x0\000"
 1414 0490 03       		.byte	0x3
 1415 0491 3903     		.2byte	0x339
 1416 0493 C1030000 		.4byte	0x3c1
 1417 0497 19       		.uleb128 0x19
 1418 0498 783100   		.ascii	"x1\000"
 1419 049b 03       		.byte	0x3
 1420 049c 3903     		.2byte	0x339
 1421 049e C1030000 		.4byte	0x3c1
ARM GAS  C:\msys64\tmp\ccw9AezN.s 			page 26


 1422 04a2 00       		.byte	0
 1423 04a3 16       		.uleb128 0x16
 1424 04a4 D2030000 		.4byte	.LASF73
 1425 04a8 02       		.byte	0x2
 1426 04a9 6C       		.byte	0x6c
 1427 04aa 25000000 		.4byte	0x25
 1428 04ae 03       		.byte	0x3
 1429 04af BF040000 		.4byte	0x4bf
 1430 04b3 1A       		.uleb128 0x1a
 1431 04b4 F4050000 		.4byte	.LASF74
 1432 04b8 02       		.byte	0x2
 1433 04b9 6C       		.byte	0x6c
 1434 04ba 9E000000 		.4byte	0x9e
 1435 04be 00       		.byte	0
 1436 04bf 16       		.uleb128 0x16
 1437 04c0 88010000 		.4byte	.LASF75
 1438 04c4 02       		.byte	0x2
 1439 04c5 96       		.byte	0x96
 1440 04c6 25000000 		.4byte	0x25
 1441 04ca 03       		.byte	0x3
 1442 04cb 16050000 		.4byte	0x516
 1443 04cf 17       		.uleb128 0x17
 1444 04d0 7800     		.ascii	"x\000"
 1445 04d2 02       		.byte	0x2
 1446 04d3 96       		.byte	0x96
 1447 04d4 25000000 		.4byte	0x25
 1448 04d8 1B       		.uleb128 0x1b
 1449 04d9 7000     		.ascii	"p\000"
 1450 04db 02       		.byte	0x2
 1451 04dc 97       		.byte	0x97
 1452 04dd C1030000 		.4byte	0x3c1
 1453 04e1 1B       		.uleb128 0x1b
 1454 04e2 78306600 		.ascii	"x0f\000"
 1455 04e6 02       		.byte	0x2
 1456 04e7 9A       		.byte	0x9a
 1457 04e8 C1030000 		.4byte	0x3c1
 1458 04ec 1B       		.uleb128 0x1b
 1459 04ed 78307000 		.ascii	"x0p\000"
 1460 04f1 02       		.byte	0x2
 1461 04f2 9B       		.byte	0x9b
 1462 04f3 45040000 		.4byte	0x445
 1463 04f7 1B       		.uleb128 0x1b
 1464 04f8 783000   		.ascii	"x0\000"
 1465 04fb 02       		.byte	0x2
 1466 04fc 9D       		.byte	0x9d
 1467 04fd 45040000 		.4byte	0x445
 1468 0501 1B       		.uleb128 0x1b
 1469 0502 783100   		.ascii	"x1\000"
 1470 0505 02       		.byte	0x2
 1471 0506 9E       		.byte	0x9e
 1472 0507 45040000 		.4byte	0x445
 1473 050b 1B       		.uleb128 0x1b
 1474 050c 793000   		.ascii	"y0\000"
 1475 050f 02       		.byte	0x2
 1476 0510 A0       		.byte	0xa0
 1477 0511 C1030000 		.4byte	0x3c1
 1478 0515 00       		.byte	0
ARM GAS  C:\msys64\tmp\ccw9AezN.s 			page 27


 1479 0516 18       		.uleb128 0x18
 1480 0517 72070000 		.4byte	.LASF76
 1481 051b 03       		.byte	0x3
 1482 051c AF01     		.2byte	0x1af
 1483 051e 25000000 		.4byte	0x25
 1484 0522 03       		.byte	0x3
 1485 0523 32050000 		.4byte	0x532
 1486 0527 19       		.uleb128 0x19
 1487 0528 7800     		.ascii	"x\000"
 1488 052a 03       		.byte	0x3
 1489 052b AF01     		.2byte	0x1af
 1490 052d C1030000 		.4byte	0x3c1
 1491 0531 00       		.byte	0
 1492 0532 1C       		.uleb128 0x1c
 1493 0533 5B020000 		.4byte	0x25b
 1494 0537 03       		.byte	0x3
 1495 0538 40050000 		.4byte	0x540
 1496 053c 4A050000 		.4byte	0x54a
 1497 0540 1D       		.uleb128 0x1d
 1498 0541 9D040000 		.4byte	.LASF77
 1499 0545 4A050000 		.4byte	0x54a
 1500 0549 00       		.byte	0
 1501 054a 08       		.uleb128 0x8
 1502 054b 7D030000 		.4byte	0x37d
 1503 054f 1C       		.uleb128 0x1c
 1504 0550 B3020000 		.4byte	0x2b3
 1505 0554 03       		.byte	0x3
 1506 0555 5D050000 		.4byte	0x55d
 1507 0559 67050000 		.4byte	0x567
 1508 055d 1D       		.uleb128 0x1d
 1509 055e 9D040000 		.4byte	.LASF77
 1510 0562 67050000 		.4byte	0x567
 1511 0566 00       		.byte	0
 1512 0567 08       		.uleb128 0x8
 1513 0568 83030000 		.4byte	0x383
 1514 056c 16       		.uleb128 0x16
 1515 056d 73060000 		.4byte	.LASF78
 1516 0571 02       		.byte	0x2
 1517 0572 AA       		.byte	0xaa
 1518 0573 25000000 		.4byte	0x25
 1519 0577 03       		.byte	0x3
 1520 0578 86050000 		.4byte	0x586
 1521 057c 17       		.uleb128 0x17
 1522 057d 7800     		.ascii	"x\000"
 1523 057f 02       		.byte	0x2
 1524 0580 AA       		.byte	0xaa
 1525 0581 25000000 		.4byte	0x25
 1526 0585 00       		.byte	0
 1527 0586 1C       		.uleb128 0x1c
 1528 0587 02030000 		.4byte	0x302
 1529 058b 03       		.byte	0x3
 1530 058c 94050000 		.4byte	0x594
 1531 0590 F9050000 		.4byte	0x5f9
 1532 0594 1D       		.uleb128 0x1d
 1533 0595 9D040000 		.4byte	.LASF77
 1534 0599 F9050000 		.4byte	0x5f9
 1535 059d 17       		.uleb128 0x17
ARM GAS  C:\msys64\tmp\ccw9AezN.s 			page 28


 1536 059e 70686900 		.ascii	"phi\000"
 1537 05a2 01       		.byte	0x1
 1538 05a3 37       		.byte	0x37
 1539 05a4 25000000 		.4byte	0x25
 1540 05a8 17       		.uleb128 0x17
 1541 05a9 6400     		.ascii	"d\000"
 1542 05ab 01       		.byte	0x1
 1543 05ac 37       		.byte	0x37
 1544 05ad 25000000 		.4byte	0x25
 1545 05b1 17       		.uleb128 0x17
 1546 05b2 7600     		.ascii	"v\000"
 1547 05b4 01       		.byte	0x1
 1548 05b5 37       		.byte	0x37
 1549 05b6 25000000 		.4byte	0x25
 1550 05ba 1B       		.uleb128 0x1b
 1551 05bb 707300   		.ascii	"ps\000"
 1552 05be 01       		.byte	0x1
 1553 05bf 39       		.byte	0x39
 1554 05c0 25000000 		.4byte	0x25
 1555 05c4 1E       		.uleb128 0x1e
 1556 05c5 D5050000 		.4byte	0x5d5
 1557 05c9 1F       		.uleb128 0x1f
 1558 05ca 07030000 		.4byte	.LASF79
 1559 05ce 01       		.byte	0x1
 1560 05cf 3B       		.byte	0x3b
 1561 05d0 25000000 		.4byte	0x25
 1562 05d4 00       		.byte	0
 1563 05d5 20       		.uleb128 0x20
 1564 05d6 1F       		.uleb128 0x1f
 1565 05d7 7E040000 		.4byte	.LASF80
 1566 05db 01       		.byte	0x1
 1567 05dc 3E       		.byte	0x3e
 1568 05dd 25000000 		.4byte	0x25
 1569 05e1 1F       		.uleb128 0x1f
 1570 05e2 C1050000 		.4byte	.LASF81
 1571 05e6 01       		.byte	0x1
 1572 05e7 3F       		.byte	0x3f
 1573 05e8 25000000 		.4byte	0x25
 1574 05ec 1F       		.uleb128 0x1f
 1575 05ed 07030000 		.4byte	.LASF79
 1576 05f1 01       		.byte	0x1
 1577 05f2 40       		.byte	0x40
 1578 05f3 25000000 		.4byte	0x25
 1579 05f7 00       		.byte	0
 1580 05f8 00       		.byte	0
 1581 05f9 08       		.uleb128 0x8
 1582 05fa 89030000 		.4byte	0x389
 1583 05fe 1C       		.uleb128 0x1c
 1584 05ff 50030000 		.4byte	0x350
 1585 0603 03       		.byte	0x3
 1586 0604 0C060000 		.4byte	0x60c
 1587 0608 2B060000 		.4byte	0x62b
 1588 060c 1D       		.uleb128 0x1d
 1589 060d 9D040000 		.4byte	.LASF77
 1590 0611 F9050000 		.4byte	0x5f9
 1591 0615 17       		.uleb128 0x17
 1592 0616 70686900 		.ascii	"phi\000"
ARM GAS  C:\msys64\tmp\ccw9AezN.s 			page 29


 1593 061a 01       		.byte	0x1
 1594 061b 5C       		.byte	0x5c
 1595 061c 8F030000 		.4byte	0x38f
 1596 0620 17       		.uleb128 0x17
 1597 0621 773000   		.ascii	"w0\000"
 1598 0624 01       		.byte	0x1
 1599 0625 5C       		.byte	0x5c
 1600 0626 25000000 		.4byte	0x25
 1601 062a 00       		.byte	0
 1602 062b 16       		.uleb128 0x16
 1603 062c DB060000 		.4byte	.LASF82
 1604 0630 02       		.byte	0x2
 1605 0631 76       		.byte	0x76
 1606 0632 25000000 		.4byte	0x25
 1607 0636 03       		.byte	0x3
 1608 0637 6F060000 		.4byte	0x66f
 1609 063b 1A       		.uleb128 0x1a
 1610 063c F4050000 		.4byte	.LASF74
 1611 0640 02       		.byte	0x2
 1612 0641 76       		.byte	0x76
 1613 0642 9E000000 		.4byte	0x9e
 1614 0646 17       		.uleb128 0x17
 1615 0647 6D6F6400 		.ascii	"mod\000"
 1616 064b 02       		.byte	0x2
 1617 064c 76       		.byte	0x76
 1618 064d 9E000000 		.4byte	0x9e
 1619 0651 1B       		.uleb128 0x1b
 1620 0652 663000   		.ascii	"f0\000"
 1621 0655 02       		.byte	0x2
 1622 0656 77       		.byte	0x77
 1623 0657 C1030000 		.4byte	0x3c1
 1624 065b 1B       		.uleb128 0x1b
 1625 065c 663100   		.ascii	"f1\000"
 1626 065f 02       		.byte	0x2
 1627 0660 78       		.byte	0x78
 1628 0661 C1030000 		.4byte	0x3c1
 1629 0665 1B       		.uleb128 0x1b
 1630 0666 6600     		.ascii	"f\000"
 1631 0668 02       		.byte	0x2
 1632 0669 7A       		.byte	0x7a
 1633 066a C1030000 		.4byte	0x3c1
 1634 066e 00       		.byte	0
 1635 066f 18       		.uleb128 0x18
 1636 0670 99020000 		.4byte	.LASF83
 1637 0674 02       		.byte	0x2
 1638 0675 9902     		.2byte	0x299
 1639 0677 25000000 		.4byte	0x25
 1640 067b 03       		.byte	0x3
 1641 067c 95060000 		.4byte	0x695
 1642 0680 19       		.uleb128 0x19
 1643 0681 6300     		.ascii	"c\000"
 1644 0683 02       		.byte	0x2
 1645 0684 9902     		.2byte	0x299
 1646 0686 C1030000 		.4byte	0x3c1
 1647 068a 19       		.uleb128 0x19
 1648 068b 7800     		.ascii	"x\000"
 1649 068d 02       		.byte	0x2
ARM GAS  C:\msys64\tmp\ccw9AezN.s 			page 30


 1650 068e 9902     		.2byte	0x299
 1651 0690 25000000 		.4byte	0x25
 1652 0694 00       		.byte	0
 1653 0695 21       		.uleb128 0x21
 1654 0696 A9040000 		.4byte	.LASF117
 1655 069a 01       		.byte	0x1
 1656 069b B6060000 		.4byte	0x6b6
 1657 069f 1A       		.uleb128 0x1a
 1658 06a0 39030000 		.4byte	.LASF84
 1659 06a4 04       		.byte	0x4
 1660 06a5 7B       		.byte	0x7b
 1661 06a6 33000000 		.4byte	0x33
 1662 06aa 1A       		.uleb128 0x1a
 1663 06ab 5C030000 		.4byte	.LASF85
 1664 06af 04       		.byte	0x4
 1665 06b0 7B       		.byte	0x7b
 1666 06b1 33000000 		.4byte	0x33
 1667 06b5 00       		.byte	0
 1668 06b6 22       		.uleb128 0x22
 1669 06b7 86050000 		.4byte	0x586
 1670 06bb 00000000 		.4byte	.LFB258
 1671 06bf 94000000 		.4byte	.LFE258-.LFB258
 1672 06c3 01       		.uleb128 0x1
 1673 06c4 9C       		.byte	0x9c
 1674 06c5 B3070000 		.4byte	0x7b3
 1675 06c9 23       		.uleb128 0x23
 1676 06ca 9D050000 		.4byte	0x59d
 1677 06ce 00000000 		.4byte	.LLST0
 1678 06d2 23       		.uleb128 0x23
 1679 06d3 A8050000 		.4byte	0x5a8
 1680 06d7 24000000 		.4byte	.LLST1
 1681 06db 23       		.uleb128 0x23
 1682 06dc B1050000 		.4byte	0x5b1
 1683 06e0 48000000 		.4byte	.LLST2
 1684 06e4 24       		.uleb128 0x24
 1685 06e5 94050000 		.4byte	0x594
 1686 06e9 06       		.uleb128 0x6
 1687 06ea FA       		.byte	0xfa
 1688 06eb 94050000 		.4byte	0x594
 1689 06ef 9F       		.byte	0x9f
 1690 06f0 25       		.uleb128 0x25
 1691 06f1 BA050000 		.4byte	0x5ba
 1692 06f5 6C000000 		.4byte	.LLST3
 1693 06f9 26       		.uleb128 0x26
 1694 06fa 00000000 		.4byte	.Ldebug_ranges0+0
 1695 06fe 12070000 		.4byte	0x712
 1696 0702 27       		.uleb128 0x27
 1697 0703 D6050000 		.4byte	0x5d6
 1698 0707 27       		.uleb128 0x27
 1699 0708 E1050000 		.4byte	0x5e1
 1700 070c 27       		.uleb128 0x27
 1701 070d EC050000 		.4byte	0x5ec
 1702 0711 00       		.byte	0
 1703 0712 26       		.uleb128 0x26
 1704 0713 20000000 		.4byte	.Ldebug_ranges0+0x20
 1705 0717 25070000 		.4byte	0x725
 1706 071b 25       		.uleb128 0x25
ARM GAS  C:\msys64\tmp\ccw9AezN.s 			page 31


 1707 071c C9050000 		.4byte	0x5c9
 1708 0720 80000000 		.4byte	.LLST4
 1709 0724 00       		.byte	0
 1710 0725 28       		.uleb128 0x28
 1711 0726 6C050000 		.4byte	0x56c
 1712 072a 1A000000 		.4byte	.LBB125
 1713 072e 38000000 		.4byte	.Ldebug_ranges0+0x38
 1714 0732 01       		.byte	0x1
 1715 0733 44       		.byte	0x44
 1716 0734 23       		.uleb128 0x23
 1717 0735 7C050000 		.4byte	0x57c
 1718 0739 C4000000 		.4byte	.LLST5
 1719 073d 28       		.uleb128 0x28
 1720 073e BF040000 		.4byte	0x4bf
 1721 0742 1A000000 		.4byte	.LBB127
 1722 0746 50000000 		.4byte	.Ldebug_ranges0+0x50
 1723 074a 02       		.byte	0x2
 1724 074b AB       		.byte	0xab
 1725 074c 23       		.uleb128 0x23
 1726 074d CF040000 		.4byte	0x4cf
 1727 0751 D8000000 		.4byte	.LLST6
 1728 0755 29       		.uleb128 0x29
 1729 0756 50000000 		.4byte	.Ldebug_ranges0+0x50
 1730 075a 25       		.uleb128 0x25
 1731 075b D8040000 		.4byte	0x4d8
 1732 075f EC000000 		.4byte	.LLST7
 1733 0763 25       		.uleb128 0x25
 1734 0764 E1040000 		.4byte	0x4e1
 1735 0768 0A010000 		.4byte	.LLST8
 1736 076c 25       		.uleb128 0x25
 1737 076d EC040000 		.4byte	0x4ec
 1738 0771 1E010000 		.4byte	.LLST9
 1739 0775 25       		.uleb128 0x25
 1740 0776 F7040000 		.4byte	0x4f7
 1741 077a 31010000 		.4byte	.LLST10
 1742 077e 25       		.uleb128 0x25
 1743 077f 01050000 		.4byte	0x501
 1744 0783 61010000 		.4byte	.LLST11
 1745 0787 27       		.uleb128 0x27
 1746 0788 0B050000 		.4byte	0x50b
 1747 078c 28       		.uleb128 0x28
 1748 078d 70040000 		.4byte	0x470
 1749 0791 5C000000 		.4byte	.LBB129
 1750 0795 68000000 		.4byte	.Ldebug_ranges0+0x68
 1751 0799 02       		.byte	0x2
 1752 079a A0       		.byte	0xa0
 1753 079b 2A       		.uleb128 0x2a
 1754 079c 97040000 		.4byte	0x497
 1755 07a0 23       		.uleb128 0x23
 1756 07a1 8C040000 		.4byte	0x48c
 1757 07a5 A4010000 		.4byte	.LLST12
 1758 07a9 2A       		.uleb128 0x2a
 1759 07aa 81040000 		.4byte	0x481
 1760 07ae 00       		.byte	0
 1761 07af 00       		.byte	0
 1762 07b0 00       		.byte	0
 1763 07b1 00       		.byte	0
ARM GAS  C:\msys64\tmp\ccw9AezN.s 			page 32


 1764 07b2 00       		.byte	0
 1765 07b3 2B       		.uleb128 0x2b
 1766 07b4 2E030000 		.4byte	0x32e
 1767 07b8 00000000 		.4byte	.LFB249
 1768 07bc E0000000 		.4byte	.LFE249-.LFB249
 1769 07c0 01       		.uleb128 0x1
 1770 07c1 9C       		.byte	0x9c
 1771 07c2 CA070000 		.4byte	0x7ca
 1772 07c6 35090000 		.4byte	0x935
 1773 07ca 2C       		.uleb128 0x2c
 1774 07cb 9D040000 		.4byte	.LASF77
 1775 07cf F9050000 		.4byte	0x5f9
 1776 07d3 B8010000 		.4byte	.LLST13
 1777 07d7 2D       		.uleb128 0x2d
 1778 07d8 70686900 		.ascii	"phi\000"
 1779 07dc 01       		.byte	0x1
 1780 07dd 47       		.byte	0x47
 1781 07de 25000000 		.4byte	0x25
 1782 07e2 E4010000 		.4byte	.LLST14
 1783 07e6 2E       		.uleb128 0x2e
 1784 07e7 6400     		.ascii	"d\000"
 1785 07e9 01       		.byte	0x1
 1786 07ea 49       		.byte	0x49
 1787 07eb 25000000 		.4byte	0x25
 1788 07ef 08020000 		.4byte	.LLST15
 1789 07f3 2E       		.uleb128 0x2e
 1790 07f4 7600     		.ascii	"v\000"
 1791 07f6 01       		.byte	0x1
 1792 07f7 4A       		.byte	0x4a
 1793 07f8 25000000 		.4byte	0x25
 1794 07fc 1C020000 		.4byte	.LLST16
 1795 0800 2F       		.uleb128 0x2f
 1796 0801 A9060000 		.4byte	.LASF86
 1797 0805 01       		.byte	0x1
 1798 0806 4C       		.byte	0x4c
 1799 0807 25000000 		.4byte	0x25
 1800 080b 30020000 		.4byte	.LLST17
 1801 080f 2E       		.uleb128 0x2e
 1802 0810 765A00   		.ascii	"vZ\000"
 1803 0813 01       		.byte	0x1
 1804 0814 4F       		.byte	0x4f
 1805 0815 25000000 		.4byte	0x25
 1806 0819 5C020000 		.4byte	.LLST18
 1807 081d 2F       		.uleb128 0x2f
 1808 081e F1030000 		.4byte	.LASF87
 1809 0822 01       		.byte	0x1
 1810 0823 51       		.byte	0x51
 1811 0824 25000000 		.4byte	0x25
 1812 0828 7A020000 		.4byte	.LLST19
 1813 082c 2F       		.uleb128 0x2f
 1814 082d D7050000 		.4byte	.LASF88
 1815 0831 01       		.byte	0x1
 1816 0832 54       		.byte	0x54
 1817 0833 25000000 		.4byte	0x25
 1818 0837 B6020000 		.4byte	.LLST20
 1819 083b 1B       		.uleb128 0x1b
 1820 083c 73696700 		.ascii	"sig\000"
ARM GAS  C:\msys64\tmp\ccw9AezN.s 			page 33


 1821 0840 01       		.byte	0x1
 1822 0841 57       		.byte	0x57
 1823 0842 25000000 		.4byte	0x25
 1824 0846 30       		.uleb128 0x30
 1825 0847 6C050000 		.4byte	0x56c
 1826 084b 50000000 		.4byte	.LBB140
 1827 084f 88000000 		.4byte	.Ldebug_ranges0+0x88
 1828 0853 01       		.byte	0x1
 1829 0854 58       		.byte	0x58
 1830 0855 D7080000 		.4byte	0x8d7
 1831 0859 2A       		.uleb128 0x2a
 1832 085a 7C050000 		.4byte	0x57c
 1833 085e 28       		.uleb128 0x28
 1834 085f BF040000 		.4byte	0x4bf
 1835 0863 64000000 		.4byte	.LBB142
 1836 0867 A0000000 		.4byte	.Ldebug_ranges0+0xa0
 1837 086b 02       		.byte	0x2
 1838 086c AB       		.byte	0xab
 1839 086d 23       		.uleb128 0x23
 1840 086e CF040000 		.4byte	0x4cf
 1841 0872 DC020000 		.4byte	.LLST21
 1842 0876 29       		.uleb128 0x29
 1843 0877 A0000000 		.4byte	.Ldebug_ranges0+0xa0
 1844 087b 25       		.uleb128 0x25
 1845 087c D8040000 		.4byte	0x4d8
 1846 0880 06030000 		.4byte	.LLST22
 1847 0884 25       		.uleb128 0x25
 1848 0885 E1040000 		.4byte	0x4e1
 1849 0889 4A030000 		.4byte	.LLST23
 1850 088d 25       		.uleb128 0x25
 1851 088e EC040000 		.4byte	0x4ec
 1852 0892 8E030000 		.4byte	.LLST24
 1853 0896 25       		.uleb128 0x25
 1854 0897 F7040000 		.4byte	0x4f7
 1855 089b A1030000 		.4byte	.LLST25
 1856 089f 25       		.uleb128 0x25
 1857 08a0 01050000 		.4byte	0x501
 1858 08a4 D1030000 		.4byte	.LLST26
 1859 08a8 27       		.uleb128 0x27
 1860 08a9 0B050000 		.4byte	0x50b
 1861 08ad 28       		.uleb128 0x28
 1862 08ae 70040000 		.4byte	0x470
 1863 08b2 8E000000 		.4byte	.LBB144
 1864 08b6 B8000000 		.4byte	.Ldebug_ranges0+0xb8
 1865 08ba 02       		.byte	0x2
 1866 08bb A0       		.byte	0xa0
 1867 08bc 2A       		.uleb128 0x2a
 1868 08bd 97040000 		.4byte	0x497
 1869 08c1 23       		.uleb128 0x23
 1870 08c2 8C040000 		.4byte	0x48c
 1871 08c6 14040000 		.4byte	.LLST27
 1872 08ca 23       		.uleb128 0x23
 1873 08cb 81040000 		.4byte	0x481
 1874 08cf 34040000 		.4byte	.LLST28
 1875 08d3 00       		.byte	0
 1876 08d4 00       		.byte	0
 1877 08d5 00       		.byte	0
ARM GAS  C:\msys64\tmp\ccw9AezN.s 			page 34


 1878 08d6 00       		.byte	0
 1879 08d7 31       		.uleb128 0x31
 1880 08d8 70040000 		.4byte	0x470
 1881 08dc C4000000 		.4byte	.LBB156
 1882 08e0 0C000000 		.4byte	.LBE156-.LBB156
 1883 08e4 01       		.byte	0x1
 1884 08e5 58       		.byte	0x58
 1885 08e6 02090000 		.4byte	0x902
 1886 08ea 2A       		.uleb128 0x2a
 1887 08eb 97040000 		.4byte	0x497
 1888 08ef 23       		.uleb128 0x23
 1889 08f0 8C040000 		.4byte	0x48c
 1890 08f4 5D040000 		.4byte	.LLST29
 1891 08f8 23       		.uleb128 0x23
 1892 08f9 81040000 		.4byte	0x481
 1893 08fd 7D040000 		.4byte	.LLST30
 1894 0901 00       		.byte	0
 1895 0902 32       		.uleb128 0x32
 1896 0903 38000000 		.4byte	.LVL23
 1897 0907 B6060000 		.4byte	0x6b6
 1898 090b 22090000 		.4byte	0x922
 1899 090f 33       		.uleb128 0x33
 1900 0910 02       		.uleb128 0x2
 1901 0911 90       		.byte	0x90
 1902 0912 40       		.uleb128 0x40
 1903 0913 05       		.uleb128 0x5
 1904 0914 F3       		.byte	0xf3
 1905 0915 03       		.uleb128 0x3
 1906 0916 F5       		.byte	0xf5
 1907 0917 40       		.uleb128 0x40
 1908 0918 25       		.uleb128 0x25
 1909 0919 34       		.uleb128 0x34
 1910 091a 94050000 		.4byte	0x594
 1911 091e 02       		.uleb128 0x2
 1912 091f 74       		.byte	0x74
 1913 0920 00       		.sleb128 0
 1914 0921 00       		.byte	0
 1915 0922 35       		.uleb128 0x35
 1916 0923 50000000 		.4byte	.LVL26
 1917 0927 B6060000 		.4byte	0x6b6
 1918 092b 34       		.uleb128 0x34
 1919 092c 94050000 		.4byte	0x594
 1920 0930 02       		.uleb128 0x2
 1921 0931 74       		.byte	0x74
 1922 0932 00       		.sleb128 0
 1923 0933 00       		.byte	0
 1924 0934 00       		.byte	0
 1925 0935 36       		.uleb128 0x36
 1926 0936 EF040000 		.4byte	.LASF89
 1927 093a 04       		.byte	0x4
 1928 093b 0E       		.byte	0xe
 1929 093c 94000000 		.4byte	.LFB251
 1930 0940 02000000 		.4byte	.LFE251-.LFB251
 1931 0944 01       		.uleb128 0x1
 1932 0945 9C       		.byte	0x9c
 1933 0946 65090000 		.4byte	0x965
 1934 094a 37       		.uleb128 0x37
ARM GAS  C:\msys64\tmp\ccw9AezN.s 			page 35


 1935 094b 9B010000 		.4byte	.LASF90
 1936 094f 04       		.byte	0x4
 1937 0950 0E       		.byte	0xe
 1938 0951 BF000000 		.4byte	0xbf
 1939 0955 01       		.uleb128 0x1
 1940 0956 50       		.byte	0x50
 1941 0957 38       		.uleb128 0x38
 1942 0958 61706900 		.ascii	"api\000"
 1943 095c 04       		.byte	0x4
 1944 095d 0E       		.byte	0xe
 1945 095e BF000000 		.4byte	0xbf
 1946 0962 01       		.uleb128 0x1
 1947 0963 51       		.byte	0x51
 1948 0964 00       		.byte	0
 1949 0965 36       		.uleb128 0x36
 1950 0966 81020000 		.4byte	.LASF91
 1951 096a 04       		.byte	0x4
 1952 096b 13       		.byte	0x13
 1953 096c 96000000 		.4byte	.LFB252
 1954 0970 26010000 		.4byte	.LFE252-.LFB252
 1955 0974 01       		.uleb128 0x1
 1956 0975 9C       		.byte	0x9c
 1957 0976 7D0C0000 		.4byte	0xc7d
 1958 097a 39       		.uleb128 0x39
 1959 097b 00000000 		.4byte	.LASF59
 1960 097f 04       		.byte	0x4
 1961 0980 13       		.byte	0x13
 1962 0981 7D0C0000 		.4byte	0xc7d
 1963 0985 91040000 		.4byte	.LLST31
 1964 0989 2D       		.uleb128 0x2d
 1965 098a 796E00   		.ascii	"yn\000"
 1966 098d 04       		.byte	0x4
 1967 098e 13       		.byte	0x13
 1968 098f 08010000 		.4byte	0x108
 1969 0993 B2040000 		.4byte	.LLST32
 1970 0997 39       		.uleb128 0x39
 1971 0998 A9030000 		.4byte	.LASF92
 1972 099c 04       		.byte	0x4
 1973 099d 13       		.byte	0x13
 1974 099e 45040000 		.4byte	0x445
 1975 09a2 DE040000 		.4byte	.LLST33
 1976 09a6 3A       		.uleb128 0x3a
 1977 09a7 7300     		.ascii	"s\000"
 1978 09a9 04       		.byte	0x4
 1979 09aa 16       		.byte	0x16
 1980 09ab 880C0000 		.4byte	0xc88
 1981 09af 06       		.uleb128 0x6
 1982 09b0 03       		.byte	0x3
 1983 09b1 00000000 		.4byte	_ZL5vpsfi
 1984 09b5 9F       		.byte	0x9f
 1985 09b6 3A       		.uleb128 0x3a
 1986 09b7 7000     		.ascii	"p\000"
 1987 09b9 04       		.byte	0x4
 1988 09ba 17       		.byte	0x17
 1989 09bb 930C0000 		.4byte	0xc93
 1990 09bf 06       		.uleb128 0x6
 1991 09c0 03       		.byte	0x3
ARM GAS  C:\msys64\tmp\ccw9AezN.s 			page 36


 1992 09c1 10000000 		.4byte	_ZL5vpsfi+16
 1993 09c5 9F       		.byte	0x9f
 1994 09c6 2F       		.uleb128 0x2f
 1995 09c7 50000000 		.4byte	.LASF93
 1996 09cb 04       		.byte	0x4
 1997 09cc 1A       		.byte	0x1a
 1998 09cd 45040000 		.4byte	0x445
 1999 09d1 FF040000 		.4byte	.LLST34
 2000 09d5 1F       		.uleb128 0x1f
 2001 09d6 F4050000 		.4byte	.LASF74
 2002 09da 04       		.byte	0x4
 2003 09db 1D       		.byte	0x1d
 2004 09dc 9E000000 		.4byte	0x9e
 2005 09e0 3A       		.uleb128 0x3a
 2006 09e1 773000   		.ascii	"w0\000"
 2007 09e4 04       		.byte	0x4
 2008 09e5 20       		.byte	0x20
 2009 09e6 25000000 		.4byte	0x25
 2010 09ea 02       		.uleb128 0x2
 2011 09eb 90       		.byte	0x90
 2012 09ec 51       		.uleb128 0x51
 2013 09ed 2E       		.uleb128 0x2e
 2014 09ee 70686900 		.ascii	"phi\000"
 2015 09f2 04       		.byte	0x4
 2016 09f3 23       		.byte	0x23
 2017 09f4 25000000 		.4byte	0x25
 2018 09f8 1E050000 		.4byte	.LLST35
 2019 09fc 3A       		.uleb128 0x3a
 2020 09fd 50686900 		.ascii	"Phi\000"
 2021 0a01 04       		.byte	0x4
 2022 0a02 24       		.byte	0x24
 2023 0a03 8F030000 		.4byte	0x38f
 2024 0a07 06       		.uleb128 0x6
 2025 0a08 F2       		.byte	0xf2
 2026 0a09 ED090000 		.4byte	.Ldebug_info0+2541
 2027 0a0d 00       		.sleb128 0
 2028 0a0e 2E       		.uleb128 0x2e
 2029 0a0f 7900     		.ascii	"y\000"
 2030 0a11 04       		.byte	0x4
 2031 0a12 27       		.byte	0x27
 2032 0a13 F7000000 		.4byte	0xf7
 2033 0a17 32050000 		.4byte	.LLST36
 2034 0a1b 2E       		.uleb128 0x2e
 2035 0a1c 795F6500 		.ascii	"y_e\000"
 2036 0a20 04       		.byte	0x4
 2037 0a21 28       		.byte	0x28
 2038 0a22 FD000000 		.4byte	0xfd
 2039 0a26 5D050000 		.4byte	.LLST37
 2040 0a2a 30       		.uleb128 0x30
 2041 0a2b 2B060000 		.4byte	0x62b
 2042 0a2f 98000000 		.4byte	.LBB188
 2043 0a33 E0000000 		.4byte	.Ldebug_ranges0+0xe0
 2044 0a37 04       		.byte	0x4
 2045 0a38 20       		.byte	0x20
 2046 0a39 170B0000 		.4byte	0xb17
 2047 0a3d 2A       		.uleb128 0x2a
 2048 0a3e 46060000 		.4byte	0x646
ARM GAS  C:\msys64\tmp\ccw9AezN.s 			page 37


 2049 0a42 2A       		.uleb128 0x2a
 2050 0a43 3B060000 		.4byte	0x63b
 2051 0a47 29       		.uleb128 0x29
 2052 0a48 E0000000 		.4byte	.Ldebug_ranges0+0xe0
 2053 0a4c 27       		.uleb128 0x27
 2054 0a4d 51060000 		.4byte	0x651
 2055 0a51 27       		.uleb128 0x27
 2056 0a52 5B060000 		.4byte	0x65b
 2057 0a56 27       		.uleb128 0x27
 2058 0a57 65060000 		.4byte	0x665
 2059 0a5b 30       		.uleb128 0x30
 2060 0a5c 70040000 		.4byte	0x470
 2061 0a60 98000000 		.4byte	.LBB190
 2062 0a64 30010000 		.4byte	.Ldebug_ranges0+0x130
 2063 0a68 02       		.byte	0x2
 2064 0a69 7A       		.byte	0x7a
 2065 0a6a 7E0A0000 		.4byte	0xa7e
 2066 0a6e 2A       		.uleb128 0x2a
 2067 0a6f 97040000 		.4byte	0x497
 2068 0a73 2A       		.uleb128 0x2a
 2069 0a74 8C040000 		.4byte	0x48c
 2070 0a78 2A       		.uleb128 0x2a
 2071 0a79 81040000 		.4byte	0x481
 2072 0a7d 00       		.byte	0
 2073 0a7e 30       		.uleb128 0x30
 2074 0a7f A3040000 		.4byte	0x4a3
 2075 0a83 9E000000 		.4byte	.LBB197
 2076 0a87 68010000 		.4byte	.Ldebug_ranges0+0x168
 2077 0a8b 02       		.byte	0x2
 2078 0a8c 77       		.byte	0x77
 2079 0a8d 970A0000 		.4byte	0xa97
 2080 0a91 2A       		.uleb128 0x2a
 2081 0a92 B3040000 		.4byte	0x4b3
 2082 0a96 00       		.byte	0
 2083 0a97 30       		.uleb128 0x30
 2084 0a98 A3040000 		.4byte	0x4a3
 2085 0a9c BE000000 		.4byte	.LBB205
 2086 0aa0 98010000 		.4byte	.Ldebug_ranges0+0x198
 2087 0aa4 02       		.byte	0x2
 2088 0aa5 78       		.byte	0x78
 2089 0aa6 B00A0000 		.4byte	0xab0
 2090 0aaa 2A       		.uleb128 0x2a
 2091 0aab B3040000 		.4byte	0x4b3
 2092 0aaf 00       		.byte	0
 2093 0ab0 3B       		.uleb128 0x3b
 2094 0ab1 4A040000 		.4byte	0x44a
 2095 0ab5 FA000000 		.4byte	.LBB216
 2096 0ab9 12000000 		.4byte	.LBE216-.LBB216
 2097 0abd 02       		.byte	0x2
 2098 0abe 7A       		.byte	0x7a
 2099 0abf 23       		.uleb128 0x23
 2100 0ac0 65040000 		.4byte	0x465
 2101 0ac4 84050000 		.4byte	.LLST38
 2102 0ac8 2A       		.uleb128 0x2a
 2103 0ac9 5B040000 		.4byte	0x45b
 2104 0acd 3C       		.uleb128 0x3c
 2105 0ace C6030000 		.4byte	0x3c6
ARM GAS  C:\msys64\tmp\ccw9AezN.s 			page 38


 2106 0ad2 FA000000 		.4byte	.LBB217
 2107 0ad6 12000000 		.4byte	.LBE217-.LBB217
 2108 0ada 03       		.byte	0x3
 2109 0adb 8601     		.2byte	0x186
 2110 0add 23       		.uleb128 0x23
 2111 0ade E1030000 		.4byte	0x3e1
 2112 0ae2 84050000 		.4byte	.LLST38
 2113 0ae6 2A       		.uleb128 0x2a
 2114 0ae7 D7030000 		.4byte	0x3d7
 2115 0aeb 3C       		.uleb128 0x3c
 2116 0aec 95030000 		.4byte	0x395
 2117 0af0 FA000000 		.4byte	.LBB218
 2118 0af4 12000000 		.4byte	.LBE218-.LBB218
 2119 0af8 03       		.byte	0x3
 2120 0af9 4B01     		.2byte	0x14b
 2121 0afb 2A       		.uleb128 0x2a
 2122 0afc B7030000 		.4byte	0x3b7
 2123 0b00 23       		.uleb128 0x23
 2124 0b01 AE030000 		.4byte	0x3ae
 2125 0b05 84050000 		.4byte	.LLST38
 2126 0b09 23       		.uleb128 0x23
 2127 0b0a A5030000 		.4byte	0x3a5
 2128 0b0e 9C050000 		.4byte	.LLST41
 2129 0b12 00       		.byte	0
 2130 0b13 00       		.byte	0
 2131 0b14 00       		.byte	0
 2132 0b15 00       		.byte	0
 2133 0b16 00       		.byte	0
 2134 0b17 29       		.uleb128 0x29
 2135 0b18 B0010000 		.4byte	.Ldebug_ranges0+0x1b0
 2136 0b1c 2E       		.uleb128 0x2e
 2137 0b1d 73696700 		.ascii	"sig\000"
 2138 0b21 04       		.byte	0x4
 2139 0b22 2C       		.byte	0x2c
 2140 0b23 25000000 		.4byte	0x25
 2141 0b27 BA050000 		.4byte	.LLST42
 2142 0b2b 3D       		.uleb128 0x3d
 2143 0b2c 34010000 		.4byte	.LBB238
 2144 0b30 10000000 		.4byte	.LBE238-.LBB238
 2145 0b34 700B0000 		.4byte	0xb70
 2146 0b38 2E       		.uleb128 0x2e
 2147 0b39 6400     		.ascii	"d\000"
 2148 0b3b 04       		.byte	0x4
 2149 0b3c 33       		.byte	0x33
 2150 0b3d 25000000 		.4byte	0x25
 2151 0b41 12060000 		.4byte	.LLST43
 2152 0b45 2E       		.uleb128 0x2e
 2153 0b46 7600     		.ascii	"v\000"
 2154 0b48 04       		.byte	0x4
 2155 0b49 34       		.byte	0x34
 2156 0b4a 25000000 		.4byte	0x25
 2157 0b4e 29060000 		.4byte	.LLST44
 2158 0b52 35       		.uleb128 0x35
 2159 0b53 44010000 		.4byte	.LVL59
 2160 0b57 B6060000 		.4byte	0x6b6
 2161 0b5b 33       		.uleb128 0x33
 2162 0b5c 02       		.uleb128 0x2
ARM GAS  C:\msys64\tmp\ccw9AezN.s 			page 39


 2163 0b5d 90       		.byte	0x90
 2164 0b5e 40       		.uleb128 0x40
 2165 0b5f 03       		.uleb128 0x3
 2166 0b60 F5       		.byte	0xf5
 2167 0b61 50       		.uleb128 0x50
 2168 0b62 25       		.uleb128 0x25
 2169 0b63 34       		.uleb128 0x34
 2170 0b64 94050000 		.4byte	0x594
 2171 0b68 05       		.uleb128 0x5
 2172 0b69 03       		.byte	0x3
 2173 0b6a 00000000 		.4byte	_ZL5vpsfi
 2174 0b6e 00       		.byte	0
 2175 0b6f 00       		.byte	0
 2176 0b70 31       		.uleb128 0x31
 2177 0b71 FE050000 		.4byte	0x5fe
 2178 0b75 44010000 		.4byte	.LBB239
 2179 0b79 10000000 		.4byte	.LBE239-.LBB239
 2180 0b7d 04       		.byte	0x4
 2181 0b7e 39       		.byte	0x39
 2182 0b7f 9F0B0000 		.4byte	0xb9f
 2183 0b83 23       		.uleb128 0x23
 2184 0b84 0C060000 		.4byte	0x60c
 2185 0b88 40060000 		.4byte	.LLST45
 2186 0b8c 23       		.uleb128 0x23
 2187 0b8d 20060000 		.4byte	0x620
 2188 0b91 58060000 		.4byte	.LLST46
 2189 0b95 23       		.uleb128 0x23
 2190 0b96 15060000 		.4byte	0x615
 2191 0b9a 6C060000 		.4byte	.LLST47
 2192 0b9e 00       		.byte	0
 2193 0b9f 31       		.uleb128 0x31
 2194 0ba0 6F060000 		.4byte	0x66f
 2195 0ba4 54010000 		.4byte	.LBB241
 2196 0ba8 26000000 		.4byte	.LBE241-.LBB241
 2197 0bac 04       		.byte	0x4
 2198 0bad 3C       		.byte	0x3c
 2199 0bae 630C0000 		.4byte	0xc63
 2200 0bb2 23       		.uleb128 0x23
 2201 0bb3 8A060000 		.4byte	0x68a
 2202 0bb7 84060000 		.4byte	.LLST48
 2203 0bbb 23       		.uleb128 0x23
 2204 0bbc 80060000 		.4byte	0x680
 2205 0bc0 A4060000 		.4byte	.LLST49
 2206 0bc4 3C       		.uleb128 0x3c
 2207 0bc5 16050000 		.4byte	0x516
 2208 0bc9 54010000 		.4byte	.LBB243
 2209 0bcd 26000000 		.4byte	.LBE243-.LBB243
 2210 0bd1 02       		.byte	0x2
 2211 0bd2 9B02     		.2byte	0x29b
 2212 0bd4 23       		.uleb128 0x23
 2213 0bd5 27050000 		.4byte	0x527
 2214 0bd9 84060000 		.4byte	.LLST48
 2215 0bdd 3C       		.uleb128 0x3c
 2216 0bde EE030000 		.4byte	0x3ee
 2217 0be2 54010000 		.4byte	.LBB244
 2218 0be6 26000000 		.4byte	.LBE244-.LBB244
 2219 0bea 03       		.byte	0x3
ARM GAS  C:\msys64\tmp\ccw9AezN.s 			page 40


 2220 0beb B001     		.2byte	0x1b0
 2221 0bed 23       		.uleb128 0x23
 2222 0bee 15040000 		.4byte	0x415
 2223 0bf2 BC060000 		.4byte	.LLST51
 2224 0bf6 23       		.uleb128 0x23
 2225 0bf7 0B040000 		.4byte	0x40b
 2226 0bfb D4060000 		.4byte	.LLST52
 2227 0bff 23       		.uleb128 0x23
 2228 0c00 FF030000 		.4byte	0x3ff
 2229 0c04 F4060000 		.4byte	.LLST53
 2230 0c08 3E       		.uleb128 0x3e
 2231 0c09 95030000 		.4byte	0x395
 2232 0c0d 54010000 		.4byte	.LBB245
 2233 0c11 D0010000 		.4byte	.Ldebug_ranges0+0x1d0
 2234 0c15 03       		.byte	0x3
 2235 0c16 3E01     		.2byte	0x13e
 2236 0c18 380C0000 		.4byte	0xc38
 2237 0c1c 23       		.uleb128 0x23
 2238 0c1d B7030000 		.4byte	0x3b7
 2239 0c21 0C070000 		.4byte	.LLST54
 2240 0c25 23       		.uleb128 0x23
 2241 0c26 AE030000 		.4byte	0x3ae
 2242 0c2a D4060000 		.4byte	.LLST52
 2243 0c2e 23       		.uleb128 0x23
 2244 0c2f A5030000 		.4byte	0x3a5
 2245 0c33 34070000 		.4byte	.LLST56
 2246 0c37 00       		.byte	0
 2247 0c38 3C       		.uleb128 0x3c
 2248 0c39 95030000 		.4byte	0x395
 2249 0c3d 62010000 		.4byte	.LBB248
 2250 0c41 04000000 		.4byte	.LBE248-.LBB248
 2251 0c45 03       		.byte	0x3
 2252 0c46 3F01     		.2byte	0x13f
 2253 0c48 2A       		.uleb128 0x2a
 2254 0c49 B7030000 		.4byte	0x3b7
 2255 0c4d 23       		.uleb128 0x23
 2256 0c4e AE030000 		.4byte	0x3ae
 2257 0c52 68070000 		.4byte	.LLST57
 2258 0c56 23       		.uleb128 0x23
 2259 0c57 A5030000 		.4byte	0x3a5
 2260 0c5b 80070000 		.4byte	.LLST58
 2261 0c5f 00       		.byte	0
 2262 0c60 00       		.byte	0
 2263 0c61 00       		.byte	0
 2264 0c62 00       		.byte	0
 2265 0c63 35       		.uleb128 0x35
 2266 0c64 2A010000 		.4byte	.LVL54
 2267 0c68 B3070000 		.4byte	0x7b3
 2268 0c6c 33       		.uleb128 0x33
 2269 0c6d 01       		.uleb128 0x1
 2270 0c6e 50       		.byte	0x50
 2271 0c6f 02       		.uleb128 0x2
 2272 0c70 74       		.byte	0x74
 2273 0c71 00       		.sleb128 0
 2274 0c72 33       		.uleb128 0x33
 2275 0c73 02       		.uleb128 0x2
 2276 0c74 90       		.byte	0x90
ARM GAS  C:\msys64\tmp\ccw9AezN.s 			page 41


 2277 0c75 40       		.uleb128 0x40
 2278 0c76 03       		.uleb128 0x3
 2279 0c77 F5       		.byte	0xf5
 2280 0c78 50       		.uleb128 0x50
 2281 0c79 25       		.uleb128 0x25
 2282 0c7a 00       		.byte	0
 2283 0c7b 00       		.byte	0
 2284 0c7c 00       		.byte	0
 2285 0c7d 08       		.uleb128 0x8
 2286 0c7e F5010000 		.4byte	0x1f5
 2287 0c82 3F       		.uleb128 0x3f
 2288 0c83 04       		.byte	0x4
 2289 0c84 75020000 		.4byte	0x275
 2290 0c88 08       		.uleb128 0x8
 2291 0c89 820C0000 		.4byte	0xc82
 2292 0c8d 3F       		.uleb128 0x3f
 2293 0c8e 04       		.byte	0x4
 2294 0c8f 77030000 		.4byte	0x377
 2295 0c93 08       		.uleb128 0x8
 2296 0c94 8D0C0000 		.4byte	0xc8d
 2297 0c98 40       		.uleb128 0x40
 2298 0c99 9F030000 		.4byte	.LASF118
 2299 0c9d 04       		.byte	0x4
 2300 0c9e 4D       		.byte	0x4d
 2301 0c9f 01       		.byte	0x1
 2302 0ca0 B00C0000 		.4byte	0xcb0
 2303 0ca4 1A       		.uleb128 0x1a
 2304 0ca5 00000000 		.4byte	.LASF59
 2305 0ca9 04       		.byte	0x4
 2306 0caa 4D       		.byte	0x4d
 2307 0cab 7D0C0000 		.4byte	0xc7d
 2308 0caf 00       		.byte	0
 2309 0cb0 22       		.uleb128 0x22
 2310 0cb1 980C0000 		.4byte	0xc98
 2311 0cb5 BE010000 		.4byte	.LFB254
 2312 0cb9 02000000 		.4byte	.LFE254-.LFB254
 2313 0cbd 01       		.uleb128 0x1
 2314 0cbe 9C       		.byte	0x9c
 2315 0cbf CB0C0000 		.4byte	0xccb
 2316 0cc3 24       		.uleb128 0x24
 2317 0cc4 A40C0000 		.4byte	0xca4
 2318 0cc8 01       		.uleb128 0x1
 2319 0cc9 50       		.byte	0x50
 2320 0cca 00       		.byte	0
 2321 0ccb 36       		.uleb128 0x36
 2322 0ccc 22000000 		.4byte	.LASF94
 2323 0cd0 04       		.byte	0x4
 2324 0cd1 52       		.byte	0x52
 2325 0cd2 C0010000 		.4byte	.LFB255
 2326 0cd6 5C000000 		.4byte	.LFE255-.LFB255
 2327 0cda 01       		.uleb128 0x1
 2328 0cdb 9C       		.byte	0x9c
 2329 0cdc 2C0D0000 		.4byte	0xd2c
 2330 0ce0 37       		.uleb128 0x37
 2331 0ce1 D6020000 		.4byte	.LASF95
 2332 0ce5 04       		.byte	0x4
 2333 0ce6 52       		.byte	0x52
ARM GAS  C:\msys64\tmp\ccw9AezN.s 			page 42


 2334 0ce7 A9000000 		.4byte	0xa9
 2335 0ceb 01       		.uleb128 0x1
 2336 0cec 50       		.byte	0x50
 2337 0ced 39       		.uleb128 0x39
 2338 0cee 2A030000 		.4byte	.LASF96
 2339 0cf2 04       		.byte	0x4
 2340 0cf3 52       		.byte	0x52
 2341 0cf4 A9000000 		.4byte	0xa9
 2342 0cf8 9E070000 		.4byte	.LLST59
 2343 0cfc 3A       		.uleb128 0x3a
 2344 0cfd 7000     		.ascii	"p\000"
 2345 0cff 04       		.byte	0x4
 2346 0d00 55       		.byte	0x55
 2347 0d01 320D0000 		.4byte	0xd32
 2348 0d05 06       		.uleb128 0x6
 2349 0d06 03       		.byte	0x3
 2350 0d07 10000000 		.4byte	_ZL5vpsfi+16
 2351 0d0b 9F       		.byte	0x9f
 2352 0d0c 3A       		.uleb128 0x3a
 2353 0d0d 7300     		.ascii	"s\000"
 2354 0d0f 04       		.byte	0x4
 2355 0d10 56       		.byte	0x56
 2356 0d11 370D0000 		.4byte	0xd37
 2357 0d15 06       		.uleb128 0x6
 2358 0d16 03       		.byte	0x3
 2359 0d17 00000000 		.4byte	_ZL5vpsfi
 2360 0d1b 9F       		.byte	0x9f
 2361 0d1c 2F       		.uleb128 0x2f
 2362 0d1d BA020000 		.4byte	.LASF97
 2363 0d21 04       		.byte	0x4
 2364 0d22 58       		.byte	0x58
 2365 0d23 C1030000 		.4byte	0x3c1
 2366 0d27 D8070000 		.4byte	.LLST60
 2367 0d2b 00       		.byte	0
 2368 0d2c 3F       		.uleb128 0x3f
 2369 0d2d 04       		.byte	0x4
 2370 0d2e 2B020000 		.4byte	0x22b
 2371 0d32 08       		.uleb128 0x8
 2372 0d33 2C0D0000 		.4byte	0xd2c
 2373 0d37 08       		.uleb128 0x8
 2374 0d38 820C0000 		.4byte	0xc82
 2375 0d3c 1C       		.uleb128 0x1c
 2376 0d3d E5020000 		.4byte	0x2e5
 2377 0d41 02       		.byte	0x2
 2378 0d42 4A0D0000 		.4byte	0xd4a
 2379 0d46 540D0000 		.4byte	0xd54
 2380 0d4a 1D       		.uleb128 0x1d
 2381 0d4b 9D040000 		.4byte	.LASF77
 2382 0d4f F9050000 		.4byte	0x5f9
 2383 0d53 00       		.byte	0
 2384 0d54 41       		.uleb128 0x41
 2385 0d55 35040000 		.4byte	.LASF119
 2386 0d59 00000000 		.4byte	.LFB257
 2387 0d5d 28000000 		.4byte	.LFE257-.LFB257
 2388 0d61 01       		.uleb128 0x1
 2389 0d62 9C       		.byte	0x9c
 2390 0d63 D90D0000 		.4byte	0xdd9
ARM GAS  C:\msys64\tmp\ccw9AezN.s 			page 43


 2391 0d67 3B       		.uleb128 0x3b
 2392 0d68 95060000 		.4byte	0x695
 2393 0d6c 00000000 		.4byte	.LBB266
 2394 0d70 28000000 		.4byte	.LBE266-.LBB266
 2395 0d74 04       		.byte	0x4
 2396 0d75 7B       		.byte	0x7b
 2397 0d76 23       		.uleb128 0x23
 2398 0d77 AA060000 		.4byte	0x6aa
 2399 0d7b 27080000 		.4byte	.LLST61
 2400 0d7f 23       		.uleb128 0x23
 2401 0d80 9F060000 		.4byte	0x69f
 2402 0d84 3D080000 		.4byte	.LLST62
 2403 0d88 3B       		.uleb128 0x3b
 2404 0d89 3C0D0000 		.4byte	0xd3c
 2405 0d8d 00000000 		.4byte	.LBB268
 2406 0d91 28000000 		.4byte	.LBE268-.LBB268
 2407 0d95 04       		.byte	0x4
 2408 0d96 0C       		.byte	0xc
 2409 0d97 23       		.uleb128 0x23
 2410 0d98 4A0D0000 		.4byte	0xd4a
 2411 0d9c 51080000 		.4byte	.LLST63
 2412 0da0 31       		.uleb128 0x31
 2413 0da1 4F050000 		.4byte	0x54f
 2414 0da5 00000000 		.4byte	.LBB269
 2415 0da9 14000000 		.4byte	.LBE269-.LBB269
 2416 0dad 01       		.byte	0x1
 2417 0dae 32       		.byte	0x32
 2418 0daf BD0D0000 		.4byte	0xdbd
 2419 0db3 23       		.uleb128 0x23
 2420 0db4 5D050000 		.4byte	0x55d
 2421 0db8 69080000 		.4byte	.LLST64
 2422 0dbc 00       		.byte	0
 2423 0dbd 3B       		.uleb128 0x3b
 2424 0dbe 32050000 		.4byte	0x532
 2425 0dc2 14000000 		.4byte	.LBB271
 2426 0dc6 14000000 		.4byte	.LBE271-.LBB271
 2427 0dca 01       		.byte	0x1
 2428 0dcb 32       		.byte	0x32
 2429 0dcc 23       		.uleb128 0x23
 2430 0dcd 40050000 		.4byte	0x540
 2431 0dd1 81080000 		.4byte	.LLST65
 2432 0dd5 00       		.byte	0
 2433 0dd6 00       		.byte	0
 2434 0dd7 00       		.byte	0
 2435 0dd8 00       		.byte	0
 2436 0dd9 42       		.uleb128 0x42
 2437 0dda 88070000 		.4byte	.LASF98
 2438 0dde 02       		.byte	0x2
 2439 0ddf 3F       		.byte	0x3f
 2440 0de0 45040000 		.4byte	0x445
 2441 0de4 42       		.uleb128 0x42
 2442 0de5 DD050000 		.4byte	.LASF99
 2443 0de9 02       		.byte	0x2
 2444 0dea 44       		.byte	0x44
 2445 0deb 45040000 		.4byte	0x445
 2446 0def 0D       		.uleb128 0xd
 2447 0df0 C1030000 		.4byte	0x3c1
ARM GAS  C:\msys64\tmp\ccw9AezN.s 			page 44


 2448 0df4 FF0D0000 		.4byte	0xdff
 2449 0df8 0E       		.uleb128 0xe
 2450 0df9 D6000000 		.4byte	0xd6
 2451 0dfd 97       		.byte	0x97
 2452 0dfe 00       		.byte	0
 2453 0dff 42       		.uleb128 0x42
 2454 0e00 BF020000 		.4byte	.LASF100
 2455 0e04 02       		.byte	0x2
 2456 0e05 61       		.byte	0x61
 2457 0e06 0A0E0000 		.4byte	0xe0a
 2458 0e0a 08       		.uleb128 0x8
 2459 0e0b EF0D0000 		.4byte	0xdef
 2460 0e0f 0D       		.uleb128 0xd
 2461 0e10 C1030000 		.4byte	0x3c1
 2462 0e14 1F0E0000 		.4byte	0xe1f
 2463 0e18 0E       		.uleb128 0xe
 2464 0e19 D6000000 		.4byte	0xd6
 2465 0e1d 80       		.byte	0x80
 2466 0e1e 00       		.byte	0
 2467 0e1f 42       		.uleb128 0x42
 2468 0e20 2E060000 		.4byte	.LASF101
 2469 0e24 02       		.byte	0x2
 2470 0e25 8E       		.byte	0x8e
 2471 0e26 2A0E0000 		.4byte	0xe2a
 2472 0e2a 08       		.uleb128 0x8
 2473 0e2b 0F0E0000 		.4byte	0xe0f
 2474 0e2f 0D       		.uleb128 0xd
 2475 0e30 C1030000 		.4byte	0x3c1
 2476 0e34 400E0000 		.4byte	0xe40
 2477 0e38 43       		.uleb128 0x43
 2478 0e39 D6000000 		.4byte	0xd6
 2479 0e3d 8603     		.2byte	0x386
 2480 0e3f 00       		.byte	0
 2481 0e40 42       		.uleb128 0x42
 2482 0e41 5F040000 		.4byte	.LASF102
 2483 0e45 02       		.byte	0x2
 2484 0e46 C0       		.byte	0xc0
 2485 0e47 4B0E0000 		.4byte	0xe4b
 2486 0e4b 08       		.uleb128 0x8
 2487 0e4c 2F0E0000 		.4byte	0xe2f
 2488 0e50 44       		.uleb128 0x44
 2489 0e51 2F050000 		.4byte	.LASF103
 2490 0e55 02       		.byte	0x2
 2491 0e56 3201     		.2byte	0x132
 2492 0e58 5C0E0000 		.4byte	0xe5c
 2493 0e5c 08       		.uleb128 0x8
 2494 0e5d 2F0E0000 		.4byte	0xe2f
 2495 0e61 44       		.uleb128 0x44
 2496 0e62 2E000000 		.4byte	.LASF104
 2497 0e66 02       		.byte	0x2
 2498 0e67 A501     		.2byte	0x1a5
 2499 0e69 6D0E0000 		.4byte	0xe6d
 2500 0e6d 08       		.uleb128 0x8
 2501 0e6e 2F0E0000 		.4byte	0xe2f
 2502 0e72 0D       		.uleb128 0xd
 2503 0e73 C1030000 		.4byte	0x3c1
 2504 0e77 830E0000 		.4byte	0xe83
ARM GAS  C:\msys64\tmp\ccw9AezN.s 			page 45


 2505 0e7b 43       		.uleb128 0x43
 2506 0e7c D6000000 		.4byte	0xd6
 2507 0e80 0001     		.2byte	0x100
 2508 0e82 00       		.byte	0
 2509 0e83 44       		.uleb128 0x44
 2510 0e84 DE030000 		.4byte	.LASF105
 2511 0e88 02       		.byte	0x2
 2512 0e89 4602     		.2byte	0x246
 2513 0e8b 8F0E0000 		.4byte	0xe8f
 2514 0e8f 08       		.uleb128 0x8
 2515 0e90 720E0000 		.4byte	0xe72
 2516 0e94 44       		.uleb128 0x44
 2517 0e95 8D020000 		.4byte	.LASF106
 2518 0e99 02       		.byte	0x2
 2519 0e9a 5D02     		.2byte	0x25d
 2520 0e9c A00E0000 		.4byte	0xea0
 2521 0ea0 08       		.uleb128 0x8
 2522 0ea1 720E0000 		.4byte	0xe72
 2523 0ea5 44       		.uleb128 0x44
 2524 0ea6 04050000 		.4byte	.LASF107
 2525 0eaa 02       		.byte	0x2
 2526 0eab 7502     		.2byte	0x275
 2527 0ead B10E0000 		.4byte	0xeb1
 2528 0eb1 08       		.uleb128 0x8
 2529 0eb2 720E0000 		.4byte	0xe72
 2530 0eb6 44       		.uleb128 0x44
 2531 0eb7 20050000 		.4byte	.LASF108
 2532 0ebb 02       		.byte	0x2
 2533 0ebc A402     		.2byte	0x2a4
 2534 0ebe C20E0000 		.4byte	0xec2
 2535 0ec2 08       		.uleb128 0x8
 2536 0ec3 0F0E0000 		.4byte	0xe0f
 2537 0ec7 44       		.uleb128 0x44
 2538 0ec8 B0030000 		.4byte	.LASF109
 2539 0ecc 02       		.byte	0x2
 2540 0ecd B902     		.2byte	0x2b9
 2541 0ecf D30E0000 		.4byte	0xed3
 2542 0ed3 08       		.uleb128 0x8
 2543 0ed4 0F0E0000 		.4byte	0xe0f
 2544 0ed8 44       		.uleb128 0x44
 2545 0ed9 7B010000 		.4byte	.LASF110
 2546 0edd 02       		.byte	0x2
 2547 0ede D602     		.2byte	0x2d6
 2548 0ee0 E40E0000 		.4byte	0xee4
 2549 0ee4 08       		.uleb128 0x8
 2550 0ee5 0F0E0000 		.4byte	0xe0f
 2551 0ee9 45       		.uleb128 0x45
 2552 0eea B1050000 		.4byte	.LASF111
 2553 0eee 04       		.byte	0x4
 2554 0eef 0C       		.byte	0xc
 2555 0ef0 00020000 		.4byte	0x200
 2556 0ef4 05       		.uleb128 0x5
 2557 0ef5 03       		.byte	0x3
 2558 0ef6 00000000 		.4byte	_ZL5vpsfi
 2559 0efa 00       		.byte	0
 2560              		.section	.debug_abbrev,"",%progbits
 2561              	.Ldebug_abbrev0:
ARM GAS  C:\msys64\tmp\ccw9AezN.s 			page 46


 2562 0000 01       		.uleb128 0x1
 2563 0001 11       		.uleb128 0x11
 2564 0002 01       		.byte	0x1
 2565 0003 25       		.uleb128 0x25
 2566 0004 0E       		.uleb128 0xe
 2567 0005 13       		.uleb128 0x13
 2568 0006 0B       		.uleb128 0xb
 2569 0007 03       		.uleb128 0x3
 2570 0008 0E       		.uleb128 0xe
 2571 0009 1B       		.uleb128 0x1b
 2572 000a 0E       		.uleb128 0xe
 2573 000b 55       		.uleb128 0x55
 2574 000c 17       		.uleb128 0x17
 2575 000d 11       		.uleb128 0x11
 2576 000e 01       		.uleb128 0x1
 2577 000f 10       		.uleb128 0x10
 2578 0010 17       		.uleb128 0x17
 2579 0011 00       		.byte	0
 2580 0012 00       		.byte	0
 2581 0013 02       		.uleb128 0x2
 2582 0014 24       		.uleb128 0x24
 2583 0015 00       		.byte	0
 2584 0016 0B       		.uleb128 0xb
 2585 0017 0B       		.uleb128 0xb
 2586 0018 3E       		.uleb128 0x3e
 2587 0019 0B       		.uleb128 0xb
 2588 001a 03       		.uleb128 0x3
 2589 001b 0E       		.uleb128 0xe
 2590 001c 00       		.byte	0
 2591 001d 00       		.byte	0
 2592 001e 03       		.uleb128 0x3
 2593 001f 24       		.uleb128 0x24
 2594 0020 00       		.byte	0
 2595 0021 0B       		.uleb128 0xb
 2596 0022 0B       		.uleb128 0xb
 2597 0023 3E       		.uleb128 0x3e
 2598 0024 0B       		.uleb128 0xb
 2599 0025 03       		.uleb128 0x3
 2600 0026 08       		.uleb128 0x8
 2601 0027 00       		.byte	0
 2602 0028 00       		.byte	0
 2603 0029 04       		.uleb128 0x4
 2604 002a 16       		.uleb128 0x16
 2605 002b 00       		.byte	0
 2606 002c 03       		.uleb128 0x3
 2607 002d 0E       		.uleb128 0xe
 2608 002e 3A       		.uleb128 0x3a
 2609 002f 0B       		.uleb128 0xb
 2610 0030 3B       		.uleb128 0x3b
 2611 0031 0B       		.uleb128 0xb
 2612 0032 49       		.uleb128 0x49
 2613 0033 13       		.uleb128 0x13
 2614 0034 00       		.byte	0
 2615 0035 00       		.byte	0
 2616 0036 05       		.uleb128 0x5
 2617 0037 3B       		.uleb128 0x3b
 2618 0038 00       		.byte	0
ARM GAS  C:\msys64\tmp\ccw9AezN.s 			page 47


 2619 0039 03       		.uleb128 0x3
 2620 003a 0E       		.uleb128 0xe
 2621 003b 00       		.byte	0
 2622 003c 00       		.byte	0
 2623 003d 06       		.uleb128 0x6
 2624 003e 16       		.uleb128 0x16
 2625 003f 00       		.byte	0
 2626 0040 03       		.uleb128 0x3
 2627 0041 0E       		.uleb128 0xe
 2628 0042 3A       		.uleb128 0x3a
 2629 0043 0B       		.uleb128 0xb
 2630 0044 3B       		.uleb128 0x3b
 2631 0045 05       		.uleb128 0x5
 2632 0046 49       		.uleb128 0x49
 2633 0047 13       		.uleb128 0x13
 2634 0048 00       		.byte	0
 2635 0049 00       		.byte	0
 2636 004a 07       		.uleb128 0x7
 2637 004b 0F       		.uleb128 0xf
 2638 004c 00       		.byte	0
 2639 004d 0B       		.uleb128 0xb
 2640 004e 0B       		.uleb128 0xb
 2641 004f 49       		.uleb128 0x49
 2642 0050 13       		.uleb128 0x13
 2643 0051 00       		.byte	0
 2644 0052 00       		.byte	0
 2645 0053 08       		.uleb128 0x8
 2646 0054 26       		.uleb128 0x26
 2647 0055 00       		.byte	0
 2648 0056 49       		.uleb128 0x49
 2649 0057 13       		.uleb128 0x13
 2650 0058 00       		.byte	0
 2651 0059 00       		.byte	0
 2652 005a 09       		.uleb128 0x9
 2653 005b 04       		.uleb128 0x4
 2654 005c 01       		.byte	0x1
 2655 005d 0B       		.uleb128 0xb
 2656 005e 0B       		.uleb128 0xb
 2657 005f 49       		.uleb128 0x49
 2658 0060 13       		.uleb128 0x13
 2659 0061 3A       		.uleb128 0x3a
 2660 0062 0B       		.uleb128 0xb
 2661 0063 3B       		.uleb128 0x3b
 2662 0064 0B       		.uleb128 0xb
 2663 0065 01       		.uleb128 0x1
 2664 0066 13       		.uleb128 0x13
 2665 0067 00       		.byte	0
 2666 0068 00       		.byte	0
 2667 0069 0A       		.uleb128 0xa
 2668 006a 28       		.uleb128 0x28
 2669 006b 00       		.byte	0
 2670 006c 03       		.uleb128 0x3
 2671 006d 0E       		.uleb128 0xe
 2672 006e 1C       		.uleb128 0x1c
 2673 006f 0B       		.uleb128 0xb
 2674 0070 00       		.byte	0
 2675 0071 00       		.byte	0
ARM GAS  C:\msys64\tmp\ccw9AezN.s 			page 48


 2676 0072 0B       		.uleb128 0xb
 2677 0073 13       		.uleb128 0x13
 2678 0074 01       		.byte	0x1
 2679 0075 03       		.uleb128 0x3
 2680 0076 0E       		.uleb128 0xe
 2681 0077 0B       		.uleb128 0xb
 2682 0078 0B       		.uleb128 0xb
 2683 0079 3A       		.uleb128 0x3a
 2684 007a 0B       		.uleb128 0xb
 2685 007b 3B       		.uleb128 0x3b
 2686 007c 0B       		.uleb128 0xb
 2687 007d 01       		.uleb128 0x1
 2688 007e 13       		.uleb128 0x13
 2689 007f 00       		.byte	0
 2690 0080 00       		.byte	0
 2691 0081 0C       		.uleb128 0xc
 2692 0082 0D       		.uleb128 0xd
 2693 0083 00       		.byte	0
 2694 0084 03       		.uleb128 0x3
 2695 0085 0E       		.uleb128 0xe
 2696 0086 3A       		.uleb128 0x3a
 2697 0087 0B       		.uleb128 0xb
 2698 0088 3B       		.uleb128 0x3b
 2699 0089 0B       		.uleb128 0xb
 2700 008a 49       		.uleb128 0x49
 2701 008b 13       		.uleb128 0x13
 2702 008c 38       		.uleb128 0x38
 2703 008d 0B       		.uleb128 0xb
 2704 008e 00       		.byte	0
 2705 008f 00       		.byte	0
 2706 0090 0D       		.uleb128 0xd
 2707 0091 01       		.uleb128 0x1
 2708 0092 01       		.byte	0x1
 2709 0093 49       		.uleb128 0x49
 2710 0094 13       		.uleb128 0x13
 2711 0095 01       		.uleb128 0x1
 2712 0096 13       		.uleb128 0x13
 2713 0097 00       		.byte	0
 2714 0098 00       		.byte	0
 2715 0099 0E       		.uleb128 0xe
 2716 009a 21       		.uleb128 0x21
 2717 009b 00       		.byte	0
 2718 009c 49       		.uleb128 0x49
 2719 009d 13       		.uleb128 0x13
 2720 009e 2F       		.uleb128 0x2f
 2721 009f 0B       		.uleb128 0xb
 2722 00a0 00       		.byte	0
 2723 00a1 00       		.byte	0
 2724 00a2 0F       		.uleb128 0xf
 2725 00a3 04       		.uleb128 0x4
 2726 00a4 01       		.byte	0x1
 2727 00a5 0B       		.uleb128 0xb
 2728 00a6 0B       		.uleb128 0xb
 2729 00a7 49       		.uleb128 0x49
 2730 00a8 13       		.uleb128 0x13
 2731 00a9 3A       		.uleb128 0x3a
 2732 00aa 0B       		.uleb128 0xb
ARM GAS  C:\msys64\tmp\ccw9AezN.s 			page 49


 2733 00ab 3B       		.uleb128 0x3b
 2734 00ac 0B       		.uleb128 0xb
 2735 00ad 6E       		.uleb128 0x6e
 2736 00ae 0E       		.uleb128 0xe
 2737 00af 01       		.uleb128 0x1
 2738 00b0 13       		.uleb128 0x13
 2739 00b1 00       		.byte	0
 2740 00b2 00       		.byte	0
 2741 00b3 10       		.uleb128 0x10
 2742 00b4 2E       		.uleb128 0x2e
 2743 00b5 01       		.byte	0x1
 2744 00b6 3F       		.uleb128 0x3f
 2745 00b7 19       		.uleb128 0x19
 2746 00b8 03       		.uleb128 0x3
 2747 00b9 0E       		.uleb128 0xe
 2748 00ba 3A       		.uleb128 0x3a
 2749 00bb 0B       		.uleb128 0xb
 2750 00bc 3B       		.uleb128 0x3b
 2751 00bd 0B       		.uleb128 0xb
 2752 00be 6E       		.uleb128 0x6e
 2753 00bf 0E       		.uleb128 0xe
 2754 00c0 49       		.uleb128 0x49
 2755 00c1 13       		.uleb128 0x13
 2756 00c2 3C       		.uleb128 0x3c
 2757 00c3 19       		.uleb128 0x19
 2758 00c4 64       		.uleb128 0x64
 2759 00c5 13       		.uleb128 0x13
 2760 00c6 00       		.byte	0
 2761 00c7 00       		.byte	0
 2762 00c8 11       		.uleb128 0x11
 2763 00c9 05       		.uleb128 0x5
 2764 00ca 00       		.byte	0
 2765 00cb 49       		.uleb128 0x49
 2766 00cc 13       		.uleb128 0x13
 2767 00cd 34       		.uleb128 0x34
 2768 00ce 19       		.uleb128 0x19
 2769 00cf 00       		.byte	0
 2770 00d0 00       		.byte	0
 2771 00d1 12       		.uleb128 0x12
 2772 00d2 0D       		.uleb128 0xd
 2773 00d3 00       		.byte	0
 2774 00d4 03       		.uleb128 0x3
 2775 00d5 08       		.uleb128 0x8
 2776 00d6 3A       		.uleb128 0x3a
 2777 00d7 0B       		.uleb128 0xb
 2778 00d8 3B       		.uleb128 0x3b
 2779 00d9 0B       		.uleb128 0xb
 2780 00da 49       		.uleb128 0x49
 2781 00db 13       		.uleb128 0x13
 2782 00dc 38       		.uleb128 0x38
 2783 00dd 0B       		.uleb128 0xb
 2784 00de 00       		.byte	0
 2785 00df 00       		.byte	0
 2786 00e0 13       		.uleb128 0x13
 2787 00e1 0D       		.uleb128 0xd
 2788 00e2 00       		.byte	0
 2789 00e3 03       		.uleb128 0x3
ARM GAS  C:\msys64\tmp\ccw9AezN.s 			page 50


 2790 00e4 0E       		.uleb128 0xe
 2791 00e5 3A       		.uleb128 0x3a
 2792 00e6 0B       		.uleb128 0xb
 2793 00e7 3B       		.uleb128 0x3b
 2794 00e8 0B       		.uleb128 0xb
 2795 00e9 49       		.uleb128 0x49
 2796 00ea 13       		.uleb128 0x13
 2797 00eb 0B       		.uleb128 0xb
 2798 00ec 0B       		.uleb128 0xb
 2799 00ed 0D       		.uleb128 0xd
 2800 00ee 0B       		.uleb128 0xb
 2801 00ef 0C       		.uleb128 0xc
 2802 00f0 0B       		.uleb128 0xb
 2803 00f1 38       		.uleb128 0x38
 2804 00f2 0B       		.uleb128 0xb
 2805 00f3 00       		.byte	0
 2806 00f4 00       		.byte	0
 2807 00f5 14       		.uleb128 0x14
 2808 00f6 2E       		.uleb128 0x2e
 2809 00f7 01       		.byte	0x1
 2810 00f8 3F       		.uleb128 0x3f
 2811 00f9 19       		.uleb128 0x19
 2812 00fa 03       		.uleb128 0x3
 2813 00fb 0E       		.uleb128 0xe
 2814 00fc 3A       		.uleb128 0x3a
 2815 00fd 0B       		.uleb128 0xb
 2816 00fe 3B       		.uleb128 0x3b
 2817 00ff 0B       		.uleb128 0xb
 2818 0100 6E       		.uleb128 0x6e
 2819 0101 0E       		.uleb128 0xe
 2820 0102 49       		.uleb128 0x49
 2821 0103 13       		.uleb128 0x13
 2822 0104 3C       		.uleb128 0x3c
 2823 0105 19       		.uleb128 0x19
 2824 0106 64       		.uleb128 0x64
 2825 0107 13       		.uleb128 0x13
 2826 0108 01       		.uleb128 0x1
 2827 0109 13       		.uleb128 0x13
 2828 010a 00       		.byte	0
 2829 010b 00       		.byte	0
 2830 010c 15       		.uleb128 0x15
 2831 010d 05       		.uleb128 0x5
 2832 010e 00       		.byte	0
 2833 010f 49       		.uleb128 0x49
 2834 0110 13       		.uleb128 0x13
 2835 0111 00       		.byte	0
 2836 0112 00       		.byte	0
 2837 0113 16       		.uleb128 0x16
 2838 0114 2E       		.uleb128 0x2e
 2839 0115 01       		.byte	0x1
 2840 0116 03       		.uleb128 0x3
 2841 0117 0E       		.uleb128 0xe
 2842 0118 3A       		.uleb128 0x3a
 2843 0119 0B       		.uleb128 0xb
 2844 011a 3B       		.uleb128 0x3b
 2845 011b 0B       		.uleb128 0xb
 2846 011c 49       		.uleb128 0x49
ARM GAS  C:\msys64\tmp\ccw9AezN.s 			page 51


 2847 011d 13       		.uleb128 0x13
 2848 011e 20       		.uleb128 0x20
 2849 011f 0B       		.uleb128 0xb
 2850 0120 01       		.uleb128 0x1
 2851 0121 13       		.uleb128 0x13
 2852 0122 00       		.byte	0
 2853 0123 00       		.byte	0
 2854 0124 17       		.uleb128 0x17
 2855 0125 05       		.uleb128 0x5
 2856 0126 00       		.byte	0
 2857 0127 03       		.uleb128 0x3
 2858 0128 08       		.uleb128 0x8
 2859 0129 3A       		.uleb128 0x3a
 2860 012a 0B       		.uleb128 0xb
 2861 012b 3B       		.uleb128 0x3b
 2862 012c 0B       		.uleb128 0xb
 2863 012d 49       		.uleb128 0x49
 2864 012e 13       		.uleb128 0x13
 2865 012f 00       		.byte	0
 2866 0130 00       		.byte	0
 2867 0131 18       		.uleb128 0x18
 2868 0132 2E       		.uleb128 0x2e
 2869 0133 01       		.byte	0x1
 2870 0134 03       		.uleb128 0x3
 2871 0135 0E       		.uleb128 0xe
 2872 0136 3A       		.uleb128 0x3a
 2873 0137 0B       		.uleb128 0xb
 2874 0138 3B       		.uleb128 0x3b
 2875 0139 05       		.uleb128 0x5
 2876 013a 49       		.uleb128 0x49
 2877 013b 13       		.uleb128 0x13
 2878 013c 20       		.uleb128 0x20
 2879 013d 0B       		.uleb128 0xb
 2880 013e 01       		.uleb128 0x1
 2881 013f 13       		.uleb128 0x13
 2882 0140 00       		.byte	0
 2883 0141 00       		.byte	0
 2884 0142 19       		.uleb128 0x19
 2885 0143 05       		.uleb128 0x5
 2886 0144 00       		.byte	0
 2887 0145 03       		.uleb128 0x3
 2888 0146 08       		.uleb128 0x8
 2889 0147 3A       		.uleb128 0x3a
 2890 0148 0B       		.uleb128 0xb
 2891 0149 3B       		.uleb128 0x3b
 2892 014a 05       		.uleb128 0x5
 2893 014b 49       		.uleb128 0x49
 2894 014c 13       		.uleb128 0x13
 2895 014d 00       		.byte	0
 2896 014e 00       		.byte	0
 2897 014f 1A       		.uleb128 0x1a
 2898 0150 05       		.uleb128 0x5
 2899 0151 00       		.byte	0
 2900 0152 03       		.uleb128 0x3
 2901 0153 0E       		.uleb128 0xe
 2902 0154 3A       		.uleb128 0x3a
 2903 0155 0B       		.uleb128 0xb
ARM GAS  C:\msys64\tmp\ccw9AezN.s 			page 52


 2904 0156 3B       		.uleb128 0x3b
 2905 0157 0B       		.uleb128 0xb
 2906 0158 49       		.uleb128 0x49
 2907 0159 13       		.uleb128 0x13
 2908 015a 00       		.byte	0
 2909 015b 00       		.byte	0
 2910 015c 1B       		.uleb128 0x1b
 2911 015d 34       		.uleb128 0x34
 2912 015e 00       		.byte	0
 2913 015f 03       		.uleb128 0x3
 2914 0160 08       		.uleb128 0x8
 2915 0161 3A       		.uleb128 0x3a
 2916 0162 0B       		.uleb128 0xb
 2917 0163 3B       		.uleb128 0x3b
 2918 0164 0B       		.uleb128 0xb
 2919 0165 49       		.uleb128 0x49
 2920 0166 13       		.uleb128 0x13
 2921 0167 00       		.byte	0
 2922 0168 00       		.byte	0
 2923 0169 1C       		.uleb128 0x1c
 2924 016a 2E       		.uleb128 0x2e
 2925 016b 01       		.byte	0x1
 2926 016c 47       		.uleb128 0x47
 2927 016d 13       		.uleb128 0x13
 2928 016e 20       		.uleb128 0x20
 2929 016f 0B       		.uleb128 0xb
 2930 0170 64       		.uleb128 0x64
 2931 0171 13       		.uleb128 0x13
 2932 0172 01       		.uleb128 0x1
 2933 0173 13       		.uleb128 0x13
 2934 0174 00       		.byte	0
 2935 0175 00       		.byte	0
 2936 0176 1D       		.uleb128 0x1d
 2937 0177 05       		.uleb128 0x5
 2938 0178 00       		.byte	0
 2939 0179 03       		.uleb128 0x3
 2940 017a 0E       		.uleb128 0xe
 2941 017b 49       		.uleb128 0x49
 2942 017c 13       		.uleb128 0x13
 2943 017d 34       		.uleb128 0x34
 2944 017e 19       		.uleb128 0x19
 2945 017f 00       		.byte	0
 2946 0180 00       		.byte	0
 2947 0181 1E       		.uleb128 0x1e
 2948 0182 0B       		.uleb128 0xb
 2949 0183 01       		.byte	0x1
 2950 0184 01       		.uleb128 0x1
 2951 0185 13       		.uleb128 0x13
 2952 0186 00       		.byte	0
 2953 0187 00       		.byte	0
 2954 0188 1F       		.uleb128 0x1f
 2955 0189 34       		.uleb128 0x34
 2956 018a 00       		.byte	0
 2957 018b 03       		.uleb128 0x3
 2958 018c 0E       		.uleb128 0xe
 2959 018d 3A       		.uleb128 0x3a
 2960 018e 0B       		.uleb128 0xb
ARM GAS  C:\msys64\tmp\ccw9AezN.s 			page 53


 2961 018f 3B       		.uleb128 0x3b
 2962 0190 0B       		.uleb128 0xb
 2963 0191 49       		.uleb128 0x49
 2964 0192 13       		.uleb128 0x13
 2965 0193 00       		.byte	0
 2966 0194 00       		.byte	0
 2967 0195 20       		.uleb128 0x20
 2968 0196 0B       		.uleb128 0xb
 2969 0197 01       		.byte	0x1
 2970 0198 00       		.byte	0
 2971 0199 00       		.byte	0
 2972 019a 21       		.uleb128 0x21
 2973 019b 2E       		.uleb128 0x2e
 2974 019c 01       		.byte	0x1
 2975 019d 03       		.uleb128 0x3
 2976 019e 0E       		.uleb128 0xe
 2977 019f 34       		.uleb128 0x34
 2978 01a0 19       		.uleb128 0x19
 2979 01a1 20       		.uleb128 0x20
 2980 01a2 0B       		.uleb128 0xb
 2981 01a3 01       		.uleb128 0x1
 2982 01a4 13       		.uleb128 0x13
 2983 01a5 00       		.byte	0
 2984 01a6 00       		.byte	0
 2985 01a7 22       		.uleb128 0x22
 2986 01a8 2E       		.uleb128 0x2e
 2987 01a9 01       		.byte	0x1
 2988 01aa 31       		.uleb128 0x31
 2989 01ab 13       		.uleb128 0x13
 2990 01ac 11       		.uleb128 0x11
 2991 01ad 01       		.uleb128 0x1
 2992 01ae 12       		.uleb128 0x12
 2993 01af 06       		.uleb128 0x6
 2994 01b0 40       		.uleb128 0x40
 2995 01b1 18       		.uleb128 0x18
 2996 01b2 9742     		.uleb128 0x2117
 2997 01b4 19       		.uleb128 0x19
 2998 01b5 01       		.uleb128 0x1
 2999 01b6 13       		.uleb128 0x13
 3000 01b7 00       		.byte	0
 3001 01b8 00       		.byte	0
 3002 01b9 23       		.uleb128 0x23
 3003 01ba 05       		.uleb128 0x5
 3004 01bb 00       		.byte	0
 3005 01bc 31       		.uleb128 0x31
 3006 01bd 13       		.uleb128 0x13
 3007 01be 02       		.uleb128 0x2
 3008 01bf 17       		.uleb128 0x17
 3009 01c0 00       		.byte	0
 3010 01c1 00       		.byte	0
 3011 01c2 24       		.uleb128 0x24
 3012 01c3 05       		.uleb128 0x5
 3013 01c4 00       		.byte	0
 3014 01c5 31       		.uleb128 0x31
 3015 01c6 13       		.uleb128 0x13
 3016 01c7 02       		.uleb128 0x2
 3017 01c8 18       		.uleb128 0x18
ARM GAS  C:\msys64\tmp\ccw9AezN.s 			page 54


 3018 01c9 00       		.byte	0
 3019 01ca 00       		.byte	0
 3020 01cb 25       		.uleb128 0x25
 3021 01cc 34       		.uleb128 0x34
 3022 01cd 00       		.byte	0
 3023 01ce 31       		.uleb128 0x31
 3024 01cf 13       		.uleb128 0x13
 3025 01d0 02       		.uleb128 0x2
 3026 01d1 17       		.uleb128 0x17
 3027 01d2 00       		.byte	0
 3028 01d3 00       		.byte	0
 3029 01d4 26       		.uleb128 0x26
 3030 01d5 0B       		.uleb128 0xb
 3031 01d6 01       		.byte	0x1
 3032 01d7 55       		.uleb128 0x55
 3033 01d8 17       		.uleb128 0x17
 3034 01d9 01       		.uleb128 0x1
 3035 01da 13       		.uleb128 0x13
 3036 01db 00       		.byte	0
 3037 01dc 00       		.byte	0
 3038 01dd 27       		.uleb128 0x27
 3039 01de 34       		.uleb128 0x34
 3040 01df 00       		.byte	0
 3041 01e0 31       		.uleb128 0x31
 3042 01e1 13       		.uleb128 0x13
 3043 01e2 00       		.byte	0
 3044 01e3 00       		.byte	0
 3045 01e4 28       		.uleb128 0x28
 3046 01e5 1D       		.uleb128 0x1d
 3047 01e6 01       		.byte	0x1
 3048 01e7 31       		.uleb128 0x31
 3049 01e8 13       		.uleb128 0x13
 3050 01e9 52       		.uleb128 0x52
 3051 01ea 01       		.uleb128 0x1
 3052 01eb 55       		.uleb128 0x55
 3053 01ec 17       		.uleb128 0x17
 3054 01ed 58       		.uleb128 0x58
 3055 01ee 0B       		.uleb128 0xb
 3056 01ef 59       		.uleb128 0x59
 3057 01f0 0B       		.uleb128 0xb
 3058 01f1 00       		.byte	0
 3059 01f2 00       		.byte	0
 3060 01f3 29       		.uleb128 0x29
 3061 01f4 0B       		.uleb128 0xb
 3062 01f5 01       		.byte	0x1
 3063 01f6 55       		.uleb128 0x55
 3064 01f7 17       		.uleb128 0x17
 3065 01f8 00       		.byte	0
 3066 01f9 00       		.byte	0
 3067 01fa 2A       		.uleb128 0x2a
 3068 01fb 05       		.uleb128 0x5
 3069 01fc 00       		.byte	0
 3070 01fd 31       		.uleb128 0x31
 3071 01fe 13       		.uleb128 0x13
 3072 01ff 00       		.byte	0
 3073 0200 00       		.byte	0
 3074 0201 2B       		.uleb128 0x2b
ARM GAS  C:\msys64\tmp\ccw9AezN.s 			page 55


 3075 0202 2E       		.uleb128 0x2e
 3076 0203 01       		.byte	0x1
 3077 0204 47       		.uleb128 0x47
 3078 0205 13       		.uleb128 0x13
 3079 0206 11       		.uleb128 0x11
 3080 0207 01       		.uleb128 0x1
 3081 0208 12       		.uleb128 0x12
 3082 0209 06       		.uleb128 0x6
 3083 020a 40       		.uleb128 0x40
 3084 020b 18       		.uleb128 0x18
 3085 020c 64       		.uleb128 0x64
 3086 020d 13       		.uleb128 0x13
 3087 020e 9742     		.uleb128 0x2117
 3088 0210 19       		.uleb128 0x19
 3089 0211 01       		.uleb128 0x1
 3090 0212 13       		.uleb128 0x13
 3091 0213 00       		.byte	0
 3092 0214 00       		.byte	0
 3093 0215 2C       		.uleb128 0x2c
 3094 0216 05       		.uleb128 0x5
 3095 0217 00       		.byte	0
 3096 0218 03       		.uleb128 0x3
 3097 0219 0E       		.uleb128 0xe
 3098 021a 49       		.uleb128 0x49
 3099 021b 13       		.uleb128 0x13
 3100 021c 34       		.uleb128 0x34
 3101 021d 19       		.uleb128 0x19
 3102 021e 02       		.uleb128 0x2
 3103 021f 17       		.uleb128 0x17
 3104 0220 00       		.byte	0
 3105 0221 00       		.byte	0
 3106 0222 2D       		.uleb128 0x2d
 3107 0223 05       		.uleb128 0x5
 3108 0224 00       		.byte	0
 3109 0225 03       		.uleb128 0x3
 3110 0226 08       		.uleb128 0x8
 3111 0227 3A       		.uleb128 0x3a
 3112 0228 0B       		.uleb128 0xb
 3113 0229 3B       		.uleb128 0x3b
 3114 022a 0B       		.uleb128 0xb
 3115 022b 49       		.uleb128 0x49
 3116 022c 13       		.uleb128 0x13
 3117 022d 02       		.uleb128 0x2
 3118 022e 17       		.uleb128 0x17
 3119 022f 00       		.byte	0
 3120 0230 00       		.byte	0
 3121 0231 2E       		.uleb128 0x2e
 3122 0232 34       		.uleb128 0x34
 3123 0233 00       		.byte	0
 3124 0234 03       		.uleb128 0x3
 3125 0235 08       		.uleb128 0x8
 3126 0236 3A       		.uleb128 0x3a
 3127 0237 0B       		.uleb128 0xb
 3128 0238 3B       		.uleb128 0x3b
 3129 0239 0B       		.uleb128 0xb
 3130 023a 49       		.uleb128 0x49
 3131 023b 13       		.uleb128 0x13
ARM GAS  C:\msys64\tmp\ccw9AezN.s 			page 56


 3132 023c 02       		.uleb128 0x2
 3133 023d 17       		.uleb128 0x17
 3134 023e 00       		.byte	0
 3135 023f 00       		.byte	0
 3136 0240 2F       		.uleb128 0x2f
 3137 0241 34       		.uleb128 0x34
 3138 0242 00       		.byte	0
 3139 0243 03       		.uleb128 0x3
 3140 0244 0E       		.uleb128 0xe
 3141 0245 3A       		.uleb128 0x3a
 3142 0246 0B       		.uleb128 0xb
 3143 0247 3B       		.uleb128 0x3b
 3144 0248 0B       		.uleb128 0xb
 3145 0249 49       		.uleb128 0x49
 3146 024a 13       		.uleb128 0x13
 3147 024b 02       		.uleb128 0x2
 3148 024c 17       		.uleb128 0x17
 3149 024d 00       		.byte	0
 3150 024e 00       		.byte	0
 3151 024f 30       		.uleb128 0x30
 3152 0250 1D       		.uleb128 0x1d
 3153 0251 01       		.byte	0x1
 3154 0252 31       		.uleb128 0x31
 3155 0253 13       		.uleb128 0x13
 3156 0254 52       		.uleb128 0x52
 3157 0255 01       		.uleb128 0x1
 3158 0256 55       		.uleb128 0x55
 3159 0257 17       		.uleb128 0x17
 3160 0258 58       		.uleb128 0x58
 3161 0259 0B       		.uleb128 0xb
 3162 025a 59       		.uleb128 0x59
 3163 025b 0B       		.uleb128 0xb
 3164 025c 01       		.uleb128 0x1
 3165 025d 13       		.uleb128 0x13
 3166 025e 00       		.byte	0
 3167 025f 00       		.byte	0
 3168 0260 31       		.uleb128 0x31
 3169 0261 1D       		.uleb128 0x1d
 3170 0262 01       		.byte	0x1
 3171 0263 31       		.uleb128 0x31
 3172 0264 13       		.uleb128 0x13
 3173 0265 11       		.uleb128 0x11
 3174 0266 01       		.uleb128 0x1
 3175 0267 12       		.uleb128 0x12
 3176 0268 06       		.uleb128 0x6
 3177 0269 58       		.uleb128 0x58
 3178 026a 0B       		.uleb128 0xb
 3179 026b 59       		.uleb128 0x59
 3180 026c 0B       		.uleb128 0xb
 3181 026d 01       		.uleb128 0x1
 3182 026e 13       		.uleb128 0x13
 3183 026f 00       		.byte	0
 3184 0270 00       		.byte	0
 3185 0271 32       		.uleb128 0x32
 3186 0272 898201   		.uleb128 0x4109
 3187 0275 01       		.byte	0x1
 3188 0276 11       		.uleb128 0x11
ARM GAS  C:\msys64\tmp\ccw9AezN.s 			page 57


 3189 0277 01       		.uleb128 0x1
 3190 0278 31       		.uleb128 0x31
 3191 0279 13       		.uleb128 0x13
 3192 027a 01       		.uleb128 0x1
 3193 027b 13       		.uleb128 0x13
 3194 027c 00       		.byte	0
 3195 027d 00       		.byte	0
 3196 027e 33       		.uleb128 0x33
 3197 027f 8A8201   		.uleb128 0x410a
 3198 0282 00       		.byte	0
 3199 0283 02       		.uleb128 0x2
 3200 0284 18       		.uleb128 0x18
 3201 0285 9142     		.uleb128 0x2111
 3202 0287 18       		.uleb128 0x18
 3203 0288 00       		.byte	0
 3204 0289 00       		.byte	0
 3205 028a 34       		.uleb128 0x34
 3206 028b 8A8201   		.uleb128 0x410a
 3207 028e 00       		.byte	0
 3208 028f 31       		.uleb128 0x31
 3209 0290 13       		.uleb128 0x13
 3210 0291 9142     		.uleb128 0x2111
 3211 0293 18       		.uleb128 0x18
 3212 0294 00       		.byte	0
 3213 0295 00       		.byte	0
 3214 0296 35       		.uleb128 0x35
 3215 0297 898201   		.uleb128 0x4109
 3216 029a 01       		.byte	0x1
 3217 029b 11       		.uleb128 0x11
 3218 029c 01       		.uleb128 0x1
 3219 029d 31       		.uleb128 0x31
 3220 029e 13       		.uleb128 0x13
 3221 029f 00       		.byte	0
 3222 02a0 00       		.byte	0
 3223 02a1 36       		.uleb128 0x36
 3224 02a2 2E       		.uleb128 0x2e
 3225 02a3 01       		.byte	0x1
 3226 02a4 3F       		.uleb128 0x3f
 3227 02a5 19       		.uleb128 0x19
 3228 02a6 03       		.uleb128 0x3
 3229 02a7 0E       		.uleb128 0xe
 3230 02a8 3A       		.uleb128 0x3a
 3231 02a9 0B       		.uleb128 0xb
 3232 02aa 3B       		.uleb128 0x3b
 3233 02ab 0B       		.uleb128 0xb
 3234 02ac 11       		.uleb128 0x11
 3235 02ad 01       		.uleb128 0x1
 3236 02ae 12       		.uleb128 0x12
 3237 02af 06       		.uleb128 0x6
 3238 02b0 40       		.uleb128 0x40
 3239 02b1 18       		.uleb128 0x18
 3240 02b2 9742     		.uleb128 0x2117
 3241 02b4 19       		.uleb128 0x19
 3242 02b5 01       		.uleb128 0x1
 3243 02b6 13       		.uleb128 0x13
 3244 02b7 00       		.byte	0
 3245 02b8 00       		.byte	0
ARM GAS  C:\msys64\tmp\ccw9AezN.s 			page 58


 3246 02b9 37       		.uleb128 0x37
 3247 02ba 05       		.uleb128 0x5
 3248 02bb 00       		.byte	0
 3249 02bc 03       		.uleb128 0x3
 3250 02bd 0E       		.uleb128 0xe
 3251 02be 3A       		.uleb128 0x3a
 3252 02bf 0B       		.uleb128 0xb
 3253 02c0 3B       		.uleb128 0x3b
 3254 02c1 0B       		.uleb128 0xb
 3255 02c2 49       		.uleb128 0x49
 3256 02c3 13       		.uleb128 0x13
 3257 02c4 02       		.uleb128 0x2
 3258 02c5 18       		.uleb128 0x18
 3259 02c6 00       		.byte	0
 3260 02c7 00       		.byte	0
 3261 02c8 38       		.uleb128 0x38
 3262 02c9 05       		.uleb128 0x5
 3263 02ca 00       		.byte	0
 3264 02cb 03       		.uleb128 0x3
 3265 02cc 08       		.uleb128 0x8
 3266 02cd 3A       		.uleb128 0x3a
 3267 02ce 0B       		.uleb128 0xb
 3268 02cf 3B       		.uleb128 0x3b
 3269 02d0 0B       		.uleb128 0xb
 3270 02d1 49       		.uleb128 0x49
 3271 02d2 13       		.uleb128 0x13
 3272 02d3 02       		.uleb128 0x2
 3273 02d4 18       		.uleb128 0x18
 3274 02d5 00       		.byte	0
 3275 02d6 00       		.byte	0
 3276 02d7 39       		.uleb128 0x39
 3277 02d8 05       		.uleb128 0x5
 3278 02d9 00       		.byte	0
 3279 02da 03       		.uleb128 0x3
 3280 02db 0E       		.uleb128 0xe
 3281 02dc 3A       		.uleb128 0x3a
 3282 02dd 0B       		.uleb128 0xb
 3283 02de 3B       		.uleb128 0x3b
 3284 02df 0B       		.uleb128 0xb
 3285 02e0 49       		.uleb128 0x49
 3286 02e1 13       		.uleb128 0x13
 3287 02e2 02       		.uleb128 0x2
 3288 02e3 17       		.uleb128 0x17
 3289 02e4 00       		.byte	0
 3290 02e5 00       		.byte	0
 3291 02e6 3A       		.uleb128 0x3a
 3292 02e7 34       		.uleb128 0x34
 3293 02e8 00       		.byte	0
 3294 02e9 03       		.uleb128 0x3
 3295 02ea 08       		.uleb128 0x8
 3296 02eb 3A       		.uleb128 0x3a
 3297 02ec 0B       		.uleb128 0xb
 3298 02ed 3B       		.uleb128 0x3b
 3299 02ee 0B       		.uleb128 0xb
 3300 02ef 49       		.uleb128 0x49
 3301 02f0 13       		.uleb128 0x13
 3302 02f1 02       		.uleb128 0x2
ARM GAS  C:\msys64\tmp\ccw9AezN.s 			page 59


 3303 02f2 18       		.uleb128 0x18
 3304 02f3 00       		.byte	0
 3305 02f4 00       		.byte	0
 3306 02f5 3B       		.uleb128 0x3b
 3307 02f6 1D       		.uleb128 0x1d
 3308 02f7 01       		.byte	0x1
 3309 02f8 31       		.uleb128 0x31
 3310 02f9 13       		.uleb128 0x13
 3311 02fa 11       		.uleb128 0x11
 3312 02fb 01       		.uleb128 0x1
 3313 02fc 12       		.uleb128 0x12
 3314 02fd 06       		.uleb128 0x6
 3315 02fe 58       		.uleb128 0x58
 3316 02ff 0B       		.uleb128 0xb
 3317 0300 59       		.uleb128 0x59
 3318 0301 0B       		.uleb128 0xb
 3319 0302 00       		.byte	0
 3320 0303 00       		.byte	0
 3321 0304 3C       		.uleb128 0x3c
 3322 0305 1D       		.uleb128 0x1d
 3323 0306 01       		.byte	0x1
 3324 0307 31       		.uleb128 0x31
 3325 0308 13       		.uleb128 0x13
 3326 0309 11       		.uleb128 0x11
 3327 030a 01       		.uleb128 0x1
 3328 030b 12       		.uleb128 0x12
 3329 030c 06       		.uleb128 0x6
 3330 030d 58       		.uleb128 0x58
 3331 030e 0B       		.uleb128 0xb
 3332 030f 59       		.uleb128 0x59
 3333 0310 05       		.uleb128 0x5
 3334 0311 00       		.byte	0
 3335 0312 00       		.byte	0
 3336 0313 3D       		.uleb128 0x3d
 3337 0314 0B       		.uleb128 0xb
 3338 0315 01       		.byte	0x1
 3339 0316 11       		.uleb128 0x11
 3340 0317 01       		.uleb128 0x1
 3341 0318 12       		.uleb128 0x12
 3342 0319 06       		.uleb128 0x6
 3343 031a 01       		.uleb128 0x1
 3344 031b 13       		.uleb128 0x13
 3345 031c 00       		.byte	0
 3346 031d 00       		.byte	0
 3347 031e 3E       		.uleb128 0x3e
 3348 031f 1D       		.uleb128 0x1d
 3349 0320 01       		.byte	0x1
 3350 0321 31       		.uleb128 0x31
 3351 0322 13       		.uleb128 0x13
 3352 0323 52       		.uleb128 0x52
 3353 0324 01       		.uleb128 0x1
 3354 0325 55       		.uleb128 0x55
 3355 0326 17       		.uleb128 0x17
 3356 0327 58       		.uleb128 0x58
 3357 0328 0B       		.uleb128 0xb
 3358 0329 59       		.uleb128 0x59
 3359 032a 05       		.uleb128 0x5
ARM GAS  C:\msys64\tmp\ccw9AezN.s 			page 60


 3360 032b 01       		.uleb128 0x1
 3361 032c 13       		.uleb128 0x13
 3362 032d 00       		.byte	0
 3363 032e 00       		.byte	0
 3364 032f 3F       		.uleb128 0x3f
 3365 0330 10       		.uleb128 0x10
 3366 0331 00       		.byte	0
 3367 0332 0B       		.uleb128 0xb
 3368 0333 0B       		.uleb128 0xb
 3369 0334 49       		.uleb128 0x49
 3370 0335 13       		.uleb128 0x13
 3371 0336 00       		.byte	0
 3372 0337 00       		.byte	0
 3373 0338 40       		.uleb128 0x40
 3374 0339 2E       		.uleb128 0x2e
 3375 033a 01       		.byte	0x1
 3376 033b 3F       		.uleb128 0x3f
 3377 033c 19       		.uleb128 0x19
 3378 033d 03       		.uleb128 0x3
 3379 033e 0E       		.uleb128 0xe
 3380 033f 3A       		.uleb128 0x3a
 3381 0340 0B       		.uleb128 0xb
 3382 0341 3B       		.uleb128 0x3b
 3383 0342 0B       		.uleb128 0xb
 3384 0343 20       		.uleb128 0x20
 3385 0344 0B       		.uleb128 0xb
 3386 0345 01       		.uleb128 0x1
 3387 0346 13       		.uleb128 0x13
 3388 0347 00       		.byte	0
 3389 0348 00       		.byte	0
 3390 0349 41       		.uleb128 0x41
 3391 034a 2E       		.uleb128 0x2e
 3392 034b 01       		.byte	0x1
 3393 034c 03       		.uleb128 0x3
 3394 034d 0E       		.uleb128 0xe
 3395 034e 34       		.uleb128 0x34
 3396 034f 19       		.uleb128 0x19
 3397 0350 11       		.uleb128 0x11
 3398 0351 01       		.uleb128 0x1
 3399 0352 12       		.uleb128 0x12
 3400 0353 06       		.uleb128 0x6
 3401 0354 40       		.uleb128 0x40
 3402 0355 18       		.uleb128 0x18
 3403 0356 9742     		.uleb128 0x2117
 3404 0358 19       		.uleb128 0x19
 3405 0359 01       		.uleb128 0x1
 3406 035a 13       		.uleb128 0x13
 3407 035b 00       		.byte	0
 3408 035c 00       		.byte	0
 3409 035d 42       		.uleb128 0x42
 3410 035e 34       		.uleb128 0x34
 3411 035f 00       		.byte	0
 3412 0360 03       		.uleb128 0x3
 3413 0361 0E       		.uleb128 0xe
 3414 0362 3A       		.uleb128 0x3a
 3415 0363 0B       		.uleb128 0xb
 3416 0364 3B       		.uleb128 0x3b
ARM GAS  C:\msys64\tmp\ccw9AezN.s 			page 61


 3417 0365 0B       		.uleb128 0xb
 3418 0366 49       		.uleb128 0x49
 3419 0367 13       		.uleb128 0x13
 3420 0368 3F       		.uleb128 0x3f
 3421 0369 19       		.uleb128 0x19
 3422 036a 3C       		.uleb128 0x3c
 3423 036b 19       		.uleb128 0x19
 3424 036c 00       		.byte	0
 3425 036d 00       		.byte	0
 3426 036e 43       		.uleb128 0x43
 3427 036f 21       		.uleb128 0x21
 3428 0370 00       		.byte	0
 3429 0371 49       		.uleb128 0x49
 3430 0372 13       		.uleb128 0x13
 3431 0373 2F       		.uleb128 0x2f
 3432 0374 05       		.uleb128 0x5
 3433 0375 00       		.byte	0
 3434 0376 00       		.byte	0
 3435 0377 44       		.uleb128 0x44
 3436 0378 34       		.uleb128 0x34
 3437 0379 00       		.byte	0
 3438 037a 03       		.uleb128 0x3
 3439 037b 0E       		.uleb128 0xe
 3440 037c 3A       		.uleb128 0x3a
 3441 037d 0B       		.uleb128 0xb
 3442 037e 3B       		.uleb128 0x3b
 3443 037f 05       		.uleb128 0x5
 3444 0380 49       		.uleb128 0x49
 3445 0381 13       		.uleb128 0x13
 3446 0382 3F       		.uleb128 0x3f
 3447 0383 19       		.uleb128 0x19
 3448 0384 3C       		.uleb128 0x3c
 3449 0385 19       		.uleb128 0x19
 3450 0386 00       		.byte	0
 3451 0387 00       		.byte	0
 3452 0388 45       		.uleb128 0x45
 3453 0389 34       		.uleb128 0x34
 3454 038a 00       		.byte	0
 3455 038b 03       		.uleb128 0x3
 3456 038c 0E       		.uleb128 0xe
 3457 038d 3A       		.uleb128 0x3a
 3458 038e 0B       		.uleb128 0xb
 3459 038f 3B       		.uleb128 0x3b
 3460 0390 0B       		.uleb128 0xb
 3461 0391 49       		.uleb128 0x49
 3462 0392 13       		.uleb128 0x13
 3463 0393 02       		.uleb128 0x2
 3464 0394 18       		.uleb128 0x18
 3465 0395 00       		.byte	0
 3466 0396 00       		.byte	0
 3467 0397 00       		.byte	0
 3468              		.section	.debug_loc,"",%progbits
 3469              	.Ldebug_loc0:
 3470              	.LLST0:
 3471 0000 00000000 		.4byte	.LVL0
 3472 0004 12000000 		.4byte	.LVL2
 3473 0008 0200     		.2byte	0x2
ARM GAS  C:\msys64\tmp\ccw9AezN.s 			page 62


 3474 000a 90       		.byte	0x90
 3475 000b 40       		.uleb128 0x40
 3476 000c 12000000 		.4byte	.LVL2
 3477 0010 94000000 		.4byte	.LFE258
 3478 0014 0600     		.2byte	0x6
 3479 0016 F3       		.byte	0xf3
 3480 0017 03       		.uleb128 0x3
 3481 0018 F5       		.byte	0xf5
 3482 0019 40       		.uleb128 0x40
 3483 001a 25       		.uleb128 0x25
 3484 001b 9F       		.byte	0x9f
 3485 001c 00000000 		.4byte	0
 3486 0020 00000000 		.4byte	0
 3487              	.LLST1:
 3488 0024 00000000 		.4byte	.LVL0
 3489 0028 16000000 		.4byte	.LVL3
 3490 002c 0200     		.2byte	0x2
 3491 002e 90       		.byte	0x90
 3492 002f 41       		.uleb128 0x41
 3493 0030 16000000 		.4byte	.LVL3
 3494 0034 94000000 		.4byte	.LFE258
 3495 0038 0600     		.2byte	0x6
 3496 003a F3       		.byte	0xf3
 3497 003b 03       		.uleb128 0x3
 3498 003c F5       		.byte	0xf5
 3499 003d 41       		.uleb128 0x41
 3500 003e 25       		.uleb128 0x25
 3501 003f 9F       		.byte	0x9f
 3502 0040 00000000 		.4byte	0
 3503 0044 00000000 		.4byte	0
 3504              	.LLST2:
 3505 0048 00000000 		.4byte	.LVL0
 3506 004c 2A000000 		.4byte	.LVL4
 3507 0050 0200     		.2byte	0x2
 3508 0052 90       		.byte	0x90
 3509 0053 42       		.uleb128 0x42
 3510 0054 2A000000 		.4byte	.LVL4
 3511 0058 94000000 		.4byte	.LFE258
 3512 005c 0600     		.2byte	0x6
 3513 005e F3       		.byte	0xf3
 3514 005f 03       		.uleb128 0x3
 3515 0060 F5       		.byte	0xf5
 3516 0061 42       		.uleb128 0x42
 3517 0062 25       		.uleb128 0x25
 3518 0063 9F       		.byte	0x9f
 3519 0064 00000000 		.4byte	0
 3520 0068 00000000 		.4byte	0
 3521              	.LLST3:
 3522 006c 2A000000 		.4byte	.LVL4
 3523 0070 36000000 		.4byte	.LVL6
 3524 0074 0200     		.2byte	0x2
 3525 0076 90       		.byte	0x90
 3526 0077 42       		.uleb128 0x42
 3527 0078 00000000 		.4byte	0
 3528 007c 00000000 		.4byte	0
 3529              	.LLST4:
 3530 0080 08000000 		.4byte	.LVL1
ARM GAS  C:\msys64\tmp\ccw9AezN.s 			page 63


 3531 0084 12000000 		.4byte	.LVL2
 3532 0088 0800     		.2byte	0x8
 3533 008a F5       		.byte	0xf5
 3534 008b 40       		.uleb128 0x40
 3535 008c 25       		.uleb128 0x25
 3536 008d F5       		.byte	0xf5
 3537 008e 41       		.uleb128 0x41
 3538 008f 25       		.uleb128 0x25
 3539 0090 1B       		.byte	0x1b
 3540 0091 9F       		.byte	0x9f
 3541 0092 12000000 		.4byte	.LVL2
 3542 0096 16000000 		.4byte	.LVL3
 3543 009a 0A00     		.2byte	0xa
 3544 009c F3       		.byte	0xf3
 3545 009d 03       		.uleb128 0x3
 3546 009e F5       		.byte	0xf5
 3547 009f 40       		.uleb128 0x40
 3548 00a0 25       		.uleb128 0x25
 3549 00a1 F5       		.byte	0xf5
 3550 00a2 41       		.uleb128 0x41
 3551 00a3 25       		.uleb128 0x25
 3552 00a4 1B       		.byte	0x1b
 3553 00a5 9F       		.byte	0x9f
 3554 00a6 16000000 		.4byte	.LVL3
 3555 00aa 94000000 		.4byte	.LFE258
 3556 00ae 0C00     		.2byte	0xc
 3557 00b0 F3       		.byte	0xf3
 3558 00b1 03       		.uleb128 0x3
 3559 00b2 F5       		.byte	0xf5
 3560 00b3 40       		.uleb128 0x40
 3561 00b4 25       		.uleb128 0x25
 3562 00b5 F3       		.byte	0xf3
 3563 00b6 03       		.uleb128 0x3
 3564 00b7 F5       		.byte	0xf5
 3565 00b8 41       		.uleb128 0x41
 3566 00b9 25       		.uleb128 0x25
 3567 00ba 1B       		.byte	0x1b
 3568 00bb 9F       		.byte	0x9f
 3569 00bc 00000000 		.4byte	0
 3570 00c0 00000000 		.4byte	0
 3571              	.LLST5:
 3572 00c4 2E000000 		.4byte	.LVL5
 3573 00c8 36000000 		.4byte	.LVL6
 3574 00cc 0200     		.2byte	0x2
 3575 00ce 90       		.byte	0x90
 3576 00cf 42       		.uleb128 0x42
 3577 00d0 00000000 		.4byte	0
 3578 00d4 00000000 		.4byte	0
 3579              	.LLST6:
 3580 00d8 36000000 		.4byte	.LVL6
 3581 00dc 42000000 		.4byte	.LVL7
 3582 00e0 0200     		.2byte	0x2
 3583 00e2 90       		.byte	0x90
 3584 00e3 42       		.uleb128 0x42
 3585 00e4 00000000 		.4byte	0
 3586 00e8 00000000 		.4byte	0
 3587              	.LLST7:
ARM GAS  C:\msys64\tmp\ccw9AezN.s 			page 64


 3588 00ec 36000000 		.4byte	.LVL6
 3589 00f0 42000000 		.4byte	.LVL7
 3590 00f4 0C00     		.2byte	0xc
 3591 00f6 F5       		.byte	0xf5
 3592 00f7 42       		.uleb128 0x42
 3593 00f8 25       		.uleb128 0x25
 3594 00f9 F5       		.byte	0xf5
 3595 00fa 42       		.uleb128 0x42
 3596 00fb 25       		.uleb128 0x25
 3597 00fc F7       		.byte	0xf7
 3598 00fd 2C       		.uleb128 0x2c
 3599 00fe F7       		.byte	0xf7
 3600 00ff 25       		.uleb128 0x25
 3601 0100 1C       		.byte	0x1c
 3602 0101 9F       		.byte	0x9f
 3603 0102 00000000 		.4byte	0
 3604 0106 00000000 		.4byte	0
 3605              	.LLST8:
 3606 010a 4A000000 		.4byte	.LVL8
 3607 010e 70000000 		.4byte	.LVL15
 3608 0112 0200     		.2byte	0x2
 3609 0114 90       		.byte	0x90
 3610 0115 42       		.uleb128 0x42
 3611 0116 00000000 		.4byte	0
 3612 011a 00000000 		.4byte	0
 3613              	.LLST9:
 3614 011e 52000000 		.4byte	.LVL9
 3615 0122 84000000 		.4byte	.LVL17
 3616 0126 0100     		.2byte	0x1
 3617 0128 51       		.byte	0x51
 3618 0129 00000000 		.4byte	0
 3619 012d 00000000 		.4byte	0
 3620              	.LLST10:
 3621 0131 56000000 		.4byte	.LVL10
 3622 0135 5C000000 		.4byte	.LVL11
 3623 0139 0100     		.2byte	0x1
 3624 013b 53       		.byte	0x53
 3625 013c 5C000000 		.4byte	.LVL11
 3626 0140 64000000 		.4byte	.LVL12
 3627 0144 0300     		.2byte	0x3
 3628 0146 73       		.byte	0x73
 3629 0147 7F       		.sleb128 -1
 3630 0148 9F       		.byte	0x9f
 3631 0149 64000000 		.4byte	.LVL12
 3632 014d 84000000 		.4byte	.LVL17
 3633 0151 0600     		.2byte	0x6
 3634 0153 71       		.byte	0x71
 3635 0154 00       		.sleb128 0
 3636 0155 08       		.byte	0x8
 3637 0156 7F       		.byte	0x7f
 3638 0157 1A       		.byte	0x1a
 3639 0158 9F       		.byte	0x9f
 3640 0159 00000000 		.4byte	0
 3641 015d 00000000 		.4byte	0
 3642              	.LLST11:
 3643 0161 56000000 		.4byte	.LVL10
 3644 0165 5C000000 		.4byte	.LVL11
ARM GAS  C:\msys64\tmp\ccw9AezN.s 			page 65


 3645 0169 0600     		.2byte	0x6
 3646 016b 73       		.byte	0x73
 3647 016c 01       		.sleb128 1
 3648 016d 08       		.byte	0x8
 3649 016e 7F       		.byte	0x7f
 3650 016f 1A       		.byte	0x1a
 3651 0170 9F       		.byte	0x9f
 3652 0171 5C000000 		.4byte	.LVL11
 3653 0175 64000000 		.4byte	.LVL12
 3654 0179 0600     		.2byte	0x6
 3655 017b 73       		.byte	0x73
 3656 017c 00       		.sleb128 0
 3657 017d 08       		.byte	0x8
 3658 017e 7F       		.byte	0x7f
 3659 017f 1A       		.byte	0x1a
 3660 0180 9F       		.byte	0x9f
 3661 0181 64000000 		.4byte	.LVL12
 3662 0185 68000000 		.4byte	.LVL13
 3663 0189 0100     		.2byte	0x1
 3664 018b 53       		.byte	0x53
 3665 018c 68000000 		.4byte	.LVL13
 3666 0190 84000000 		.4byte	.LVL17
 3667 0194 0600     		.2byte	0x6
 3668 0196 71       		.byte	0x71
 3669 0197 01       		.sleb128 1
 3670 0198 08       		.byte	0x8
 3671 0199 7F       		.byte	0x7f
 3672 019a 1A       		.byte	0x1a
 3673 019b 9F       		.byte	0x9f
 3674 019c 00000000 		.4byte	0
 3675 01a0 00000000 		.4byte	0
 3676              	.LLST12:
 3677 01a4 6C000000 		.4byte	.LVL14
 3678 01a8 7E000000 		.4byte	.LVL16
 3679 01ac 0200     		.2byte	0x2
 3680 01ae 90       		.byte	0x90
 3681 01af 40       		.uleb128 0x40
 3682 01b0 00000000 		.4byte	0
 3683 01b4 00000000 		.4byte	0
 3684              	.LLST13:
 3685 01b8 00000000 		.4byte	.LVL18
 3686 01bc 37000000 		.4byte	.LVL23-1
 3687 01c0 0100     		.2byte	0x1
 3688 01c2 50       		.byte	0x50
 3689 01c3 37000000 		.4byte	.LVL23-1
 3690 01c7 D6000000 		.4byte	.LVL44
 3691 01cb 0100     		.2byte	0x1
 3692 01cd 54       		.byte	0x54
 3693 01ce D6000000 		.4byte	.LVL44
 3694 01d2 E0000000 		.4byte	.LFE249
 3695 01d6 0400     		.2byte	0x4
 3696 01d8 F3       		.byte	0xf3
 3697 01d9 01       		.uleb128 0x1
 3698 01da 50       		.byte	0x50
 3699 01db 9F       		.byte	0x9f
 3700 01dc 00000000 		.4byte	0
 3701 01e0 00000000 		.4byte	0
ARM GAS  C:\msys64\tmp\ccw9AezN.s 			page 66


 3702              	.LLST14:
 3703 01e4 00000000 		.4byte	.LVL18
 3704 01e8 37000000 		.4byte	.LVL23-1
 3705 01ec 0200     		.2byte	0x2
 3706 01ee 90       		.byte	0x90
 3707 01ef 40       		.uleb128 0x40
 3708 01f0 37000000 		.4byte	.LVL23-1
 3709 01f4 E0000000 		.4byte	.LFE249
 3710 01f8 0600     		.2byte	0x6
 3711 01fa F3       		.byte	0xf3
 3712 01fb 03       		.uleb128 0x3
 3713 01fc F5       		.byte	0xf5
 3714 01fd 40       		.uleb128 0x40
 3715 01fe 25       		.uleb128 0x25
 3716 01ff 9F       		.byte	0x9f
 3717 0200 00000000 		.4byte	0
 3718 0204 00000000 		.4byte	0
 3719              	.LLST15:
 3720 0208 08000000 		.4byte	.LVL19
 3721 020c 37000000 		.4byte	.LVL23-1
 3722 0210 0200     		.2byte	0x2
 3723 0212 90       		.byte	0x90
 3724 0213 4A       		.uleb128 0x4a
 3725 0214 00000000 		.4byte	0
 3726 0218 00000000 		.4byte	0
 3727              	.LLST16:
 3728 021c 08000000 		.4byte	.LVL19
 3729 0220 37000000 		.4byte	.LVL23-1
 3730 0224 0200     		.2byte	0x2
 3731 0226 90       		.byte	0x90
 3732 0227 4C       		.uleb128 0x4c
 3733 0228 00000000 		.4byte	0
 3734 022c 00000000 		.4byte	0
 3735              	.LLST17:
 3736 0230 1A000000 		.4byte	.LVL20
 3737 0234 1E000000 		.4byte	.LVL21
 3738 0238 0200     		.2byte	0x2
 3739 023a 90       		.byte	0x90
 3740 023b 4D       		.uleb128 0x4d
 3741 023c 1E000000 		.4byte	.LVL21
 3742 0240 34000000 		.4byte	.LVL22
 3743 0244 0200     		.2byte	0x2
 3744 0246 90       		.byte	0x90
 3745 0247 4F       		.uleb128 0x4f
 3746 0248 34000000 		.4byte	.LVL22
 3747 024c 37000000 		.4byte	.LVL23-1
 3748 0250 0200     		.2byte	0x2
 3749 0252 90       		.byte	0x90
 3750 0253 4D       		.uleb128 0x4d
 3751 0254 00000000 		.4byte	0
 3752 0258 00000000 		.4byte	0
 3753              	.LLST18:
 3754 025c 34000000 		.4byte	.LVL22
 3755 0260 37000000 		.4byte	.LVL23-1
 3756 0264 0C00     		.2byte	0xc
 3757 0266 F5       		.byte	0xf5
 3758 0267 4C       		.uleb128 0x4c
ARM GAS  C:\msys64\tmp\ccw9AezN.s 			page 67


 3759 0268 25       		.uleb128 0x25
 3760 0269 F4       		.byte	0xf4
 3761 026a 25       		.uleb128 0x25
 3762 026b 04       		.byte	0x4
 3763 026c 0000003F 		.4byte	0x3f000000
 3764 0270 22       		.byte	0x22
 3765 0271 9F       		.byte	0x9f
 3766 0272 00000000 		.4byte	0
 3767 0276 00000000 		.4byte	0
 3768              	.LLST19:
 3769 027a 40000000 		.4byte	.LVL24
 3770 027e 4C000000 		.4byte	.LVL25
 3771 0282 1000     		.2byte	0x10
 3772 0284 F4       		.byte	0xf4
 3773 0285 25       		.uleb128 0x25
 3774 0286 04       		.byte	0x4
 3775 0287 0000803F 		.4byte	0x3f800000
 3776 028b F5       		.byte	0xf5
 3777 028c 4D       		.uleb128 0x4d
 3778 028d 25       		.uleb128 0x25
 3779 028e 1C       		.byte	0x1c
 3780 028f F5       		.byte	0xf5
 3781 0290 40       		.uleb128 0x40
 3782 0291 25       		.uleb128 0x25
 3783 0292 1E       		.byte	0x1e
 3784 0293 9F       		.byte	0x9f
 3785 0294 4C000000 		.4byte	.LVL25
 3786 0298 4F000000 		.4byte	.LVL26-1
 3787 029c 1000     		.2byte	0x10
 3788 029e F4       		.byte	0xf4
 3789 029f 25       		.uleb128 0x25
 3790 02a0 04       		.byte	0x4
 3791 02a1 0000803F 		.4byte	0x3f800000
 3792 02a5 F5       		.byte	0xf5
 3793 02a6 4D       		.uleb128 0x4d
 3794 02a7 25       		.uleb128 0x25
 3795 02a8 1C       		.byte	0x1c
 3796 02a9 F5       		.byte	0xf5
 3797 02aa 49       		.uleb128 0x49
 3798 02ab 25       		.uleb128 0x25
 3799 02ac 1E       		.byte	0x1e
 3800 02ad 9F       		.byte	0x9f
 3801 02ae 00000000 		.4byte	0
 3802 02b2 00000000 		.4byte	0
 3803              	.LLST20:
 3804 02b6 50000000 		.4byte	.LVL26
 3805 02ba 58000000 		.4byte	.LVL27
 3806 02be 0800     		.2byte	0x8
 3807 02c0 F5       		.byte	0xf5
 3808 02c1 4D       		.uleb128 0x4d
 3809 02c2 25       		.uleb128 0x25
 3810 02c3 F5       		.byte	0xf5
 3811 02c4 40       		.uleb128 0x40
 3812 02c5 25       		.uleb128 0x25
 3813 02c6 1E       		.byte	0x1e
 3814 02c7 9F       		.byte	0x9f
 3815 02c8 58000000 		.4byte	.LVL27
ARM GAS  C:\msys64\tmp\ccw9AezN.s 			page 68


 3816 02cc 64000000 		.4byte	.LVL28
 3817 02d0 0200     		.2byte	0x2
 3818 02d2 90       		.byte	0x90
 3819 02d3 40       		.uleb128 0x40
 3820 02d4 00000000 		.4byte	0
 3821 02d8 00000000 		.4byte	0
 3822              	.LLST21:
 3823 02dc 6E000000 		.4byte	.LVL29
 3824 02e0 7A000000 		.4byte	.LVL30
 3825 02e4 0200     		.2byte	0x2
 3826 02e6 90       		.byte	0x90
 3827 02e7 4E       		.uleb128 0x4e
 3828 02e8 7A000000 		.4byte	.LVL30
 3829 02ec C4000000 		.4byte	.LVL41
 3830 02f0 0C00     		.2byte	0xc
 3831 02f2 F5       		.byte	0xf5
 3832 02f3 40       		.uleb128 0x40
 3833 02f4 25       		.uleb128 0x25
 3834 02f5 F4       		.byte	0xf4
 3835 02f6 25       		.uleb128 0x25
 3836 02f7 04       		.byte	0x4
 3837 02f8 0000803E 		.4byte	0x3e800000
 3838 02fc 22       		.byte	0x22
 3839 02fd 9F       		.byte	0x9f
 3840 02fe 00000000 		.4byte	0
 3841 0302 00000000 		.4byte	0
 3842              	.LLST22:
 3843 0306 6E000000 		.4byte	.LVL29
 3844 030a 7A000000 		.4byte	.LVL30
 3845 030e 0C00     		.2byte	0xc
 3846 0310 F5       		.byte	0xf5
 3847 0311 4E       		.uleb128 0x4e
 3848 0312 25       		.uleb128 0x25
 3849 0313 F5       		.byte	0xf5
 3850 0314 4E       		.uleb128 0x4e
 3851 0315 25       		.uleb128 0x25
 3852 0316 F7       		.byte	0xf7
 3853 0317 2C       		.uleb128 0x2c
 3854 0318 F7       		.byte	0xf7
 3855 0319 25       		.uleb128 0x25
 3856 031a 1C       		.byte	0x1c
 3857 031b 9F       		.byte	0x9f
 3858 031c 7A000000 		.4byte	.LVL30
 3859 0320 C4000000 		.4byte	.LVL41
 3860 0324 1C00     		.2byte	0x1c
 3861 0326 F5       		.byte	0xf5
 3862 0327 40       		.uleb128 0x40
 3863 0328 25       		.uleb128 0x25
 3864 0329 F4       		.byte	0xf4
 3865 032a 25       		.uleb128 0x25
 3866 032b 04       		.byte	0x4
 3867 032c 0000803E 		.4byte	0x3e800000
 3868 0330 22       		.byte	0x22
 3869 0331 F5       		.byte	0xf5
 3870 0332 40       		.uleb128 0x40
 3871 0333 25       		.uleb128 0x25
 3872 0334 F4       		.byte	0xf4
ARM GAS  C:\msys64\tmp\ccw9AezN.s 			page 69


 3873 0335 25       		.uleb128 0x25
 3874 0336 04       		.byte	0x4
 3875 0337 0000803E 		.4byte	0x3e800000
 3876 033b 22       		.byte	0x22
 3877 033c F7       		.byte	0xf7
 3878 033d 2C       		.uleb128 0x2c
 3879 033e F7       		.byte	0xf7
 3880 033f 25       		.uleb128 0x25
 3881 0340 1C       		.byte	0x1c
 3882 0341 9F       		.byte	0x9f
 3883 0342 00000000 		.4byte	0
 3884 0346 00000000 		.4byte	0
 3885              	.LLST23:
 3886 034a 82000000 		.4byte	.LVL31
 3887 034e AC000000 		.4byte	.LVL38
 3888 0352 0200     		.2byte	0x2
 3889 0354 90       		.byte	0x90
 3890 0355 4F       		.uleb128 0x4f
 3891 0356 AC000000 		.4byte	.LVL38
 3892 035a C4000000 		.4byte	.LVL41
 3893 035e 2600     		.2byte	0x26
 3894 0360 F5       		.byte	0xf5
 3895 0361 40       		.uleb128 0x40
 3896 0362 25       		.uleb128 0x25
 3897 0363 F4       		.byte	0xf4
 3898 0364 25       		.uleb128 0x25
 3899 0365 04       		.byte	0x4
 3900 0366 0000803E 		.4byte	0x3e800000
 3901 036a 22       		.byte	0x22
 3902 036b F5       		.byte	0xf5
 3903 036c 40       		.uleb128 0x40
 3904 036d 25       		.uleb128 0x25
 3905 036e F4       		.byte	0xf4
 3906 036f 25       		.uleb128 0x25
 3907 0370 04       		.byte	0x4
 3908 0371 0000803E 		.4byte	0x3e800000
 3909 0375 22       		.byte	0x22
 3910 0376 F7       		.byte	0xf7
 3911 0377 25       		.uleb128 0x25
 3912 0378 F7       		.byte	0xf7
 3913 0379 2C       		.uleb128 0x2c
 3914 037a F7       		.byte	0xf7
 3915 037b 25       		.uleb128 0x25
 3916 037c 1C       		.byte	0x1c
 3917 037d F4       		.byte	0xf4
 3918 037e 25       		.uleb128 0x25
 3919 037f 04       		.byte	0x4
 3920 0380 00008043 		.4byte	0x43800000
 3921 0384 1E       		.byte	0x1e
 3922 0385 9F       		.byte	0x9f
 3923 0386 00000000 		.4byte	0
 3924 038a 00000000 		.4byte	0
 3925              	.LLST24:
 3926 038e 8A000000 		.4byte	.LVL32
 3927 0392 C4000000 		.4byte	.LVL41
 3928 0396 0100     		.2byte	0x1
 3929 0398 51       		.byte	0x51
ARM GAS  C:\msys64\tmp\ccw9AezN.s 			page 70


 3930 0399 00000000 		.4byte	0
 3931 039d 00000000 		.4byte	0
 3932              	.LLST25:
 3933 03a1 8E000000 		.4byte	.LVL33
 3934 03a5 98000000 		.4byte	.LVL34
 3935 03a9 0100     		.2byte	0x1
 3936 03ab 53       		.byte	0x53
 3937 03ac 98000000 		.4byte	.LVL34
 3938 03b0 A0000000 		.4byte	.LVL35
 3939 03b4 0300     		.2byte	0x3
 3940 03b6 73       		.byte	0x73
 3941 03b7 7F       		.sleb128 -1
 3942 03b8 9F       		.byte	0x9f
 3943 03b9 A0000000 		.4byte	.LVL35
 3944 03bd C4000000 		.4byte	.LVL41
 3945 03c1 0600     		.2byte	0x6
 3946 03c3 71       		.byte	0x71
 3947 03c4 00       		.sleb128 0
 3948 03c5 08       		.byte	0x8
 3949 03c6 7F       		.byte	0x7f
 3950 03c7 1A       		.byte	0x1a
 3951 03c8 9F       		.byte	0x9f
 3952 03c9 00000000 		.4byte	0
 3953 03cd 00000000 		.4byte	0
 3954              	.LLST26:
 3955 03d1 8E000000 		.4byte	.LVL33
 3956 03d5 98000000 		.4byte	.LVL34
 3957 03d9 0600     		.2byte	0x6
 3958 03db 73       		.byte	0x73
 3959 03dc 01       		.sleb128 1
 3960 03dd 08       		.byte	0x8
 3961 03de 7F       		.byte	0x7f
 3962 03df 1A       		.byte	0x1a
 3963 03e0 9F       		.byte	0x9f
 3964 03e1 98000000 		.4byte	.LVL34
 3965 03e5 A0000000 		.4byte	.LVL35
 3966 03e9 0600     		.2byte	0x6
 3967 03eb 73       		.byte	0x73
 3968 03ec 00       		.sleb128 0
 3969 03ed 08       		.byte	0x8
 3970 03ee 7F       		.byte	0x7f
 3971 03ef 1A       		.byte	0x1a
 3972 03f0 9F       		.byte	0x9f
 3973 03f1 A0000000 		.4byte	.LVL35
 3974 03f5 A4000000 		.4byte	.LVL36
 3975 03f9 0100     		.2byte	0x1
 3976 03fb 53       		.byte	0x53
 3977 03fc A4000000 		.4byte	.LVL36
 3978 0400 C4000000 		.4byte	.LVL41
 3979 0404 0600     		.2byte	0x6
 3980 0406 71       		.byte	0x71
 3981 0407 01       		.sleb128 1
 3982 0408 08       		.byte	0x8
 3983 0409 7F       		.byte	0x7f
 3984 040a 1A       		.byte	0x1a
 3985 040b 9F       		.byte	0x9f
 3986 040c 00000000 		.4byte	0
ARM GAS  C:\msys64\tmp\ccw9AezN.s 			page 71


 3987 0410 00000000 		.4byte	0
 3988              	.LLST27:
 3989 0414 A8000000 		.4byte	.LVL37
 3990 0418 BA000000 		.4byte	.LVL39
 3991 041c 0200     		.2byte	0x2
 3992 041e 90       		.byte	0x90
 3993 041f 4E       		.uleb128 0x4e
 3994 0420 BA000000 		.4byte	.LVL39
 3995 0424 BE000000 		.4byte	.LVL40
 3996 0428 0200     		.2byte	0x2
 3997 042a 70       		.byte	0x70
 3998 042b 00       		.sleb128 0
 3999 042c 00000000 		.4byte	0
 4000 0430 00000000 		.4byte	0
 4001              	.LLST28:
 4002 0434 A8000000 		.4byte	.LVL37
 4003 0438 AC000000 		.4byte	.LVL38
 4004 043c 0B00     		.2byte	0xb
 4005 043e F5       		.byte	0xf5
 4006 043f 4F       		.uleb128 0x4f
 4007 0440 25       		.uleb128 0x25
 4008 0441 71       		.byte	0x71
 4009 0442 00       		.sleb128 0
 4010 0443 F7       		.byte	0xf7
 4011 0444 2C       		.uleb128 0x2c
 4012 0445 F7       		.byte	0xf7
 4013 0446 25       		.uleb128 0x25
 4014 0447 1C       		.byte	0x1c
 4015 0448 9F       		.byte	0x9f
 4016 0449 AC000000 		.4byte	.LVL38
 4017 044d BE000000 		.4byte	.LVL40
 4018 0451 0200     		.2byte	0x2
 4019 0453 90       		.byte	0x90
 4020 0454 4F       		.uleb128 0x4f
 4021 0455 00000000 		.4byte	0
 4022 0459 00000000 		.4byte	0
 4023              	.LLST29:
 4024 045d C4000000 		.4byte	.LVL41
 4025 0461 CC000000 		.4byte	.LVL42
 4026 0465 0200     		.2byte	0x2
 4027 0467 90       		.byte	0x90
 4028 0468 4C       		.uleb128 0x4c
 4029 0469 CC000000 		.4byte	.LVL42
 4030 046d D0000000 		.4byte	.LVL43
 4031 0471 0200     		.2byte	0x2
 4032 0473 74       		.byte	0x74
 4033 0474 08       		.sleb128 8
 4034 0475 00000000 		.4byte	0
 4035 0479 00000000 		.4byte	0
 4036              	.LLST30:
 4037 047d C4000000 		.4byte	.LVL41
 4038 0481 D0000000 		.4byte	.LVL43
 4039 0485 0200     		.2byte	0x2
 4040 0487 90       		.byte	0x90
 4041 0488 4B       		.uleb128 0x4b
 4042 0489 00000000 		.4byte	0
 4043 048d 00000000 		.4byte	0
ARM GAS  C:\msys64\tmp\ccw9AezN.s 			page 72


 4044              	.LLST31:
 4045 0491 96000000 		.4byte	.LVL46
 4046 0495 98000000 		.4byte	.LVL47
 4047 0499 0100     		.2byte	0x1
 4048 049b 50       		.byte	0x50
 4049 049c 98000000 		.4byte	.LVL47
 4050 04a0 BC010000 		.4byte	.LFE252
 4051 04a4 0400     		.2byte	0x4
 4052 04a6 F3       		.byte	0xf3
 4053 04a7 01       		.uleb128 0x1
 4054 04a8 50       		.byte	0x50
 4055 04a9 9F       		.byte	0x9f
 4056 04aa 00000000 		.4byte	0
 4057 04ae 00000000 		.4byte	0
 4058              	.LLST32:
 4059 04b2 96000000 		.4byte	.LVL46
 4060 04b6 A8000000 		.4byte	.LVL48
 4061 04ba 0100     		.2byte	0x1
 4062 04bc 51       		.byte	0x51
 4063 04bd A8000000 		.4byte	.LVL48
 4064 04c1 1A010000 		.4byte	.LVL52
 4065 04c5 0100     		.2byte	0x1
 4066 04c7 56       		.byte	0x56
 4067 04c8 1A010000 		.4byte	.LVL52
 4068 04cc BC010000 		.4byte	.LFE252
 4069 04d0 0400     		.2byte	0x4
 4070 04d2 F3       		.byte	0xf3
 4071 04d3 01       		.uleb128 0x1
 4072 04d4 51       		.byte	0x51
 4073 04d5 9F       		.byte	0x9f
 4074 04d6 00000000 		.4byte	0
 4075 04da 00000000 		.4byte	0
 4076              	.LLST33:
 4077 04de 96000000 		.4byte	.LVL46
 4078 04e2 1A010000 		.4byte	.LVL52
 4079 04e6 0100     		.2byte	0x1
 4080 04e8 52       		.byte	0x52
 4081 04e9 1A010000 		.4byte	.LVL52
 4082 04ed BC010000 		.4byte	.LFE252
 4083 04f1 0400     		.2byte	0x4
 4084 04f3 F3       		.byte	0xf3
 4085 04f4 01       		.uleb128 0x1
 4086 04f5 52       		.byte	0x52
 4087 04f6 9F       		.byte	0x9f
 4088 04f7 00000000 		.4byte	0
 4089 04fb 00000000 		.4byte	0
 4090              	.LLST34:
 4091 04ff EE000000 		.4byte	.LVL49
 4092 0503 1A010000 		.4byte	.LVL52
 4093 0507 0D00     		.2byte	0xd
 4094 0509 03       		.byte	0x3
 4095 050a 0C000000 		.4byte	_ZL5vpsfi+12
 4096 050e 94       		.byte	0x94
 4097 050f 01       		.byte	0x1
 4098 0510 33       		.byte	0x33
 4099 0511 1A       		.byte	0x1a
 4100 0512 08       		.byte	0x8
ARM GAS  C:\msys64\tmp\ccw9AezN.s 			page 73


 4101 0513 FF       		.byte	0xff
 4102 0514 1A       		.byte	0x1a
 4103 0515 9F       		.byte	0x9f
 4104 0516 00000000 		.4byte	0
 4105 051a 00000000 		.4byte	0
 4106              	.LLST35:
 4107 051e 1A010000 		.4byte	.LVL52
 4108 0522 98010000 		.4byte	.LVL68
 4109 0526 0200     		.2byte	0x2
 4110 0528 90       		.byte	0x90
 4111 0529 50       		.uleb128 0x50
 4112 052a 00000000 		.4byte	0
 4113 052e 00000000 		.4byte	0
 4114              	.LLST36:
 4115 0532 1A010000 		.4byte	.LVL52
 4116 0536 92010000 		.4byte	.LVL66
 4117 053a 0100     		.2byte	0x1
 4118 053c 56       		.byte	0x56
 4119 053d 92010000 		.4byte	.LVL66
 4120 0541 94010000 		.4byte	.LVL67
 4121 0545 0300     		.2byte	0x3
 4122 0547 76       		.byte	0x76
 4123 0548 7C       		.sleb128 -4
 4124 0549 9F       		.byte	0x9f
 4125 054a 94010000 		.4byte	.LVL67
 4126 054e A0010000 		.4byte	.LVL69
 4127 0552 0100     		.2byte	0x1
 4128 0554 56       		.byte	0x56
 4129 0555 00000000 		.4byte	0
 4130 0559 00000000 		.4byte	0
 4131              	.LLST37:
 4132 055d 1A010000 		.4byte	.LVL52
 4133 0561 A0010000 		.4byte	.LVL69
 4134 0565 0100     		.2byte	0x1
 4135 0567 58       		.byte	0x58
 4136 0568 A0010000 		.4byte	.LVL69
 4137 056c BC010000 		.4byte	.LFE252
 4138 0570 0A00     		.2byte	0xa
 4139 0572 F3       		.byte	0xf3
 4140 0573 01       		.uleb128 0x1
 4141 0574 52       		.byte	0x52
 4142 0575 32       		.byte	0x32
 4143 0576 24       		.byte	0x24
 4144 0577 F3       		.byte	0xf3
 4145 0578 01       		.uleb128 0x1
 4146 0579 51       		.byte	0x51
 4147 057a 22       		.byte	0x22
 4148 057b 9F       		.byte	0x9f
 4149 057c 00000000 		.4byte	0
 4150 0580 00000000 		.4byte	0
 4151              	.LLST38:
 4152 0584 F2000000 		.4byte	.LVL50
 4153 0588 0C010000 		.4byte	.LVL51
 4154 058c 0600     		.2byte	0x6
 4155 058e 9E       		.byte	0x9e
 4156 058f 04       		.uleb128 0x4
 4157 0590 49FFB846 		.4byte	0x46b8ff49
ARM GAS  C:\msys64\tmp\ccw9AezN.s 			page 74


 4158 0594 00000000 		.4byte	0
 4159 0598 00000000 		.4byte	0
 4160              	.LLST41:
 4161 059c F2000000 		.4byte	.LVL50
 4162 05a0 0C010000 		.4byte	.LVL51
 4163 05a4 0C00     		.2byte	0xc
 4164 05a6 F5       		.byte	0xf5
 4165 05a7 51       		.uleb128 0x51
 4166 05a8 25       		.uleb128 0x25
 4167 05a9 F4       		.byte	0xf4
 4168 05aa 25       		.uleb128 0x25
 4169 05ab 04       		.byte	0x4
 4170 05ac 49FFB846 		.4byte	0x46b8ff49
 4171 05b0 1C       		.byte	0x1c
 4172 05b1 9F       		.byte	0x9f
 4173 05b2 00000000 		.4byte	0
 4174 05b6 00000000 		.4byte	0
 4175              	.LLST42:
 4176 05ba 1E010000 		.4byte	.LVL53
 4177 05be 2A010000 		.4byte	.LVL54
 4178 05c2 0600     		.2byte	0x6
 4179 05c4 9E       		.byte	0x9e
 4180 05c5 04       		.uleb128 0x4
 4181 05c6 00000000 		.4byte	0
 4182 05ca 2A010000 		.4byte	.LVL54
 4183 05ce 2C010000 		.4byte	.LVL55
 4184 05d2 0200     		.2byte	0x2
 4185 05d4 90       		.byte	0x90
 4186 05d5 40       		.uleb128 0x40
 4187 05d6 2C010000 		.4byte	.LVL55
 4188 05da 30010000 		.4byte	.LVL56
 4189 05de 0600     		.2byte	0x6
 4190 05e0 9E       		.byte	0x9e
 4191 05e1 04       		.uleb128 0x4
 4192 05e2 00000000 		.4byte	0
 4193 05e6 30010000 		.4byte	.LVL56
 4194 05ea 40010000 		.4byte	.LVL58
 4195 05ee 0200     		.2byte	0x2
 4196 05f0 90       		.byte	0x90
 4197 05f1 40       		.uleb128 0x40
 4198 05f2 44010000 		.4byte	.LVL59
 4199 05f6 74010000 		.4byte	.LVL63
 4200 05fa 0200     		.2byte	0x2
 4201 05fc 90       		.byte	0x90
 4202 05fd 40       		.uleb128 0x40
 4203 05fe 76010000 		.4byte	.LVL64
 4204 0602 7A010000 		.4byte	.LVL65
 4205 0606 0200     		.2byte	0x2
 4206 0608 90       		.byte	0x90
 4207 0609 40       		.uleb128 0x40
 4208 060a 00000000 		.4byte	0
 4209 060e 00000000 		.4byte	0
 4210              	.LLST43:
 4211 0612 34010000 		.4byte	.LVL57
 4212 0616 43010000 		.4byte	.LVL59-1
 4213 061a 0500     		.2byte	0x5
 4214 061c 03       		.byte	0x3
ARM GAS  C:\msys64\tmp\ccw9AezN.s 			page 75


 4215 061d 10000000 		.4byte	_ZL5vpsfi+16
 4216 0621 00000000 		.4byte	0
 4217 0625 00000000 		.4byte	0
 4218              	.LLST44:
 4219 0629 34010000 		.4byte	.LVL57
 4220 062d 43010000 		.4byte	.LVL59-1
 4221 0631 0500     		.2byte	0x5
 4222 0633 03       		.byte	0x3
 4223 0634 14000000 		.4byte	_ZL5vpsfi+20
 4224 0638 00000000 		.4byte	0
 4225 063c 00000000 		.4byte	0
 4226              	.LLST45:
 4227 0640 44010000 		.4byte	.LVL59
 4228 0644 94010000 		.4byte	.LVL67
 4229 0648 0600     		.2byte	0x6
 4230 064a 03       		.byte	0x3
 4231 064b 00000000 		.4byte	_ZL5vpsfi
 4232 064f 9F       		.byte	0x9f
 4233 0650 00000000 		.4byte	0
 4234 0654 00000000 		.4byte	0
 4235              	.LLST46:
 4236 0658 44010000 		.4byte	.LVL59
 4237 065c 54010000 		.4byte	.LVL61
 4238 0660 0200     		.2byte	0x2
 4239 0662 90       		.byte	0x90
 4240 0663 51       		.uleb128 0x51
 4241 0664 00000000 		.4byte	0
 4242 0668 00000000 		.4byte	0
 4243              	.LLST47:
 4244 066c 44010000 		.4byte	.LVL59
 4245 0670 54010000 		.4byte	.LVL61
 4246 0674 0600     		.2byte	0x6
 4247 0676 F2       		.byte	0xf2
 4248 0677 ED090000 		.4byte	.Ldebug_info0+2541
 4249 067b 00       		.sleb128 0
 4250 067c 00000000 		.4byte	0
 4251 0680 00000000 		.4byte	0
 4252              	.LLST48:
 4253 0684 54010000 		.4byte	.LVL61
 4254 0688 74010000 		.4byte	.LVL63
 4255 068c 0200     		.2byte	0x2
 4256 068e 90       		.byte	0x90
 4257 068f 40       		.uleb128 0x40
 4258 0690 76010000 		.4byte	.LVL64
 4259 0694 7A010000 		.4byte	.LVL65
 4260 0698 0200     		.2byte	0x2
 4261 069a 90       		.byte	0x90
 4262 069b 40       		.uleb128 0x40
 4263 069c 00000000 		.4byte	0
 4264 06a0 00000000 		.4byte	0
 4265              	.LLST49:
 4266 06a4 54010000 		.4byte	.LVL61
 4267 06a8 7A010000 		.4byte	.LVL65
 4268 06ac 0600     		.2byte	0x6
 4269 06ae 9E       		.byte	0x9e
 4270 06af 04       		.uleb128 0x4
 4271 06b0 CDCC4C3D 		.4byte	0x3d4ccccd
ARM GAS  C:\msys64\tmp\ccw9AezN.s 			page 76


 4272 06b4 00000000 		.4byte	0
 4273 06b8 00000000 		.4byte	0
 4274              	.LLST51:
 4275 06bc 54010000 		.4byte	.LVL61
 4276 06c0 7A010000 		.4byte	.LVL65
 4277 06c4 0600     		.2byte	0x6
 4278 06c6 9E       		.byte	0x9e
 4279 06c7 04       		.uleb128 0x4
 4280 06c8 0000803F 		.4byte	0x3f800000
 4281 06cc 00000000 		.4byte	0
 4282 06d0 00000000 		.4byte	0
 4283              	.LLST52:
 4284 06d4 54010000 		.4byte	.LVL61
 4285 06d8 62010000 		.4byte	.LVL62
 4286 06dc 0200     		.2byte	0x2
 4287 06de 90       		.byte	0x90
 4288 06df 40       		.uleb128 0x40
 4289 06e0 76010000 		.4byte	.LVL64
 4290 06e4 7A010000 		.4byte	.LVL65
 4291 06e8 0200     		.2byte	0x2
 4292 06ea 90       		.byte	0x90
 4293 06eb 40       		.uleb128 0x40
 4294 06ec 00000000 		.4byte	0
 4295 06f0 00000000 		.4byte	0
 4296              	.LLST53:
 4297 06f4 54010000 		.4byte	.LVL61
 4298 06f8 7A010000 		.4byte	.LVL65
 4299 06fc 0600     		.2byte	0x6
 4300 06fe 9E       		.byte	0x9e
 4301 06ff 04       		.uleb128 0x4
 4302 0700 000080BF 		.4byte	0xbf800000
 4303 0704 00000000 		.4byte	0
 4304 0708 00000000 		.4byte	0
 4305              	.LLST54:
 4306 070c 54010000 		.4byte	.LVL61
 4307 0710 62010000 		.4byte	.LVL62
 4308 0714 0600     		.2byte	0x6
 4309 0716 9E       		.byte	0x9e
 4310 0717 04       		.uleb128 0x4
 4311 0718 000080BF 		.4byte	0xbf800000
 4312 071c 76010000 		.4byte	.LVL64
 4313 0720 7A010000 		.4byte	.LVL65
 4314 0724 0600     		.2byte	0x6
 4315 0726 9E       		.byte	0x9e
 4316 0727 04       		.uleb128 0x4
 4317 0728 000080BF 		.4byte	0xbf800000
 4318 072c 00000000 		.4byte	0
 4319 0730 00000000 		.4byte	0
 4320              	.LLST56:
 4321 0734 54010000 		.4byte	.LVL61
 4322 0738 62010000 		.4byte	.LVL62
 4323 073c 0C00     		.2byte	0xc
 4324 073e F5       		.byte	0xf5
 4325 073f 40       		.uleb128 0x40
 4326 0740 25       		.uleb128 0x25
 4327 0741 F4       		.byte	0xf4
 4328 0742 25       		.uleb128 0x25
ARM GAS  C:\msys64\tmp\ccw9AezN.s 			page 77


 4329 0743 04       		.byte	0x4
 4330 0744 0000803F 		.4byte	0x3f800000
 4331 0748 22       		.byte	0x22
 4332 0749 9F       		.byte	0x9f
 4333 074a 76010000 		.4byte	.LVL64
 4334 074e 7A010000 		.4byte	.LVL65
 4335 0752 0C00     		.2byte	0xc
 4336 0754 F5       		.byte	0xf5
 4337 0755 40       		.uleb128 0x40
 4338 0756 25       		.uleb128 0x25
 4339 0757 F4       		.byte	0xf4
 4340 0758 25       		.uleb128 0x25
 4341 0759 04       		.byte	0x4
 4342 075a 0000803F 		.4byte	0x3f800000
 4343 075e 22       		.byte	0x22
 4344 075f 9F       		.byte	0x9f
 4345 0760 00000000 		.4byte	0
 4346 0764 00000000 		.4byte	0
 4347              	.LLST57:
 4348 0768 62010000 		.4byte	.LVL62
 4349 076c 76010000 		.4byte	.LVL64
 4350 0770 0600     		.2byte	0x6
 4351 0772 9E       		.byte	0x9e
 4352 0773 04       		.uleb128 0x4
 4353 0774 0000803F 		.4byte	0x3f800000
 4354 0778 00000000 		.4byte	0
 4355 077c 00000000 		.4byte	0
 4356              	.LLST58:
 4357 0780 62010000 		.4byte	.LVL62
 4358 0784 74010000 		.4byte	.LVL63
 4359 0788 0C00     		.2byte	0xc
 4360 078a F5       		.byte	0xf5
 4361 078b 40       		.uleb128 0x40
 4362 078c 25       		.uleb128 0x25
 4363 078d F4       		.byte	0xf4
 4364 078e 25       		.uleb128 0x25
 4365 078f 04       		.byte	0x4
 4366 0790 0000803F 		.4byte	0x3f800000
 4367 0794 1C       		.byte	0x1c
 4368 0795 9F       		.byte	0x9f
 4369 0796 00000000 		.4byte	0
 4370 079a 00000000 		.4byte	0
 4371              	.LLST59:
 4372 079e C0010000 		.4byte	.LVL71
 4373 07a2 E8010000 		.4byte	.LVL75
 4374 07a6 0100     		.2byte	0x1
 4375 07a8 51       		.byte	0x51
 4376 07a9 E8010000 		.4byte	.LVL75
 4377 07ad F4010000 		.4byte	.LVL76
 4378 07b1 0400     		.2byte	0x4
 4379 07b3 F3       		.byte	0xf3
 4380 07b4 01       		.uleb128 0x1
 4381 07b5 51       		.byte	0x51
 4382 07b6 9F       		.byte	0x9f
 4383 07b7 F4010000 		.4byte	.LVL76
 4384 07bb 06020000 		.4byte	.LVL77
 4385 07bf 0100     		.2byte	0x1
ARM GAS  C:\msys64\tmp\ccw9AezN.s 			page 78


 4386 07c1 51       		.byte	0x51
 4387 07c2 06020000 		.4byte	.LVL77
 4388 07c6 1C020000 		.4byte	.LFE255
 4389 07ca 0400     		.2byte	0x4
 4390 07cc F3       		.byte	0xf3
 4391 07cd 01       		.uleb128 0x1
 4392 07ce 51       		.byte	0x51
 4393 07cf 9F       		.byte	0x9f
 4394 07d0 00000000 		.4byte	0
 4395 07d4 00000000 		.4byte	0
 4396              	.LLST60:
 4397 07d8 D2010000 		.4byte	.LVL72
 4398 07dc E0010000 		.4byte	.LVL73
 4399 07e0 0200     		.2byte	0x2
 4400 07e2 90       		.byte	0x90
 4401 07e3 4F       		.uleb128 0x4f
 4402 07e4 E0010000 		.4byte	.LVL73
 4403 07e8 E6010000 		.4byte	.LVL74
 4404 07ec 0C00     		.2byte	0xc
 4405 07ee F5       		.byte	0xf5
 4406 07ef 4E       		.uleb128 0x4e
 4407 07f0 25       		.uleb128 0x25
 4408 07f1 F4       		.byte	0xf4
 4409 07f2 25       		.uleb128 0x25
 4410 07f3 04       		.byte	0x4
 4411 07f4 0820803A 		.4byte	0x3a802008
 4412 07f8 1E       		.byte	0x1e
 4413 07f9 9F       		.byte	0x9f
 4414 07fa E6010000 		.4byte	.LVL74
 4415 07fe E8010000 		.4byte	.LVL75
 4416 0802 0F00     		.2byte	0xf
 4417 0804 71       		.byte	0x71
 4418 0805 00       		.sleb128 0
 4419 0806 F7       		.byte	0xf7
 4420 0807 33       		.uleb128 0x33
 4421 0808 F7       		.byte	0xf7
 4422 0809 25       		.uleb128 0x25
 4423 080a F4       		.byte	0xf4
 4424 080b 25       		.uleb128 0x25
 4425 080c 04       		.byte	0x4
 4426 080d 0820803A 		.4byte	0x3a802008
 4427 0811 1E       		.byte	0x1e
 4428 0812 9F       		.byte	0x9f
 4429 0813 F4010000 		.4byte	.LVL76
 4430 0817 1C020000 		.4byte	.LFE255
 4431 081b 0200     		.2byte	0x2
 4432 081d 90       		.byte	0x90
 4433 081e 4F       		.uleb128 0x4f
 4434 081f 00000000 		.4byte	0
 4435 0823 00000000 		.4byte	0
 4436              	.LLST61:
 4437 0827 00000000 		.4byte	.LVL78
 4438 082b 22000000 		.4byte	.LVL80
 4439 082f 0400     		.2byte	0x4
 4440 0831 0A       		.byte	0xa
 4441 0832 FFFF     		.2byte	0xffff
 4442 0834 9F       		.byte	0x9f
ARM GAS  C:\msys64\tmp\ccw9AezN.s 			page 79


 4443 0835 00000000 		.4byte	0
 4444 0839 00000000 		.4byte	0
 4445              	.LLST62:
 4446 083d 00000000 		.4byte	.LVL78
 4447 0841 22000000 		.4byte	.LVL80
 4448 0845 0200     		.2byte	0x2
 4449 0847 31       		.byte	0x31
 4450 0848 9F       		.byte	0x9f
 4451 0849 00000000 		.4byte	0
 4452 084d 00000000 		.4byte	0
 4453              	.LLST63:
 4454 0851 00000000 		.4byte	.LVL78
 4455 0855 22000000 		.4byte	.LVL80
 4456 0859 0600     		.2byte	0x6
 4457 085b 03       		.byte	0x3
 4458 085c 00000000 		.4byte	_ZL5vpsfi
 4459 0860 9F       		.byte	0x9f
 4460 0861 00000000 		.4byte	0
 4461 0865 00000000 		.4byte	0
 4462              	.LLST64:
 4463 0869 00000000 		.4byte	.LVL78
 4464 086d 14000000 		.4byte	.LVL79
 4465 0871 0600     		.2byte	0x6
 4466 0873 03       		.byte	0x3
 4467 0874 00000000 		.4byte	_ZL5vpsfi
 4468 0878 9F       		.byte	0x9f
 4469 0879 00000000 		.4byte	0
 4470 087d 00000000 		.4byte	0
 4471              	.LLST65:
 4472 0881 14000000 		.4byte	.LVL79
 4473 0885 22000000 		.4byte	.LVL80
 4474 0889 0600     		.2byte	0x6
 4475 088b 03       		.byte	0x3
 4476 088c 10000000 		.4byte	_ZL5vpsfi+16
 4477 0890 9F       		.byte	0x9f
 4478 0891 00000000 		.4byte	0
 4479 0895 00000000 		.4byte	0
 4480              		.section	.debug_aranges,"",%progbits
 4481 0000 2C000000 		.4byte	0x2c
 4482 0004 0200     		.2byte	0x2
 4483 0006 00000000 		.4byte	.Ldebug_info0
 4484 000a 04       		.byte	0x4
 4485 000b 00       		.byte	0
 4486 000c 0000     		.2byte	0
 4487 000e 0000     		.2byte	0
 4488 0010 00000000 		.4byte	.Ltext0
 4489 0014 1C020000 		.4byte	.Letext0-.Ltext0
 4490 0018 00000000 		.4byte	.LFB249
 4491 001c E0000000 		.4byte	.LFE249-.LFB249
 4492 0020 00000000 		.4byte	.LFB257
 4493 0024 28000000 		.4byte	.LFE257-.LFB257
 4494 0028 00000000 		.4byte	0
 4495 002c 00000000 		.4byte	0
 4496              		.section	.debug_ranges,"",%progbits
 4497              	.Ldebug_ranges0:
 4498 0000 08000000 		.4byte	.LBB120
 4499 0004 16000000 		.4byte	.LBE120
ARM GAS  C:\msys64\tmp\ccw9AezN.s 			page 80


 4500 0008 1C000000 		.4byte	.LBB122
 4501 000c 26000000 		.4byte	.LBE122
 4502 0010 2A000000 		.4byte	.LBB124
 4503 0014 2E000000 		.4byte	.LBE124
 4504 0018 00000000 		.4byte	0
 4505 001c 00000000 		.4byte	0
 4506 0020 16000000 		.4byte	.LBB121
 4507 0024 1A000000 		.4byte	.LBE121
 4508 0028 26000000 		.4byte	.LBB123
 4509 002c 2A000000 		.4byte	.LBE123
 4510 0030 00000000 		.4byte	0
 4511 0034 00000000 		.4byte	0
 4512 0038 1A000000 		.4byte	.LBB125
 4513 003c 1C000000 		.4byte	.LBE125
 4514 0040 2E000000 		.4byte	.LBB139
 4515 0044 84000000 		.4byte	.LBE139
 4516 0048 00000000 		.4byte	0
 4517 004c 00000000 		.4byte	0
 4518 0050 1A000000 		.4byte	.LBB127
 4519 0054 1C000000 		.4byte	.LBE127
 4520 0058 36000000 		.4byte	.LBB136
 4521 005c 84000000 		.4byte	.LBE136
 4522 0060 00000000 		.4byte	0
 4523 0064 00000000 		.4byte	0
 4524 0068 5C000000 		.4byte	.LBB129
 4525 006c 60000000 		.4byte	.LBE129
 4526 0070 6C000000 		.4byte	.LBB133
 4527 0074 78000000 		.4byte	.LBE133
 4528 0078 7A000000 		.4byte	.LBB134
 4529 007c 7E000000 		.4byte	.LBE134
 4530 0080 00000000 		.4byte	0
 4531 0084 00000000 		.4byte	0
 4532 0088 50000000 		.4byte	.LBB140
 4533 008c 66000000 		.4byte	.LBE140
 4534 0090 6A000000 		.4byte	.LBB155
 4535 0094 C4000000 		.4byte	.LBE155
 4536 0098 00000000 		.4byte	0
 4537 009c 00000000 		.4byte	0
 4538 00a0 64000000 		.4byte	.LBB142
 4539 00a4 66000000 		.4byte	.LBE142
 4540 00a8 6E000000 		.4byte	.LBB153
 4541 00ac C4000000 		.4byte	.LBE153
 4542 00b0 00000000 		.4byte	0
 4543 00b4 00000000 		.4byte	0
 4544 00b8 8E000000 		.4byte	.LBB144
 4545 00bc 92000000 		.4byte	.LBE144
 4546 00c0 98000000 		.4byte	.LBB149
 4547 00c4 9C000000 		.4byte	.LBE149
 4548 00c8 A8000000 		.4byte	.LBB150
 4549 00cc B4000000 		.4byte	.LBE150
 4550 00d0 B6000000 		.4byte	.LBB151
 4551 00d4 BE000000 		.4byte	.LBE151
 4552 00d8 00000000 		.4byte	0
 4553 00dc 00000000 		.4byte	0
 4554 00e0 98000000 		.4byte	.LBB188
 4555 00e4 9C000000 		.4byte	.LBE188
 4556 00e8 9E000000 		.4byte	.LBB228
ARM GAS  C:\msys64\tmp\ccw9AezN.s 			page 81


 4557 00ec A0000000 		.4byte	.LBE228
 4558 00f0 A8000000 		.4byte	.LBB229
 4559 00f4 B2000000 		.4byte	.LBE229
 4560 00f8 B6000000 		.4byte	.LBB230
 4561 00fc BC000000 		.4byte	.LBE230
 4562 0100 BE000000 		.4byte	.LBB231
 4563 0104 D4000000 		.4byte	.LBE231
 4564 0108 D8000000 		.4byte	.LBB232
 4565 010c E0000000 		.4byte	.LBE232
 4566 0110 E6000000 		.4byte	.LBB233
 4567 0114 EA000000 		.4byte	.LBE233
 4568 0118 EE000000 		.4byte	.LBB234
 4569 011c F2000000 		.4byte	.LBE234
 4570 0120 FA000000 		.4byte	.LBB253
 4571 0124 14010000 		.4byte	.LBE253
 4572 0128 00000000 		.4byte	0
 4573 012c 00000000 		.4byte	0
 4574 0130 98000000 		.4byte	.LBB190
 4575 0134 9C000000 		.4byte	.LBE190
 4576 0138 C4000000 		.4byte	.LBB208
 4577 013c C8000000 		.4byte	.LBE208
 4578 0140 D0000000 		.4byte	.LBB211
 4579 0144 D4000000 		.4byte	.LBE211
 4580 0148 D8000000 		.4byte	.LBB212
 4581 014c DC000000 		.4byte	.LBE212
 4582 0150 E6000000 		.4byte	.LBB214
 4583 0154 EA000000 		.4byte	.LBE214
 4584 0158 EE000000 		.4byte	.LBB215
 4585 015c F2000000 		.4byte	.LBE215
 4586 0160 00000000 		.4byte	0
 4587 0164 00000000 		.4byte	0
 4588 0168 9E000000 		.4byte	.LBB197
 4589 016c A0000000 		.4byte	.LBE197
 4590 0170 A8000000 		.4byte	.LBB203
 4591 0174 AC000000 		.4byte	.LBE203
 4592 0178 B6000000 		.4byte	.LBB204
 4593 017c BC000000 		.4byte	.LBE204
 4594 0180 C8000000 		.4byte	.LBB209
 4595 0184 CC000000 		.4byte	.LBE209
 4596 0188 DC000000 		.4byte	.LBB213
 4597 018c E0000000 		.4byte	.LBE213
 4598 0190 00000000 		.4byte	0
 4599 0194 00000000 		.4byte	0
 4600 0198 BE000000 		.4byte	.LBB205
 4601 019c C4000000 		.4byte	.LBE205
 4602 01a0 CC000000 		.4byte	.LBB210
 4603 01a4 D0000000 		.4byte	.LBE210
 4604 01a8 00000000 		.4byte	0
 4605 01ac 00000000 		.4byte	0
 4606 01b0 F2000000 		.4byte	.LBB236
 4607 01b4 F6000000 		.4byte	.LBE236
 4608 01b8 14010000 		.4byte	.LBB251
 4609 01bc 16010000 		.4byte	.LBE251
 4610 01c0 1E010000 		.4byte	.LBB252
 4611 01c4 92010000 		.4byte	.LBE252
 4612 01c8 00000000 		.4byte	0
 4613 01cc 00000000 		.4byte	0
ARM GAS  C:\msys64\tmp\ccw9AezN.s 			page 82


 4614 01d0 54010000 		.4byte	.LBB245
 4615 01d4 62010000 		.4byte	.LBE245
 4616 01d8 66010000 		.4byte	.LBB250
 4617 01dc 7A010000 		.4byte	.LBE250
 4618 01e0 00000000 		.4byte	0
 4619 01e4 00000000 		.4byte	0
 4620 01e8 00000000 		.4byte	.Ltext0
 4621 01ec 1C020000 		.4byte	.Letext0
 4622 01f0 00000000 		.4byte	.LFB249
 4623 01f4 E0000000 		.4byte	.LFE249
 4624 01f8 00000000 		.4byte	.LFB257
 4625 01fc 28000000 		.4byte	.LFE257
 4626 0200 00000000 		.4byte	0
 4627 0204 00000000 		.4byte	0
 4628              		.section	.debug_line,"",%progbits
 4629              	.Ldebug_line0:
 4630 0000 E6030000 		.section	.debug_str,"MS",%progbits,1
 4630      02001D02 
 4630      00000201 
 4630      FB0E0D00 
 4630      01010101 
 4631              	.LASF59:
 4632 0000 70617261 		.ascii	"params\000"
 4632      6D7300
 4633              	.LASF62:
 4634 0007 5F5A4E35 		.ascii	"_ZN5VPSFI11PhaseShaperEfff\000"
 4634      56505346 
 4634      49313150 
 4634      68617365 
 4634      53686170 
 4635              	.LASF94:
 4636 0022 5F686F6F 		.ascii	"_hook_param\000"
 4636      6B5F7061 
 4636      72616D00 
 4637              	.LASF104:
 4638 002e 77745F70 		.ascii	"wt_par_lut_f\000"
 4638      61725F6C 
 4638      75745F66 
 4638      00
 4639              	.LASF56:
 4640 003b 5F5A4E35 		.ascii	"_ZN5VPSFI6ParamsC4Ev\000"
 4640      56505346 
 4640      49365061 
 4640      72616D73 
 4640      43344576 
 4641              	.LASF93:
 4642 0050 666C6167 		.ascii	"flags\000"
 4642      7300
 4643              	.LASF112:
 4644 0056 474E5520 		.ascii	"GNU C++11 5.4.1 20160919 (release) [ARM/embedded-5-"
 4644      432B2B31 
 4644      3120352E 
 4644      342E3120 
 4644      32303136 
 4645 0089 6272616E 		.ascii	"branch revision 240496] -mcpu=cortex-m4 -mthumb -mn"
 4645      63682072 
 4645      65766973 
ARM GAS  C:\msys64\tmp\ccw9AezN.s 			page 83


 4645      696F6E20 
 4645      32343034 
 4646 00bc 6F2D7468 		.ascii	"o-thumb-interwork -mlittle-endian -mfloat-abi=hard "
 4646      756D622D 
 4646      696E7465 
 4646      72776F72 
 4646      6B202D6D 
 4647 00ef 2D6D6670 		.ascii	"-mfpu=fpv4-sp-d16 -g -Os -std=c++11 -fsingle-precis"
 4647      753D6670 
 4647      76342D73 
 4647      702D6431 
 4647      36202D67 
 4648 0122 696F6E2D 		.ascii	"ion-constant -fcheck-new -fno-rtti -fno-exceptions "
 4648      636F6E73 
 4648      74616E74 
 4648      202D6663 
 4648      6865636B 
 4649 0155 2D666E6F 		.ascii	"-fno-non-call-exceptions\000"
 4649      2D6E6F6E 
 4649      2D63616C 
 4649      6C2D6578 
 4649      63657074 
 4650              	.LASF1:
 4651 016e 756E7369 		.ascii	"unsigned int\000"
 4651      676E6564 
 4651      20696E74 
 4651      00
 4652              	.LASF110:
 4653 017b 62697472 		.ascii	"bitres_lut_f\000"
 4653      65735F6C 
 4653      75745F66 
 4653      00
 4654              	.LASF75:
 4655 0188 6F73635F 		.ascii	"osc_sinf\000"
 4655      73696E66 
 4655      00
 4656              	.LASF8:
 4657 0191 5F5F696E 		.ascii	"__int32_t\000"
 4657      7433325F 
 4657      7400
 4658              	.LASF90:
 4659 019b 706C6174 		.ascii	"platform\000"
 4659      666F726D 
 4659      00
 4660              	.LASF30:
 4661 01a4 70697463 		.ascii	"pitch\000"
 4661      6800
 4662              	.LASF44:
 4663 01aa 75736572 		.ascii	"user_osc_param_id_t\000"
 4663      5F6F7363 
 4663      5F706172 
 4663      616D5F69 
 4663      645F7400 
 4664              	.LASF65:
 4665 01be 75706461 		.ascii	"updatePhase\000"
 4665      74655068 
 4665      61736500 
ARM GAS  C:\msys64\tmp\ccw9AezN.s 			page 84


 4666              	.LASF54:
 4667 01ca 53746174 		.ascii	"State\000"
 4667      6500
 4668              	.LASF35:
 4669 01d0 6B5F7573 		.ascii	"k_user_osc_param_id1\000"
 4669      65725F6F 
 4669      73635F70 
 4669      6172616D 
 4669      5F696431 
 4670              	.LASF36:
 4671 01e5 6B5F7573 		.ascii	"k_user_osc_param_id2\000"
 4671      65725F6F 
 4671      73635F70 
 4671      6172616D 
 4671      5F696432 
 4672              	.LASF37:
 4673 01fa 6B5F7573 		.ascii	"k_user_osc_param_id3\000"
 4673      65725F6F 
 4673      73635F70 
 4673      6172616D 
 4673      5F696433 
 4674              	.LASF38:
 4675 020f 6B5F7573 		.ascii	"k_user_osc_param_id4\000"
 4675      65725F6F 
 4675      73635F70 
 4675      6172616D 
 4675      5F696434 
 4676              	.LASF39:
 4677 0224 6B5F7573 		.ascii	"k_user_osc_param_id5\000"
 4677      65725F6F 
 4677      73635F70 
 4677      6172616D 
 4677      5F696435 
 4678              	.LASF40:
 4679 0239 6B5F7573 		.ascii	"k_user_osc_param_id6\000"
 4679      65725F6F 
 4679      73635F70 
 4679      6172616D 
 4679      5F696436 
 4680              	.LASF43:
 4681 024e 6B5F6E75 		.ascii	"k_num_user_osc_param_id\000"
 4681      6D5F7573 
 4681      65725F6F 
 4681      73635F70 
 4681      6172616D 
 4682              	.LASF66:
 4683 0266 5F5A4E35 		.ascii	"_ZN5VPSFI11updatePhaseEPff\000"
 4683      56505346 
 4683      49313175 
 4683      70646174 
 4683      65506861 
 4684              	.LASF91:
 4685 0281 5F686F6F 		.ascii	"_hook_cycle\000"
 4685      6B5F6379 
 4685      636C6500 
 4686              	.LASF106:
 4687 028d 74616E70 		.ascii	"tanpi_lut_f\000"
ARM GAS  C:\msys64\tmp\ccw9AezN.s 			page 85


 4687      695F6C75 
 4687      745F6600 
 4688              	.LASF83:
 4689 0299 6F73635F 		.ascii	"osc_softclipf\000"
 4689      736F6674 
 4689      636C6970 
 4689      6600
 4690              	.LASF69:
 4691 02a7 636C616D 		.ascii	"clampfsel\000"
 4691      70667365 
 4691      6C00
 4692              	.LASF17:
 4693 02b1 75696E74 		.ascii	"uint32_t\000"
 4693      33325F74 
 4693      00
 4694              	.LASF97:
 4695 02ba 76616C66 		.ascii	"valf\000"
 4695      00
 4696              	.LASF100:
 4697 02bf 6D696469 		.ascii	"midi_to_hz_lut_f\000"
 4697      5F746F5F 
 4697      687A5F6C 
 4697      75745F66 
 4697      00
 4698              	.LASF0:
 4699 02d0 666C6F61 		.ascii	"float\000"
 4699      7400
 4700              	.LASF95:
 4701 02d6 696E6465 		.ascii	"index\000"
 4701      7800
 4702              	.LASF25:
 4703 02dc 6B5F7573 		.ascii	"k_user_module_delfx\000"
 4703      65725F6D 
 4703      6F64756C 
 4703      655F6465 
 4703      6C667800 
 4704              	.LASF13:
 4705 02f0 6C6F6E67 		.ascii	"long long unsigned int\000"
 4705      206C6F6E 
 4705      6720756E 
 4705      7369676E 
 4705      65642069 
 4706              	.LASF79:
 4707 0307 66726163 		.ascii	"fraction\000"
 4707      74696F6E 
 4707      00
 4708              	.LASF6:
 4709 0310 5F5F7569 		.ascii	"__uint16_t\000"
 4709      6E743136 
 4709      5F7400
 4710              	.LASF45:
 4711 031b 75736572 		.ascii	"user_osc_param\000"
 4711      5F6F7363 
 4711      5F706172 
 4711      616D00
 4712              	.LASF96:
 4713 032a 76616C75 		.ascii	"value\000"
ARM GAS  C:\msys64\tmp\ccw9AezN.s 			page 86


 4713      6500
 4714              	.LASF55:
 4715 0330 6C617374 		.ascii	"last_sig\000"
 4715      5F736967 
 4715      00
 4716              	.LASF84:
 4717 0339 5F5F696E 		.ascii	"__initialize_p\000"
 4717      69746961 
 4717      6C697A65 
 4717      5F7000
 4718              	.LASF26:
 4719 0348 6B5F7573 		.ascii	"k_user_module_revfx\000"
 4719      65725F6D 
 4719      6F64756C 
 4719      655F7265 
 4719      76667800 
 4720              	.LASF85:
 4721 035c 5F5F7072 		.ascii	"__priority\000"
 4721      696F7269 
 4721      747900
 4722              	.LASF49:
 4723 0367 666C6167 		.ascii	"flag_formant\000"
 4723      5F666F72 
 4723      6D616E74 
 4723      00
 4724              	.LASF52:
 4725 0374 73686966 		.ascii	"shiftshape\000"
 4725      74736861 
 4725      706500
 4726              	.LASF31:
 4727 037f 6375746F 		.ascii	"cutoff\000"
 4727      666600
 4728              	.LASF20:
 4729 0386 63686172 		.ascii	"char\000"
 4729      00
 4730              	.LASF64:
 4731 038b 5F5A4E35 		.ascii	"_ZN5VPSFI7FormantEf\000"
 4731      56505346 
 4731      4937466F 
 4731      726D616E 
 4731      74456600 
 4732              	.LASF118:
 4733 039f 5F686F6F 		.ascii	"_hook_off\000"
 4733      6B5F6F66 
 4733      6600
 4734              	.LASF92:
 4735 03a9 6672616D 		.ascii	"frames\000"
 4735      657300
 4736              	.LASF109:
 4737 03b0 73636865 		.ascii	"schetzen_lut_f\000"
 4737      747A656E 
 4737      5F6C7574 
 4737      5F6600
 4738              	.LASF14:
 4739 03bf 75696E74 		.ascii	"uint8_t\000"
 4739      385F7400 
 4740              	.LASF47:
ARM GAS  C:\msys64\tmp\ccw9AezN.s 			page 87


 4741 03c7 666C6167 		.ascii	"flags_none\000"
 4741      735F6E6F 
 4741      6E6500
 4742              	.LASF73:
 4743 03d2 6F73635F 		.ascii	"osc_notehzf\000"
 4743      6E6F7465 
 4743      687A6600 
 4744              	.LASF105:
 4745 03de 6C6F675F 		.ascii	"log_lut_f\000"
 4745      6C75745F 
 4745      6600
 4746              	.LASF71:
 4747 03e8 636C6970 		.ascii	"clipmaxf\000"
 4747      6D617866 
 4747      00
 4748              	.LASF87:
 4749 03f1 7369675F 		.ascii	"sig_A\000"
 4749      4100
 4750              	.LASF12:
 4751 03f7 6C6F6E67 		.ascii	"long long int\000"
 4751      206C6F6E 
 4751      6720696E 
 4751      7400
 4752              	.LASF53:
 4753 0405 666F726D 		.ascii	"formant\000"
 4753      616E7400 
 4754              	.LASF32:
 4755 040d 7265736F 		.ascii	"resonance\000"
 4755      6E616E63 
 4755      6500
 4756              	.LASF28:
 4757 0417 6B5F6E75 		.ascii	"k_num_user_modules\000"
 4757      6D5F7573 
 4757      65725F6D 
 4757      6F64756C 
 4757      657300
 4758              	.LASF70:
 4759 042a 636C6970 		.ascii	"clipmaxu32\000"
 4759      6D617875 
 4759      333200
 4760              	.LASF119:
 4761 0435 5F474C4F 		.ascii	"_GLOBAL__sub_I__hook_init\000"
 4761      42414C5F 
 4761      5F737562 
 4761      5F495F5F 
 4761      686F6F6B 
 4762              	.LASF48:
 4763 044f 666C6167 		.ascii	"flag_phaseShape\000"
 4763      5F706861 
 4763      73655368 
 4763      61706500 
 4764              	.LASF102:
 4765 045f 77745F73 		.ascii	"wt_saw_lut_f\000"
 4765      61775F6C 
 4765      75745F66 
 4765      00
 4766              	.LASF27:
ARM GAS  C:\msys64\tmp\ccw9AezN.s 			page 88


 4767 046c 6B5F7573 		.ascii	"k_user_module_osc\000"
 4767      65725F6D 
 4767      6F64756C 
 4767      655F6F73 
 4767      6300
 4768              	.LASF80:
 4769 047e 6E756D65 		.ascii	"numerator\000"
 4769      7261746F 
 4769      7200
 4770              	.LASF18:
 4771 0488 6C6F6E67 		.ascii	"long double\000"
 4771      20646F75 
 4771      626C6500 
 4772              	.LASF15:
 4773 0494 75696E74 		.ascii	"uint16_t\000"
 4773      31365F74 
 4773      00
 4774              	.LASF77:
 4775 049d 74686973 		.ascii	"this\000"
 4775      00
 4776              	.LASF50:
 4777 04a2 50617261 		.ascii	"Params\000"
 4777      6D7300
 4778              	.LASF117:
 4779 04a9 5F5F7374 		.ascii	"__static_initialization_and_destruction_0\000"
 4779      61746963 
 4779      5F696E69 
 4779      7469616C 
 4779      697A6174 
 4780              	.LASF42:
 4781 04d3 6B5F7573 		.ascii	"k_user_osc_param_shiftshape\000"
 4781      65725F6F 
 4781      73635F70 
 4781      6172616D 
 4781      5F736869 
 4782              	.LASF89:
 4783 04ef 5F686F6F 		.ascii	"_hook_init\000"
 4783      6B5F696E 
 4783      697400
 4784              	.LASF4:
 4785 04fa 73686F72 		.ascii	"short int\000"
 4785      7420696E 
 4785      7400
 4786              	.LASF107:
 4787 0504 73717274 		.ascii	"sqrtm2log_lut_f\000"
 4787      6D326C6F 
 4787      675F6C75 
 4787      745F6600 
 4788              	.LASF60:
 4789 0514 50686173 		.ascii	"PhaseShaper\000"
 4789      65536861 
 4789      70657200 
 4790              	.LASF108:
 4791 0520 63756269 		.ascii	"cubicsat_lut_f\000"
 4791      63736174 
 4791      5F6C7574 
 4791      5F6600
ARM GAS  C:\msys64\tmp\ccw9AezN.s 			page 89


 4792              	.LASF103:
 4793 052f 77745F73 		.ascii	"wt_sqr_lut_f\000"
 4793      71725F6C 
 4793      75745F66 
 4793      00
 4794              	.LASF9:
 4795 053c 6C6F6E67 		.ascii	"long int\000"
 4795      20696E74 
 4795      00
 4796              	.LASF51:
 4797 0545 73686170 		.ascii	"shape\000"
 4797      6500
 4798              	.LASF63:
 4799 054b 466F726D 		.ascii	"Formant\000"
 4799      616E7400 
 4800              	.LASF24:
 4801 0553 6B5F7573 		.ascii	"k_user_module_modfx\000"
 4801      65725F6D 
 4801      6F64756C 
 4801      655F6D6F 
 4801      64667800 
 4802              	.LASF113:
 4803 0567 7670735F 		.ascii	"vps_formants_intpl.cpp\000"
 4803      666F726D 
 4803      616E7473 
 4803      5F696E74 
 4803      706C2E63 
 4804              	.LASF41:
 4805 057e 6B5F7573 		.ascii	"k_user_osc_param_shape\000"
 4805      65725F6F 
 4805      73635F70 
 4805      6172616D 
 4805      5F736861 
 4806              	.LASF46:
 4807 0595 56505346 		.ascii	"VPSFI\000"
 4807      4900
 4808              	.LASF116:
 4809 059b 31397573 		.ascii	"19user_osc_param_id_t\000"
 4809      65725F6F 
 4809      73635F70 
 4809      6172616D 
 4809      5F69645F 
 4810              	.LASF111:
 4811 05b1 76707366 		.ascii	"vpsfi\000"
 4811      6900
 4812              	.LASF33:
 4813 05b7 72657365 		.ascii	"reserved0\000"
 4813      72766564 
 4813      3000
 4814              	.LASF81:
 4815 05c1 64656E6F 		.ascii	"denominator\000"
 4815      6D696E61 
 4815      746F7200 
 4816              	.LASF5:
 4817 05cd 5F5F7569 		.ascii	"__uint8_t\000"
 4817      6E74385F 
 4817      7400
ARM GAS  C:\msys64\tmp\ccw9AezN.s 			page 90


 4818              	.LASF88:
 4819 05d7 7369675F 		.ascii	"sig_B\000"
 4819      4200
 4820              	.LASF99:
 4821 05dd 6B5F6F73 		.ascii	"k_osc_api_version\000"
 4821      635F6170 
 4821      695F7665 
 4821      7273696F 
 4821      6E00
 4822              	.LASF67:
 4823 05ef 6673656C 		.ascii	"fsel\000"
 4823      00
 4824              	.LASF74:
 4825 05f4 6E6F7465 		.ascii	"note\000"
 4825      00
 4826              	.LASF22:
 4827 05f9 7133315F 		.ascii	"q31_t\000"
 4827      7400
 4828              	.LASF19:
 4829 05ff 73697A65 		.ascii	"sizetype\000"
 4829      74797065 
 4829      00
 4830              	.LASF57:
 4831 0608 5F5A4E35 		.ascii	"_ZN5VPSFI5StateC4Ev\000"
 4831      56505346 
 4831      49355374 
 4831      61746543 
 4831      34457600 
 4832              	.LASF11:
 4833 061c 6C6F6E67 		.ascii	"long unsigned int\000"
 4833      20756E73 
 4833      69676E65 
 4833      6420696E 
 4833      7400
 4834              	.LASF101:
 4835 062e 77745F73 		.ascii	"wt_sine_lut_f\000"
 4835      696E655F 
 4835      6C75745F 
 4835      6600
 4836              	.LASF16:
 4837 063c 696E7433 		.ascii	"int32_t\000"
 4837      325F7400 
 4838              	.LASF61:
 4839 0644 5F5A4E35 		.ascii	"_ZN5VPSFIC4Ev\000"
 4839      56505346 
 4839      49433445 
 4839      7600
 4840              	.LASF72:
 4841 0652 6C696E69 		.ascii	"linintf\000"
 4841      6E746600 
 4842              	.LASF3:
 4843 065a 756E7369 		.ascii	"unsigned char\000"
 4843      676E6564 
 4843      20636861 
 4843      7200
 4844              	.LASF10:
 4845 0668 5F5F7569 		.ascii	"__uint32_t\000"
ARM GAS  C:\msys64\tmp\ccw9AezN.s 			page 91


 4845      6E743332 
 4845      5F7400
 4846              	.LASF78:
 4847 0673 6F73635F 		.ascii	"osc_cosf\000"
 4847      636F7366 
 4847      00
 4848              	.LASF23:
 4849 067c 6B5F7573 		.ascii	"k_user_module_global\000"
 4849      65725F6D 
 4849      6F64756C 
 4849      655F676C 
 4849      6F62616C 
 4850              	.LASF115:
 4851 0691 6465636C 		.ascii	"decltype(nullptr)\000"
 4851      74797065 
 4851      286E756C 
 4851      6C707472 
 4851      2900
 4852              	.LASF58:
 4853 06a3 73746174 		.ascii	"state\000"
 4853      6500
 4854              	.LASF86:
 4855 06a9 696E7465 		.ascii	"interpolation_gain\000"
 4855      72706F6C 
 4855      6174696F 
 4855      6E5F6761 
 4855      696E00
 4856              	.LASF2:
 4857 06bc 7369676E 		.ascii	"signed char\000"
 4857      65642063 
 4857      68617200 
 4858              	.LASF7:
 4859 06c8 73686F72 		.ascii	"short unsigned int\000"
 4859      7420756E 
 4859      7369676E 
 4859      65642069 
 4859      6E7400
 4860              	.LASF82:
 4861 06db 6F73635F 		.ascii	"osc_w0f_for_note\000"
 4861      7730665F 
 4861      666F725F 
 4861      6E6F7465 
 4861      00
 4862              	.LASF34:
 4863 06ec 75736572 		.ascii	"user_osc_param_t\000"
 4863      5F6F7363 
 4863      5F706172 
 4863      616D5F74 
 4863      00
 4864              	.LASF114:
 4865 06fd 433A5C6D 		.ascii	"C:\\msys64\\home\\logue-sdk\\platform\\nutekt-digit"
 4865      73797336 
 4865      345C686F 
 4865      6D655C6C 
 4865      6F677565 
 4866 072b 616C5C43 		.ascii	"al\\Custom-Projects\\osc\\VPS_Project\\vps_formants"
 4866      7573746F 
ARM GAS  C:\msys64\tmp\ccw9AezN.s 			page 92


 4866      6D2D5072 
 4866      6F6A6563 
 4866      74735C6F 
 4867 075a 5F696E74 		.ascii	"_intpl\000"
 4867      706C00
 4868              	.LASF21:
 4869 0761 646F7562 		.ascii	"double\000"
 4869      6C6500
 4870              	.LASF29:
 4871 0768 73686170 		.ascii	"shape_lfo\000"
 4871      655F6C66 
 4871      6F00
 4872              	.LASF76:
 4873 0772 636C6970 		.ascii	"clip1m1f\000"
 4873      316D3166 
 4873      00
 4874              	.LASF68:
 4875 077b 636C616D 		.ascii	"clampmaxfsel\000"
 4875      706D6178 
 4875      6673656C 
 4875      00
 4876              	.LASF98:
 4877 0788 6B5F6F73 		.ascii	"k_osc_api_platform\000"
 4877      635F6170 
 4877      695F706C 
 4877      6174666F 
 4877      726D00
 4878              		.ident	"GCC: (GNU Tools for ARM Embedded Processors) 5.4.1 20160919 (release) [ARM/embedded-5-bran
ARM GAS  C:\msys64\tmp\ccw9AezN.s 			page 93


DEFINED SYMBOLS
                            *ABS*:00000000 vps_formants_intpl.cpp
C:\msys64\tmp\ccw9AezN.s:21     .text:00000000 $t
C:\msys64\tmp\ccw9AezN.s:25     .text:00000000 _ZN5VPSFI11PhaseShaperEfff.isra.0
C:\msys64\tmp\ccw9AezN.s:155    .text:0000008c $d
C:\msys64\tmp\ccw9AezN.s:161    .text._ZN5VPSFI7FormantEf:00000000 $t
C:\msys64\tmp\ccw9AezN.s:166    .text._ZN5VPSFI7FormantEf:00000000 _ZN5VPSFI7FormantEf
C:\msys64\tmp\ccw9AezN.s:331    .text._ZN5VPSFI7FormantEf:000000d8 $d
C:\msys64\tmp\ccw9AezN.s:337    .text:00000094 $t
C:\msys64\tmp\ccw9AezN.s:342    .text:00000094 _hook_init
C:\msys64\tmp\ccw9AezN.s:360    .text:00000096 _hook_cycle
C:\msys64\tmp\ccw9AezN.s:672    .text:000001a0 $d
C:\msys64\tmp\ccw9AezN.s:682    .text:000001bc $t
C:\msys64\tmp\ccw9AezN.s:687    .text:000001bc _hook_on
C:\msys64\tmp\ccw9AezN.s:702    .text:000001be _hook_off
C:\msys64\tmp\ccw9AezN.s:719    .text:000001c0 _hook_param
C:\msys64\tmp\ccw9AezN.s:784    .text:00000210 $d
C:\msys64\tmp\ccw9AezN.s:791    .text.startup:00000000 $t
C:\msys64\tmp\ccw9AezN.s:795    .text.startup:00000000 _GLOBAL__sub_I__hook_init
C:\msys64\tmp\ccw9AezN.s:834    .text.startup:00000024 $d
C:\msys64\tmp\ccw9AezN.s:844    .init_array:00000000 $d
C:\msys64\tmp\ccw9AezN.s:847    .bss:00000000 $d
C:\msys64\tmp\ccw9AezN.s:851    .bss:00000000 _ZL5vpsfi
                     .debug_frame:00000010 $d

UNDEFINED SYMBOLS
wt_sine_lut_f
midi_to_hz_lut_f
