ARM GAS  C:\msys64\tmp\ccw9AezN.s 			page 1


   1              		.syntax unified
   2              		.cpu cortex-m4
   3              		.eabi_attribute 27, 1
   4              		.eabi_attribute 28, 1
   5              		.fpu fpv4-sp-d16
   6              		.eabi_attribute 20, 1
   7              		.eabi_attribute 21, 1
   8              		.eabi_attribute 23, 3
   9              		.eabi_attribute 24, 1
  10              		.eabi_attribute 25, 1
  11              		.eabi_attribute 26, 1
  12              		.eabi_attribute 30, 4
  13              		.eabi_attribute 34, 1
  14              		.eabi_attribute 18, 4
  15              		.thumb
  16              		.syntax unified
  17              		.file	"vps_formants_intpl.cpp"
  18              		.text
  19              	.Ltext0:
  20              		.cfi_sections	.debug_frame
  21              		.align	1
  22              		.thumb
  23              		.thumb_func
  24              		.type	_ZN5VPSFI11PhaseShaperEfff.isra.0, %function
  25              	_ZN5VPSFI11PhaseShaperEfff.isra.0:
  26              	.LFB258:
  27              		.file 1 "vps_formants_intpl.hpp"
  28              		.loc 1 55 0
  29              		.cfi_startproc
  30              		@ args = 0, pretend = 0, frame = 0
  31              		@ frame_needed = 0, uses_anonymous_args = 0
  32              		@ link register save eliminated.
  33              	.LVL0:
  34              	.LBB119:
  35              		.loc 1 58 0
  36 0000 B4EEE00A 		vcmpe.f32	s0, s1
  37 0004 F1EE10FA 		vmrs	APSR_nzcv, FPSCR
  38              	.LVL1:
  39              	.LBB120:
  40              		.loc 1 65 0
  41 0008 5DBF     		ittte	pl
  42 000a F7EE007A 		vmovpl.f32	s15, #1.0e+0
  43 000e 30EE600A 		vsubpl.f32	s0, s0, s1
  44              	.LVL2:
  45 0012 77EEE00A 		vsubpl.f32	s1, s15, s1
  46              	.LVL3:
  47              	.LBE120:
  48              	.LBB121:
  49              		.loc 1 60 0
  50 0016 C0EE207A 		vdivmi.f32	s15, s0, s1
  51              	.LBE121:
  52              	.LBE119:
  53              	.LBB125:
  54              	.LBB126:
  55              	.LBB127:
  56              	.LBB128:
  57              		.file 2 "C:/msys64/home/logue-sdk/platform/nutekt-digital/inc/osc_api.h"
ARM GAS  C:\msys64\tmp\ccw9AezN.s 			page 2


  58              		.loc 2 160 0
  59 001a 1C4A     		ldr	r2, .L8
  60              	.LBE128:
  61              	.LBE127:
  62              	.LBE126:
  63              	.LBE125:
  64              	.LBB138:
  65              	.LBB122:
  66              		.loc 1 65 0
  67 001c 5BBF     		ittet	pl
  68 001e 80EE207A 		vdivpl.f32	s14, s0, s1
  69 0022 77EEC17A 		vsubpl.f32	s15, s15, s2
  70              	.LBE122:
  71              	.LBB123:
  72              		.loc 1 60 0
  73 0026 27EE811A 		vmulmi.f32	s2, s15, s2
  74              	.LVL4:
  75              	.LBE123:
  76              	.LBB124:
  77              		.loc 1 65 0
  78 002a A7EE271A 		vfmapl.f32	s2, s14, s15
  79              	.LVL5:
  80              	.LBE124:
  81              	.LBE138:
  82              	.LBB139:
  83              	.LBB137:
  84              		.loc 2 171 0
  85 002e F5EE007A 		vmov.f32	s15, #2.5e-1
  86 0032 31EE271A 		vadd.f32	s2, s2, s15
  87              	.LVL6:
  88              	.LBB136:
  89              	.LBB135:
  90              		.loc 2 154 0
  91 0036 FCEEC17A 		vcvt.u32.f32	s15, s2
  92 003a F8EE677A 		vcvt.f32.u32	s15, s15
  93 003e 31EE671A 		vsub.f32	s2, s2, s15
  94              	.LVL7:
  95 0042 DFED137A 		vldr.32	s15, .L8+4
  96 0046 21EE271A 		vmul.f32	s2, s2, s15
  97              	.LVL8:
  98              		.loc 2 155 0
  99 004a FCEEC17A 		vcvt.u32.f32	s15, s2
 100 004e 17EE901A 		vmov	r1, s15	@ int
 101              	.LVL9:
 102              		.loc 2 157 0
 103 0052 01F07F03 		and	r3, r1, #127
 104              	.LVL10:
 105              		.loc 2 160 0
 106 0056 02EB8300 		add	r0, r2, r3, lsl #2
 107 005a 0133     		adds	r3, r3, #1
 108              	.LVL11:
 109              	.LBB129:
 110              	.LBB130:
 111              		.file 3 "C:/msys64/home/logue-sdk/platform/nutekt-digital/inc/utils/float_math.h"
 112              		.loc 3 826 0
 113 005c F8EE677A 		vcvt.f32.u32	s15, s15
 114              	.LBE130:
ARM GAS  C:\msys64\tmp\ccw9AezN.s 			page 3


 115              	.LBE129:
 116              		.loc 2 160 0
 117 0060 03F07F03 		and	r3, r3, #127
 118              	.LVL12:
 119 0064 02EB8303 		add	r3, r2, r3, lsl #2
 120              	.LVL13:
 121 0068 90ED000A 		vldr.32	s0, [r0]
 122              	.LVL14:
 123              	.LBB133:
 124              	.LBB131:
 125              		.loc 3 826 0
 126 006c 31EE671A 		vsub.f32	s2, s2, s15
 127              	.LVL15:
 128 0070 D3ED007A 		vldr.32	s15, [r3]
 129 0074 77EEC07A 		vsub.f32	s15, s15, s0
 130              	.LBE131:
 131              	.LBE133:
 132              		.loc 2 161 0
 133 0078 7F29     		cmp	r1, #127
 134              	.LBB134:
 135              	.LBB132:
 136              		.loc 3 826 0
 137 007a A1EE270A 		vfma.f32	s0, s2, s15
 138              	.LVL16:
 139              	.LBE132:
 140              	.LBE134:
 141              		.loc 2 161 0
 142 007e 88BF     		it	hi
 143 0080 B1EE400A 		vneghi.f32	s0, s0
 144              	.LVL17:
 145              	.LBE135:
 146              	.LBE136:
 147              	.LBE137:
 148              	.LBE139:
 149              		.loc 1 69 0
 150 0084 B1EE400A 		vneg.f32	s0, s0
 151 0088 7047     		bx	lr
 152              	.L9:
 153 008a 00BF     		.align	2
 154              	.L8:
 155 008c 00000000 		.word	wt_sine_lut_f
 156 0090 00008043 		.word	1132462080
 157              		.cfi_endproc
 158              	.LFE258:
 159              		.size	_ZN5VPSFI11PhaseShaperEfff.isra.0, .-_ZN5VPSFI11PhaseShaperEfff.isra.0
 160              		.section	.text._ZN5VPSFI7FormantEf,"axG",%progbits,_ZN5VPSFI7FormantEf,comdat
 161              		.align	1
 162              		.weak	_ZN5VPSFI7FormantEf
 163              		.thumb
 164              		.thumb_func
 165              		.type	_ZN5VPSFI7FormantEf, %function
 166              	_ZN5VPSFI7FormantEf:
 167              	.LFB249:
 168              		.loc 1 71 0
 169              		.cfi_startproc
 170              		@ args = 0, pretend = 0, frame = 0
 171              		@ frame_needed = 0, uses_anonymous_args = 0
ARM GAS  C:\msys64\tmp\ccw9AezN.s 			page 4


 172              	.LVL18:
 173              		.loc 1 74 0
 174 0000 90ED066A 		vldr.32	s12, [r0, #24]
 175              		.loc 1 73 0
 176 0004 90ED045A 		vldr.32	s10, [r0, #16]
 177              	.LVL19:
 178              		.loc 1 76 0
 179 0008 F0EE007A 		vmov.f32	s15, #2.0e+0
 180 000c FFEE006A 		vmov.f32	s13, #-1.0e+0
 181 0010 E6EE276A 		vfma.f32	s13, s12, s15
 182              		.loc 1 71 0
 183 0014 10B5     		push	{r4, lr}
 184              		.cfi_def_cfa_offset 8
 185              		.cfi_offset 4, -8
 186              		.cfi_offset 14, -4
 187              		.loc 1 76 0
 188 0016 F0EE667A 		vmov.f32	s15, s13
 189              	.LVL20:
 190              		.loc 1 77 0
 191 001a FCEEE66A 		vcvt.u32.f32	s13, s13
 192              	.LVL21:
 193              		.loc 1 81 0
 194 001e B0EE461A 		vmov.f32	s2, s12
 195              		.loc 1 77 0
 196 0022 F8EE666A 		vcvt.f32.u32	s13, s13
 197              		.loc 1 81 0
 198 0026 F0EE450A 		vmov.f32	s1, s10
 199              		.loc 1 71 0
 200 002a 0446     		mov	r4, r0
 201 002c F0EE405A 		vmov.f32	s11, s0
 202              		.loc 1 77 0
 203 0030 77EEE66A 		vsub.f32	s13, s15, s13
 204              	.LVL22:
 205              		.loc 1 81 0
 206 0034 FFF7FEFF 		bl	_ZN5VPSFI11PhaseShaperEfff.isra.0
 207              	.LVL23:
 208              		.loc 1 84 0
 209 0038 B6EE001A 		vmov.f32	s2, #5.0e-1
 210              		.loc 1 81 0
 211 003c F0EE404A 		vmov.f32	s9, s0
 212              	.LVL24:
 213              		.loc 1 84 0
 214 0040 36EE011A 		vadd.f32	s2, s12, s2
 215 0044 F0EE450A 		vmov.f32	s1, s10
 216 0048 B0EE650A 		vmov.f32	s0, s11
 217              	.LVL25:
 218 004c FFF7FEFF 		bl	_ZN5VPSFI11PhaseShaperEfff.isra.0
 219              	.LVL26:
 220              	.LBB140:
 221              	.LBB141:
 222              		.loc 2 171 0
 223 0050 F7EE007A 		vmov.f32	s15, #1.0e+0
 224 0054 26EE800A 		vmul.f32	s0, s13, s0
 225              	.LVL27:
 226 0058 77EEE66A 		vsub.f32	s13, s15, s13
 227 005c B5EE007A 		vmov.f32	s14, #2.5e-1
 228 0060 A4EEA60A 		vfma.f32	s0, s9, s13
ARM GAS  C:\msys64\tmp\ccw9AezN.s 			page 5


 229              	.LVL28:
 230              	.LBB142:
 231              	.LBB143:
 232              		.loc 2 160 0
 233 0064 1C4A     		ldr	r2, .L12
 234              	.LBE143:
 235              	.LBE142:
 236              	.LBE141:
 237              	.LBE140:
 238              		.loc 1 88 0
 239 0066 94ED026A 		vldr.32	s12, [r4, #8]
 240              	.LBB155:
 241              	.LBB154:
 242              		.loc 2 171 0
 243 006a 30EE077A 		vadd.f32	s14, s0, s14
 244              	.LVL29:
 245              	.LBB153:
 246              	.LBB152:
 247              		.loc 2 154 0
 248 006e FCEEC77A 		vcvt.u32.f32	s15, s14
 249 0072 F8EE677A 		vcvt.f32.u32	s15, s15
 250 0076 37EE677A 		vsub.f32	s14, s14, s15
 251              	.LVL30:
 252 007a DFED187A 		vldr.32	s15, .L12+4
 253 007e 67EE277A 		vmul.f32	s15, s14, s15
 254              	.LVL31:
 255              		.loc 2 155 0
 256 0082 BCEEE77A 		vcvt.u32.f32	s14, s15
 257 0086 17EE101A 		vmov	r1, s14	@ int
 258              	.LVL32:
 259              		.loc 2 157 0
 260 008a 01F07F03 		and	r3, r1, #127
 261              	.LVL33:
 262              	.LBB144:
 263              	.LBB145:
 264              		.loc 3 826 0
 265 008e 06EE901A 		vmov	s13, r1	@ int
 266              	.LBE145:
 267              	.LBE144:
 268              		.loc 2 160 0
 269 0092 02EB8300 		add	r0, r2, r3, lsl #2
 270 0096 0133     		adds	r3, r3, #1
 271              	.LVL34:
 272              	.LBB149:
 273              	.LBB146:
 274              		.loc 3 826 0
 275 0098 F8EE666A 		vcvt.f32.u32	s13, s13
 276              	.LBE146:
 277              	.LBE149:
 278              		.loc 2 160 0
 279 009c 03F07F03 		and	r3, r3, #127
 280              	.LVL35:
 281 00a0 02EB8303 		add	r3, r2, r3, lsl #2
 282              	.LVL36:
 283 00a4 90ED007A 		vldr.32	s14, [r0]
 284              	.LVL37:
 285              	.LBB150:
ARM GAS  C:\msys64\tmp\ccw9AezN.s 			page 6


 286              	.LBB147:
 287              		.loc 3 826 0
 288 00a8 77EEE67A 		vsub.f32	s15, s15, s13
 289              	.LVL38:
 290 00ac D3ED006A 		vldr.32	s13, [r3]
 291 00b0 76EEC76A 		vsub.f32	s13, s13, s14
 292              	.LBE147:
 293              	.LBE150:
 294              		.loc 2 161 0
 295 00b4 7F29     		cmp	r1, #127
 296              	.LBB151:
 297              	.LBB148:
 298              		.loc 3 826 0
 299 00b6 A7EEA67A 		vfma.f32	s14, s15, s13
 300              	.LVL39:
 301 00ba F0EE477A 		vmov.f32	s15, s14
 302              	.LVL40:
 303              	.LBE148:
 304              	.LBE151:
 305              		.loc 2 161 0
 306 00be 88BF     		it	hi
 307 00c0 F1EE477A 		vneghi.f32	s15, s14
 308              	.LVL41:
 309              	.LBE152:
 310              	.LBE153:
 311              	.LBE154:
 312              	.LBE155:
 313              	.LBB156:
 314              	.LBB157:
 315              		.loc 3 826 0
 316 00c4 77EEC67A 		vsub.f32	s15, s15, s12
 317 00c8 A5EEA76A 		vfma.f32	s12, s11, s15
 318              	.LVL42:
 319 00cc B0EE460A 		vmov.f32	s0, s12
 320              	.LVL43:
 321              	.LBE157:
 322              	.LBE156:
 323              		.loc 1 88 0
 324 00d0 84ED026A 		vstr.32	s12, [r4, #8]
 325              		.loc 1 90 0
 326 00d4 10BD     		pop	{r4, pc}
 327              	.LVL44:
 328              	.L13:
 329 00d6 00BF     		.align	2
 330              	.L12:
 331 00d8 00000000 		.word	wt_sine_lut_f
 332 00dc 00008043 		.word	1132462080
 333              		.cfi_endproc
 334              	.LFE249:
 335              		.size	_ZN5VPSFI7FormantEf, .-_ZN5VPSFI7FormantEf
 336              		.text
 337              		.align	1
 338              		.global	_hook_init
 339              		.thumb
 340              		.thumb_func
 341              		.type	_hook_init, %function
 342              	_hook_init:
ARM GAS  C:\msys64\tmp\ccw9AezN.s 			page 7


 343              	.LFB251:
 344              		.file 4 "vps_formants_intpl.cpp"
 345              		.loc 4 14 0
 346              		.cfi_startproc
 347              		@ args = 0, pretend = 0, frame = 0
 348              		@ frame_needed = 0, uses_anonymous_args = 0
 349              		@ link register save eliminated.
 350              	.LVL45:
 351 0094 7047     		bx	lr
 352              		.cfi_endproc
 353              	.LFE251:
 354              		.size	_hook_init, .-_hook_init
 355              		.align	1
 356              		.global	_hook_cycle
 357              		.thumb
 358              		.thumb_func
 359              		.type	_hook_cycle, %function
 360              	_hook_cycle:
 361              	.LFB252:
 362              		.loc 4 19 0
 363              		.cfi_startproc
 364              		@ args = 0, pretend = 0, frame = 0
 365              		@ frame_needed = 0, uses_anonymous_args = 0
 366              	.LVL46:
 367              		.loc 4 29 0
 368 0096 8088     		ldrh	r0, [r0, #4]
 369              	.LVL47:
 370              	.LBB188:
 371              	.LBB189:
 372              	.LBB190:
 373              	.LBB191:
 374              		.loc 3 826 0
 375 0098 9FED417A 		vldr.32	s14, .L37
 376              	.LBE191:
 377              	.LBE190:
 378              	.LBE189:
 379              	.LBE188:
 380              		.loc 4 29 0
 381 009c 0312     		asrs	r3, r0, #8
 382              	.LBB228:
 383              	.LBB220:
 384              	.LBB197:
 385              	.LBB198:
 386              		.loc 2 109 0
 387 009e 962B     		cmp	r3, #150
 388              	.LBE198:
 389              	.LBE197:
 390              	.LBE220:
 391              	.LBE228:
 392              		.loc 4 19 0
 393 00a0 2DE9F041 		push	{r4, r5, r6, r7, r8, lr}
 394              		.cfi_def_cfa_offset 24
 395              		.cfi_offset 4, -24
 396              		.cfi_offset 5, -20
 397              		.cfi_offset 6, -16
 398              		.cfi_offset 7, -12
 399              		.cfi_offset 8, -8
ARM GAS  C:\msys64\tmp\ccw9AezN.s 			page 8


 400              		.cfi_offset 14, -4
 401 00a4 0E46     		mov	r6, r1
 402              		.loc 4 32 0
 403 00a6 C1B2     		uxtb	r1, r0
 404              	.LVL48:
 405              	.LBB229:
 406              	.LBB221:
 407              	.LBB203:
 408              	.LBB199:
 409              		.loc 2 109 0
 410 00a8 D8BF     		it	le
 411 00aa 1846     		movle	r0, r3
 412              	.LBE199:
 413              	.LBE203:
 414              		.loc 2 120 0
 415 00ac 03F10103 		add	r3, r3, #1
 416 00b0 DBB2     		uxtb	r3, r3
 417              	.LBE221:
 418              	.LBE229:
 419              		.loc 4 32 0
 420 00b2 07EE901A 		vmov	s15, r1	@ int
 421              	.LBB230:
 422              	.LBB222:
 423              	.LBB204:
 424              	.LBB200:
 425              		.loc 2 109 0
 426 00b6 C8BF     		it	gt
 427 00b8 9720     		movgt	r0, #151
 428 00ba 3A49     		ldr	r1, .L37+4
 429              	.LBE200:
 430              	.LBE204:
 431              	.LBE222:
 432              	.LBE230:
 433              		.loc 4 26 0
 434 00bc 3A4C     		ldr	r4, .L37+8
 435              	.LBB231:
 436              	.LBB223:
 437              	.LBB205:
 438              	.LBB206:
 439              		.loc 2 109 0
 440 00be 962B     		cmp	r3, #150
 441 00c0 88BF     		it	hi
 442 00c2 9723     		movhi	r3, #151
 443              	.LBE206:
 444              	.LBE205:
 445              	.LBB208:
 446              	.LBB192:
 447              		.loc 3 826 0
 448 00c4 F8EEE77A 		vcvt.f32.s32	s15, s15
 449              	.LBE192:
 450              	.LBE208:
 451              	.LBB209:
 452              	.LBB201:
 453              		.loc 2 109 0
 454 00c8 01EB8000 		add	r0, r1, r0, lsl #2
 455              	.LBE201:
 456              	.LBE209:
ARM GAS  C:\msys64\tmp\ccw9AezN.s 			page 9


 457              	.LBB210:
 458              	.LBB207:
 459 00cc 01EB8303 		add	r3, r1, r3, lsl #2
 460              	.LBE207:
 461              	.LBE210:
 462              	.LBB211:
 463              	.LBB193:
 464              		.loc 3 826 0
 465 00d0 67EE877A 		vmul.f32	s15, s15, s14
 466              	.LBE193:
 467              	.LBE211:
 468              	.LBE223:
 469              	.LBE231:
 470              		.loc 4 19 0
 471 00d4 2DED028B 		vpush.64	{d8}
 472              		.cfi_def_cfa_offset 32
 473              		.cfi_offset 80, -32
 474              		.cfi_offset 81, -28
 475              	.LBB232:
 476              	.LBB224:
 477              	.LBB212:
 478              	.LBB194:
 479              		.loc 3 826 0
 480 00d8 93ED007A 		vldr.32	s14, [r3]
 481              	.LBE194:
 482              	.LBE212:
 483              	.LBB213:
 484              	.LBB202:
 485              		.loc 2 109 0
 486 00dc D0ED008A 		vldr.32	s17, [r0]
 487              	.LBE202:
 488              	.LBE213:
 489              	.LBE224:
 490              	.LBE232:
 491              		.loc 4 26 0
 492 00e0 257B     		ldrb	r5, [r4, #12]	@ zero_extendqisi2
 493              		.loc 4 35 0
 494 00e2 94ED008A 		vldr.32	s16, [r4]
 495              	.LBB233:
 496              	.LBB225:
 497              	.LBB214:
 498              	.LBB195:
 499              		.loc 3 826 0
 500 00e6 37EE687A 		vsub.f32	s14, s14, s17
 501              	.LBE195:
 502              	.LBE214:
 503              	.LBE225:
 504              	.LBE233:
 505              		.loc 4 26 0
 506 00ea 05F00305 		and	r5, r5, #3
 507              	.LVL49:
 508              	.LBB234:
 509              	.LBB226:
 510              	.LBB215:
 511              	.LBB196:
 512              		.loc 3 826 0
 513 00ee E7EE878A 		vfma.f32	s17, s15, s14
ARM GAS  C:\msys64\tmp\ccw9AezN.s 			page 10


 514              	.LVL50:
 515              	.LBE196:
 516              	.LBE215:
 517              	.LBE226:
 518              	.LBE234:
 519              	.LBB235:
 520              	.LBB236:
 521              		.loc 4 46 0
 522 00f2 05F00207 		and	r7, r5, #2
 523              	.LBE236:
 524              	.LBE235:
 525              		.loc 4 40 0
 526 00f6 06EB8208 		add	r8, r6, r2, lsl #2
 527              	.LBB253:
 528              	.LBB227:
 529              	.LBB216:
 530              	.LBB217:
 531              	.LBB218:
 532              	.LBB219:
 533              		.loc 3 193 0
 534 00fa DFED2C7A 		vldr.32	s15, .L37+12
 535 00fe F4EEE78A 		vcmpe.f32	s17, s15
 536 0102 F1EE10FA 		vmrs	APSR_nzcv, FPSCR
 537 0106 B8BF     		it	lt
 538 0108 F0EE687A 		vmovlt.f32	s15, s17
 539              	.LVL51:
 540              	.LBE219:
 541              	.LBE218:
 542              	.LBE217:
 543              	.LBE216:
 544              		.loc 2 124 0
 545 010c DFED288A 		vldr.32	s17, .L37+16
 546 0110 67EEA88A 		vmul.f32	s17, s15, s17
 547              	.LBE227:
 548              	.LBE253:
 549              	.LBB254:
 550              	.LBB251:
 551              		.loc 4 46 0
 552 0114 FFB2     		uxtb	r7, r7
 553              	.LBE251:
 554              	.LBE254:
 555              		.loc 4 32 0
 556 0116 C4ED018A 		vstr.32	s17, [r4, #4]
 557              	.LVL52:
 558              	.L24:
 559              	.LBB255:
 560              		.loc 4 43 0
 561 011a 4645     		cmp	r6, r8
 562 011c 3AD0     		beq	.L19
 563              	.LVL53:
 564              	.LBB252:
 565              		.loc 4 46 0
 566 011e 2FB1     		cbz	r7, .L28
 567              		.loc 4 47 0
 568 0120 B0EE480A 		vmov.f32	s0, s16
 569 0124 2048     		ldr	r0, .L37+8
 570 0126 FFF7FEFF 		bl	_ZN5VPSFI7FormantEf
ARM GAS  C:\msys64\tmp\ccw9AezN.s 			page 11


 571              	.LVL54:
 572 012a 01E0     		b	.L20
 573              	.LVL55:
 574              	.L28:
 575              		.loc 4 44 0
 576 012c 9FED210A 		vldr.32	s0, .L37+20
 577              	.LVL56:
 578              	.L20:
 579              	.LBB237:
 580              		.loc 4 50 0
 581 0130 EB07     		lsls	r3, r5, #31
 582 0132 07D5     		bpl	.L21
 583              	.LVL57:
 584              	.LBB238:
 585              		.loc 4 53 0
 586 0134 94ED051A 		vldr.32	s2, [r4, #20]
 587 0138 D4ED040A 		vldr.32	s1, [r4, #16]
 588 013c B0EE480A 		vmov.f32	s0, s16
 589              	.LVL58:
 590 0140 FFF75EFF 		bl	_ZN5VPSFI11PhaseShaperEfff.isra.0
 591              	.LVL59:
 592              	.L21:
 593              	.LBE238:
 594              	.LBE237:
 595              	.LBB239:
 596              	.LBB240:
 597              		.loc 1 93 0
 598 0144 38EE288A 		vadd.f32	s16, s16, s17
 599              	.LVL60:
 600              		.loc 1 94 0
 601 0148 FCEEC87A 		vcvt.u32.f32	s15, s16
 602 014c F8EE677A 		vcvt.f32.u32	s15, s15
 603 0150 38EE678A 		vsub.f32	s16, s16, s15
 604              	.LVL61:
 605              	.LBE240:
 606              	.LBE239:
 607              	.LBB241:
 608              	.LBB242:
 609              	.LBB243:
 610              	.LBB244:
 611              	.LBB245:
 612              	.LBB246:
 613              		.loc 3 193 0
 614 0154 FFEE007A 		vmov.f32	s15, #-1.0e+0
 615 0158 B4EEE70A 		vcmpe.f32	s0, s15
 616 015c F1EE10FA 		vmrs	APSR_nzcv, FPSCR
 617 0160 09DB     		blt	.L35
 618              	.LVL62:
 619              	.LBE246:
 620              	.LBE245:
 621              	.LBB248:
 622              	.LBB249:
 623 0162 F7EE007A 		vmov.f32	s15, #1.0e+0
 624              	.LBE249:
 625              	.LBE248:
 626              	.LBB250:
 627              	.LBB247:
ARM GAS  C:\msys64\tmp\ccw9AezN.s 			page 12


 628 0166 B4EEE70A 		vcmpe.f32	s0, s15
 629 016a F1EE10FA 		vmrs	APSR_nzcv, FPSCR
 630 016e A8BF     		it	ge
 631 0170 B0EE670A 		vmovge.f32	s0, s15
 632              	.LVL63:
 633 0174 01E0     		b	.L22
 634              	.LVL64:
 635              	.L35:
 636 0176 B0EE670A 		vmov.f32	s0, s15
 637              	.LVL65:
 638              	.L22:
 639              	.LBE247:
 640              	.LBE250:
 641              	.LBE244:
 642              	.LBE243:
 643              	.LBE242:
 644              	.LBE241:
 645              		.loc 4 63 0
 646 017a 60EE007A 		vmul.f32	s15, s0, s0
 647 017e 9FED0E7A 		vldr.32	s14, .L37+24
 648 0182 60EE677A 		vnmul.f32	s15, s0, s15
 649 0186 A7EE870A 		vfma.f32	s0, s15, s14
 650 018a BEEEE00A 		vcvt.s32.f32	s0, s0, #31
 651 018e A6EC010A 		vstmia.32	r6!, {s0}	@ int
 652              	.LVL66:
 653              	.LBE252:
 654              		.loc 4 43 0
 655 0192 C2E7     		b	.L24
 656              	.LVL67:
 657              	.L19:
 658              	.LBE255:
 659              		.loc 4 68 0
 660 0194 84ED008A 		vstr.32	s16, [r4]
 661              	.LVL68:
 662              		.loc 4 70 0
 663 0198 BDEC028B 		vldm	sp!, {d8}
 664              		.cfi_restore 80
 665              		.cfi_restore 81
 666              		.cfi_def_cfa_offset 24
 667 019c BDE8F081 		pop	{r4, r5, r6, r7, r8, pc}
 668              	.LVL69:
 669              	.L38:
 670              		.align	2
 671              	.L37:
 672 01a0 8180803B 		.word	998277249
 673 01a4 00000000 		.word	midi_to_hz_lut_f
 674 01a8 00000000 		.word	.LANCHOR0
 675 01ac 49FFB846 		.word	1186529097
 676 01b0 3EC3AE37 		.word	934200126
 677 01b4 00000000 		.word	0
 678 01b8 CDCC4C3D 		.word	1028443341
 679              		.cfi_endproc
 680              	.LFE252:
 681              		.size	_hook_cycle, .-_hook_cycle
 682              		.align	1
 683              		.global	_hook_on
 684              		.thumb
ARM GAS  C:\msys64\tmp\ccw9AezN.s 			page 13


 685              		.thumb_func
 686              		.type	_hook_on, %function
 687              	_hook_on:
 688              	.LFB261:
 689              		.cfi_startproc
 690              		@ args = 0, pretend = 0, frame = 0
 691              		@ frame_needed = 0, uses_anonymous_args = 0
 692              		@ link register save eliminated.
 693 01bc 7047     		bx	lr
 694              		.cfi_endproc
 695              	.LFE261:
 696              		.size	_hook_on, .-_hook_on
 697              		.align	1
 698              		.global	_hook_off
 699              		.thumb
 700              		.thumb_func
 701              		.type	_hook_off, %function
 702              	_hook_off:
 703              	.LFB254:
 704              		.loc 4 77 0
 705              		.cfi_startproc
 706              		@ args = 0, pretend = 0, frame = 0
 707              		@ frame_needed = 0, uses_anonymous_args = 0
 708              		@ link register save eliminated.
 709              	.LVL70:
 710 01be 7047     		bx	lr
 711              		.cfi_endproc
 712              	.LFE254:
 713              		.size	_hook_off, .-_hook_off
 714              		.align	1
 715              		.global	_hook_param
 716              		.thumb
 717              		.thumb_func
 718              		.type	_hook_param, %function
 719              	_hook_param:
 720              	.LFB255:
 721              		.loc 4 82 0
 722              		.cfi_startproc
 723              		@ args = 0, pretend = 0, frame = 0
 724              		@ frame_needed = 0, uses_anonymous_args = 0
 725              		@ link register save eliminated.
 726              	.LVL71:
 727              		.loc 4 88 0
 728 01c0 07EE901A 		vmov	s15, r1	@ int
 729 01c4 B8EEE77A 		vcvt.f32.s32	s14, s15
 730 01c8 DFED117A 		vldr.32	s15, .L46
 731              		.loc 4 89 0
 732 01cc 0628     		cmp	r0, #6
 733              		.loc 4 88 0
 734 01ce 67EE277A 		vmul.f32	s15, s14, s15
 735              	.LVL72:
 736              		.loc 4 89 0
 737 01d2 0FD0     		beq	.L43
 738 01d4 0728     		cmp	r0, #7
 739 01d6 11D0     		beq	.L44
 740 01d8 C0B9     		cbnz	r0, .L41
 741              		.loc 4 92 0
ARM GAS  C:\msys64\tmp\ccw9AezN.s 			page 14


 742 01da 0E4B     		ldr	r3, .L46+4
 743 01dc DFED0E7A 		vldr.32	s15, .L46+8
 744              	.LVL73:
 745              		.loc 4 95 0
 746 01e0 1A7B     		ldrb	r2, [r3, #12]	@ zero_extendqisi2
 747              		.loc 4 92 0
 748 01e2 27EE277A 		vmul.f32	s14, s14, s15
 749              	.LVL74:
 750              		.loc 4 95 0
 751 01e6 0221     		movs	r1, #2
 752              	.LVL75:
 753 01e8 61F30102 		bfi	r2, r1, #0, #2
 754              		.loc 4 92 0
 755 01ec 83ED067A 		vstr.32	s14, [r3, #24]
 756              		.loc 4 95 0
 757 01f0 1A73     		strb	r2, [r3, #12]
 758              		.loc 4 96 0
 759 01f2 7047     		bx	lr
 760              	.LVL76:
 761              	.L43:
 762              		.loc 4 110 0
 763 01f4 074B     		ldr	r3, .L46+4
 764 01f6 C3ED047A 		vstr.32	s15, [r3, #16]
 765              		.loc 4 111 0
 766 01fa 7047     		bx	lr
 767              	.L44:
 768              		.loc 4 115 0
 769 01fc 054B     		ldr	r3, .L46+4
 770              		.loc 4 118 0
 771 01fe 1A7B     		ldrb	r2, [r3, #12]	@ zero_extendqisi2
 772              		.loc 4 115 0
 773 0200 C3ED057A 		vstr.32	s15, [r3, #20]
 774              		.loc 4 118 0
 775 0204 0121     		movs	r1, #1
 776              	.LVL77:
 777 0206 61F30102 		bfi	r2, r1, #0, #2
 778 020a 1A73     		strb	r2, [r3, #12]
 779              	.L41:
 780 020c 7047     		bx	lr
 781              	.L47:
 782 020e 00BF     		.align	2
 783              	.L46:
 784 0210 0820803A 		.word	981475336
 785 0214 00000000 		.word	.LANCHOR0
 786 0218 CDCCCC3D 		.word	1036831949
 787              		.cfi_endproc
 788              	.LFE255:
 789              		.size	_hook_param, .-_hook_param
 790              		.section	.text.startup,"ax",%progbits
 791              		.align	1
 792              		.thumb
 793              		.thumb_func
 794              		.type	_GLOBAL__sub_I__hook_init, %function
 795              	_GLOBAL__sub_I__hook_init:
 796              	.LFB257:
 797              		.loc 4 123 0
 798              		.cfi_startproc
ARM GAS  C:\msys64\tmp\ccw9AezN.s 			page 15


 799              		@ args = 0, pretend = 0, frame = 0
 800              		@ frame_needed = 0, uses_anonymous_args = 0
 801              		@ link register save eliminated.
 802              	.LVL78:
 803              	.LBB266:
 804              	.LBB267:
 805              	.LBB268:
 806              	.LBB269:
 807              	.LBB270:
 808              		.loc 1 46 0
 809 0000 084B     		ldr	r3, .L49
 810 0002 0022     		movs	r2, #0
 811 0004 1A60     		str	r2, [r3]	@ float
 812 0006 5A60     		str	r2, [r3, #4]	@ float
 813 0008 9A60     		str	r2, [r3, #8]	@ float
 814 000a 1A7B     		ldrb	r2, [r3, #12]	@ zero_extendqisi2
 815 000c 0121     		movs	r1, #1
 816 000e 61F30102 		bfi	r2, r1, #0, #2
 817 0012 1A73     		strb	r2, [r3, #12]
 818              	.LVL79:
 819              	.LBE270:
 820              	.LBE269:
 821              	.LBB271:
 822              	.LBB272:
 823              		.loc 1 32 0
 824 0014 4FF07C52 		mov	r2, #1056964608
 825 0018 1A61     		str	r2, [r3, #16]	@ float
 826 001a 5A61     		str	r2, [r3, #20]	@ float
 827 001c 4FF07F52 		mov	r2, #1069547520
 828 0020 9A61     		str	r2, [r3, #24]	@ float
 829              	.LVL80:
 830 0022 7047     		bx	lr
 831              	.L50:
 832              		.align	2
 833              	.L49:
 834 0024 00000000 		.word	.LANCHOR0
 835              	.LBE272:
 836              	.LBE271:
 837              	.LBE268:
 838              	.LBE267:
 839              	.LBE266:
 840              		.cfi_endproc
 841              	.LFE257:
 842              		.size	_GLOBAL__sub_I__hook_init, .-_GLOBAL__sub_I__hook_init
 843              		.section	.init_array,"aw",%init_array
 844              		.align	2
 845 0000 00000000 		.word	_GLOBAL__sub_I__hook_init(target1)
 846              		.bss
 847              		.align	2
 848              		.set	.LANCHOR0,. + 0
 849              		.type	_ZL5vpsfi, %object
 850              		.size	_ZL5vpsfi, 28
 851              	_ZL5vpsfi:
 852 0000 00000000 		.space	28
 852      00000000 
 852      00000000 
 852      00000000 
ARM GAS  C:\msys64\tmp\ccw9AezN.s 			page 16


 852      00000000 
 853              		.text
 854              	.Letext0:
 855              		.file 5 "c:\\msys64\\home\\logue-sdk\\tools\\gcc\\gcc-arm-none-eabi-5_4-2016q3\\arm-none-eabi\\inc
 856              		.file 6 "c:\\msys64\\home\\logue-sdk\\tools\\gcc\\gcc-arm-none-eabi-5_4-2016q3\\arm-none-eabi\\inc
 857              		.file 7 "c:\\msys64\\home\\logue-sdk\\platform\\ext\\cmsis\\cmsis\\include\\arm_math.h"
 858              		.file 8 "C:/msys64/home/logue-sdk/platform/nutekt-digital/inc/userosc.h"
 859              		.file 9 "C:/msys64/home/logue-sdk/platform/nutekt-digital/inc/userprg.h"
 860              		.file 10 "C:/msys64/home/logue-sdk/platform/nutekt-digital/inc/utils/int_math.h"