ARM GAS  C:\msys64\tmp\cc9UWKA0.s 			page 1


   1              		.syntax unified
   2              		.cpu cortex-m4
   3              		.eabi_attribute 27, 1
   4              		.eabi_attribute 28, 1
   5              		.fpu fpv4-sp-d16
   6              		.eabi_attribute 20, 1
   7              		.eabi_attribute 21, 1
   8              		.eabi_attribute 23, 3
   9              		.eabi_attribute 24, 1
  10              		.eabi_attribute 25, 1
  11              		.eabi_attribute 26, 1
  12              		.eabi_attribute 30, 4
  13              		.eabi_attribute 34, 1
  14              		.eabi_attribute 18, 4
  15              		.thumb
  16              		.syntax unified
  17              		.file	"vpsf_1.cpp"
  18              		.text
  19              	.Ltext0:
  20              		.cfi_sections	.debug_frame
  21              		.align	1
  22              		.global	_hook_init
  23              		.thumb
  24              		.thumb_func
  25              		.type	_hook_init, %function
  26              	_hook_init:
  27              	.LFB294:
  28              		.file 1 "vpsf_1.cpp"
  29              		.loc 1 14 0
  30              		.cfi_startproc
  31              		@ args = 0, pretend = 0, frame = 0
  32              		@ frame_needed = 0, uses_anonymous_args = 0
  33              		@ link register save eliminated.
  34              	.LVL0:
  35 0000 7047     		bx	lr
  36              		.cfi_endproc
  37              	.LFE294:
  38              		.size	_hook_init, .-_hook_init
  39              		.align	1
  40              		.global	_hook_cycle
  41              		.thumb
  42              		.thumb_func
  43              		.type	_hook_cycle, %function
  44              	_hook_cycle:
  45              	.LFB295:
  46              		.loc 1 19 0
  47              		.cfi_startproc
  48              		@ args = 0, pretend = 0, frame = 0
  49              		@ frame_needed = 0, uses_anonymous_args = 0
  50              	.LVL1:
  51              		.loc 1 25 0
  52 0002 B04B     		ldr	r3, .L33
  53 0004 9FEDB05A 		vldr.32	s10, .L33+4
  54              	.LBB234:
  55              	.LBB235:
  56              	.LBB236:
  57              	.LBB237:
ARM GAS  C:\msys64\tmp\cc9UWKA0.s 			page 2


  58              		.file 2 "C:/msys64/home/logue-sdk/platform/nutekt-digital/inc/utils/float_math.h"
  59              		.loc 2 826 0
  60 0008 9FEDB07A 		vldr.32	s14, .L33+8
  61              	.LBE237:
  62              	.LBE236:
  63              	.LBE235:
  64              	.LBE234:
  65              	.LBB277:
  66              	.LBB278:
  67              		.file 3 "vpsf_1.hpp"
  68              		.loc 3 71 0
  69 000c 93ED076A 		vldr.32	s12, [r3, #28]
  70              	.LBB279:
  71              	.LBB280:
  72              		.file 4 "C:/msys64/home/logue-sdk/platform/nutekt-digital/inc/osc_api.h"
  73              		.loc 4 615 0
  74 0010 9FEDAF4A 		vldr.32	s8, .L33+12
  75              	.LBE280:
  76              	.LBE279:
  77              	.LBE278:
  78              	.LBE277:
  79              	.LBB361:
  80              	.LBB362:
  81              	.LBB363:
  82              	.LBB364:
  83              		.loc 3 85 0
  84 0014 D3ED043A 		vldr.32	s7, [r3, #16]
  85              		.loc 3 86 0
  86 0018 93ED052A 		vldr.32	s4, [r3, #20]
  87              	.LBE364:
  88              	.LBE363:
  89              		.loc 1 64 0
  90 001c 9FEDAD0A 		vldr.32	s0, .L33+16
  91              	.LBE362:
  92              	.LBE361:
  93              		.loc 1 19 0
  94 0020 70B5     		push	{r4, r5, r6, lr}
  95              		.cfi_def_cfa_offset 16
  96              		.cfi_offset 4, -16
  97              		.cfi_offset 5, -12
  98              		.cfi_offset 6, -8
  99              		.cfi_offset 14, -4
 100              		.loc 1 25 0
 101 0022 1C7B     		ldrb	r4, [r3, #12]	@ zero_extendqisi2
 102              	.LVL2:
 103              		.loc 1 31 0
 104 0024 14F0010F 		tst	r4, #1
 105              		.loc 1 28 0
 106 0028 2546     		mov	r5, r4
 107              		.loc 1 36 0
 108 002a 8488     		ldrh	r4, [r0, #4]
 109              	.LVL3:
 110 002c 4FEA2420 		asr	r0, r4, #8
 111              	.LVL4:
 112              		.loc 1 19 0
 113 0030 2DED068B 		vpush.64	{d8, d9, d10}
 114              		.cfi_def_cfa_offset 40
ARM GAS  C:\msys64\tmp\cc9UWKA0.s 			page 3


 115              		.cfi_offset 80, -40
 116              		.cfi_offset 81, -36
 117              		.cfi_offset 82, -32
 118              		.cfi_offset 83, -28
 119              		.cfi_offset 84, -24
 120              		.cfi_offset 85, -20
 121              		.loc 1 28 0
 122 0034 6FF30005 		bfc	r5, #0, #1
 123              	.LBB435:
 124              	.LBB436:
 125              		.loc 3 55 0
 126 0038 18BF     		it	ne
 127 003a 83ED005A 		vstrne.32	s10, [r3]
 128              	.LBE436:
 129              	.LBE435:
 130              	.LBB437:
 131              	.LBB268:
 132              	.LBB242:
 133              	.LBB243:
 134              		.loc 4 109 0
 135 003e 9628     		cmp	r0, #150
 136              	.LBE243:
 137              	.LBE242:
 138              	.LBE268:
 139              	.LBE437:
 140              		.loc 1 28 0
 141 0040 1D73     		strb	r5, [r3, #12]
 142              		.loc 1 39 0
 143 0042 E4B2     		uxtb	r4, r4
 144              	.LBB438:
 145              	.LBB269:
 146              	.LBB248:
 147              	.LBB244:
 148              		.loc 4 109 0
 149 0044 D8BF     		it	le
 150 0046 0546     		movle	r5, r0
 151              	.LBE244:
 152              	.LBE248:
 153              		.loc 4 120 0
 154 0048 00F10100 		add	r0, r0, #1
 155              	.LVL5:
 156 004c C0B2     		uxtb	r0, r0
 157              	.LVL6:
 158              	.LBE269:
 159              	.LBE438:
 160              		.loc 1 39 0
 161 004e 07EE904A 		vmov	s15, r4	@ int
 162              	.LVL7:
 163              	.LBB439:
 164              	.LBB270:
 165              	.LBB249:
 166              	.LBB245:
 167              		.loc 4 109 0
 168 0052 C8BF     		it	gt
 169 0054 9725     		movgt	r5, #151
 170              	.LVL8:
 171 0056 A04C     		ldr	r4, .L33+20
ARM GAS  C:\msys64\tmp\cc9UWKA0.s 			page 4


 172              	.LVL9:
 173              	.LBE245:
 174              	.LBE249:
 175              	.LBE270:
 176              	.LBE439:
 177              	.LBB440:
 178              	.LBB350:
 179              	.LBB288:
 180              	.LBB289:
 181              		.file 5 "c:\\msys64\\home\\logue-sdk\\platform\\nutekt-digital\\inc\\dsp\\biquad.hpp"
 182              		.loc 5 143 0
 183 0058 83ED0A5A 		vstr.32	s10, [r3, #40]
 184              	.LBE289:
 185              	.LBE288:
 186              	.LBE350:
 187              	.LBE440:
 188              	.LBB441:
 189              	.LBB271:
 190              	.LBB250:
 191              	.LBB251:
 192              		.loc 4 109 0
 193 005c 9628     		cmp	r0, #150
 194 005e 88BF     		it	hi
 195 0060 9720     		movhi	r0, #151
 196              	.LBE251:
 197              	.LBE250:
 198              	.LBB253:
 199              	.LBB238:
 200              		.loc 2 826 0
 201 0062 F8EEE77A 		vcvt.f32.s32	s15, s15
 202              	.LVL10:
 203              	.LBE238:
 204              	.LBE253:
 205              	.LBB254:
 206              	.LBB246:
 207              		.loc 4 109 0
 208 0066 04EB8505 		add	r5, r4, r5, lsl #2
 209              	.LBE246:
 210              	.LBE254:
 211              	.LBB255:
 212              	.LBB252:
 213 006a 04EB8000 		add	r0, r4, r0, lsl #2
 214              	.LBE252:
 215              	.LBE255:
 216              	.LBB256:
 217              	.LBB247:
 218 006e D5ED005A 		vldr.32	s11, [r5]
 219              	.LVL11:
 220              	.LBE247:
 221              	.LBE256:
 222              	.LBE271:
 223              	.LBE441:
 224              	.LBB442:
 225              	.LBB351:
 226              	.LBB294:
 227              	.LBB290:
 228              		.loc 5 143 0
ARM GAS  C:\msys64\tmp\cc9UWKA0.s 			page 5


 229 0072 83ED0C5A 		vstr.32	s10, [r3, #48]
 230              	.LBE290:
 231              	.LBE294:
 232              	.LBE351:
 233              	.LBE442:
 234              	.LBB443:
 235              	.LBB272:
 236              	.LBB257:
 237              	.LBB239:
 238              		.loc 2 826 0
 239 0076 67EE877A 		vmul.f32	s15, s15, s14
 240 007a 90ED007A 		vldr.32	s14, [r0]
 241              	.LBE239:
 242              	.LBE257:
 243              	.LBE272:
 244              	.LBE443:
 245              	.LBB444:
 246              	.LBB352:
 247              	.LBB295:
 248              	.LBB285:
 249              		.loc 4 617 0
 250 007e 9748     		ldr	r0, .L33+24
 251              	.LBE285:
 252              	.LBE295:
 253              	.LBB296:
 254              	.LBB297:
 255              		.loc 5 159 0
 256 0080 83ED115A 		vstr.32	s10, [r3, #68]
 257              	.LBE297:
 258              	.LBE296:
 259              	.LBE352:
 260              	.LBE444:
 261              	.LBB445:
 262              	.LBB273:
 263              	.LBB258:
 264              	.LBB240:
 265              		.loc 2 826 0
 266 0084 37EE657A 		vsub.f32	s14, s14, s11
 267              	.LBE240:
 268              	.LBE258:
 269              	.LBE273:
 270              	.LBE445:
 271              	.LBB446:
 272              	.LBB353:
 273              	.LBB300:
 274              	.LBB298:
 275              		.loc 5 159 0
 276 0088 83ED135A 		vstr.32	s10, [r3, #76]
 277              	.LBE298:
 278              	.LBE300:
 279              	.LBE353:
 280              	.LBE446:
 281              	.LBB447:
 282              	.LBB274:
 283              	.LBB259:
 284              	.LBB241:
 285              		.loc 2 826 0
ARM GAS  C:\msys64\tmp\cc9UWKA0.s 			page 6


 286 008c E7EE875A 		vfma.f32	s11, s15, s14
 287              	.LVL12:
 288              	.LBE241:
 289              	.LBE259:
 290              	.LBE274:
 291              	.LBE447:
 292              		.loc 1 52 0
 293 0090 01EB8202 		add	r2, r1, r2, lsl #2
 294              	.LVL13:
 295              	.LBB448:
 296              	.LBB275:
 297              	.LBB260:
 298              	.LBB261:
 299              	.LBB262:
 300              	.LBB263:
 301              		.loc 2 193 0
 302 0094 DFED927A 		vldr.32	s15, .L33+28
 303              	.LBE263:
 304              	.LBE262:
 305              	.LBE261:
 306              	.LBE260:
 307              	.LBE275:
 308              	.LBE448:
 309              	.LBB449:
 310              	.LBB429:
 311              	.LBB403:
 312              	.LBB399:
 313              	.LBB365:
 314              	.LBB366:
 315              	.LBB367:
 316              	.LBB368:
 317              		.loc 4 154 0
 318 0098 9FED929A 		vldr.32	s18, .L33+32
 319              	.LBE368:
 320              	.LBE367:
 321              	.LBE366:
 322              	.LBE365:
 323              	.LBE399:
 324              	.LBE403:
 325              		.loc 1 64 0
 326 009c 9FED928A 		vldr.32	s16, .L33+36
 327              	.LBE429:
 328              	.LBE449:
 329              	.LBB450:
 330              	.LBB276:
 331              	.LBB267:
 332              	.LBB266:
 333              	.LBB265:
 334              	.LBB264:
 335              		.loc 2 193 0
 336 00a0 F4EEE75A 		vcmpe.f32	s11, s15
 337 00a4 F1EE10FA 		vmrs	APSR_nzcv, FPSCR
 338 00a8 A8BF     		it	ge
 339 00aa F0EE675A 		vmovge.f32	s11, s15
 340              	.LVL14:
 341              	.LBE264:
 342              	.LBE265:
ARM GAS  C:\msys64\tmp\cc9UWKA0.s 			page 7


 343              	.LBE266:
 344              	.LBE267:
 345              		.loc 4 124 0
 346 00ae DFED8F7A 		vldr.32	s15, .L33+40
 347 00b2 65EEA75A 		vmul.f32	s11, s11, s15
 348              	.LVL15:
 349              	.LBE276:
 350              	.LBE450:
 351              	.LBB451:
 352              	.LBB354:
 353              	.LBB301:
 354              	.LBB302:
 355              	.LBB303:
 356              	.LBB304:
 357              	.LBB305:
 358              		.loc 2 193 0
 359 00b6 DFED8E7A 		vldr.32	s15, .L33+44
 360              	.LBE305:
 361              	.LBE304:
 362              	.LBE303:
 363              	.LBE302:
 364              	.LBE301:
 365              	.LBE354:
 366              	.LBE451:
 367              		.loc 1 39 0
 368 00ba C3ED015A 		vstr.32	s11, [r3, #4]
 369              	.LVL16:
 370              	.LBB452:
 371              	.LBB355:
 372              		.loc 3 72 0
 373 00be 25EE867A 		vmul.f32	s14, s11, s12
 374              	.LVL17:
 375              	.LBE355:
 376              	.LBE452:
 377              	.LBB453:
 378              	.LBB430:
 379              	.LBB404:
 380              	.LBB400:
 381              	.LBB386:
 382              	.LBB383:
 383              		.loc 4 171 0
 384 00c2 F5EE008A 		vmov.f32	s17, #2.5e-1
 385              	.LBE383:
 386              	.LBE386:
 387              	.LBE400:
 388              	.LBE404:
 389              	.LBE430:
 390              	.LBE453:
 391              	.LBB454:
 392              	.LBB356:
 393              	.LBB318:
 394              	.LBB315:
 395              	.LBB312:
 396              	.LBB309:
 397              	.LBB306:
 398              		.loc 2 193 0
 399 00c6 77EE676A 		vsub.f32	s13, s14, s15
ARM GAS  C:\msys64\tmp\cc9UWKA0.s 			page 8


 400              	.LVL18:
 401              	.LBE306:
 402              	.LBE309:
 403              	.LBE312:
 404              	.LBE315:
 405              	.LBE318:
 406              	.LBE356:
 407              	.LBE454:
 408              	.LBB455:
 409              	.LBB431:
 410              	.LBB405:
 411              	.LBB406:
 412              	.LBB407:
 413              	.LBB408:
 414              	.LBB409:
 415              	.LBB410:
 416 00ca FFEE009A 		vmov.f32	s19, #-1.0e+0
 417              	.LBE410:
 418              	.LBE409:
 419              	.LBE408:
 420              	.LBE407:
 421              	.LBE406:
 422              	.LBE405:
 423              	.LBE431:
 424              	.LBE455:
 425              	.LBB456:
 426              	.LBB357:
 427              	.LBB319:
 428              	.LBB316:
 429              	.LBB313:
 430              	.LBB310:
 431              	.LBB307:
 432 00ce F5EEC06A 		vcmpe.f32	s13, #0
 433 00d2 F1EE10FA 		vmrs	APSR_nzcv, FPSCR
 434              	.LBE307:
 435              	.LBE310:
 436              	.LBE313:
 437              	.LBE316:
 438              	.LBE319:
 439              		.loc 3 73 0
 440 00d6 F7EE006A 		vmov.f32	s13, #1.0e+0
 441              	.LVL19:
 442              	.LBB320:
 443              	.LBB317:
 444              	.LBB314:
 445              	.LBB311:
 446              	.LBB308:
 447              		.loc 2 193 0
 448 00da B8BF     		it	lt
 449 00dc F0EE477A 		vmovlt.f32	s15, s14
 450              	.LVL20:
 451              	.LBE308:
 452              	.LBE311:
 453              	.LBE314:
 454              	.LBE317:
 455              	.LBE320:
 456              		.loc 3 73 0
ARM GAS  C:\msys64\tmp\cc9UWKA0.s 			page 9


 457 00e0 86EE867A 		vdiv.f32	s14, s13, s12
 458              	.LBB321:
 459              	.LBB286:
 460              		.loc 4 615 0
 461 00e4 67EE847A 		vmul.f32	s15, s15, s8
 462              	.LBE286:
 463              	.LBE321:
 464              		.loc 3 73 0
 465 00e8 27EE256A 		vmul.f32	s12, s14, s11
 466              	.LVL21:
 467              	.LBE357:
 468              	.LBE456:
 469              	.LBB457:
 470              	.LBB432:
 471              	.LBB421:
 472              	.LBB419:
 473              	.LBB417:
 474              	.LBB415:
 475              	.LBB413:
 476              	.LBB411:
 477              		.loc 2 193 0
 478 00ec B0EE66AA 		vmov.f32	s20, s13
 479              	.LBE411:
 480              	.LBE413:
 481              	.LBE415:
 482              	.LBE417:
 483              	.LBE419:
 484              	.LBE421:
 485              	.LBE432:
 486              	.LBE457:
 487              	.LBB458:
 488              	.LBB358:
 489              	.LBB322:
 490              	.LBB323:
 491              	.LBB324:
 492              	.LBB325:
 493              	.LBB326:
 494 00f0 35EE467A 		vsub.f32	s14, s10, s12
 495              	.LVL22:
 496 00f4 93ED025A 		vldr.32	s10, [r3, #8]
 497 00f8 B5EEC07A 		vcmpe.f32	s14, #0
 498 00fc 9FED727A 		vldr.32	s14, .L33+4
 499              	.LVL23:
 500 0100 F1EE10FA 		vmrs	APSR_nzcv, FPSCR
 501 0104 B8BF     		it	lt
 502 0106 B0EE467A 		vmovlt.f32	s14, s12
 503              	.LVL24:
 504              	.LBE326:
 505              	.LBE325:
 506              	.LBE324:
 507              	.LBE323:
 508              	.LBE322:
 509              	.LBB327:
 510              	.LBB287:
 511              		.loc 4 616 0
 512 010a BCEEE76A 		vcvt.u32.f32	s12, s15
 513 010e 16EE104A 		vmov	r4, s12	@ int
ARM GAS  C:\msys64\tmp\cc9UWKA0.s 			page 10


 514              	.LVL25:
 515              	.LBB281:
 516              	.LBB282:
 517              		.loc 2 826 0
 518 0112 04EE904A 		vmov	s9, r4	@ int
 519 0116 F8EE644A 		vcvt.f32.u32	s9, s9
 520              	.LBE282:
 521              	.LBE281:
 522              		.loc 4 617 0
 523 011a 00EB8405 		add	r5, r0, r4, lsl #2
 524 011e 95ED006A 		vldr.32	s12, [r5]
 525              	.LVL26:
 526              	.LBB284:
 527              	.LBB283:
 528              		.loc 2 826 0
 529 0122 77EEE47A 		vsub.f32	s15, s15, s9
 530              	.LVL27:
 531 0126 D5ED014A 		vldr.32	s9, [r5, #4]
 532 012a 74EEC64A 		vsub.f32	s9, s9, s12
 533 012e A7EEA46A 		vfma.f32	s12, s15, s9
 534              	.LVL28:
 535 0132 D3ED144A 		vldr.32	s9, [r3, #80]
 536              	.LBE283:
 537              	.LBE284:
 538              	.LBE287:
 539              	.LBE327:
 540              	.LBB328:
 541              	.LBB291:
 542              		.loc 5 139 0
 543 0136 76EE267A 		vadd.f32	s15, s12, s13
 544              	.LVL29:
 545              		.loc 5 141 0
 546 013a 86EE273A 		vdiv.f32	s6, s12, s15
 547              		.loc 5 142 0
 548 013e 36EE666A 		vsub.f32	s12, s12, s13
 549              		.loc 5 141 0
 550 0142 83ED093A 		vstr.32	s6, [r3, #36]
 551              		.loc 5 142 0
 552 0146 C6EE271A 		vdiv.f32	s3, s12, s15
 553              	.LBE291:
 554              	.LBE328:
 555              	.LBB329:
 556              	.LBB330:
 557              		.loc 4 615 0
 558 014a 67EE047A 		vmul.f32	s15, s14, s8
 559              	.LVL30:
 560 014e 93ED0D4A 		vldr.32	s8, [r3, #52]
 561              	.LBE330:
 562              	.LBE329:
 563              	.LBB343:
 564              	.LBB292:
 565              		.loc 5 141 0
 566 0152 83ED083A 		vstr.32	s6, [r3, #32]
 567              	.LBE292:
 568              	.LBE343:
 569              	.LBB344:
 570              	.LBB339:
ARM GAS  C:\msys64\tmp\cc9UWKA0.s 			page 11


 571              		.loc 4 616 0
 572 0156 BCEEE77A 		vcvt.u32.f32	s14, s15
 573              	.LBE339:
 574              	.LBE344:
 575              	.LBB345:
 576              	.LBB293:
 577              		.loc 5 142 0
 578 015a C3ED0B1A 		vstr.32	s3, [r3, #44]
 579              	.LBE293:
 580              	.LBE345:
 581              	.LBB346:
 582              	.LBB340:
 583              		.loc 4 616 0
 584 015e 17EE104A 		vmov	r4, s14	@ int
 585              	.LVL31:
 586              	.LBB331:
 587              	.LBB332:
 588              		.loc 2 826 0
 589 0162 06EE104A 		vmov	s12, r4	@ int
 590 0166 B8EE466A 		vcvt.f32.u32	s12, s12
 591              	.LBE332:
 592              	.LBE331:
 593              		.loc 4 617 0
 594 016a 00EB8405 		add	r5, r0, r4, lsl #2
 595 016e 95ED007A 		vldr.32	s14, [r5]
 596              	.LVL32:
 597              	.LBB336:
 598              	.LBB333:
 599              		.loc 2 826 0
 600 0172 77EEC67A 		vsub.f32	s15, s15, s12
 601              	.LVL33:
 602 0176 95ED016A 		vldr.32	s12, [r5, #4]
 603              	.LBE333:
 604              	.LBE336:
 605              	.LBE340:
 606              	.LBE346:
 607              	.LBE358:
 608              	.LBE458:
 609              	.LBB459:
 610              	.LBB433:
 611              	.LBB422:
 612              	.LBB401:
 613              	.LBB387:
 614              	.LBB384:
 615              	.LBB381:
 616              	.LBB379:
 617              		.loc 4 160 0
 618 017a 5E4D     		ldr	r5, .L33+48
 619              	.LBE379:
 620              	.LBE381:
 621              	.LBE384:
 622              	.LBE387:
 623              	.LBE401:
 624              	.LBE422:
 625              	.LBE433:
 626              	.LBE459:
 627              	.LBB460:
ARM GAS  C:\msys64\tmp\cc9UWKA0.s 			page 12


 628              	.LBB359:
 629              	.LBB347:
 630              	.LBB341:
 631              	.LBB337:
 632              	.LBB334:
 633              		.loc 2 826 0
 634 017c 36EE476A 		vsub.f32	s12, s12, s14
 635 0180 A7EE867A 		vfma.f32	s14, s15, s12
 636              	.LVL34:
 637              	.LBE334:
 638              	.LBE337:
 639              	.LBE341:
 640              	.LBE347:
 641              	.LBE359:
 642              	.LBE460:
 643              		.loc 1 45 0
 644 0184 93ED006A 		vldr.32	s12, [r3]
 645              	.LBB461:
 646              	.LBB360:
 647              	.LBB348:
 648              	.LBB342:
 649              	.LBB338:
 650              	.LBB335:
 651              		.loc 2 826 0
 652 0188 F0EE477A 		vmov.f32	s15, s14
 653              	.LVL35:
 654              	.LBE335:
 655              	.LBE338:
 656              	.LBE342:
 657              	.LBE348:
 658              	.LBB349:
 659              	.LBB299:
 660              		.loc 5 154 0
 661 018c 37EE267A 		vadd.f32	s14, s14, s13
 662              	.LVL36:
 663              		.loc 5 158 0
 664 0190 77EEE67A 		vsub.f32	s15, s15, s13
 665              		.loc 5 156 0
 666 0194 C6EE872A 		vdiv.f32	s5, s13, s14
 667              		.loc 5 158 0
 668 0198 C7EE870A 		vdiv.f32	s1, s15, s14
 669              		.loc 5 157 0
 670 019c B1EE621A 		vneg.f32	s2, s5
 671              		.loc 5 156 0
 672 01a0 C3ED0F2A 		vstr.32	s5, [r3, #60]
 673              		.loc 5 157 0
 674 01a4 83ED101A 		vstr.32	s2, [r3, #64]
 675              		.loc 5 158 0
 676 01a8 C3ED120A 		vstr.32	s1, [r3, #72]
 677              	.LVL37:
 678              	.L16:
 679              	.LBE299:
 680              	.LBE349:
 681              	.LBE360:
 682              	.LBE461:
 683              	.LBB462:
 684              		.loc 1 55 0
ARM GAS  C:\msys64\tmp\cc9UWKA0.s 			page 13


 685 01ac 9142     		cmp	r1, r2
 686 01ae 7ED0     		beq	.L9
 687              	.LVL38:
 688              	.LBB434:
 689              	.LBB423:
 690              	.LBB402:
 691              		.loc 3 89 0
 692 01b0 F4EEC63A 		vcmpe.f32	s7, s12
 693 01b4 F1EE10FA 		vmrs	APSR_nzcv, FPSCR
 694 01b8 04DD     		ble	.L30
 695              		.loc 3 90 0
 696 01ba 86EE237A 		vdiv.f32	s14, s12, s7
 697              	.LVL39:
 698              		.loc 3 91 0
 699 01be 22EE077A 		vmul.f32	s14, s4, s14
 700              	.LVL40:
 701 01c2 0DE0     		b	.L12
 702              	.LVL41:
 703              	.L30:
 704              		.loc 3 93 0
 705 01c4 76EE637A 		vsub.f32	s15, s12, s7
 706              		.loc 3 94 0
 707 01c8 76EEE3AA 		vsub.f32	s21, s13, s7
 708 01cc 87EEAA7A 		vdiv.f32	s14, s15, s21
 709              	.LVL42:
 710              		.loc 3 96 0
 711 01d0 76EEC27A 		vsub.f32	s15, s13, s4
 712 01d4 F0EE42AA 		vmov.f32	s21, s4
 713 01d8 E7EE27AA 		vfma.f32	s21, s14, s15
 714 01dc B0EE6A7A 		vmov.f32	s14, s21
 715              	.LVL43:
 716              	.L12:
 717              	.LBB388:
 718              	.LBB385:
 719              		.loc 4 171 0
 720 01e0 37EE287A 		vadd.f32	s14, s14, s17
 721              	.LVL44:
 722              	.LBB382:
 723              	.LBB380:
 724              		.loc 4 154 0
 725 01e4 FCEEC77A 		vcvt.u32.f32	s15, s14
 726 01e8 F8EE677A 		vcvt.f32.u32	s15, s15
 727 01ec 77EE677A 		vsub.f32	s15, s14, s15
 728 01f0 67EE897A 		vmul.f32	s15, s15, s18
 729              	.LVL45:
 730              		.loc 4 155 0
 731 01f4 BCEEE77A 		vcvt.u32.f32	s14, s15
 732              	.LVL46:
 733 01f8 17EE104A 		vmov	r4, s14	@ int
 734              	.LVL47:
 735              		.loc 4 157 0
 736 01fc 04F07F00 		and	r0, r4, #127
 737              	.LVL48:
 738              	.LBB369:
 739              	.LBB370:
 740              		.loc 2 826 0
 741 0200 0AEE904A 		vmov	s21, r4	@ int
ARM GAS  C:\msys64\tmp\cc9UWKA0.s 			page 14


 742              	.LBE370:
 743              	.LBE369:
 744              		.loc 4 160 0
 745 0204 05EB8006 		add	r6, r5, r0, lsl #2
 746 0208 0130     		adds	r0, r0, #1
 747              	.LVL49:
 748              	.LBB375:
 749              	.LBB371:
 750              		.loc 2 826 0
 751 020a F8EE6AAA 		vcvt.f32.u32	s21, s21
 752              	.LBE371:
 753              	.LBE375:
 754              		.loc 4 160 0
 755 020e 00F07F00 		and	r0, r0, #127
 756              	.LVL50:
 757 0212 05EB8000 		add	r0, r5, r0, lsl #2
 758              	.LVL51:
 759              	.LBB376:
 760              	.LBB372:
 761              		.loc 2 826 0
 762 0216 77EEEA7A 		vsub.f32	s15, s15, s21
 763              	.LVL52:
 764              	.LBE372:
 765              	.LBE376:
 766              		.loc 4 160 0
 767 021a 96ED007A 		vldr.32	s14, [r6]
 768              	.LVL53:
 769              	.LBB377:
 770              	.LBB373:
 771              		.loc 2 826 0
 772 021e D0ED00AA 		vldr.32	s21, [r0]
 773 0222 7AEEC7AA 		vsub.f32	s21, s21, s14
 774              	.LBE373:
 775              	.LBE377:
 776              		.loc 4 161 0
 777 0226 7F2C     		cmp	r4, #127
 778              	.LBB378:
 779              	.LBB374:
 780              		.loc 2 826 0
 781 0228 A7EEAA7A 		vfma.f32	s14, s15, s21
 782              	.LVL54:
 783 022c F0EE477A 		vmov.f32	s15, s14
 784              	.LVL55:
 785              	.LBE374:
 786              	.LBE378:
 787              		.loc 4 161 0
 788 0230 88BF     		it	hi
 789 0232 F1EE477A 		vneghi.f32	s15, s14
 790              	.LVL56:
 791              	.LBE380:
 792              	.LBE382:
 793              	.LBE385:
 794              	.LBE388:
 795              		.loc 3 99 0
 796 0236 F1EE677A 		vneg.f32	s15, s15
 797              	.LVL57:
 798              	.LBB389:
ARM GAS  C:\msys64\tmp\cc9UWKA0.s 			page 15


 799              	.LBB390:
 800              		.loc 5 385 0
 801 023a B0EE447A 		vmov.f32	s14, s8
 802 023e A3EE277A 		vfma.f32	s14, s6, s15
 803              	.LVL58:
 804              		.loc 5 387 0
 805 0242 27EE614A 		vnmul.f32	s8, s14, s3
 806 0246 A3EE274A 		vfma.f32	s8, s6, s15
 807              	.LVL59:
 808              	.LBE390:
 809              	.LBE389:
 810              	.LBB391:
 811              	.LBB392:
 812              		.loc 5 385 0
 813 024a F0EE647A 		vmov.f32	s15, s9
 814 024e E2EE877A 		vfma.f32	s15, s5, s14
 815              	.LVL60:
 816              		.loc 5 387 0
 817 0252 67EEE04A 		vnmul.f32	s9, s15, s1
 818              	.LBE392:
 819              	.LBE391:
 820              	.LBB394:
 821              	.LBB395:
 822              		.loc 2 826 0
 823 0256 77EEC57A 		vsub.f32	s15, s15, s10
 824              	.LVL61:
 825              	.LBE395:
 826              	.LBE394:
 827              	.LBB397:
 828              	.LBB393:
 829              		.loc 5 387 0
 830 025a E1EE074A 		vfma.f32	s9, s2, s14
 831              	.LVL62:
 832              	.LBE393:
 833              	.LBE397:
 834              	.LBB398:
 835              	.LBB396:
 836              		.loc 2 826 0
 837 025e A6EE275A 		vfma.f32	s10, s12, s15
 838              	.LVL63:
 839              	.LBE396:
 840              	.LBE398:
 841              	.LBE402:
 842              	.LBE423:
 843              	.LBB424:
 844              	.LBB420:
 845              	.LBB418:
 846              	.LBB416:
 847              	.LBB414:
 848              	.LBB412:
 849              		.loc 2 193 0
 850 0262 B4EEE95A 		vcmpe.f32	s10, s19
 851 0266 F1EE10FA 		vmrs	APSR_nzcv, FPSCR
 852 026a 09DB     		blt	.L31
 853              	.LVL64:
 854 026c B4EEE65A 		vcmpe.f32	s10, s13
 855 0270 F1EE10FA 		vmrs	APSR_nzcv, FPSCR
ARM GAS  C:\msys64\tmp\cc9UWKA0.s 			page 16


 856 0274 B4BF     		ite	lt
 857 0276 F0EE457A 		vmovlt.f32	s15, s10
 858 027a F0EE4A7A 		vmovge.f32	s15, s20
 859 027e 01E0     		b	.L14
 860              	.LVL65:
 861              	.L31:
 862 0280 FFEE007A 		vmov.f32	s15, #-1.0e+0
 863              	.LVL66:
 864              	.L14:
 865              	.LBE412:
 866              	.LBE414:
 867              	.LBE416:
 868              	.LBE418:
 869              	.LBE420:
 870              	.LBE424:
 871              		.loc 1 64 0
 872 0284 27EEA77A 		vmul.f32	s14, s15, s15
 873              	.LBB425:
 874              	.LBB426:
 875              		.loc 3 80 0
 876 0288 36EE256A 		vadd.f32	s12, s12, s11
 877              	.LVL67:
 878              	.LBE426:
 879              	.LBE425:
 880              		.loc 1 64 0
 881 028c 27EEC77A 		vnmul.f32	s14, s15, s14
 882 0290 E7EE087A 		vfma.f32	s15, s14, s16
 883 0294 67EE807A 		vmul.f32	s15, s15, s0
 884 0298 FDEEE77A 		vcvt.s32.f32	s15, s15
 885 029c E1EC017A 		vstmia.32	r1!, {s15}	@ int
 886              	.LVL68:
 887              	.LBB428:
 888              	.LBB427:
 889              		.loc 3 81 0
 890 02a0 FCEEC67A 		vcvt.u32.f32	s15, s12
 891 02a4 F8EE677A 		vcvt.f32.u32	s15, s15
 892 02a8 36EE676A 		vsub.f32	s12, s12, s15
 893              	.LVL69:
 894 02ac 7EE7     		b	.L16
 895              	.LVL70:
 896              	.L9:
 897              	.LBE427:
 898              	.LBE428:
 899              	.LBE434:
 900              	.LBE462:
 901              		.loc 1 73 0
 902 02ae BDEC068B 		vldm	sp!, {d8-d10}
 903              		.cfi_restore 84
 904              		.cfi_restore 85
 905              		.cfi_restore 82
 906              		.cfi_restore 83
 907              		.cfi_restore 80
 908              		.cfi_restore 81
 909              		.cfi_def_cfa_offset 16
 910 02b2 83ED0D4A 		vstr.32	s8, [r3, #52]
 911 02b6 C3ED144A 		vstr.32	s9, [r3, #80]
 912 02ba 83ED025A 		vstr.32	s10, [r3, #8]
ARM GAS  C:\msys64\tmp\cc9UWKA0.s 			page 17


 913              		.loc 1 71 0
 914 02be 83ED006A 		vstr.32	s12, [r3]
 915              	.LVL71:
 916              		.loc 1 73 0
 917 02c2 70BD     		pop	{r4, r5, r6, pc}
 918              	.L34:
 919              		.align	2
 920              	.L33:
 921 02c4 00000000 		.word	.LANCHOR0
 922 02c8 00000000 		.word	0
 923 02cc 8180803B 		.word	998277249
 924 02d0 BC9C0244 		.word	1141021884
 925 02d4 0000004F 		.word	1325400064
 926 02d8 00000000 		.word	midi_to_hz_lut_f
 927 02dc 00000000 		.word	tanpi_lut_f
 928 02e0 49FFB846 		.word	1186529097
 929 02e4 00008043 		.word	1132462080
 930 02e8 CDCC4C3C 		.word	1011666125
 931 02ec 3EC3AE37 		.word	934200126
 932 02f0 48E1FA3E 		.word	1056629064
 933 02f4 00000000 		.word	wt_sine_lut_f
 934              		.cfi_endproc
 935              	.LFE295:
 936              		.size	_hook_cycle, .-_hook_cycle
 937              		.align	1
 938              		.global	_hook_on
 939              		.thumb
 940              		.thumb_func
 941              		.type	_hook_on, %function
 942              	_hook_on:
 943              	.LFB296:
 944              		.loc 1 75 0
 945              		.cfi_startproc
 946              		@ args = 0, pretend = 0, frame = 0
 947              		@ frame_needed = 0, uses_anonymous_args = 0
 948              		@ link register save eliminated.
 949              	.LVL72:
 950              		.loc 1 78 0
 951 02f8 024A     		ldr	r2, .L36
 952 02fa 137B     		ldrb	r3, [r2, #12]	@ zero_extendqisi2
 953 02fc 43F00103 		orr	r3, r3, #1
 954 0300 1373     		strb	r3, [r2, #12]
 955 0302 7047     		bx	lr
 956              	.L37:
 957              		.align	2
 958              	.L36:
 959 0304 00000000 		.word	.LANCHOR0
 960              		.cfi_endproc
 961              	.LFE296:
 962              		.size	_hook_on, .-_hook_on
 963              		.align	1
 964              		.global	_hook_off
 965              		.thumb
 966              		.thumb_func
 967              		.type	_hook_off, %function
 968              	_hook_off:
 969              	.LFB297:
ARM GAS  C:\msys64\tmp\cc9UWKA0.s 			page 18


 970              		.loc 1 81 0
 971              		.cfi_startproc
 972              		@ args = 0, pretend = 0, frame = 0
 973              		@ frame_needed = 0, uses_anonymous_args = 0
 974              		@ link register save eliminated.
 975              	.LVL73:
 976 0308 7047     		bx	lr
 977              		.cfi_endproc
 978              	.LFE297:
 979              		.size	_hook_off, .-_hook_off
 980              		.align	1
 981              		.global	_hook_param
 982              		.thumb
 983              		.thumb_func
 984              		.type	_hook_param, %function
 985              	_hook_param:
 986              	.LFB298:
 987              		.loc 1 86 0
 988              		.cfi_startproc
 989              		@ args = 0, pretend = 0, frame = 0
 990              		@ frame_needed = 0, uses_anonymous_args = 0
 991              		@ link register save eliminated.
 992              	.LVL74:
 993              		.loc 1 86 0
 994 030a 07EE901A 		vmov	s15, r1	@ int
 995              		.loc 1 90 0
 996 030e 0328     		cmp	r0, #3
 997 0310 2ED8     		bhi	.L39
 998 0312 DFE800F0 		tbb	[pc, r0]
 999              	.L42:
 1000 0316 02       		.byte	(.L41-.L42)/2
 1001 0317 0C       		.byte	(.L43-.L42)/2
 1002 0318 1A       		.byte	(.L44-.L42)/2
 1003 0319 24       		.byte	(.L45-.L42)/2
 1004              		.p2align 1
 1005              	.L41:
 1006              		.loc 1 93 0
 1007 031a F8EEE77A 		vcvt.f32.s32	s15, s15
 1008 031e 9FED157A 		vldr.32	s14, .L46
 1009 0322 154B     		ldr	r3, .L46+4
 1010 0324 67EE877A 		vmul.f32	s15, s15, s14
 1011 0328 C3ED047A 		vstr.32	s15, [r3, #16]
 1012              		.loc 1 94 0
 1013 032c 7047     		bx	lr
 1014              	.L43:
 1015              		.loc 1 98 0
 1016 032e 124B     		ldr	r3, .L46+4
 1017 0330 9FED107A 		vldr.32	s14, .L46
 1018 0334 F8EEE77A 		vcvt.f32.s32	s15, s15
 1019 0338 67EE877A 		vmul.f32	s15, s15, s14
 1020 033c 93ED067A 		vldr.32	s14, [r3, #24]
 1021 0340 67EE877A 		vmul.f32	s15, s15, s14
 1022 0344 C3ED057A 		vstr.32	s15, [r3, #20]
 1023              		.loc 1 99 0
 1024 0348 7047     		bx	lr
 1025              	.L44:
 1026              		.loc 1 103 0
ARM GAS  C:\msys64\tmp\cc9UWKA0.s 			page 19


 1027 034a F8EEE77A 		vcvt.f32.s32	s15, s15
 1028 034e 9FED0B7A 		vldr.32	s14, .L46+8
 1029 0352 094B     		ldr	r3, .L46+4
 1030 0354 67EE877A 		vmul.f32	s15, s15, s14
 1031 0358 C3ED067A 		vstr.32	s15, [r3, #24]
 1032              		.loc 1 104 0
 1033 035c 7047     		bx	lr
 1034              	.L45:
 1035              		.loc 1 108 0
 1036 035e F8EEE77A 		vcvt.f32.s32	s15, s15
 1037 0362 B7EE007A 		vmov.f32	s14, #1.0e+0
 1038 0366 77EE877A 		vadd.f32	s15, s15, s14
 1039 036a 034B     		ldr	r3, .L46+4
 1040 036c C3ED077A 		vstr.32	s15, [r3, #28]
 1041              	.L39:
 1042 0370 7047     		bx	lr
 1043              	.L47:
 1044 0372 00BF     		.align	2
 1045              	.L46:
 1046 0374 0AD7233C 		.word	1008981770
 1047 0378 00000000 		.word	.LANCHOR0
 1048 037c CDCCCC3D 		.word	1036831949
 1049              		.cfi_endproc
 1050              	.LFE298:
 1051              		.size	_hook_param, .-_hook_param
 1052              		.section	.text.startup,"ax",%progbits
 1053              		.align	1
 1054              		.thumb
 1055              		.thumb_func
 1056              		.type	_GLOBAL__sub_I__hook_init, %function
 1057              	_GLOBAL__sub_I__hook_init:
 1058              	.LFB300:
 1059              		.loc 1 126 0
 1060              		.cfi_startproc
 1061              		@ args = 0, pretend = 0, frame = 0
 1062              		@ frame_needed = 0, uses_anonymous_args = 0
 1063              		@ link register save eliminated.
 1064              	.LVL75:
 1065              	.LBB486:
 1066              	.LBB487:
 1067              	.LBB488:
 1068              	.LBB489:
 1069              	.LBB490:
 1070              		.loc 3 49 0
 1071 0000 0F4B     		ldr	r3, .L49
 1072 0002 197B     		ldrb	r1, [r3, #12]	@ zero_extendqisi2
 1073 0004 6FF30001 		bfc	r1, #0, #1
 1074 0008 1973     		strb	r1, [r3, #12]
 1075              	.LVL76:
 1076              	.LBE490:
 1077              	.LBE489:
 1078              	.LBB493:
 1079              	.LBB494:
 1080              		.loc 3 35 0
 1081 000a 4FF07C51 		mov	r1, #1056964608
 1082              	.LBE494:
 1083              	.LBE493:
ARM GAS  C:\msys64\tmp\cc9UWKA0.s 			page 20


 1084              	.LBB497:
 1085              	.LBB491:
 1086              		.loc 3 49 0
 1087 000e 0022     		movs	r2, #0
 1088              	.LBE491:
 1089              	.LBE497:
 1090              	.LBB498:
 1091              	.LBB495:
 1092              		.loc 3 35 0
 1093 0010 1961     		str	r1, [r3, #16]	@ float
 1094 0012 5961     		str	r1, [r3, #20]	@ float
 1095 0014 4FF07E51 		mov	r1, #1065353216
 1096              	.LBE495:
 1097              	.LBE498:
 1098              	.LBB499:
 1099              	.LBB492:
 1100              		.loc 3 49 0
 1101 0018 1A60     		str	r2, [r3]	@ float
 1102 001a 5A60     		str	r2, [r3, #4]	@ float
 1103 001c 9A60     		str	r2, [r3, #8]	@ float
 1104              	.LBE492:
 1105              	.LBE499:
 1106              	.LBB500:
 1107              	.LBB496:
 1108              		.loc 3 35 0
 1109 001e 9961     		str	r1, [r3, #24]	@ float
 1110 0020 D961     		str	r1, [r3, #28]	@ float
 1111              	.LVL77:
 1112              	.LBE496:
 1113              	.LBE500:
 1114              	.LBB501:
 1115              	.LBB502:
 1116              	.LBB503:
 1117              	.LBB504:
 1118              		.loc 5 77 0
 1119 0022 1A62     		str	r2, [r3, #32]	@ float
 1120 0024 5A62     		str	r2, [r3, #36]	@ float
 1121 0026 9A62     		str	r2, [r3, #40]	@ float
 1122 0028 DA62     		str	r2, [r3, #44]	@ float
 1123 002a 1A63     		str	r2, [r3, #48]	@ float
 1124              	.LVL78:
 1125              	.LBE504:
 1126              	.LBE503:
 1127              		.loc 5 344 0
 1128 002c 5A63     		str	r2, [r3, #52]	@ float
 1129 002e 9A63     		str	r2, [r3, #56]	@ float
 1130              	.LVL79:
 1131              	.LBE502:
 1132              	.LBE501:
 1133              	.LBB505:
 1134              	.LBB506:
 1135              	.LBB507:
 1136              	.LBB508:
 1137              		.loc 5 77 0
 1138 0030 DA63     		str	r2, [r3, #60]	@ float
 1139 0032 1A64     		str	r2, [r3, #64]	@ float
 1140 0034 5A64     		str	r2, [r3, #68]	@ float
ARM GAS  C:\msys64\tmp\cc9UWKA0.s 			page 21


 1141 0036 9A64     		str	r2, [r3, #72]	@ float
 1142 0038 DA64     		str	r2, [r3, #76]	@ float
 1143              	.LVL80:
 1144              	.LBE508:
 1145              	.LBE507:
 1146              		.loc 5 344 0
 1147 003a 1A65     		str	r2, [r3, #80]	@ float
 1148 003c 5A65     		str	r2, [r3, #84]	@ float
 1149              	.LVL81:
 1150 003e 7047     		bx	lr
 1151              	.L50:
 1152              		.align	2
 1153              	.L49:
 1154 0040 00000000 		.word	.LANCHOR0
 1155              	.LBE506:
 1156              	.LBE505:
 1157              	.LBE488:
 1158              	.LBE487:
 1159              	.LBE486:
 1160              		.cfi_endproc
 1161              	.LFE300:
 1162              		.size	_GLOBAL__sub_I__hook_init, .-_GLOBAL__sub_I__hook_init
 1163              		.section	.init_array,"aw",%init_array
 1164              		.align	2
 1165 0000 00000000 		.word	_GLOBAL__sub_I__hook_init(target1)
 1166              		.bss
 1167              		.align	2
 1168              		.set	.LANCHOR0,. + 0
 1169              		.type	_ZL4vpsf, %object
 1170              		.size	_ZL4vpsf, 88
 1171              	_ZL4vpsf:
 1172 0000 00000000 		.space	88
 1172      00000000 
 1172      00000000 
 1172      00000000 
 1172      00000000 
 1173              		.text
 1174              	.Letext0:
 1175              		.file 6 "c:\\msys64\\home\\logue-sdk\\tools\\gcc\\gcc-arm-none-eabi-5_4-2016q3\\arm-none-eabi\\inc
 1176              		.file 7 "c:\\msys64\\home\\logue-sdk\\tools\\gcc\\gcc-arm-none-eabi-5_4-2016q3\\arm-none-eabi\\inc
 1177              		.file 8 "c:\\msys64\\home\\logue-sdk\\platform\\ext\\cmsis\\cmsis\\include\\arm_math.h"
 1178              		.file 9 "C:/msys64/home/logue-sdk/platform/nutekt-digital/inc/userosc.h"
 1179              		.file 10 "C:/msys64/home/logue-sdk/platform/nutekt-digital/inc/userprg.h"
 1180              		.file 11 "C:/msys64/home/logue-sdk/platform/nutekt-digital/inc/utils/int_math.h"