ARM GAS  C:\msys64\tmp\cchmnS75.s 			page 1


   1              		.syntax unified
   2              		.cpu cortex-m4
   3              		.eabi_attribute 27, 1
   4              		.eabi_attribute 28, 1
   5              		.fpu fpv4-sp-d16
   6              		.eabi_attribute 20, 1
   7              		.eabi_attribute 21, 1
   8              		.eabi_attribute 23, 3
   9              		.eabi_attribute 24, 1
  10              		.eabi_attribute 25, 1
  11              		.eabi_attribute 26, 1
  12              		.eabi_attribute 30, 4
  13              		.eabi_attribute 34, 1
  14              		.eabi_attribute 18, 4
  15              		.thumb
  16              		.syntax unified
  17              		.file	"vps_intpl.cpp"
  18              		.text
  19              	.Ltext0:
  20              		.cfi_sections	.debug_frame
  21              		.align	1
  22              		.global	_hook_init
  23              		.thumb
  24              		.thumb_func
  25              		.type	_hook_init, %function
  26              	_hook_init:
  27              	.LFB293:
  28              		.file 1 "vps_intpl.cpp"
  29              		.loc 1 14 0
  30              		.cfi_startproc
  31              		@ args = 0, pretend = 0, frame = 0
  32              		@ frame_needed = 0, uses_anonymous_args = 0
  33              		@ link register save eliminated.
  34              	.LVL0:
  35 0000 7047     		bx	lr
  36              		.cfi_endproc
  37              	.LFE293:
  38              		.size	_hook_init, .-_hook_init
  39              		.align	1
  40              		.global	_hook_cycle
  41              		.thumb
  42              		.thumb_func
  43              		.type	_hook_cycle, %function
  44              	_hook_cycle:
  45              	.LFB294:
  46              		.loc 1 19 0
  47              		.cfi_startproc
  48              		@ args = 0, pretend = 0, frame = 0
  49              		@ frame_needed = 0, uses_anonymous_args = 0
  50              	.LVL1:
  51              		.loc 1 25 0
  52 0002 A24B     		ldr	r3, .L29
  53              	.LBB224:
  54              	.LBB225:
  55              	.LBB226:
  56              	.LBB227:
  57              		.file 2 "C:/msys64/home/logue-sdk/platform/nutekt-digital/inc/utils/float_math.h"
ARM GAS  C:\msys64\tmp\cchmnS75.s 			page 2


  58              		.loc 2 826 0
  59 0004 9FEDA27A 		vldr.32	s14, .L29+4
  60              	.LBE227:
  61              	.LBE226:
  62              	.LBE225:
  63              	.LBE224:
  64              	.LBB265:
  65              	.LBB266:
  66              		.file 3 "vps_intpl.hpp"
  67              		.loc 3 62 0
  68 0008 D3ED064A 		vldr.32	s9, [r3, #24]
  69              	.LBB267:
  70              	.LBB268:
  71              		.file 4 "C:/msys64/home/logue-sdk/platform/nutekt-digital/inc/osc_api.h"
  72              		.loc 4 615 0
  73 000c 9FEDA15A 		vldr.32	s10, .L29+8
  74              	.LBE268:
  75              	.LBE267:
  76              	.LBE266:
  77              	.LBE265:
  78              	.LBB325:
  79              	.LBB326:
  80              	.LBB327:
  81              	.LBB328:
  82              		.loc 3 68 0
  83 0010 D3ED043A 		vldr.32	s7, [r3, #16]
  84              		.loc 3 69 0
  85 0014 D3ED051A 		vldr.32	s3, [r3, #20]
  86 0018 93ED0C4A 		vldr.32	s8, [r3, #48]
  87              	.LBE328:
  88              	.LBE327:
  89              		.loc 1 63 0
  90 001c 9FED9E0A 		vldr.32	s0, .L29+12
  91              	.LBE326:
  92              	.LBE325:
  93              		.loc 1 19 0
  94 0020 70B5     		push	{r4, r5, r6, lr}
  95              		.cfi_def_cfa_offset 16
  96              		.cfi_offset 4, -16
  97              		.cfi_offset 5, -12
  98              		.cfi_offset 6, -8
  99              		.cfi_offset 14, -4
 100              		.loc 1 25 0
 101 0022 1C7B     		ldrb	r4, [r3, #12]	@ zero_extendqisi2
 102              	.LVL2:
 103              		.loc 1 31 0
 104 0024 14F0010F 		tst	r4, #1
 105              		.loc 1 28 0
 106 0028 2546     		mov	r5, r4
 107              		.loc 1 36 0
 108 002a 8488     		ldrh	r4, [r0, #4]
 109              	.LVL3:
 110              		.loc 1 28 0
 111 002c 6FF30005 		bfc	r5, #0, #1
 112              		.loc 1 19 0
 113 0030 2DED068B 		vpush.64	{d8, d9, d10}
 114              		.cfi_def_cfa_offset 40
ARM GAS  C:\msys64\tmp\cchmnS75.s 			page 3


 115              		.cfi_offset 80, -40
 116              		.cfi_offset 81, -36
 117              		.cfi_offset 82, -32
 118              		.cfi_offset 83, -28
 119              		.cfi_offset 84, -24
 120              		.cfi_offset 85, -20
 121              		.loc 1 36 0
 122 0034 4FEA2420 		asr	r0, r4, #8
 123              	.LVL4:
 124              		.loc 1 28 0
 125 0038 1D73     		strb	r5, [r3, #12]
 126 003a 4FF00005 		mov	r5, #0
 127              	.LVL5:
 128              	.LBB395:
 129              	.LBB396:
 130              		.loc 3 52 0
 131 003e 18BF     		it	ne
 132 0040 1D60     		strne	r5, [r3]	@ float
 133              	.LBE396:
 134              	.LBE395:
 135              	.LBB397:
 136              	.LBB256:
 137              	.LBB232:
 138              	.LBB233:
 139              		.loc 4 109 0
 140 0042 9628     		cmp	r0, #150
 141 0044 D8BF     		it	le
 142 0046 0646     		movle	r6, r0
 143              	.LBE233:
 144              	.LBE232:
 145              	.LBE256:
 146              	.LBE397:
 147              		.loc 1 39 0
 148 0048 E4B2     		uxtb	r4, r4
 149              	.LBB398:
 150              	.LBB257:
 151              		.loc 4 120 0
 152 004a 00F10100 		add	r0, r0, #1
 153              	.LVL6:
 154 004e C0B2     		uxtb	r0, r0
 155              	.LVL7:
 156              	.LBE257:
 157              	.LBE398:
 158              		.loc 1 39 0
 159 0050 07EE904A 		vmov	s15, r4	@ int
 160              	.LVL8:
 161              	.LBB399:
 162              	.LBB258:
 163              	.LBB237:
 164              	.LBB234:
 165              		.loc 4 109 0
 166 0054 C8BF     		it	gt
 167 0056 9726     		movgt	r6, #151
 168              	.LVL9:
 169 0058 904C     		ldr	r4, .L29+16
 170              	.LVL10:
 171              	.LBE234:
ARM GAS  C:\msys64\tmp\cchmnS75.s 			page 4


 172              	.LBE237:
 173              	.LBE258:
 174              	.LBE399:
 175              	.LBB400:
 176              	.LBB315:
 177              	.LBB276:
 178              	.LBB277:
 179              		.file 5 "c:\\msys64\\home\\logue-sdk\\platform\\nutekt-digital\\inc\\dsp\\biquad.hpp"
 180              		.loc 5 143 0
 181 005a 5D62     		str	r5, [r3, #36]	@ float
 182              	.LBE277:
 183              	.LBE276:
 184              	.LBE315:
 185              	.LBE400:
 186              	.LBB401:
 187              	.LBB259:
 188              	.LBB238:
 189              	.LBB239:
 190              		.loc 4 109 0
 191 005c 9628     		cmp	r0, #150
 192 005e 88BF     		it	hi
 193 0060 9720     		movhi	r0, #151
 194              	.LBE239:
 195              	.LBE238:
 196              	.LBB241:
 197              	.LBB228:
 198              		.loc 2 826 0
 199 0062 F8EEE77A 		vcvt.f32.s32	s15, s15
 200              	.LVL11:
 201              	.LBE228:
 202              	.LBE241:
 203              	.LBB242:
 204              	.LBB235:
 205              		.loc 4 109 0
 206 0066 04EB8606 		add	r6, r4, r6, lsl #2
 207              	.LBE235:
 208              	.LBE242:
 209              	.LBB243:
 210              	.LBB240:
 211 006a 04EB8000 		add	r0, r4, r0, lsl #2
 212              	.LBE240:
 213              	.LBE243:
 214              	.LBB244:
 215              	.LBB236:
 216 006e D6ED005A 		vldr.32	s11, [r6]
 217              	.LVL12:
 218              	.LBE236:
 219              	.LBE244:
 220              	.LBE259:
 221              	.LBE401:
 222              	.LBB402:
 223              	.LBB316:
 224              	.LBB283:
 225              	.LBB278:
 226              		.loc 5 143 0
 227 0072 DD62     		str	r5, [r3, #44]	@ float
 228              	.LBE278:
ARM GAS  C:\msys64\tmp\cchmnS75.s 			page 5


 229              	.LBE283:
 230              	.LBE316:
 231              	.LBE402:
 232              	.LBB403:
 233              	.LBB260:
 234              	.LBB245:
 235              	.LBB229:
 236              		.loc 2 826 0
 237 0074 67EE877A 		vmul.f32	s15, s15, s14
 238 0078 90ED007A 		vldr.32	s14, [r0]
 239              	.LBE229:
 240              	.LBE245:
 241              	.LBE260:
 242              	.LBE403:
 243              	.LBB404:
 244              	.LBB317:
 245              	.LBB284:
 246              	.LBB271:
 247              		.loc 4 617 0
 248 007c 8848     		ldr	r0, .L29+20
 249              	.LBE271:
 250              	.LBE284:
 251              	.LBB285:
 252              	.LBB286:
 253              		.loc 5 159 0
 254 007e 1D64     		str	r5, [r3, #64]	@ float
 255              	.LBE286:
 256              	.LBE285:
 257              	.LBE317:
 258              	.LBE404:
 259              	.LBB405:
 260              	.LBB261:
 261              	.LBB246:
 262              	.LBB230:
 263              		.loc 2 826 0
 264 0080 37EE657A 		vsub.f32	s14, s14, s11
 265              	.LBE230:
 266              	.LBE246:
 267              	.LBE261:
 268              	.LBE405:
 269              	.LBB406:
 270              	.LBB318:
 271              	.LBB289:
 272              	.LBB287:
 273              		.loc 5 159 0
 274 0084 9D64     		str	r5, [r3, #72]	@ float
 275              	.LBE287:
 276              	.LBE289:
 277              	.LBE318:
 278              	.LBE406:
 279              	.LBB407:
 280              	.LBB262:
 281              	.LBB247:
 282              	.LBB231:
 283              		.loc 2 826 0
 284 0086 E7EE875A 		vfma.f32	s11, s15, s14
 285              	.LVL13:
ARM GAS  C:\msys64\tmp\cchmnS75.s 			page 6


 286              	.LBE231:
 287              	.LBE247:
 288              	.LBE262:
 289              	.LBE407:
 290              	.LBB408:
 291              	.LBB389:
 292              	.LBB367:
 293              	.LBB363:
 294              	.LBB329:
 295              	.LBB330:
 296              	.LBB331:
 297              	.LBB332:
 298              		.loc 4 160 0
 299 008a 864D     		ldr	r5, .L29+24
 300              	.LBE332:
 301              	.LBE331:
 302              	.LBE330:
 303              	.LBE329:
 304              	.LBE363:
 305              	.LBE367:
 306              	.LBE389:
 307              	.LBE408:
 308              	.LBB409:
 309              	.LBB263:
 310              	.LBB248:
 311              	.LBB249:
 312              	.LBB250:
 313              	.LBB251:
 314              		.loc 2 193 0
 315 008c DFED867A 		vldr.32	s15, .L29+28
 316              	.LBE251:
 317              	.LBE250:
 318              	.LBE249:
 319              	.LBE248:
 320              	.LBE263:
 321              	.LBE409:
 322              	.LBB410:
 323              	.LBB390:
 324              	.LBB368:
 325              	.LBB364:
 326              	.LBB350:
 327              	.LBB347:
 328              	.LBB345:
 329              	.LBB343:
 330              		.loc 4 154 0
 331 0090 9FED869A 		vldr.32	s18, .L29+32
 332              	.LBE343:
 333              	.LBE345:
 334              	.LBE347:
 335              	.LBE350:
 336              	.LBE364:
 337              	.LBE368:
 338              		.loc 1 63 0
 339 0094 9FED868A 		vldr.32	s16, .L29+36
 340              	.LBE390:
 341              	.LBE410:
 342              	.LBB411:
ARM GAS  C:\msys64\tmp\cchmnS75.s 			page 7


 343              	.LBB264:
 344              	.LBB255:
 345              	.LBB254:
 346              	.LBB253:
 347              	.LBB252:
 348              		.loc 2 193 0
 349 0098 F4EEE75A 		vcmpe.f32	s11, s15
 350 009c F1EE10FA 		vmrs	APSR_nzcv, FPSCR
 351 00a0 A8BF     		it	ge
 352 00a2 F0EE675A 		vmovge.f32	s11, s15
 353              	.LVL14:
 354              	.LBE252:
 355              	.LBE253:
 356              	.LBE254:
 357              	.LBE255:
 358              		.loc 4 124 0
 359 00a6 DFED837A 		vldr.32	s15, .L29+40
 360 00aa 65EEA75A 		vmul.f32	s11, s11, s15
 361              	.LVL15:
 362              	.LBE264:
 363              	.LBE411:
 364              		.loc 1 51 0
 365 00ae 01EB8202 		add	r2, r1, r2, lsl #2
 366              	.LVL16:
 367              	.LBB412:
 368              	.LBB319:
 369              	.LBB290:
 370              	.LBB272:
 371              		.loc 4 615 0
 372 00b2 65EEA46A 		vmul.f32	s13, s11, s9
 373              	.LBE272:
 374              	.LBE290:
 375              	.LBE319:
 376              	.LBE412:
 377              		.loc 1 39 0
 378 00b6 C3ED015A 		vstr.32	s11, [r3, #4]
 379              	.LVL17:
 380              	.LBB413:
 381              	.LBB320:
 382              	.LBB291:
 383              	.LBB273:
 384              		.loc 4 615 0
 385 00ba 66EE856A 		vmul.f32	s13, s13, s10
 386              	.LVL18:
 387              	.LBE273:
 388              	.LBE291:
 389              	.LBE320:
 390              	.LBE413:
 391              	.LBB414:
 392              	.LBB391:
 393              	.LBB369:
 394              	.LBB365:
 395              	.LBB351:
 396              	.LBB348:
 397              		.loc 4 171 0
 398 00be F5EE008A 		vmov.f32	s17, #2.5e-1
 399              	.LBE348:
ARM GAS  C:\msys64\tmp\cchmnS75.s 			page 8


 400              	.LBE351:
 401              	.LBE365:
 402              	.LBE369:
 403              	.LBE391:
 404              	.LBE414:
 405              	.LBB415:
 406              	.LBB321:
 407              	.LBB292:
 408              	.LBB274:
 409              		.loc 4 616 0
 410 00c2 FCEEE67A 		vcvt.u32.f32	s15, s13
 411              	.LBE274:
 412              	.LBE292:
 413              	.LBE321:
 414              	.LBE415:
 415              	.LBB416:
 416              	.LBB392:
 417              	.LBB370:
 418              	.LBB371:
 419              	.LBB372:
 420              	.LBB373:
 421              	.LBB374:
 422              	.LBB375:
 423              		.loc 2 193 0
 424 00c6 FFEE009A 		vmov.f32	s19, #-1.0e+0
 425              	.LBE375:
 426              	.LBE374:
 427              	.LBE373:
 428              	.LBE372:
 429              	.LBE371:
 430              	.LBE370:
 431              	.LBE392:
 432              	.LBE416:
 433              	.LBB417:
 434              	.LBB322:
 435              	.LBB293:
 436              	.LBB275:
 437              		.loc 4 616 0
 438 00ca 17EE904A 		vmov	r4, s15	@ int
 439              	.LVL19:
 440              		.loc 4 617 0
 441 00ce 00EB8406 		add	r6, r0, r4, lsl #2
 442 00d2 96ED007A 		vldr.32	s14, [r6]
 443              	.LVL20:
 444              	.LBB269:
 445              	.LBB270:
 446              		.loc 2 826 0
 447 00d6 96ED016A 		vldr.32	s12, [r6, #4]
 448 00da F8EE677A 		vcvt.f32.u32	s15, s15
 449 00de 36EE476A 		vsub.f32	s12, s12, s14
 450 00e2 76EEE76A 		vsub.f32	s13, s13, s15
 451              	.LVL21:
 452 00e6 A6EE867A 		vfma.f32	s14, s13, s12
 453              	.LVL22:
 454              	.LBE270:
 455              	.LBE269:
 456              	.LBE275:
ARM GAS  C:\msys64\tmp\cchmnS75.s 			page 9


 457              	.LBE293:
 458              	.LBB294:
 459              	.LBB279:
 460              		.loc 5 139 0
 461 00ea F7EE006A 		vmov.f32	s13, #1.0e+0
 462 00ee 77EE267A 		vadd.f32	s15, s14, s13
 463              	.LVL23:
 464              	.LBE279:
 465              	.LBE294:
 466              	.LBE322:
 467              	.LBE417:
 468              	.LBB418:
 469              	.LBB393:
 470              	.LBB386:
 471              	.LBB384:
 472              	.LBB382:
 473              	.LBB380:
 474              	.LBB378:
 475              	.LBB376:
 476              		.loc 2 193 0
 477 00f2 B0EE66AA 		vmov.f32	s20, s13
 478              	.LBE376:
 479              	.LBE378:
 480              	.LBE380:
 481              	.LBE382:
 482              	.LBE384:
 483              	.LBE386:
 484              	.LBE393:
 485              	.LBE418:
 486              	.LBB419:
 487              	.LBB323:
 488              	.LBB295:
 489              	.LBB280:
 490              		.loc 5 141 0
 491 00f6 87EE273A 		vdiv.f32	s6, s14, s15
 492              		.loc 5 142 0
 493 00fa 37EE667A 		vsub.f32	s14, s14, s13
 494              		.loc 5 141 0
 495 00fe 83ED083A 		vstr.32	s6, [r3, #32]
 496              		.loc 5 142 0
 497 0102 C7EE272A 		vdiv.f32	s5, s14, s15
 498              	.LBE280:
 499              	.LBE295:
 500              	.LBB296:
 501              	.LBB297:
 502              		.loc 4 615 0
 503 0106 C6EEA47A 		vdiv.f32	s15, s13, s9
 504 010a D3ED134A 		vldr.32	s9, [r3, #76]
 505              	.LVL24:
 506              	.LBE297:
 507              	.LBE296:
 508              	.LBB309:
 509              	.LBB281:
 510              		.loc 5 141 0
 511 010e 83ED073A 		vstr.32	s6, [r3, #28]
 512              	.LBE281:
 513              	.LBE309:
ARM GAS  C:\msys64\tmp\cchmnS75.s 			page 10


 514              	.LBB310:
 515              	.LBB306:
 516              		.loc 4 615 0
 517 0112 67EEA57A 		vmul.f32	s15, s15, s11
 518              	.LVL25:
 519              	.LBE306:
 520              	.LBE310:
 521              	.LBB311:
 522              	.LBB282:
 523              		.loc 5 142 0
 524 0116 C3ED0A2A 		vstr.32	s5, [r3, #40]
 525              	.LBE282:
 526              	.LBE311:
 527              	.LBB312:
 528              	.LBB307:
 529              		.loc 4 615 0
 530 011a 67EE857A 		vmul.f32	s15, s15, s10
 531              	.LVL26:
 532 011e 93ED025A 		vldr.32	s10, [r3, #8]
 533              		.loc 4 616 0
 534 0122 BCEEE77A 		vcvt.u32.f32	s14, s15
 535 0126 17EE104A 		vmov	r4, s14	@ int
 536              	.LVL27:
 537              	.LBB298:
 538              	.LBB299:
 539              		.loc 2 826 0
 540 012a 06EE104A 		vmov	s12, r4	@ int
 541 012e B8EE466A 		vcvt.f32.u32	s12, s12
 542              	.LBE299:
 543              	.LBE298:
 544              		.loc 4 617 0
 545 0132 00EB8406 		add	r6, r0, r4, lsl #2
 546              	.LBB303:
 547              	.LBB300:
 548              		.loc 2 826 0
 549 0136 77EEC67A 		vsub.f32	s15, s15, s12
 550              	.LVL28:
 551              	.LBE300:
 552              	.LBE303:
 553              		.loc 4 617 0
 554 013a 96ED007A 		vldr.32	s14, [r6]
 555              	.LVL29:
 556              	.LBB304:
 557              	.LBB301:
 558              		.loc 2 826 0
 559 013e 96ED016A 		vldr.32	s12, [r6, #4]
 560 0142 36EE476A 		vsub.f32	s12, s12, s14
 561 0146 A7EE867A 		vfma.f32	s14, s15, s12
 562              	.LVL30:
 563              	.LBE301:
 564              	.LBE304:
 565              	.LBE307:
 566              	.LBE312:
 567              	.LBE323:
 568              	.LBE419:
 569              		.loc 1 45 0
 570 014a 93ED006A 		vldr.32	s12, [r3]
ARM GAS  C:\msys64\tmp\cchmnS75.s 			page 11


 571              	.LBB420:
 572              	.LBB324:
 573              	.LBB313:
 574              	.LBB308:
 575              	.LBB305:
 576              	.LBB302:
 577              		.loc 2 826 0
 578 014e F0EE477A 		vmov.f32	s15, s14
 579              	.LVL31:
 580              	.LBE302:
 581              	.LBE305:
 582              	.LBE308:
 583              	.LBE313:
 584              	.LBB314:
 585              	.LBB288:
 586              		.loc 5 154 0
 587 0152 37EE267A 		vadd.f32	s14, s14, s13
 588              	.LVL32:
 589              		.loc 5 158 0
 590 0156 77EEE67A 		vsub.f32	s15, s15, s13
 591              		.loc 5 156 0
 592 015a 86EE872A 		vdiv.f32	s4, s13, s14
 593              		.loc 5 158 0
 594 015e C7EE870A 		vdiv.f32	s1, s15, s14
 595              		.loc 5 157 0
 596 0162 B1EE421A 		vneg.f32	s2, s4
 597              		.loc 5 156 0
 598 0166 83ED0E2A 		vstr.32	s4, [r3, #56]
 599              		.loc 5 157 0
 600 016a 83ED0F1A 		vstr.32	s2, [r3, #60]
 601              		.loc 5 158 0
 602 016e C3ED110A 		vstr.32	s1, [r3, #68]
 603              	.LVL33:
 604              	.L14:
 605              	.LBE288:
 606              	.LBE314:
 607              	.LBE324:
 608              	.LBE420:
 609              	.LBB421:
 610              		.loc 1 54 0
 611 0172 9142     		cmp	r1, r2
 612 0174 7ED0     		beq	.L7
 613              	.LVL34:
 614              	.LBB394:
 615              	.LBB387:
 616              	.LBB366:
 617              		.loc 3 72 0
 618 0176 B4EEE36A 		vcmpe.f32	s12, s7
 619 017a F1EE10FA 		vmrs	APSR_nzcv, FPSCR
 620 017e 04D5     		bpl	.L26
 621              		.loc 3 73 0
 622 0180 86EE237A 		vdiv.f32	s14, s12, s7
 623              	.LVL35:
 624              		.loc 3 74 0
 625 0184 21EE877A 		vmul.f32	s14, s3, s14
 626              	.LVL36:
 627 0188 0DE0     		b	.L10
ARM GAS  C:\msys64\tmp\cchmnS75.s 			page 12


 628              	.LVL37:
 629              	.L26:
 630              		.loc 3 76 0
 631 018a 76EE637A 		vsub.f32	s15, s12, s7
 632              		.loc 3 77 0
 633 018e 76EEE3AA 		vsub.f32	s21, s13, s7
 634 0192 87EEAA7A 		vdiv.f32	s14, s15, s21
 635              	.LVL38:
 636              		.loc 3 79 0
 637 0196 76EEE17A 		vsub.f32	s15, s13, s3
 638 019a F0EE61AA 		vmov.f32	s21, s3
 639 019e E7EE27AA 		vfma.f32	s21, s14, s15
 640 01a2 B0EE6A7A 		vmov.f32	s14, s21
 641              	.LVL39:
 642              	.L10:
 643              	.LBB352:
 644              	.LBB349:
 645              		.loc 4 171 0
 646 01a6 37EE287A 		vadd.f32	s14, s14, s17
 647              	.LVL40:
 648              	.LBB346:
 649              	.LBB344:
 650              		.loc 4 154 0
 651 01aa FCEEC77A 		vcvt.u32.f32	s15, s14
 652 01ae F8EE677A 		vcvt.f32.u32	s15, s15
 653 01b2 77EE677A 		vsub.f32	s15, s14, s15
 654 01b6 67EE897A 		vmul.f32	s15, s15, s18
 655              	.LVL41:
 656              		.loc 4 155 0
 657 01ba BCEEE77A 		vcvt.u32.f32	s14, s15
 658              	.LVL42:
 659 01be 17EE104A 		vmov	r4, s14	@ int
 660              	.LVL43:
 661              		.loc 4 157 0
 662 01c2 04F07F00 		and	r0, r4, #127
 663              	.LVL44:
 664              	.LBB333:
 665              	.LBB334:
 666              		.loc 2 826 0
 667 01c6 0AEE904A 		vmov	s21, r4	@ int
 668              	.LBE334:
 669              	.LBE333:
 670              		.loc 4 160 0
 671 01ca 05EB8006 		add	r6, r5, r0, lsl #2
 672 01ce 0130     		adds	r0, r0, #1
 673              	.LVL45:
 674              	.LBB339:
 675              	.LBB335:
 676              		.loc 2 826 0
 677 01d0 F8EE6AAA 		vcvt.f32.u32	s21, s21
 678              	.LBE335:
 679              	.LBE339:
 680              		.loc 4 160 0
 681 01d4 00F07F00 		and	r0, r0, #127
 682              	.LVL46:
 683 01d8 05EB8000 		add	r0, r5, r0, lsl #2
 684              	.LVL47:
ARM GAS  C:\msys64\tmp\cchmnS75.s 			page 13


 685              	.LBB340:
 686              	.LBB336:
 687              		.loc 2 826 0
 688 01dc 77EEEA7A 		vsub.f32	s15, s15, s21
 689              	.LVL48:
 690              	.LBE336:
 691              	.LBE340:
 692              		.loc 4 160 0
 693 01e0 96ED007A 		vldr.32	s14, [r6]
 694              	.LVL49:
 695              	.LBB341:
 696              	.LBB337:
 697              		.loc 2 826 0
 698 01e4 D0ED00AA 		vldr.32	s21, [r0]
 699 01e8 7AEEC7AA 		vsub.f32	s21, s21, s14
 700              	.LBE337:
 701              	.LBE341:
 702              		.loc 4 161 0
 703 01ec 7F2C     		cmp	r4, #127
 704              	.LBB342:
 705              	.LBB338:
 706              		.loc 2 826 0
 707 01ee A7EEAA7A 		vfma.f32	s14, s15, s21
 708              	.LVL50:
 709 01f2 F0EE477A 		vmov.f32	s15, s14
 710              	.LVL51:
 711              	.LBE338:
 712              	.LBE342:
 713              		.loc 4 161 0
 714 01f6 88BF     		it	hi
 715 01f8 F1EE477A 		vneghi.f32	s15, s14
 716              	.LVL52:
 717              	.LBE344:
 718              	.LBE346:
 719              	.LBE349:
 720              	.LBE352:
 721              		.loc 3 82 0
 722 01fc F1EE677A 		vneg.f32	s15, s15
 723              	.LVL53:
 724              	.LBB353:
 725              	.LBB354:
 726              		.loc 5 385 0
 727 0200 B0EE447A 		vmov.f32	s14, s8
 728 0204 A3EE277A 		vfma.f32	s14, s6, s15
 729              	.LVL54:
 730              		.loc 5 387 0
 731 0208 27EE624A 		vnmul.f32	s8, s14, s5
 732 020c A3EE274A 		vfma.f32	s8, s6, s15
 733              	.LVL55:
 734              	.LBE354:
 735              	.LBE353:
 736              	.LBB355:
 737              	.LBB356:
 738              		.loc 5 385 0
 739 0210 F0EE647A 		vmov.f32	s15, s9
 740 0214 E2EE077A 		vfma.f32	s15, s4, s14
 741              	.LVL56:
ARM GAS  C:\msys64\tmp\cchmnS75.s 			page 14


 742              		.loc 5 387 0
 743 0218 67EEE04A 		vnmul.f32	s9, s15, s1
 744              	.LBE356:
 745              	.LBE355:
 746              	.LBB358:
 747              	.LBB359:
 748              		.loc 2 826 0
 749 021c 77EEC57A 		vsub.f32	s15, s15, s10
 750              	.LVL57:
 751              	.LBE359:
 752              	.LBE358:
 753              	.LBB361:
 754              	.LBB357:
 755              		.loc 5 387 0
 756 0220 E1EE074A 		vfma.f32	s9, s2, s14
 757              	.LVL58:
 758              	.LBE357:
 759              	.LBE361:
 760              	.LBB362:
 761              	.LBB360:
 762              		.loc 2 826 0
 763 0224 A6EE275A 		vfma.f32	s10, s12, s15
 764              	.LVL59:
 765              	.LBE360:
 766              	.LBE362:
 767              	.LBE366:
 768              	.LBE387:
 769              	.LBB388:
 770              	.LBB385:
 771              	.LBB383:
 772              	.LBB381:
 773              	.LBB379:
 774              	.LBB377:
 775              		.loc 2 193 0
 776 0228 B4EEE95A 		vcmpe.f32	s10, s19
 777 022c F1EE10FA 		vmrs	APSR_nzcv, FPSCR
 778 0230 09DB     		blt	.L27
 779              	.LVL60:
 780 0232 B4EEE65A 		vcmpe.f32	s10, s13
 781 0236 F1EE10FA 		vmrs	APSR_nzcv, FPSCR
 782 023a B4BF     		ite	lt
 783 023c F0EE457A 		vmovlt.f32	s15, s10
 784 0240 F0EE4A7A 		vmovge.f32	s15, s20
 785 0244 01E0     		b	.L12
 786              	.LVL61:
 787              	.L27:
 788 0246 FFEE007A 		vmov.f32	s15, #-1.0e+0
 789              	.LVL62:
 790              	.L12:
 791              	.LBE377:
 792              	.LBE379:
 793              	.LBE381:
 794              	.LBE383:
 795              	.LBE385:
 796              	.LBE388:
 797              		.loc 1 63 0
 798 024a 27EEA77A 		vmul.f32	s14, s15, s15
ARM GAS  C:\msys64\tmp\cchmnS75.s 			page 15


 799              		.loc 1 66 0
 800 024e 36EE256A 		vadd.f32	s12, s12, s11
 801              	.LVL63:
 802              		.loc 1 63 0
 803 0252 27EEC77A 		vnmul.f32	s14, s15, s14
 804 0256 E7EE087A 		vfma.f32	s15, s14, s16
 805 025a 67EE807A 		vmul.f32	s15, s15, s0
 806 025e FDEEE77A 		vcvt.s32.f32	s15, s15
 807 0262 E1EC017A 		vstmia.32	r1!, {s15}	@ int
 808              	.LVL64:
 809              		.loc 1 67 0
 810 0266 FCEEC67A 		vcvt.u32.f32	s15, s12
 811 026a F8EE677A 		vcvt.f32.u32	s15, s15
 812 026e 36EE676A 		vsub.f32	s12, s12, s15
 813              	.LVL65:
 814              	.LBE394:
 815              		.loc 1 54 0
 816 0272 7EE7     		b	.L14
 817              	.LVL66:
 818              	.L7:
 819              	.LBE421:
 820              		.loc 1 73 0
 821 0274 BDEC068B 		vldm	sp!, {d8-d10}
 822              		.cfi_restore 84
 823              		.cfi_restore 85
 824              		.cfi_restore 82
 825              		.cfi_restore 83
 826              		.cfi_restore 80
 827              		.cfi_restore 81
 828              		.cfi_def_cfa_offset 16
 829 0278 83ED0C4A 		vstr.32	s8, [r3, #48]
 830 027c C3ED134A 		vstr.32	s9, [r3, #76]
 831 0280 83ED025A 		vstr.32	s10, [r3, #8]
 832              		.loc 1 71 0
 833 0284 83ED006A 		vstr.32	s12, [r3]
 834              		.loc 1 73 0
 835 0288 70BD     		pop	{r4, r5, r6, pc}
 836              	.L30:
 837 028a 00BF     		.align	2
 838              	.L29:
 839 028c 00000000 		.word	.LANCHOR0
 840 0290 8180803B 		.word	998277249
 841 0294 BC9C0244 		.word	1141021884
 842 0298 0000004F 		.word	1325400064
 843 029c 00000000 		.word	midi_to_hz_lut_f
 844 02a0 00000000 		.word	tanpi_lut_f
 845 02a4 00000000 		.word	wt_sine_lut_f
 846 02a8 49FFB846 		.word	1186529097
 847 02ac 00008043 		.word	1132462080
 848 02b0 CDCC4C3C 		.word	1011666125
 849 02b4 3EC3AE37 		.word	934200126
 850              		.cfi_endproc
 851              	.LFE294:
 852              		.size	_hook_cycle, .-_hook_cycle
 853              		.align	1
 854              		.global	_hook_on
 855              		.thumb
ARM GAS  C:\msys64\tmp\cchmnS75.s 			page 16


 856              		.thumb_func
 857              		.type	_hook_on, %function
 858              	_hook_on:
 859              	.LFB295:
 860              		.loc 1 75 0
 861              		.cfi_startproc
 862              		@ args = 0, pretend = 0, frame = 0
 863              		@ frame_needed = 0, uses_anonymous_args = 0
 864              		@ link register save eliminated.
 865              	.LVL67:
 866              		.loc 1 78 0
 867 02b8 024A     		ldr	r2, .L32
 868 02ba 137B     		ldrb	r3, [r2, #12]	@ zero_extendqisi2
 869 02bc 43F00103 		orr	r3, r3, #1
 870 02c0 1373     		strb	r3, [r2, #12]
 871 02c2 7047     		bx	lr
 872              	.L33:
 873              		.align	2
 874              	.L32:
 875 02c4 00000000 		.word	.LANCHOR0
 876              		.cfi_endproc
 877              	.LFE295:
 878              		.size	_hook_on, .-_hook_on
 879              		.align	1
 880              		.global	_hook_off
 881              		.thumb
 882              		.thumb_func
 883              		.type	_hook_off, %function
 884              	_hook_off:
 885              	.LFB296:
 886              		.loc 1 81 0
 887              		.cfi_startproc
 888              		@ args = 0, pretend = 0, frame = 0
 889              		@ frame_needed = 0, uses_anonymous_args = 0
 890              		@ link register save eliminated.
 891              	.LVL68:
 892 02c8 7047     		bx	lr
 893              		.cfi_endproc
 894              	.LFE296:
 895              		.size	_hook_off, .-_hook_off
 896              		.align	1
 897              		.global	_hook_param
 898              		.thumb
 899              		.thumb_func
 900              		.type	_hook_param, %function
 901              	_hook_param:
 902              	.LFB297:
 903              		.loc 1 86 0
 904              		.cfi_startproc
 905              		@ args = 0, pretend = 0, frame = 0
 906              		@ frame_needed = 0, uses_anonymous_args = 0
 907              		@ link register save eliminated.
 908              	.LVL69:
 909              		.loc 1 90 0
 910 02ca 07EE901A 		vmov	s15, r1	@ int
 911              		.loc 1 92 0
 912 02ce 0128     		cmp	r0, #1
ARM GAS  C:\msys64\tmp\cchmnS75.s 			page 17


 913              		.loc 1 90 0
 914 02d0 F8EEE77A 		vcvt.f32.s32	s15, s15
 915              	.LVL70:
 916              		.loc 1 92 0
 917 02d4 1CD0     		beq	.L37
 918 02d6 02D3     		bcc	.L38
 919 02d8 0228     		cmp	r0, #2
 920 02da 32D0     		beq	.L39
 921 02dc 7047     		bx	lr
 922              	.L38:
 923              		.loc 1 95 0
 924 02de 9FED1D7A 		vldr.32	s14, .L52
 925 02e2 67EE877A 		vmul.f32	s15, s15, s14
 926              	.LVL71:
 927              	.LBB422:
 928              	.LBB423:
 929              	.LBB424:
 930              	.LBB425:
 931              		.loc 2 193 0
 932 02e6 F5EEC07A 		vcmpe.f32	s15, #0
 933 02ea F1EE10FA 		vmrs	APSR_nzcv, FPSCR
 934 02ee 09DB     		blt	.L50
 935              	.LVL72:
 936              	.LBE425:
 937              	.LBE424:
 938              	.LBB427:
 939              	.LBB428:
 940 02f0 B7EE007A 		vmov.f32	s14, #1.0e+0
 941              	.LBE428:
 942              	.LBE427:
 943              	.LBB429:
 944              	.LBB426:
 945 02f4 F4EEC77A 		vcmpe.f32	s15, s14
 946 02f8 F1EE10FA 		vmrs	APSR_nzcv, FPSCR
 947 02fc A8BF     		it	ge
 948 02fe F0EE477A 		vmovge.f32	s15, s14
 949              	.LVL73:
 950 0302 01E0     		b	.L40
 951              	.LVL74:
 952              	.L50:
 953 0304 DFED147A 		vldr.32	s15, .L52+4
 954              	.LVL75:
 955              	.L40:
 956              	.LBE426:
 957              	.LBE429:
 958              	.LBE423:
 959              	.LBE422:
 960              		.loc 1 95 0
 961 0308 144B     		ldr	r3, .L52+8
 962 030a C3ED047A 		vstr.32	s15, [r3, #16]
 963              		.loc 1 96 0
 964 030e 7047     		bx	lr
 965              	.LVL76:
 966              	.L37:
 967              		.loc 1 100 0
 968 0310 9FED107A 		vldr.32	s14, .L52
 969 0314 67EE877A 		vmul.f32	s15, s15, s14
ARM GAS  C:\msys64\tmp\cchmnS75.s 			page 18


 970              	.LVL77:
 971              	.LBB430:
 972              	.LBB431:
 973              	.LBB432:
 974              	.LBB433:
 975              		.loc 2 193 0
 976 0318 F5EEC07A 		vcmpe.f32	s15, #0
 977 031c F1EE10FA 		vmrs	APSR_nzcv, FPSCR
 978 0320 09DB     		blt	.L51
 979              	.LVL78:
 980              	.LBE433:
 981              	.LBE432:
 982              	.LBB435:
 983              	.LBB436:
 984 0322 B7EE007A 		vmov.f32	s14, #1.0e+0
 985              	.LBE436:
 986              	.LBE435:
 987              	.LBB437:
 988              	.LBB434:
 989 0326 F4EEC77A 		vcmpe.f32	s15, s14
 990 032a F1EE10FA 		vmrs	APSR_nzcv, FPSCR
 991 032e A8BF     		it	ge
 992 0330 F0EE477A 		vmovge.f32	s15, s14
 993              	.LVL79:
 994 0334 01E0     		b	.L42
 995              	.LVL80:
 996              	.L51:
 997 0336 DFED087A 		vldr.32	s15, .L52+4
 998              	.LVL81:
 999              	.L42:
 1000              	.LBE434:
 1001              	.LBE437:
 1002              	.LBE431:
 1003              	.LBE430:
 1004              		.loc 1 100 0
 1005 033a 084B     		ldr	r3, .L52+8
 1006 033c C3ED057A 		vstr.32	s15, [r3, #20]
 1007              		.loc 1 101 0
 1008 0340 7047     		bx	lr
 1009              	.LVL82:
 1010              	.L39:
 1011              		.loc 1 105 0
 1012 0342 B7EE007A 		vmov.f32	s14, #1.0e+0
 1013 0346 77EE877A 		vadd.f32	s15, s15, s14
 1014              	.LVL83:
 1015 034a 044B     		ldr	r3, .L52+8
 1016 034c C3ED067A 		vstr.32	s15, [r3, #24]
 1017 0350 7047     		bx	lr
 1018              	.L53:
 1019 0352 00BF     		.align	2
 1020              	.L52:
 1021 0354 0AD7233C 		.word	1008981770
 1022 0358 00000000 		.word	0
 1023 035c 00000000 		.word	.LANCHOR0
 1024              		.cfi_endproc
 1025              	.LFE297:
 1026              		.size	_hook_param, .-_hook_param
ARM GAS  C:\msys64\tmp\cchmnS75.s 			page 19


 1027              		.section	.text.startup,"ax",%progbits
 1028              		.align	1
 1029              		.thumb
 1030              		.thumb_func
 1031              		.type	_GLOBAL__sub_I__hook_init, %function
 1032              	_GLOBAL__sub_I__hook_init:
 1033              	.LFB299:
 1034              		.loc 1 125 0
 1035              		.cfi_startproc
 1036              		@ args = 0, pretend = 0, frame = 0
 1037              		@ frame_needed = 0, uses_anonymous_args = 0
 1038              		@ link register save eliminated.
 1039              	.LVL84:
 1040              	.LBB461:
 1041              	.LBB462:
 1042              	.LBB463:
 1043              	.LBB464:
 1044              	.LBB465:
 1045              		.loc 3 46 0
 1046 0000 0F4B     		ldr	r3, .L55
 1047 0002 197B     		ldrb	r1, [r3, #12]	@ zero_extendqisi2
 1048 0004 6FF30001 		bfc	r1, #0, #1
 1049 0008 1973     		strb	r1, [r3, #12]
 1050              	.LVL85:
 1051              	.LBE465:
 1052              	.LBE464:
 1053              	.LBB468:
 1054              	.LBB469:
 1055              		.loc 3 33 0
 1056 000a 4FF07C51 		mov	r1, #1056964608
 1057              	.LBE469:
 1058              	.LBE468:
 1059              	.LBB472:
 1060              	.LBB466:
 1061              		.loc 3 46 0
 1062 000e 0022     		movs	r2, #0
 1063              	.LBE466:
 1064              	.LBE472:
 1065              	.LBB473:
 1066              	.LBB470:
 1067              		.loc 3 33 0
 1068 0010 1961     		str	r1, [r3, #16]	@ float
 1069 0012 5961     		str	r1, [r3, #20]	@ float
 1070 0014 4FF07E51 		mov	r1, #1065353216
 1071              	.LBE470:
 1072              	.LBE473:
 1073              	.LBB474:
 1074              	.LBB467:
 1075              		.loc 3 46 0
 1076 0018 1A60     		str	r2, [r3]	@ float
 1077 001a 5A60     		str	r2, [r3, #4]	@ float
 1078 001c 9A60     		str	r2, [r3, #8]	@ float
 1079              	.LBE467:
 1080              	.LBE474:
 1081              	.LBB475:
 1082              	.LBB471:
 1083              		.loc 3 33 0
ARM GAS  C:\msys64\tmp\cchmnS75.s 			page 20


 1084 001e 9961     		str	r1, [r3, #24]	@ float
 1085              	.LVL86:
 1086              	.LBE471:
 1087              	.LBE475:
 1088              	.LBB476:
 1089              	.LBB477:
 1090              	.LBB478:
 1091              	.LBB479:
 1092              		.loc 5 77 0
 1093 0020 DA61     		str	r2, [r3, #28]	@ float
 1094 0022 1A62     		str	r2, [r3, #32]	@ float
 1095 0024 5A62     		str	r2, [r3, #36]	@ float
 1096 0026 9A62     		str	r2, [r3, #40]	@ float
 1097 0028 DA62     		str	r2, [r3, #44]	@ float
 1098              	.LVL87:
 1099              	.LBE479:
 1100              	.LBE478:
 1101              		.loc 5 344 0
 1102 002a 1A63     		str	r2, [r3, #48]	@ float
 1103 002c 5A63     		str	r2, [r3, #52]	@ float
 1104              	.LVL88:
 1105              	.LBE477:
 1106              	.LBE476:
 1107              	.LBB480:
 1108              	.LBB481:
 1109              	.LBB482:
 1110              	.LBB483:
 1111              		.loc 5 77 0
 1112 002e 9A63     		str	r2, [r3, #56]	@ float
 1113 0030 DA63     		str	r2, [r3, #60]	@ float
 1114 0032 1A64     		str	r2, [r3, #64]	@ float
 1115 0034 5A64     		str	r2, [r3, #68]	@ float
 1116 0036 9A64     		str	r2, [r3, #72]	@ float
 1117              	.LVL89:
 1118              	.LBE483:
 1119              	.LBE482:
 1120              		.loc 5 344 0
 1121 0038 DA64     		str	r2, [r3, #76]	@ float
 1122 003a 1A65     		str	r2, [r3, #80]	@ float
 1123              	.LVL90:
 1124 003c 7047     		bx	lr
 1125              	.L56:
 1126 003e 00BF     		.align	2
 1127              	.L55:
 1128 0040 00000000 		.word	.LANCHOR0
 1129              	.LBE481:
 1130              	.LBE480:
 1131              	.LBE463:
 1132              	.LBE462:
 1133              	.LBE461:
 1134              		.cfi_endproc
 1135              	.LFE299:
 1136              		.size	_GLOBAL__sub_I__hook_init, .-_GLOBAL__sub_I__hook_init
 1137              		.section	.init_array,"aw",%init_array
 1138              		.align	2
 1139 0000 00000000 		.word	_GLOBAL__sub_I__hook_init(target1)
 1140              		.bss
ARM GAS  C:\msys64\tmp\cchmnS75.s 			page 21


 1141              		.align	2
 1142              		.set	.LANCHOR0,. + 0
 1143              		.type	_ZL3vps, %object
 1144              		.size	_ZL3vps, 84
 1145              	_ZL3vps:
 1146 0000 00000000 		.space	84
 1146      00000000 
 1146      00000000 
 1146      00000000 
 1146      00000000 
 1147              		.text
 1148              	.Letext0:
 1149              		.file 6 "c:\\msys64\\home\\logue-sdk\\tools\\gcc\\gcc-arm-none-eabi-5_4-2016q3\\arm-none-eabi\\inc
 1150              		.file 7 "c:\\msys64\\home\\logue-sdk\\tools\\gcc\\gcc-arm-none-eabi-5_4-2016q3\\arm-none-eabi\\inc
 1151              		.file 8 "c:\\msys64\\home\\logue-sdk\\platform\\ext\\cmsis\\cmsis\\include\\arm_math.h"
 1152              		.file 9 "C:/msys64/home/logue-sdk/platform/nutekt-digital/inc/userosc.h"
 1153              		.file 10 "C:/msys64/home/logue-sdk/platform/nutekt-digital/inc/userprg.h"
 1154              		.file 11 "C:/msys64/home/logue-sdk/platform/nutekt-digital/inc/utils/int_math.h"