ARM GAS  C:\msys64\tmp\ccbCzhpa.s 			page 1


   1              		.syntax unified
   2              		.cpu cortex-m4
   3              		.eabi_attribute 27, 1
   4              		.eabi_attribute 28, 1
   5              		.fpu fpv4-sp-d16
   6              		.eabi_attribute 20, 1
   7              		.eabi_attribute 21, 1
   8              		.eabi_attribute 23, 3
   9              		.eabi_attribute 24, 1
  10              		.eabi_attribute 25, 1
  11              		.eabi_attribute 26, 1
  12              		.eabi_attribute 30, 4
  13              		.eabi_attribute 34, 1
  14              		.eabi_attribute 18, 4
  15              		.thumb
  16              		.syntax unified
  17              		.file	"vps_formants.cpp"
  18              		.text
  19              	.Ltext0:
  20              		.cfi_sections	.debug_frame
  21              		.align	1
  22              		.global	_hook_init
  23              		.thumb
  24              		.thumb_func
  25              		.type	_hook_init, %function
  26              	_hook_init:
  27              	.LFB250:
  28              		.file 1 "vps_formants.cpp"
  29              		.loc 1 14 0
  30              		.cfi_startproc
  31              		@ args = 0, pretend = 0, frame = 0
  32              		@ frame_needed = 0, uses_anonymous_args = 0
  33              		@ link register save eliminated.
  34              	.LVL0:
  35 0000 7047     		bx	lr
  36              		.cfi_endproc
  37              	.LFE250:
  38              		.size	_hook_init, .-_hook_init
  39              		.align	1
  40              		.global	_hook_cycle
  41              		.thumb
  42              		.thumb_func
  43              		.type	_hook_cycle, %function
  44              	_hook_cycle:
  45              	.LFB251:
  46              		.loc 1 19 0
  47              		.cfi_startproc
  48              		@ args = 0, pretend = 0, frame = 0
  49              		@ frame_needed = 0, uses_anonymous_args = 0
  50              	.LVL1:
  51              		.loc 1 25 0
  52 0002 5F4B     		ldr	r3, .L29
  53              	.LBB170:
  54              	.LBB171:
  55              	.LBB172:
  56              	.LBB173:
  57              		.file 2 "C:/msys64/home/logue-sdk/platform/nutekt-digital/inc/utils/float_math.h"
ARM GAS  C:\msys64\tmp\ccbCzhpa.s 			page 2


  58              		.loc 2 826 0
  59 0004 9FED5F7A 		vldr.32	s14, .L29+4
  60              	.LBE173:
  61              	.LBE172:
  62              	.LBE171:
  63              	.LBE170:
  64              	.LBB203:
  65              	.LBB204:
  66              	.LBB205:
  67              	.LBB206:
  68              		.file 3 "vps_formants.hpp"
  69              		.loc 3 56 0
  70 0008 D3ED035A 		vldr.32	s11, [r3, #12]
  71              		.loc 3 57 0
  72 000c D3ED044A 		vldr.32	s9, [r3, #16]
  73              	.LBB207:
  74              	.LBB208:
  75              	.LBB209:
  76              	.LBB210:
  77              		.file 4 "C:/msys64/home/logue-sdk/platform/nutekt-digital/inc/osc_api.h"
  78              		.loc 4 154 0
  79 0010 9FED5D2A 		vldr.32	s4, .L29+8
  80              	.LBE210:
  81              	.LBE209:
  82              	.LBE208:
  83              	.LBE207:
  84              	.LBE206:
  85              	.LBE205:
  86              		.loc 1 56 0
  87 0014 9FED5D3A 		vldr.32	s6, .L29+12
  88 0018 DFED5D3A 		vldr.32	s7, .L29+16
  89              	.LBE204:
  90              	.LBE203:
  91              		.loc 1 19 0
  92 001c 70B5     		push	{r4, r5, r6, lr}
  93              		.cfi_def_cfa_offset 16
  94              		.cfi_offset 4, -16
  95              		.cfi_offset 5, -12
  96              		.cfi_offset 6, -8
  97              		.cfi_offset 14, -4
  98              		.loc 1 25 0
  99 001e 1C7A     		ldrb	r4, [r3, #8]	@ zero_extendqisi2
 100              	.LVL2:
 101              		.loc 1 27 0
 102 0020 2546     		mov	r5, r4
 103              		.loc 1 30 0
 104 0022 E407     		lsls	r4, r4, #31
 105              	.LVL3:
 106              	.LBB258:
 107              	.LBB259:
 108              		.loc 3 46 0
 109 0024 44BF     		itt	mi
 110 0026 0024     		movmi	r4, #0
 111 0028 1C60     		strmi	r4, [r3]	@ float
 112              	.LBE259:
 113              	.LBE258:
 114              		.loc 1 35 0
ARM GAS  C:\msys64\tmp\ccbCzhpa.s 			page 3


 115 002a 8488     		ldrh	r4, [r0, #4]
 116              		.loc 1 41 0
 117 002c D3ED006A 		vldr.32	s13, [r3]
 118              		.loc 1 35 0
 119 0030 2012     		asrs	r0, r4, #8
 120              	.LVL4:
 121              		.loc 1 27 0
 122 0032 6FF30005 		bfc	r5, #0, #1
 123              	.LBB260:
 124              	.LBB198:
 125              	.LBB177:
 126              	.LBB178:
 127              		.loc 4 109 0
 128 0036 9628     		cmp	r0, #150
 129              	.LBE178:
 130              	.LBE177:
 131              	.LBE198:
 132              	.LBE260:
 133              		.loc 1 27 0
 134 0038 1D72     		strb	r5, [r3, #8]
 135              		.loc 1 38 0
 136 003a E4B2     		uxtb	r4, r4
 137              	.LBB261:
 138              	.LBB199:
 139              	.LBB183:
 140              	.LBB179:
 141              		.loc 4 109 0
 142 003c D8BF     		it	le
 143 003e 0546     		movle	r5, r0
 144              	.LBE179:
 145              	.LBE183:
 146              		.loc 4 120 0
 147 0040 00F10100 		add	r0, r0, #1
 148              	.LVL5:
 149 0044 C0B2     		uxtb	r0, r0
 150              	.LVL6:
 151              	.LBE199:
 152              	.LBE261:
 153              		.loc 1 38 0
 154 0046 07EE904A 		vmov	s15, r4	@ int
 155              	.LVL7:
 156              	.LBB262:
 157              	.LBB200:
 158              	.LBB184:
 159              	.LBB180:
 160              		.loc 4 109 0
 161 004a C8BF     		it	gt
 162 004c 9725     		movgt	r5, #151
 163              	.LVL8:
 164 004e 514C     		ldr	r4, .L29+20
 165              	.LVL9:
 166              	.LBE180:
 167              	.LBE184:
 168              	.LBB185:
 169              	.LBB186:
 170 0050 9628     		cmp	r0, #150
 171 0052 88BF     		it	hi
ARM GAS  C:\msys64\tmp\ccbCzhpa.s 			page 4


 172 0054 9720     		movhi	r0, #151
 173              	.LBE186:
 174              	.LBE185:
 175              	.LBB188:
 176              	.LBB174:
 177              		.loc 2 826 0
 178 0056 F8EEE77A 		vcvt.f32.s32	s15, s15
 179              	.LVL10:
 180              	.LBE174:
 181              	.LBE188:
 182              	.LBB189:
 183              	.LBB181:
 184              		.loc 4 109 0
 185 005a 04EB8505 		add	r5, r4, r5, lsl #2
 186              	.LBE181:
 187              	.LBE189:
 188              	.LBB190:
 189              	.LBB187:
 190 005e 04EB8000 		add	r0, r4, r0, lsl #2
 191              	.LBE187:
 192              	.LBE190:
 193              	.LBB191:
 194              	.LBB182:
 195 0062 95ED006A 		vldr.32	s12, [r5]
 196              	.LVL11:
 197              	.LBE182:
 198              	.LBE191:
 199              	.LBE200:
 200              	.LBE262:
 201              	.LBB263:
 202              	.LBB254:
 203              	.LBB238:
 204              	.LBB234:
 205              	.LBB226:
 206              	.LBB223:
 207              	.LBB221:
 208              	.LBB219:
 209              		.loc 4 160 0
 210 0066 4C4D     		ldr	r5, .L29+24
 211              	.LBE219:
 212              	.LBE221:
 213              	.LBE223:
 214              	.LBE226:
 215              	.LBE234:
 216              	.LBE238:
 217              	.LBE254:
 218              	.LBE263:
 219              	.LBB264:
 220              	.LBB201:
 221              	.LBB192:
 222              	.LBB175:
 223              		.loc 2 826 0
 224 0068 67EE877A 		vmul.f32	s15, s15, s14
 225 006c 90ED007A 		vldr.32	s14, [r0]
 226 0070 37EE467A 		vsub.f32	s14, s14, s12
 227              	.LBE175:
 228              	.LBE192:
ARM GAS  C:\msys64\tmp\ccbCzhpa.s 			page 5


 229              	.LBE201:
 230              	.LBE264:
 231              		.loc 1 45 0
 232 0074 01EB8202 		add	r2, r1, r2, lsl #2
 233              	.LVL12:
 234              	.LBB265:
 235              	.LBB202:
 236              	.LBB193:
 237              	.LBB176:
 238              		.loc 2 826 0
 239 0078 A7EE876A 		vfma.f32	s12, s15, s14
 240              	.LVL13:
 241              	.LBE176:
 242              	.LBE193:
 243              	.LBB194:
 244              	.LBB195:
 245              	.LBB196:
 246              	.LBB197:
 247              		.loc 2 193 0
 248 007c DFED477A 		vldr.32	s15, .L29+28
 249 0080 B4EEE76A 		vcmpe.f32	s12, s15
 250 0084 F1EE10FA 		vmrs	APSR_nzcv, FPSCR
 251 0088 A8BF     		it	ge
 252 008a B0EE676A 		vmovge.f32	s12, s15
 253              	.LVL14:
 254              	.LBE197:
 255              	.LBE196:
 256              	.LBE195:
 257              	.LBE194:
 258              		.loc 4 124 0
 259 008e DFED447A 		vldr.32	s15, .L29+32
 260 0092 26EE276A 		vmul.f32	s12, s12, s15
 261              	.LVL15:
 262              	.LBE202:
 263              	.LBE265:
 264              	.LBB266:
 265              	.LBB255:
 266              	.LBB239:
 267              	.LBB235:
 268              	.LBB227:
 269              	.LBB228:
 270              		.loc 3 67 0
 271 0096 B7EE005A 		vmov.f32	s10, #1.0e+0
 272              	.LBE228:
 273              	.LBE227:
 274              	.LBE235:
 275              	.LBE239:
 276              	.LBE255:
 277              	.LBE266:
 278              		.loc 1 38 0
 279 009a 83ED016A 		vstr.32	s12, [r3, #4]
 280              	.LVL16:
 281              	.LBB267:
 282              	.LBB256:
 283              	.LBB240:
 284              	.LBB236:
 285              	.LBB231:
ARM GAS  C:\msys64\tmp\ccbCzhpa.s 			page 6


 286              	.LBB224:
 287              		.loc 4 171 0
 288 009e F5EE002A 		vmov.f32	s5, #2.5e-1
 289              	.LBE224:
 290              	.LBE231:
 291              	.LBE236:
 292              	.LBE240:
 293              	.LBB241:
 294              	.LBB242:
 295              	.LBB243:
 296              	.LBB244:
 297              	.LBB245:
 298              	.LBB246:
 299              		.loc 2 193 0
 300 00a2 FFEE001A 		vmov.f32	s3, #-1.0e+0
 301              	.LVL17:
 302              	.L14:
 303              	.LBE246:
 304              	.LBE245:
 305              	.LBE244:
 306              	.LBE243:
 307              	.LBE242:
 308              	.LBE241:
 309              	.LBE256:
 310              		.loc 1 48 0
 311 00a6 9142     		cmp	r1, r2
 312 00a8 66D0     		beq	.L7
 313              	.LVL18:
 314              	.LBB257:
 315              	.LBB252:
 316              	.LBB237:
 317              	.LBB232:
 318              		.loc 3 60 0
 319 00aa F4EEE56A 		vcmpe.f32	s13, s11
 320 00ae F1EE10FA 		vmrs	APSR_nzcv, FPSCR
 321 00b2 04D5     		bpl	.L26
 322              	.LVL19:
 323              	.LBB229:
 324              		.loc 3 62 0
 325 00b4 C6EEA57A 		vdiv.f32	s15, s13, s11
 326              	.LVL20:
 327 00b8 67EEA47A 		vmul.f32	s15, s15, s9
 328              	.LVL21:
 329 00bc 0DE0     		b	.L10
 330              	.LVL22:
 331              	.L26:
 332              	.LBE229:
 333              	.LBB230:
 334              		.loc 3 67 0
 335 00be 76EEE57A 		vsub.f32	s15, s13, s11
 336              	.LVL23:
 337 00c2 35EE654A 		vsub.f32	s8, s10, s11
 338 00c6 87EE847A 		vdiv.f32	s14, s15, s8
 339 00ca 75EE647A 		vsub.f32	s15, s10, s9
 340              	.LVL24:
 341 00ce B0EE644A 		vmov.f32	s8, s9
 342 00d2 A7EE274A 		vfma.f32	s8, s14, s15
ARM GAS  C:\msys64\tmp\ccbCzhpa.s 			page 7


 343 00d6 F0EE447A 		vmov.f32	s15, s8
 344              	.LVL25:
 345              	.L10:
 346              	.LBE230:
 347              	.LBE232:
 348              	.LBB233:
 349              	.LBB225:
 350              		.loc 4 171 0
 351 00da 77EEA27A 		vadd.f32	s15, s15, s5
 352              	.LVL26:
 353              	.LBB222:
 354              	.LBB220:
 355              		.loc 4 154 0
 356 00de BCEEE77A 		vcvt.u32.f32	s14, s15
 357 00e2 B8EE477A 		vcvt.f32.u32	s14, s14
 358 00e6 37EEC77A 		vsub.f32	s14, s15, s14
 359 00ea 27EE027A 		vmul.f32	s14, s14, s4
 360              	.LVL27:
 361              		.loc 4 155 0
 362 00ee FCEEC77A 		vcvt.u32.f32	s15, s14
 363              	.LVL28:
 364 00f2 17EE904A 		vmov	r4, s15	@ int
 365              	.LVL29:
 366              		.loc 4 157 0
 367 00f6 04F07F00 		and	r0, r4, #127
 368              	.LVL30:
 369              	.LBB211:
 370              	.LBB212:
 371              		.loc 2 826 0
 372 00fa 04EE104A 		vmov	s8, r4	@ int
 373              	.LBE212:
 374              	.LBE211:
 375              		.loc 4 160 0
 376 00fe 05EB8006 		add	r6, r5, r0, lsl #2
 377 0102 0130     		adds	r0, r0, #1
 378              	.LVL31:
 379              	.LBB216:
 380              	.LBB213:
 381              		.loc 2 826 0
 382 0104 B8EE444A 		vcvt.f32.u32	s8, s8
 383              	.LBE213:
 384              	.LBE216:
 385              		.loc 4 160 0
 386 0108 00F07F00 		and	r0, r0, #127
 387              	.LVL32:
 388 010c 05EB8000 		add	r0, r5, r0, lsl #2
 389              	.LVL33:
 390 0110 D6ED007A 		vldr.32	s15, [r6]
 391              	.LVL34:
 392              	.LBB217:
 393              	.LBB214:
 394              		.loc 2 826 0
 395 0114 37EE447A 		vsub.f32	s14, s14, s8
 396              	.LVL35:
 397 0118 90ED004A 		vldr.32	s8, [r0]
 398 011c 34EE674A 		vsub.f32	s8, s8, s15
 399              	.LBE214:
ARM GAS  C:\msys64\tmp\ccbCzhpa.s 			page 8


 400              	.LBE217:
 401              		.loc 4 161 0
 402 0120 7F2C     		cmp	r4, #127
 403              	.LBB218:
 404              	.LBB215:
 405              		.loc 2 826 0
 406 0122 E7EE047A 		vfma.f32	s15, s14, s8
 407              	.LVL36:
 408              	.LBE215:
 409              	.LBE218:
 410              		.loc 4 161 0
 411 0126 88BF     		it	hi
 412 0128 F1EE677A 		vneghi.f32	s15, s15
 413              	.LVL37:
 414              	.LBE220:
 415              	.LBE222:
 416              	.LBE225:
 417              	.LBE233:
 418              		.loc 3 70 0
 419 012c F1EE677A 		vneg.f32	s15, s15
 420              	.LVL38:
 421              	.LBE237:
 422              	.LBE252:
 423              	.LBB253:
 424              	.LBB251:
 425              	.LBB250:
 426              	.LBB249:
 427              	.LBB248:
 428              	.LBB247:
 429              		.loc 2 193 0
 430 0130 F4EEE17A 		vcmpe.f32	s15, s3
 431 0134 F1EE10FA 		vmrs	APSR_nzcv, FPSCR
 432 0138 07DB     		blt	.L27
 433              	.LVL39:
 434 013a F4EEC57A 		vcmpe.f32	s15, s10
 435 013e F1EE10FA 		vmrs	APSR_nzcv, FPSCR
 436 0142 A8BF     		it	ge
 437 0144 F0EE457A 		vmovge.f32	s15, s10
 438              	.LVL40:
 439 0148 01E0     		b	.L12
 440              	.LVL41:
 441              	.L27:
 442 014a FFEE007A 		vmov.f32	s15, #-1.0e+0
 443              	.LVL42:
 444              	.L12:
 445              	.LBE247:
 446              	.LBE248:
 447              	.LBE249:
 448              	.LBE250:
 449              	.LBE251:
 450              	.LBE253:
 451              		.loc 1 56 0
 452 014e 27EEA77A 		vmul.f32	s14, s15, s15
 453              		.loc 1 59 0
 454 0152 76EE866A 		vadd.f32	s13, s13, s12
 455              	.LVL43:
 456              		.loc 1 56 0
ARM GAS  C:\msys64\tmp\ccbCzhpa.s 			page 9


 457 0156 27EEC77A 		vnmul.f32	s14, s15, s14
 458 015a E7EE037A 		vfma.f32	s15, s14, s6
 459 015e 67EEA37A 		vmul.f32	s15, s15, s7
 460 0162 FDEEE77A 		vcvt.s32.f32	s15, s15
 461 0166 E1EC017A 		vstmia.32	r1!, {s15}	@ int
 462              	.LVL44:
 463              		.loc 1 60 0
 464 016a FCEEE67A 		vcvt.u32.f32	s15, s13
 465 016e F8EE677A 		vcvt.f32.u32	s15, s15
 466 0172 76EEE76A 		vsub.f32	s13, s13, s15
 467              	.LVL45:
 468              	.LBE257:
 469              		.loc 1 48 0
 470 0176 96E7     		b	.L14
 471              	.LVL46:
 472              	.L7:
 473              	.LBE267:
 474              		.loc 1 64 0
 475 0178 C3ED006A 		vstr.32	s13, [r3]
 476 017c 70BD     		pop	{r4, r5, r6, pc}
 477              	.L30:
 478 017e 00BF     		.align	2
 479              	.L29:
 480 0180 00000000 		.word	.LANCHOR0
 481 0184 8180803B 		.word	998277249
 482 0188 00008043 		.word	1132462080
 483 018c CDCC4C3D 		.word	1028443341
 484 0190 0000004F 		.word	1325400064
 485 0194 00000000 		.word	midi_to_hz_lut_f
 486 0198 00000000 		.word	wt_sine_lut_f
 487 019c 49FFB846 		.word	1186529097
 488 01a0 3EC3AE37 		.word	934200126
 489              		.cfi_endproc
 490              	.LFE251:
 491              		.size	_hook_cycle, .-_hook_cycle
 492              		.align	1
 493              		.global	_hook_on
 494              		.thumb
 495              		.thumb_func
 496              		.type	_hook_on, %function
 497              	_hook_on:
 498              	.LFB252:
 499              		.loc 1 68 0
 500              		.cfi_startproc
 501              		@ args = 0, pretend = 0, frame = 0
 502              		@ frame_needed = 0, uses_anonymous_args = 0
 503              		@ link register save eliminated.
 504              	.LVL47:
 505              		.loc 1 70 0
 506 01a4 024A     		ldr	r2, .L32
 507 01a6 137A     		ldrb	r3, [r2, #8]	@ zero_extendqisi2
 508 01a8 43F00103 		orr	r3, r3, #1
 509 01ac 1372     		strb	r3, [r2, #8]
 510 01ae 7047     		bx	lr
 511              	.L33:
 512              		.align	2
 513              	.L32:
ARM GAS  C:\msys64\tmp\ccbCzhpa.s 			page 10


 514 01b0 00000000 		.word	.LANCHOR0
 515              		.cfi_endproc
 516              	.LFE252:
 517              		.size	_hook_on, .-_hook_on
 518              		.align	1
 519              		.global	_hook_off
 520              		.thumb
 521              		.thumb_func
 522              		.type	_hook_off, %function
 523              	_hook_off:
 524              	.LFB253:
 525              		.loc 1 73 0
 526              		.cfi_startproc
 527              		@ args = 0, pretend = 0, frame = 0
 528              		@ frame_needed = 0, uses_anonymous_args = 0
 529              		@ link register save eliminated.
 530              	.LVL48:
 531 01b4 7047     		bx	lr
 532              		.cfi_endproc
 533              	.LFE253:
 534              		.size	_hook_off, .-_hook_off
 535              		.align	1
 536              		.global	_hook_param
 537              		.thumb
 538              		.thumb_func
 539              		.type	_hook_param, %function
 540              	_hook_param:
 541              	.LFB254:
 542              		.loc 1 78 0
 543              		.cfi_startproc
 544              		@ args = 0, pretend = 0, frame = 0
 545              		@ frame_needed = 0, uses_anonymous_args = 0
 546              		@ link register save eliminated.
 547              	.LVL49:
 548              		.loc 1 82 0
 549 01b6 07EE901A 		vmov	s15, r1	@ int
 550 01ba B8EEE77A 		vcvt.f32.s32	s14, s15
 551 01be DFED0C7A 		vldr.32	s15, .L40
 552              		.loc 1 83 0
 553 01c2 0628     		cmp	r0, #6
 554              		.loc 1 82 0
 555 01c4 67EE277A 		vmul.f32	s15, s14, s15
 556              	.LVL50:
 557              		.loc 1 83 0
 558 01c8 0AD0     		beq	.L37
 559 01ca 0728     		cmp	r0, #7
 560 01cc 0CD0     		beq	.L38
 561 01ce 70B9     		cbnz	r0, .L35
 562              		.loc 1 86 0
 563 01d0 DFED087A 		vldr.32	s15, .L40+4
 564              	.LVL51:
 565 01d4 084B     		ldr	r3, .L40+8
 566 01d6 27EE277A 		vmul.f32	s14, s14, s15
 567              	.LVL52:
 568 01da 83ED047A 		vstr.32	s14, [r3, #16]
 569              		.loc 1 87 0
 570 01de 7047     		bx	lr
ARM GAS  C:\msys64\tmp\ccbCzhpa.s 			page 11


 571              	.LVL53:
 572              	.L37:
 573              		.loc 1 101 0
 574 01e0 054B     		ldr	r3, .L40+8
 575 01e2 C3ED037A 		vstr.32	s15, [r3, #12]
 576              		.loc 1 102 0
 577 01e6 7047     		bx	lr
 578              	.L38:
 579              		.loc 1 106 0
 580 01e8 034B     		ldr	r3, .L40+8
 581 01ea C3ED047A 		vstr.32	s15, [r3, #16]
 582              	.L35:
 583 01ee 7047     		bx	lr
 584              	.L41:
 585              		.align	2
 586              	.L40:
 587 01f0 0820803A 		.word	981475336
 588 01f4 CDCCCC3D 		.word	1036831949
 589 01f8 00000000 		.word	.LANCHOR0
 590              		.cfi_endproc
 591              	.LFE254:
 592              		.size	_hook_param, .-_hook_param
 593              		.section	.text.startup,"ax",%progbits
 594              		.align	1
 595              		.thumb
 596              		.thumb_func
 597              		.type	_GLOBAL__sub_I__hook_init, %function
 598              	_GLOBAL__sub_I__hook_init:
 599              	.LFB256:
 600              		.loc 1 111 0
 601              		.cfi_startproc
 602              		@ args = 0, pretend = 0, frame = 0
 603              		@ frame_needed = 0, uses_anonymous_args = 0
 604              		@ link register save eliminated.
 605              	.LVL54:
 606              	.LBB278:
 607              	.LBB279:
 608              	.LBB280:
 609              	.LBB281:
 610              	.LBB282:
 611              		.loc 3 40 0
 612 0000 054B     		ldr	r3, .L43
 613 0002 197A     		ldrb	r1, [r3, #8]	@ zero_extendqisi2
 614 0004 0022     		movs	r2, #0
 615 0006 6FF30001 		bfc	r1, #0, #1
 616 000a 1A60     		str	r2, [r3]	@ float
 617 000c 5A60     		str	r2, [r3, #4]	@ float
 618 000e 1972     		strb	r1, [r3, #8]
 619              	.LVL55:
 620              	.LBE282:
 621              	.LBE281:
 622              	.LBB283:
 623              	.LBB284:
 624              		.loc 3 28 0
 625 0010 DA60     		str	r2, [r3, #12]	@ float
 626 0012 1A61     		str	r2, [r3, #16]	@ float
 627              	.LVL56:
ARM GAS  C:\msys64\tmp\ccbCzhpa.s 			page 12


 628 0014 7047     		bx	lr
 629              	.L44:
 630 0016 00BF     		.align	2
 631              	.L43:
 632 0018 00000000 		.word	.LANCHOR0
 633              	.LBE284:
 634              	.LBE283:
 635              	.LBE280:
 636              	.LBE279:
 637              	.LBE278:
 638              		.cfi_endproc
 639              	.LFE256:
 640              		.size	_GLOBAL__sub_I__hook_init, .-_GLOBAL__sub_I__hook_init
 641              		.section	.init_array,"aw",%init_array
 642              		.align	2
 643 0000 00000000 		.word	_GLOBAL__sub_I__hook_init(target1)
 644              		.bss
 645              		.align	2
 646              		.set	.LANCHOR0,. + 0
 647              		.type	_ZL4vpsf, %object
 648              		.size	_ZL4vpsf, 20
 649              	_ZL4vpsf:
 650 0000 00000000 		.space	20
 650      00000000 
 650      00000000 
 650      00000000 
 650      00000000 
 651              		.text
 652              	.Letext0:
 653              		.file 5 "c:\\msys64\\home\\logue-sdk\\tools\\gcc\\gcc-arm-none-eabi-5_4-2016q3\\arm-none-eabi\\inc
 654              		.file 6 "c:\\msys64\\home\\logue-sdk\\tools\\gcc\\gcc-arm-none-eabi-5_4-2016q3\\arm-none-eabi\\inc
 655              		.file 7 "c:\\msys64\\home\\logue-sdk\\platform\\ext\\cmsis\\cmsis\\include\\arm_math.h"
 656              		.file 8 "C:/msys64/home/logue-sdk/platform/nutekt-digital/inc/userosc.h"
 657              		.file 9 "C:/msys64/home/logue-sdk/platform/nutekt-digital/inc/userprg.h"
 658              		.file 10 "C:/msys64/home/logue-sdk/platform/nutekt-digital/inc/utils/int_math.h"