ARM GAS  C:\msys64\tmp\ccbCzhpa.s 			page 1


   1              		.syntax unified
   2              		.cpu cortex-m4
   3              		.eabi_attribute 27, 1
   4              		.eabi_attribute 28, 1
   5              		.fpu fpv4-sp-d16
   6              		.eabi_attribute 20, 1
   7              		.eabi_attribute 21, 1
   8              		.eabi_attribute 23, 3
   9              		.eabi_attribute 24, 1
  10              		.eabi_attribute 25, 1
  11              		.eabi_attribute 26, 1
  12              		.eabi_attribute 30, 4
  13              		.eabi_attribute 34, 1
  14              		.eabi_attribute 18, 4
  15              		.thumb
  16              		.syntax unified
  17              		.file	"vps_formants.cpp"
  18              		.text
  19              	.Ltext0:
  20              		.cfi_sections	.debug_frame
  21              		.align	1
  22              		.global	_hook_init
  23              		.thumb
  24              		.thumb_func
  25              		.type	_hook_init, %function
  26              	_hook_init:
  27              	.LFB250:
  28              		.file 1 "vps_formants.cpp"
  29              		.loc 1 14 0
  30              		.cfi_startproc
  31              		@ args = 0, pretend = 0, frame = 0
  32              		@ frame_needed = 0, uses_anonymous_args = 0
  33              		@ link register save eliminated.
  34              	.LVL0:
  35 0000 7047     		bx	lr
  36              		.cfi_endproc
  37              	.LFE250:
  38              		.size	_hook_init, .-_hook_init
  39              		.align	1
  40              		.global	_hook_cycle
  41              		.thumb
  42              		.thumb_func
  43              		.type	_hook_cycle, %function
  44              	_hook_cycle:
  45              	.LFB251:
  46              		.loc 1 19 0
  47              		.cfi_startproc
  48              		@ args = 0, pretend = 0, frame = 0
  49              		@ frame_needed = 0, uses_anonymous_args = 0
  50              	.LVL1:
  51              		.loc 1 25 0
  52 0002 5F4B     		ldr	r3, .L29
  53              	.LBB170:
  54              	.LBB171:
  55              	.LBB172:
  56              	.LBB173:
  57              		.file 2 "C:/msys64/home/logue-sdk/platform/nutekt-digital/inc/utils/float_math.h"
ARM GAS  C:\msys64\tmp\ccbCzhpa.s 			page 2


  58              		.loc 2 826 0
  59 0004 9FED5F7A 		vldr.32	s14, .L29+4
  60              	.LBE173:
  61              	.LBE172:
  62              	.LBE171:
  63              	.LBE170:
  64              	.LBB203:
  65              	.LBB204:
  66              	.LBB205:
  67              	.LBB206:
  68              		.file 3 "vps_formants.hpp"
  69              		.loc 3 56 0
  70 0008 D3ED035A 		vldr.32	s11, [r3, #12]
  71              		.loc 3 57 0
  72 000c D3ED044A 		vldr.32	s9, [r3, #16]
  73              	.LBB207:
  74              	.LBB208:
  75              	.LBB209:
  76              	.LBB210:
  77              		.file 4 "C:/msys64/home/logue-sdk/platform/nutekt-digital/inc/osc_api.h"
  78              		.loc 4 154 0
  79 0010 9FED5D2A 		vldr.32	s4, .L29+8
  80              	.LBE210:
  81              	.LBE209:
  82              	.LBE208:
  83              	.LBE207:
  84              	.LBE206:
  85              	.LBE205:
  86              		.loc 1 56 0
  87 0014 9FED5D3A 		vldr.32	s6, .L29+12
  88 0018 DFED5D3A 		vldr.32	s7, .L29+16
  89              	.LBE204:
  90              	.LBE203:
  91              		.loc 1 19 0
  92 001c 70B5     		push	{r4, r5, r6, lr}
  93              		.cfi_def_cfa_offset 16
  94              		.cfi_offset 4, -16
  95              		.cfi_offset 5, -12
  96              		.cfi_offset 6, -8
  97              		.cfi_offset 14, -4
  98              		.loc 1 25 0
  99 001e 1C7A     		ldrb	r4, [r3, #8]	@ zero_extendqisi2
 100              	.LVL2:
 101              		.loc 1 27 0
 102 0020 2546     		mov	r5, r4
 103              		.loc 1 30 0
 104 0022 E407     		lsls	r4, r4, #31
 105              	.LVL3:
 106              	.LBB258:
 107              	.LBB259:
 108              		.loc 3 46 0
 109 0024 44BF     		itt	mi
 110 0026 0024     		movmi	r4, #0
 111 0028 1C60     		strmi	r4, [r3]	@ float
 112              	.LBE259:
 113              	.LBE258:
 114              		.loc 1 35 0
ARM GAS  C:\msys64\tmp\ccbCzhpa.s 			page 3


 115 002a 8488     		ldrh	r4, [r0, #4]
 116              		.loc 1 41 0
 117 002c D3ED006A 		vldr.32	s13, [r3]
 118              		.loc 1 35 0
 119 0030 2012     		asrs	r0, r4, #8
 120              	.LVL4:
 121              		.loc 1 27 0
 122 0032 6FF30005 		bfc	r5, #0, #1
 123              	.LBB260:
 124              	.LBB198:
 125              	.LBB177:
 126              	.LBB178:
 127              		.loc 4 109 0
 128 0036 9628     		cmp	r0, #150
 129              	.LBE178:
 130              	.LBE177:
 131              	.LBE198:
 132              	.LBE260:
 133              		.loc 1 27 0
 134 0038 1D72     		strb	r5, [r3, #8]
 135              		.loc 1 38 0
 136 003a E4B2     		uxtb	r4, r4
 137              	.LBB261:
 138              	.LBB199:
 139              	.LBB183:
 140              	.LBB179:
 141              		.loc 4 109 0
 142 003c D8BF     		it	le
 143 003e 0546     		movle	r5, r0
 144              	.LBE179:
 145              	.LBE183:
 146              		.loc 4 120 0
 147 0040 00F10100 		add	r0, r0, #1
 148              	.LVL5:
 149 0044 C0B2     		uxtb	r0, r0
 150              	.LVL6:
 151              	.LBE199:
 152              	.LBE261:
 153              		.loc 1 38 0
 154 0046 07EE904A 		vmov	s15, r4	@ int
 155              	.LVL7:
 156              	.LBB262:
 157              	.LBB200:
 158              	.LBB184:
 159              	.LBB180:
 160              		.loc 4 109 0
 161 004a C8BF     		it	gt
 162 004c 9725     		movgt	r5, #151
 163              	.LVL8:
 164 004e 514C     		ldr	r4, .L29+20
 165              	.LVL9:
 166              	.LBE180:
 167              	.LBE184:
 168              	.LBB185:
 169              	.LBB186:
 170 0050 9628     		cmp	r0, #150
 171 0052 88BF     		it	hi
ARM GAS  C:\msys64\tmp\ccbCzhpa.s 			page 4


 172 0054 9720     		movhi	r0, #151
 173              	.LBE186:
 174              	.LBE185:
 175              	.LBB188:
 176              	.LBB174:
 177              		.loc 2 826 0
 178 0056 F8EEE77A 		vcvt.f32.s32	s15, s15
 179              	.LVL10:
 180              	.LBE174:
 181              	.LBE188:
 182              	.LBB189:
 183              	.LBB181:
 184              		.loc 4 109 0
 185 005a 04EB8505 		add	r5, r4, r5, lsl #2
 186              	.LBE181:
 187              	.LBE189:
 188              	.LBB190:
 189              	.LBB187:
 190 005e 04EB8000 		add	r0, r4, r0, lsl #2
 191              	.LBE187:
 192              	.LBE190:
 193              	.LBB191:
 194              	.LBB182:
 195 0062 95ED006A 		vldr.32	s12, [r5]
 196              	.LVL11:
 197              	.LBE182:
 198              	.LBE191:
 199              	.LBE200:
 200              	.LBE262:
 201              	.LBB263:
 202              	.LBB254:
 203              	.LBB238:
 204              	.LBB234:
 205              	.LBB226:
 206              	.LBB223:
 207              	.LBB221:
 208              	.LBB219:
 209              		.loc 4 160 0
 210 0066 4C4D     		ldr	r5, .L29+24
 211              	.LBE219:
 212              	.LBE221:
 213              	.LBE223:
 214              	.LBE226:
 215              	.LBE234:
 216              	.LBE238:
 217              	.LBE254:
 218              	.LBE263:
 219              	.LBB264:
 220              	.LBB201:
 221              	.LBB192:
 222              	.LBB175:
 223              		.loc 2 826 0
 224 0068 67EE877A 		vmul.f32	s15, s15, s14
 225 006c 90ED007A 		vldr.32	s14, [r0]
 226 0070 37EE467A 		vsub.f32	s14, s14, s12
 227              	.LBE175:
 228              	.LBE192:
ARM GAS  C:\msys64\tmp\ccbCzhpa.s 			page 5


 229              	.LBE201:
 230              	.LBE264:
 231              		.loc 1 45 0
 232 0074 01EB8202 		add	r2, r1, r2, lsl #2
 233              	.LVL12:
 234              	.LBB265:
 235              	.LBB202:
 236              	.LBB193:
 237              	.LBB176:
 238              		.loc 2 826 0
 239 0078 A7EE876A 		vfma.f32	s12, s15, s14
 240              	.LVL13:
 241              	.LBE176:
 242              	.LBE193:
 243              	.LBB194:
 244              	.LBB195:
 245              	.LBB196:
 246              	.LBB197:
 247              		.loc 2 193 0
 248 007c DFED477A 		vldr.32	s15, .L29+28
 249 0080 B4EEE76A 		vcmpe.f32	s12, s15
 250 0084 F1EE10FA 		vmrs	APSR_nzcv, FPSCR
 251 0088 A8BF     		it	ge
 252 008a B0EE676A 		vmovge.f32	s12, s15
 253              	.LVL14:
 254              	.LBE197:
 255              	.LBE196:
 256              	.LBE195:
 257              	.LBE194:
 258              		.loc 4 124 0
 259 008e DFED447A 		vldr.32	s15, .L29+32
 260 0092 26EE276A 		vmul.f32	s12, s12, s15
 261              	.LVL15:
 262              	.LBE202:
 263              	.LBE265:
 264              	.LBB266:
 265              	.LBB255:
 266              	.LBB239:
 267              	.LBB235:
 268              	.LBB227:
 269              	.LBB228:
 270              		.loc 3 67 0
 271 0096 B7EE005A 		vmov.f32	s10, #1.0e+0
 272              	.LBE228:
 273              	.LBE227:
 274              	.LBE235:
 275              	.LBE239:
 276              	.LBE255:
 277              	.LBE266:
 278              		.loc 1 38 0
 279 009a 83ED016A 		vstr.32	s12, [r3, #4]
 280              	.LVL16:
 281              	.LBB267:
 282              	.LBB256:
 283              	.LBB240:
 284              	.LBB236:
 285              	.LBB231:
ARM GAS  C:\msys64\tmp\ccbCzhpa.s 			page 6


 286              	.LBB224:
 287              		.loc 4 171 0
 288 009e F5EE002A 		vmov.f32	s5, #2.5e-1
 289              	.LBE224:
 290              	.LBE231:
 291              	.LBE236:
 292              	.LBE240:
 293              	.LBB241:
 294              	.LBB242:
 295              	.LBB243:
 296              	.LBB244:
 297              	.LBB245:
 298              	.LBB246:
 299              		.loc 2 193 0
 300 00a2 FFEE001A 		vmov.f32	s3, #-1.0e+0
 301              	.LVL17:
 302              	.L14:
 303              	.LBE246:
 304              	.LBE245:
 305              	.LBE244:
 306              	.LBE243:
 307              	.LBE242:
 308              	.LBE241:
 309              	.LBE256:
 310              		.loc 1 48 0
 311 00a6 9142     		cmp	r1, r2
 312 00a8 66D0     		beq	.L7
 313              	.LVL18:
 314              	.LBB257:
 315              	.LBB252:
 316              	.LBB237:
 317              	.LBB232:
 318              		.loc 3 60 0
 319 00aa F4EEE56A 		vcmpe.f32	s13, s11
 320 00ae F1EE10FA 		vmrs	APSR_nzcv, FPSCR
 321 00b2 04D5     		bpl	.L26
 322              	.LVL19:
 323              	.LBB229:
 324              		.loc 3 62 0
 325 00b4 C6EEA57A 		vdiv.f32	s15, s13, s11
 326              	.LVL20:
 327 00b8 67EEA47A 		vmul.f32	s15, s15, s9
 328              	.LVL21:
 329 00bc 0DE0     		b	.L10
 330              	.LVL22:
 331              	.L26:
 332              	.LBE229:
 333              	.LBB230:
 334              		.loc 3 67 0
 335 00be 76EEE57A 		vsub.f32	s15, s13, s11
 336              	.LVL23:
 337 00c2 35EE654A 		vsub.f32	s8, s10, s11
 338 00c6 87EE847A 		vdiv.f32	s14, s15, s8
 339 00ca 75EE647A 		vsub.f32	s15, s10, s9
 340              	.LVL24:
 341 00ce B0EE644A 		vmov.f32	s8, s9
 342 00d2 A7EE274A 		vfma.f32	s8, s14, s15
ARM GAS  C:\msys64\tmp\ccbCzhpa.s 			page 7


 343 00d6 F0EE447A 		vmov.f32	s15, s8
 344              	.LVL25:
 345              	.L10:
 346              	.LBE230:
 347              	.LBE232:
 348              	.LBB233:
 349              	.LBB225:
 350              		.loc 4 171 0
 351 00da 77EEA27A 		vadd.f32	s15, s15, s5
 352              	.LVL26:
 353              	.LBB222:
 354              	.LBB220:
 355              		.loc 4 154 0
 356 00de BCEEE77A 		vcvt.u32.f32	s14, s15
 357 00e2 B8EE477A 		vcvt.f32.u32	s14, s14
 358 00e6 37EEC77A 		vsub.f32	s14, s15, s14
 359 00ea 27EE027A 		vmul.f32	s14, s14, s4
 360              	.LVL27:
 361              		.loc 4 155 0
 362 00ee FCEEC77A 		vcvt.u32.f32	s15, s14
 363              	.LVL28:
 364 00f2 17EE904A 		vmov	r4, s15	@ int
 365              	.LVL29:
 366              		.loc 4 157 0
 367 00f6 04F07F00 		and	r0, r4, #127
 368              	.LVL30:
 369              	.LBB211:
 370              	.LBB212:
 371              		.loc 2 826 0
 372 00fa 04EE104A 		vmov	s8, r4	@ int
 373              	.LBE212:
 374              	.LBE211:
 375              		.loc 4 160 0
 376 00fe 05EB8006 		add	r6, r5, r0, lsl #2
 377 0102 0130     		adds	r0, r0, #1
 378              	.LVL31:
 379              	.LBB216:
 380              	.LBB213:
 381              		.loc 2 826 0
 382 0104 B8EE444A 		vcvt.f32.u32	s8, s8
 383              	.LBE213:
 384              	.LBE216:
 385              		.loc 4 160 0
 386 0108 00F07F00 		and	r0, r0, #127
 387              	.LVL32:
 388 010c 05EB8000 		add	r0, r5, r0, lsl #2
 389              	.LVL33:
 390 0110 D6ED007A 		vldr.32	s15, [r6]
 391              	.LVL34:
 392              	.LBB217:
 393              	.LBB214:
 394              		.loc 2 826 0
 395 0114 37EE447A 		vsub.f32	s14, s14, s8
 396              	.LVL35:
 397 0118 90ED004A 		vldr.32	s8, [r0]
 398 011c 34EE674A 		vsub.f32	s8, s8, s15
 399              	.LBE214:
ARM GAS  C:\msys64\tmp\ccbCzhpa.s 			page 8


 400              	.LBE217:
 401              		.loc 4 161 0
 402 0120 7F2C     		cmp	r4, #127
 403              	.LBB218:
 404              	.LBB215:
 405              		.loc 2 826 0
 406 0122 E7EE047A 		vfma.f32	s15, s14, s8
 407              	.LVL36:
 408              	.LBE215:
 409              	.LBE218:
 410              		.loc 4 161 0
 411 0126 88BF     		it	hi
 412 0128 F1EE677A 		vneghi.f32	s15, s15
 413              	.LVL37:
 414              	.LBE220:
 415              	.LBE222:
 416              	.LBE225:
 417              	.LBE233:
 418              		.loc 3 70 0
 419 012c F1EE677A 		vneg.f32	s15, s15
 420              	.LVL38:
 421              	.LBE237:
 422              	.LBE252:
 423              	.LBB253:
 424              	.LBB251:
 425              	.LBB250:
 426              	.LBB249:
 427              	.LBB248:
 428              	.LBB247:
 429              		.loc 2 193 0
 430 0130 F4EEE17A 		vcmpe.f32	s15, s3
 431 0134 F1EE10FA 		vmrs	APSR_nzcv, FPSCR
 432 0138 07DB     		blt	.L27
 433              	.LVL39:
 434 013a F4EEC57A 		vcmpe.f32	s15, s10
 435 013e F1EE10FA 		vmrs	APSR_nzcv, FPSCR
 436 0142 A8BF     		it	ge
 437 0144 F0EE457A 		vmovge.f32	s15, s10
 438              	.LVL40:
 439 0148 01E0     		b	.L12
 440              	.LVL41:
 441              	.L27:
 442 014a FFEE007A 		vmov.f32	s15, #-1.0e+0
 443              	.LVL42:
 444              	.L12:
 445              	.LBE247:
 446              	.LBE248:
 447              	.LBE249:
 448              	.LBE250:
 449              	.LBE251:
 450              	.LBE253:
 451              		.loc 1 56 0
 452 014e 27EEA77A 		vmul.f32	s14, s15, s15
 453              		.loc 1 59 0
 454 0152 76EE866A 		vadd.f32	s13, s13, s12
 455              	.LVL43:
 456              		.loc 1 56 0
ARM GAS  C:\msys64\tmp\ccbCzhpa.s 			page 9


 457 0156 27EEC77A 		vnmul.f32	s14, s15, s14
 458 015a E7EE037A 		vfma.f32	s15, s14, s6
 459 015e 67EEA37A 		vmul.f32	s15, s15, s7
 460 0162 FDEEE77A 		vcvt.s32.f32	s15, s15
 461 0166 E1EC017A 		vstmia.32	r1!, {s15}	@ int
 462              	.LVL44:
 463              		.loc 1 60 0
 464 016a FCEEE67A 		vcvt.u32.f32	s15, s13
 465 016e F8EE677A 		vcvt.f32.u32	s15, s15
 466 0172 76EEE76A 		vsub.f32	s13, s13, s15
 467              	.LVL45:
 468              	.LBE257:
 469              		.loc 1 48 0
 470 0176 96E7     		b	.L14
 471              	.LVL46:
 472              	.L7:
 473              	.LBE267:
 474              		.loc 1 64 0
 475 0178 C3ED006A 		vstr.32	s13, [r3]
 476 017c 70BD     		pop	{r4, r5, r6, pc}
 477              	.L30:
 478 017e 00BF     		.align	2
 479              	.L29:
 480 0180 00000000 		.word	.LANCHOR0
 481 0184 8180803B 		.word	998277249
 482 0188 00008043 		.word	1132462080
 483 018c CDCC4C3D 		.word	1028443341
 484 0190 0000004F 		.word	1325400064
 485 0194 00000000 		.word	midi_to_hz_lut_f
 486 0198 00000000 		.word	wt_sine_lut_f
 487 019c 49FFB846 		.word	1186529097
 488 01a0 3EC3AE37 		.word	934200126
 489              		.cfi_endproc
 490              	.LFE251:
 491              		.size	_hook_cycle, .-_hook_cycle
 492              		.align	1
 493              		.global	_hook_on
 494              		.thumb
 495              		.thumb_func
 496              		.type	_hook_on, %function
 497              	_hook_on:
 498              	.LFB252:
 499              		.loc 1 68 0
 500              		.cfi_startproc
 501              		@ args = 0, pretend = 0, frame = 0
 502              		@ frame_needed = 0, uses_anonymous_args = 0
 503              		@ link register save eliminated.
 504              	.LVL47:
 505              		.loc 1 70 0
 506 01a4 024A     		ldr	r2, .L32
 507 01a6 137A     		ldrb	r3, [r2, #8]	@ zero_extendqisi2
 508 01a8 43F00103 		orr	r3, r3, #1
 509 01ac 1372     		strb	r3, [r2, #8]
 510 01ae 7047     		bx	lr
 511              	.L33:
 512              		.align	2
 513              	.L32:
ARM GAS  C:\msys64\tmp\ccbCzhpa.s 			page 10


 514 01b0 00000000 		.word	.LANCHOR0
 515              		.cfi_endproc
 516              	.LFE252:
 517              		.size	_hook_on, .-_hook_on
 518              		.align	1
 519              		.global	_hook_off
 520              		.thumb
 521              		.thumb_func
 522              		.type	_hook_off, %function
 523              	_hook_off:
 524              	.LFB253:
 525              		.loc 1 73 0
 526              		.cfi_startproc
 527              		@ args = 0, pretend = 0, frame = 0
 528              		@ frame_needed = 0, uses_anonymous_args = 0
 529              		@ link register save eliminated.
 530              	.LVL48:
 531 01b4 7047     		bx	lr
 532              		.cfi_endproc
 533              	.LFE253:
 534              		.size	_hook_off, .-_hook_off
 535              		.align	1
 536              		.global	_hook_param
 537              		.thumb
 538              		.thumb_func
 539              		.type	_hook_param, %function
 540              	_hook_param:
 541              	.LFB254:
 542              		.loc 1 78 0
 543              		.cfi_startproc
 544              		@ args = 0, pretend = 0, frame = 0
 545              		@ frame_needed = 0, uses_anonymous_args = 0
 546              		@ link register save eliminated.
 547              	.LVL49:
 548              		.loc 1 82 0
 549 01b6 07EE901A 		vmov	s15, r1	@ int
 550 01ba B8EEE77A 		vcvt.f32.s32	s14, s15
 551 01be DFED0C7A 		vldr.32	s15, .L40
 552              		.loc 1 83 0
 553 01c2 0628     		cmp	r0, #6
 554              		.loc 1 82 0
 555 01c4 67EE277A 		vmul.f32	s15, s14, s15
 556              	.LVL50:
 557              		.loc 1 83 0
 558 01c8 0AD0     		beq	.L37
 559 01ca 0728     		cmp	r0, #7
 560 01cc 0CD0     		beq	.L38
 561 01ce 70B9     		cbnz	r0, .L35
 562              		.loc 1 86 0
 563 01d0 DFED087A 		vldr.32	s15, .L40+4
 564              	.LVL51:
 565 01d4 084B     		ldr	r3, .L40+8
 566 01d6 27EE277A 		vmul.f32	s14, s14, s15
 567              	.LVL52:
 568 01da 83ED047A 		vstr.32	s14, [r3, #16]
 569              		.loc 1 87 0
 570 01de 7047     		bx	lr
ARM GAS  C:\msys64\tmp\ccbCzhpa.s 			page 11


 571              	.LVL53:
 572              	.L37:
 573              		.loc 1 101 0
 574 01e0 054B     		ldr	r3, .L40+8
 575 01e2 C3ED037A 		vstr.32	s15, [r3, #12]
 576              		.loc 1 102 0
 577 01e6 7047     		bx	lr
 578              	.L38:
 579              		.loc 1 106 0
 580 01e8 034B     		ldr	r3, .L40+8
 581 01ea C3ED047A 		vstr.32	s15, [r3, #16]
 582              	.L35:
 583 01ee 7047     		bx	lr
 584              	.L41:
 585              		.align	2
 586              	.L40:
 587 01f0 0820803A 		.word	981475336
 588 01f4 CDCCCC3D 		.word	1036831949
 589 01f8 00000000 		.word	.LANCHOR0
 590              		.cfi_endproc
 591              	.LFE254:
 592              		.size	_hook_param, .-_hook_param
 593              		.section	.text.startup,"ax",%progbits
 594              		.align	1
 595              		.thumb
 596              		.thumb_func
 597              		.type	_GLOBAL__sub_I__hook_init, %function
 598              	_GLOBAL__sub_I__hook_init:
 599              	.LFB256:
 600              		.loc 1 111 0
 601              		.cfi_startproc
 602              		@ args = 0, pretend = 0, frame = 0
 603              		@ frame_needed = 0, uses_anonymous_args = 0
 604              		@ link register save eliminated.
 605              	.LVL54:
 606              	.LBB278:
 607              	.LBB279:
 608              	.LBB280:
 609              	.LBB281:
 610              	.LBB282:
 611              		.loc 3 40 0
 612 0000 054B     		ldr	r3, .L43
 613 0002 197A     		ldrb	r1, [r3, #8]	@ zero_extendqisi2
 614 0004 0022     		movs	r2, #0
 615 0006 6FF30001 		bfc	r1, #0, #1
 616 000a 1A60     		str	r2, [r3]	@ float
 617 000c 5A60     		str	r2, [r3, #4]	@ float
 618 000e 1972     		strb	r1, [r3, #8]
 619              	.LVL55:
 620              	.LBE282:
 621              	.LBE281:
 622              	.LBB283:
 623              	.LBB284:
 624              		.loc 3 28 0
 625 0010 DA60     		str	r2, [r3, #12]	@ float
 626 0012 1A61     		str	r2, [r3, #16]	@ float
 627              	.LVL56:
ARM GAS  C:\msys64\tmp\ccbCzhpa.s 			page 12


 628 0014 7047     		bx	lr
 629              	.L44:
 630 0016 00BF     		.align	2
 631              	.L43:
 632 0018 00000000 		.word	.LANCHOR0
 633              	.LBE284:
 634              	.LBE283:
 635              	.LBE280:
 636              	.LBE279:
 637              	.LBE278:
 638              		.cfi_endproc
 639              	.LFE256:
 640              		.size	_GLOBAL__sub_I__hook_init, .-_GLOBAL__sub_I__hook_init
 641              		.section	.init_array,"aw",%init_array
 642              		.align	2
 643 0000 00000000 		.word	_GLOBAL__sub_I__hook_init(target1)
 644              		.bss
 645              		.align	2
 646              		.set	.LANCHOR0,. + 0
 647              		.type	_ZL4vpsf, %object
 648              		.size	_ZL4vpsf, 20
 649              	_ZL4vpsf:
 650 0000 00000000 		.space	20
 650      00000000 
 650      00000000 
 650      00000000 
 650      00000000 
 651              		.text
 652              	.Letext0:
 653              		.file 5 "c:\\msys64\\home\\logue-sdk\\tools\\gcc\\gcc-arm-none-eabi-5_4-2016q3\\arm-none-eabi\\inc
 654              		.file 6 "c:\\msys64\\home\\logue-sdk\\tools\\gcc\\gcc-arm-none-eabi-5_4-2016q3\\arm-none-eabi\\inc
 655              		.file 7 "c:\\msys64\\home\\logue-sdk\\platform\\ext\\cmsis\\cmsis\\include\\arm_math.h"
 656              		.file 8 "C:/msys64/home/logue-sdk/platform/nutekt-digital/inc/userosc.h"
 657              		.file 9 "C:/msys64/home/logue-sdk/platform/nutekt-digital/inc/userprg.h"
 658              		.file 10 "C:/msys64/home/logue-sdk/platform/nutekt-digital/inc/utils/int_math.h"
 659              		.section	.debug_info,"",%progbits
 660              	.Ldebug_info0:
 661 0000 450C0000 		.4byte	0xc45
 662 0004 0400     		.2byte	0x4
 663 0006 00000000 		.4byte	.Ldebug_abbrev0
 664 000a 04       		.byte	0x4
 665 000b 01       		.uleb128 0x1
 666 000c 33000000 		.4byte	.LASF104
 667 0010 04       		.byte	0x4
 668 0011 40030000 		.4byte	.LASF105
 669 0015 49060000 		.4byte	.LASF106
 670 0019 F0010000 		.4byte	.Ldebug_ranges0+0x1f0
 671 001d 00000000 		.4byte	0
 672 0021 00000000 		.4byte	.Ldebug_line0
 673 0025 02       		.uleb128 0x2
 674 0026 04       		.byte	0x4
 675 0027 04       		.byte	0x4
 676 0028 86020000 		.4byte	.LASF0
 677 002c 02       		.uleb128 0x2
 678 002d 04       		.byte	0x4
 679 002e 07       		.byte	0x7
 680 002f 4B010000 		.4byte	.LASF1
ARM GAS  C:\msys64\tmp\ccbCzhpa.s 			page 13


 681 0033 03       		.uleb128 0x3
 682 0034 04       		.byte	0x4
 683 0035 05       		.byte	0x5
 684 0036 696E7400 		.ascii	"int\000"
 685 003a 02       		.uleb128 0x2
 686 003b 01       		.byte	0x1
 687 003c 06       		.byte	0x6
 688 003d AD060000 		.4byte	.LASF2
 689 0041 04       		.uleb128 0x4
 690 0042 9B050000 		.4byte	.LASF5
 691 0046 05       		.byte	0x5
 692 0047 1D       		.byte	0x1d
 693 0048 4C000000 		.4byte	0x4c
 694 004c 02       		.uleb128 0x2
 695 004d 01       		.byte	0x1
 696 004e 08       		.byte	0x8
 697 004f 00060000 		.4byte	.LASF3
 698 0053 02       		.uleb128 0x2
 699 0054 02       		.byte	0x2
 700 0055 05       		.byte	0x5
 701 0056 ED040000 		.4byte	.LASF4
 702 005a 04       		.uleb128 0x4
 703 005b C6020000 		.4byte	.LASF6
 704 005f 05       		.byte	0x5
 705 0060 2B       		.byte	0x2b
 706 0061 65000000 		.4byte	0x65
 707 0065 02       		.uleb128 0x2
 708 0066 02       		.byte	0x2
 709 0067 07       		.byte	0x7
 710 0068 B9060000 		.4byte	.LASF7
 711 006c 04       		.uleb128 0x4
 712 006d 6E010000 		.4byte	.LASF8
 713 0071 05       		.byte	0x5
 714 0072 3F       		.byte	0x3f
 715 0073 77000000 		.4byte	0x77
 716 0077 02       		.uleb128 0x2
 717 0078 04       		.byte	0x4
 718 0079 05       		.byte	0x5
 719 007a 2F050000 		.4byte	.LASF9
 720 007e 04       		.uleb128 0x4
 721 007f 0E060000 		.4byte	.LASF10
 722 0083 05       		.byte	0x5
 723 0084 41       		.byte	0x41
 724 0085 89000000 		.4byte	0x89
 725 0089 02       		.uleb128 0x2
 726 008a 04       		.byte	0x4
 727 008b 07       		.byte	0x7
 728 008c D0050000 		.4byte	.LASF11
 729 0090 02       		.uleb128 0x2
 730 0091 08       		.byte	0x8
 731 0092 05       		.byte	0x5
 732 0093 DF030000 		.4byte	.LASF12
 733 0097 02       		.uleb128 0x2
 734 0098 08       		.byte	0x8
 735 0099 07       		.byte	0x7
 736 009a A6020000 		.4byte	.LASF13
 737 009e 04       		.uleb128 0x4
ARM GAS  C:\msys64\tmp\ccbCzhpa.s 			page 14


 738 009f AD030000 		.4byte	.LASF14
 739 00a3 06       		.byte	0x6
 740 00a4 18       		.byte	0x18
 741 00a5 41000000 		.4byte	0x41
 742 00a9 04       		.uleb128 0x4
 743 00aa 74040000 		.4byte	.LASF15
 744 00ae 06       		.byte	0x6
 745 00af 24       		.byte	0x24
 746 00b0 5A000000 		.4byte	0x5a
 747 00b4 04       		.uleb128 0x4
 748 00b5 F0050000 		.4byte	.LASF16
 749 00b9 06       		.byte	0x6
 750 00ba 2C       		.byte	0x2c
 751 00bb 6C000000 		.4byte	0x6c
 752 00bf 04       		.uleb128 0x4
 753 00c0 67020000 		.4byte	.LASF17
 754 00c4 06       		.byte	0x6
 755 00c5 30       		.byte	0x30
 756 00c6 7E000000 		.4byte	0x7e
 757 00ca 02       		.uleb128 0x2
 758 00cb 08       		.byte	0x8
 759 00cc 04       		.byte	0x4
 760 00cd 68040000 		.4byte	.LASF18
 761 00d1 05       		.uleb128 0x5
 762 00d2 37060000 		.4byte	.LASF107
 763 00d6 02       		.uleb128 0x2
 764 00d7 04       		.byte	0x4
 765 00d8 07       		.byte	0x7
 766 00d9 C7050000 		.4byte	.LASF19
 767 00dd 02       		.uleb128 0x2
 768 00de 01       		.byte	0x1
 769 00df 08       		.byte	0x8
 770 00e0 6C030000 		.4byte	.LASF20
 771 00e4 02       		.uleb128 0x2
 772 00e5 08       		.byte	0x8
 773 00e6 04       		.byte	0x4
 774 00e7 EE060000 		.4byte	.LASF21
 775 00eb 06       		.uleb128 0x6
 776 00ec C1050000 		.4byte	.LASF22
 777 00f0 07       		.byte	0x7
 778 00f1 8D01     		.2byte	0x18d
 779 00f3 B4000000 		.4byte	0xb4
 780 00f7 07       		.uleb128 0x7
 781 00f8 04       		.byte	0x4
 782 00f9 EB000000 		.4byte	0xeb
 783 00fd 07       		.uleb128 0x7
 784 00fe 04       		.byte	0x4
 785 00ff 03010000 		.4byte	0x103
 786 0103 08       		.uleb128 0x8
 787 0104 EB000000 		.4byte	0xeb
 788 0108 07       		.uleb128 0x7
 789 0109 04       		.byte	0x4
 790 010a B4000000 		.4byte	0xb4
 791 010e 09       		.uleb128 0x9
 792 010f 01       		.byte	0x1
 793 0110 4C000000 		.4byte	0x4c
 794 0114 09       		.byte	0x9
ARM GAS  C:\msys64\tmp\ccbCzhpa.s 			page 15


 795 0115 35       		.byte	0x35
 796 0116 3F010000 		.4byte	0x13f
 797 011a 0A       		.uleb128 0xa
 798 011b 22060000 		.4byte	.LASF23
 799 011f 00       		.byte	0
 800 0120 0A       		.uleb128 0xa
 801 0121 3E050000 		.4byte	.LASF24
 802 0125 01       		.byte	0x1
 803 0126 0A       		.uleb128 0xa
 804 0127 92020000 		.4byte	.LASF25
 805 012b 02       		.byte	0x2
 806 012c 0A       		.uleb128 0xa
 807 012d 16030000 		.4byte	.LASF26
 808 0131 03       		.byte	0x3
 809 0132 0A       		.uleb128 0xa
 810 0133 4C040000 		.4byte	.LASF27
 811 0137 04       		.byte	0x4
 812 0138 0A       		.uleb128 0xa
 813 0139 02040000 		.4byte	.LASF28
 814 013d 05       		.byte	0x5
 815 013e 00       		.byte	0
 816 013f 0B       		.uleb128 0xb
 817 0140 F2020000 		.4byte	.LASF45
 818 0144 10       		.byte	0x10
 819 0145 08       		.byte	0x8
 820 0146 3C       		.byte	0x3c
 821 0147 88010000 		.4byte	0x188
 822 014b 0C       		.uleb128 0xc
 823 014c F5060000 		.4byte	.LASF29
 824 0150 08       		.byte	0x8
 825 0151 3E       		.byte	0x3e
 826 0152 B4000000 		.4byte	0xb4
 827 0156 00       		.byte	0
 828 0157 0C       		.uleb128 0xc
 829 0158 81010000 		.4byte	.LASF30
 830 015c 08       		.byte	0x8
 831 015d 40       		.byte	0x40
 832 015e A9000000 		.4byte	0xa9
 833 0162 04       		.byte	0x4
 834 0163 0C       		.uleb128 0xc
 835 0164 65030000 		.4byte	.LASF31
 836 0168 08       		.byte	0x8
 837 0169 42       		.byte	0x42
 838 016a A9000000 		.4byte	0xa9
 839 016e 06       		.byte	0x6
 840 016f 0C       		.uleb128 0xc
 841 0170 F8030000 		.4byte	.LASF32
 842 0174 08       		.byte	0x8
 843 0175 44       		.byte	0x44
 844 0176 A9000000 		.4byte	0xa9
 845 017a 08       		.byte	0x8
 846 017b 0C       		.uleb128 0xc
 847 017c 85050000 		.4byte	.LASF33
 848 0180 08       		.byte	0x8
 849 0181 45       		.byte	0x45
 850 0182 88010000 		.4byte	0x188
 851 0186 0A       		.byte	0xa
ARM GAS  C:\msys64\tmp\ccbCzhpa.s 			page 16


 852 0187 00       		.byte	0
 853 0188 0D       		.uleb128 0xd
 854 0189 A9000000 		.4byte	0xa9
 855 018d 98010000 		.4byte	0x198
 856 0191 0E       		.uleb128 0xe
 857 0192 D6000000 		.4byte	0xd6
 858 0196 02       		.byte	0x2
 859 0197 00       		.byte	0
 860 0198 04       		.uleb128 0x4
 861 0199 DD060000 		.4byte	.LASF34
 862 019d 08       		.byte	0x8
 863 019e 46       		.byte	0x46
 864 019f 3F010000 		.4byte	0x13f
 865 01a3 0F       		.uleb128 0xf
 866 01a4 01       		.byte	0x1
 867 01a5 4C000000 		.4byte	0x4c
 868 01a9 08       		.byte	0x8
 869 01aa 4B       		.byte	0x4b
 870 01ab 69050000 		.4byte	.LASF108
 871 01af EA010000 		.4byte	0x1ea
 872 01b3 0A       		.uleb128 0xa
 873 01b4 A1010000 		.4byte	.LASF35
 874 01b8 00       		.byte	0
 875 01b9 0A       		.uleb128 0xa
 876 01ba B6010000 		.4byte	.LASF36
 877 01be 01       		.byte	0x1
 878 01bf 0A       		.uleb128 0xa
 879 01c0 CB010000 		.4byte	.LASF37
 880 01c4 02       		.byte	0x2
 881 01c5 0A       		.uleb128 0xa
 882 01c6 E0010000 		.4byte	.LASF38
 883 01ca 03       		.byte	0x3
 884 01cb 0A       		.uleb128 0xa
 885 01cc F5010000 		.4byte	.LASF39
 886 01d0 04       		.byte	0x4
 887 01d1 0A       		.uleb128 0xa
 888 01d2 0A020000 		.4byte	.LASF40
 889 01d6 05       		.byte	0x5
 890 01d7 0A       		.uleb128 0xa
 891 01d8 52050000 		.4byte	.LASF41
 892 01dc 06       		.byte	0x6
 893 01dd 0A       		.uleb128 0xa
 894 01de C6040000 		.4byte	.LASF42
 895 01e2 07       		.byte	0x7
 896 01e3 0A       		.uleb128 0xa
 897 01e4 1F020000 		.4byte	.LASF43
 898 01e8 08       		.byte	0x8
 899 01e9 00       		.byte	0
 900 01ea 04       		.uleb128 0x4
 901 01eb 87010000 		.4byte	.LASF44
 902 01ef 08       		.byte	0x8
 903 01f0 5D       		.byte	0x5d
 904 01f1 A3010000 		.4byte	0x1a3
 905 01f5 07       		.uleb128 0x7
 906 01f6 04       		.byte	0x4
 907 01f7 FB010000 		.4byte	0x1fb
 908 01fb 08       		.uleb128 0x8
ARM GAS  C:\msys64\tmp\ccbCzhpa.s 			page 17


 909 01fc 98010000 		.4byte	0x198
 910 0200 0B       		.uleb128 0xb
 911 0201 88030000 		.4byte	.LASF46
 912 0205 14       		.byte	0x14
 913 0206 03       		.byte	0x3
 914 0207 0F       		.byte	0xf
 915 0208 1C030000 		.4byte	0x31c
 916 020c 09       		.uleb128 0x9
 917 020d 01       		.byte	0x1
 918 020e 4C000000 		.4byte	0x4c
 919 0212 03       		.byte	0x3
 920 0213 11       		.byte	0x11
 921 0214 25020000 		.4byte	0x225
 922 0218 0A       		.uleb128 0xa
 923 0219 B5030000 		.4byte	.LASF47
 924 021d 00       		.byte	0
 925 021e 0A       		.uleb128 0xa
 926 021f ED030000 		.4byte	.LASF48
 927 0223 01       		.byte	0x1
 928 0224 00       		.byte	0
 929 0225 0B       		.uleb128 0xb
 930 0226 95040000 		.4byte	.LASF49
 931 022a 08       		.byte	0x8
 932 022b 03       		.byte	0x3
 933 022c 16       		.byte	0x16
 934 022d 63020000 		.4byte	0x263
 935 0231 0C       		.uleb128 0xc
 936 0232 38050000 		.4byte	.LASF50
 937 0236 03       		.byte	0x3
 938 0237 17       		.byte	0x17
 939 0238 25000000 		.4byte	0x25
 940 023c 00       		.byte	0
 941 023d 0C       		.uleb128 0xc
 942 023e 35030000 		.4byte	.LASF51
 943 0242 03       		.byte	0x3
 944 0243 18       		.byte	0x18
 945 0244 25000000 		.4byte	0x25
 946 0248 04       		.byte	0x4
 947 0249 10       		.uleb128 0x10
 948 024a 95040000 		.4byte	.LASF49
 949 024e 03       		.byte	0x3
 950 024f 1A       		.byte	0x1a
 951 0250 51030000 		.4byte	.LASF58
 952 0254 1C030000 		.4byte	0x31c
 953 0258 5C020000 		.4byte	0x25c
 954 025c 11       		.uleb128 0x11
 955 025d 1C030000 		.4byte	0x31c
 956 0261 00       		.byte	0
 957 0262 00       		.byte	0
 958 0263 0B       		.uleb128 0xb
 959 0264 9B010000 		.4byte	.LASF52
 960 0268 0C       		.byte	0xc
 961 0269 03       		.byte	0x3
 962 026a 20       		.byte	0x20
 963 026b C8020000 		.4byte	0x2c8
 964 026f 12       		.uleb128 0x12
 965 0270 70686900 		.ascii	"phi\000"
ARM GAS  C:\msys64\tmp\ccbCzhpa.s 			page 18


 966 0274 03       		.byte	0x3
 967 0275 21       		.byte	0x21
 968 0276 25000000 		.4byte	0x25
 969 027a 00       		.byte	0
 970 027b 12       		.uleb128 0x12
 971 027c 773000   		.ascii	"w0\000"
 972 027f 03       		.byte	0x3
 973 0280 22       		.byte	0x22
 974 0281 25000000 		.4byte	0x25
 975 0285 04       		.byte	0x4
 976 0286 13       		.uleb128 0x13
 977 0287 2D000000 		.4byte	.LASF83
 978 028b 03       		.byte	0x3
 979 028c 23       		.byte	0x23
 980 028d BF000000 		.4byte	0xbf
 981 0291 04       		.byte	0x4
 982 0292 01       		.byte	0x1
 983 0293 1F       		.byte	0x1f
 984 0294 08       		.byte	0x8
 985 0295 14       		.uleb128 0x14
 986 0296 9B010000 		.4byte	.LASF52
 987 029a 03       		.byte	0x3
 988 029b 25       		.byte	0x25
 989 029c 7D040000 		.4byte	.LASF55
 990 02a0 22030000 		.4byte	0x322
 991 02a4 AC020000 		.4byte	0x2ac
 992 02a8 B2020000 		.4byte	0x2b2
 993 02ac 11       		.uleb128 0x11
 994 02ad 22030000 		.4byte	0x322
 995 02b1 00       		.byte	0
 996 02b2 15       		.uleb128 0x15
 997 02b3 7F050000 		.4byte	.LASF109
 998 02b7 03       		.byte	0x3
 999 02b8 2D       		.byte	0x2d
 1000 02b9 71030000 		.4byte	.LASF110
 1001 02bd C1020000 		.4byte	0x2c1
 1002 02c1 11       		.uleb128 0x11
 1003 02c2 22030000 		.4byte	0x322
 1004 02c6 00       		.byte	0
 1005 02c7 00       		.byte	0
 1006 02c8 0C       		.uleb128 0xc
 1007 02c9 A7060000 		.4byte	.LASF53
 1008 02cd 03       		.byte	0x3
 1009 02ce 49       		.byte	0x49
 1010 02cf 63020000 		.4byte	0x263
 1011 02d3 00       		.byte	0
 1012 02d4 0C       		.uleb128 0xc
 1013 02d5 00000000 		.4byte	.LASF54
 1014 02d9 03       		.byte	0x3
 1015 02da 4A       		.byte	0x4a
 1016 02db 25020000 		.4byte	0x225
 1017 02df 0C       		.byte	0xc
 1018 02e0 14       		.uleb128 0x14
 1019 02e1 88030000 		.4byte	.LASF46
 1020 02e5 03       		.byte	0x3
 1021 02e6 32       		.byte	0x32
 1022 02e7 13000000 		.4byte	.LASF56
ARM GAS  C:\msys64\tmp\ccbCzhpa.s 			page 19


 1023 02eb 28030000 		.4byte	0x328
 1024 02ef F7020000 		.4byte	0x2f7
 1025 02f3 FD020000 		.4byte	0x2fd
 1026 02f7 11       		.uleb128 0x11
 1027 02f8 28030000 		.4byte	0x328
 1028 02fc 00       		.byte	0
 1029 02fd 10       		.uleb128 0x10
 1030 02fe 07050000 		.4byte	.LASF57
 1031 0302 03       		.byte	0x3
 1032 0303 37       		.byte	0x37
 1033 0304 D1020000 		.4byte	.LASF59
 1034 0308 25000000 		.4byte	0x25
 1035 030c 10030000 		.4byte	0x310
 1036 0310 11       		.uleb128 0x11
 1037 0311 28030000 		.4byte	0x328
 1038 0315 16       		.uleb128 0x16
 1039 0316 25000000 		.4byte	0x25
 1040 031a 00       		.byte	0
 1041 031b 00       		.byte	0
 1042 031c 07       		.uleb128 0x7
 1043 031d 04       		.byte	0x4
 1044 031e 25020000 		.4byte	0x225
 1045 0322 07       		.uleb128 0x7
 1046 0323 04       		.byte	0x4
 1047 0324 63020000 		.4byte	0x263
 1048 0328 07       		.uleb128 0x7
 1049 0329 04       		.byte	0x4
 1050 032a 00020000 		.4byte	0x200
 1051 032e 17       		.uleb128 0x17
 1052 032f B7050000 		.4byte	.LASF60
 1053 0333 02       		.byte	0x2
 1054 0334 C0       		.byte	0xc0
 1055 0335 25000000 		.4byte	0x25
 1056 0339 03       		.byte	0x3
 1057 033a 5A030000 		.4byte	0x35a
 1058 033e 18       		.uleb128 0x18
 1059 033f 6100     		.ascii	"a\000"
 1060 0341 02       		.byte	0x2
 1061 0342 C0       		.byte	0xc0
 1062 0343 5A030000 		.4byte	0x35a
 1063 0347 18       		.uleb128 0x18
 1064 0348 6200     		.ascii	"b\000"
 1065 034a 02       		.byte	0x2
 1066 034b C0       		.byte	0xc0
 1067 034c 5A030000 		.4byte	0x35a
 1068 0350 18       		.uleb128 0x18
 1069 0351 6300     		.ascii	"c\000"
 1070 0353 02       		.byte	0x2
 1071 0354 C0       		.byte	0xc0
 1072 0355 5A030000 		.4byte	0x35a
 1073 0359 00       		.byte	0
 1074 035a 08       		.uleb128 0x8
 1075 035b 25000000 		.4byte	0x25
 1076 035f 19       		.uleb128 0x19
 1077 0360 08070000 		.4byte	.LASF61
 1078 0364 02       		.byte	0x2
 1079 0365 4901     		.2byte	0x149
ARM GAS  C:\msys64\tmp\ccbCzhpa.s 			page 20


 1080 0367 25000000 		.4byte	0x25
 1081 036b 03       		.byte	0x3
 1082 036c 87030000 		.4byte	0x387
 1083 0370 1A       		.uleb128 0x1a
 1084 0371 7800     		.ascii	"x\000"
 1085 0373 02       		.byte	0x2
 1086 0374 4901     		.2byte	0x149
 1087 0376 5A030000 		.4byte	0x35a
 1088 037a 1A       		.uleb128 0x1a
 1089 037b 6D617800 		.ascii	"max\000"
 1090 037f 02       		.byte	0x2
 1091 0380 4901     		.2byte	0x149
 1092 0382 5A030000 		.4byte	0x35a
 1093 0386 00       		.byte	0
 1094 0387 19       		.uleb128 0x19
 1095 0388 5D020000 		.4byte	.LASF62
 1096 038c 02       		.byte	0x2
 1097 038d 3C01     		.2byte	0x13c
 1098 038f 25000000 		.4byte	0x25
 1099 0393 03       		.byte	0x3
 1100 0394 BB030000 		.4byte	0x3bb
 1101 0398 1A       		.uleb128 0x1a
 1102 0399 6D696E00 		.ascii	"min\000"
 1103 039d 02       		.byte	0x2
 1104 039e 3C01     		.2byte	0x13c
 1105 03a0 5A030000 		.4byte	0x35a
 1106 03a4 1A       		.uleb128 0x1a
 1107 03a5 7800     		.ascii	"x\000"
 1108 03a7 02       		.byte	0x2
 1109 03a8 3C01     		.2byte	0x13c
 1110 03aa 25000000 		.4byte	0x25
 1111 03ae 1A       		.uleb128 0x1a
 1112 03af 6D617800 		.ascii	"max\000"
 1113 03b3 02       		.byte	0x2
 1114 03b4 3C01     		.2byte	0x13c
 1115 03b6 5A030000 		.4byte	0x35a
 1116 03ba 00       		.byte	0
 1117 03bb 17       		.uleb128 0x17
 1118 03bc 15040000 		.4byte	.LASF63
 1119 03c0 0A       		.byte	0xa
 1120 03c1 54       		.byte	0x54
 1121 03c2 BF000000 		.4byte	0xbf
 1122 03c6 03       		.byte	0x3
 1123 03c7 DE030000 		.4byte	0x3de
 1124 03cb 18       		.uleb128 0x18
 1125 03cc 7800     		.ascii	"x\000"
 1126 03ce 0A       		.byte	0xa
 1127 03cf 54       		.byte	0x54
 1128 03d0 DE030000 		.4byte	0x3de
 1129 03d4 18       		.uleb128 0x18
 1130 03d5 6D00     		.ascii	"m\000"
 1131 03d7 0A       		.byte	0xa
 1132 03d8 54       		.byte	0x54
 1133 03d9 DE030000 		.4byte	0x3de
 1134 03dd 00       		.byte	0
 1135 03de 08       		.uleb128 0x8
 1136 03df BF000000 		.4byte	0xbf
ARM GAS  C:\msys64\tmp\ccbCzhpa.s 			page 21


 1137 03e3 19       		.uleb128 0x19
 1138 03e4 D6030000 		.4byte	.LASF64
 1139 03e8 02       		.byte	0x2
 1140 03e9 8501     		.2byte	0x185
 1141 03eb 25000000 		.4byte	0x25
 1142 03ef 03       		.byte	0x3
 1143 03f0 09040000 		.4byte	0x409
 1144 03f4 1A       		.uleb128 0x1a
 1145 03f5 7800     		.ascii	"x\000"
 1146 03f7 02       		.byte	0x2
 1147 03f8 8501     		.2byte	0x185
 1148 03fa 5A030000 		.4byte	0x35a
 1149 03fe 1A       		.uleb128 0x1a
 1150 03ff 6D00     		.ascii	"m\000"
 1151 0401 02       		.byte	0x2
 1152 0402 8501     		.2byte	0x185
 1153 0404 5A030000 		.4byte	0x35a
 1154 0408 00       		.byte	0
 1155 0409 19       		.uleb128 0x19
 1156 040a F8050000 		.4byte	.LASF65
 1157 040e 02       		.byte	0x2
 1158 040f 3903     		.2byte	0x339
 1159 0411 25000000 		.4byte	0x25
 1160 0415 03       		.byte	0x3
 1161 0416 3C040000 		.4byte	0x43c
 1162 041a 1A       		.uleb128 0x1a
 1163 041b 667200   		.ascii	"fr\000"
 1164 041e 02       		.byte	0x2
 1165 041f 3903     		.2byte	0x339
 1166 0421 5A030000 		.4byte	0x35a
 1167 0425 1A       		.uleb128 0x1a
 1168 0426 783000   		.ascii	"x0\000"
 1169 0429 02       		.byte	0x2
 1170 042a 3903     		.2byte	0x339
 1171 042c 5A030000 		.4byte	0x35a
 1172 0430 1A       		.uleb128 0x1a
 1173 0431 783100   		.ascii	"x1\000"
 1174 0434 02       		.byte	0x2
 1175 0435 3903     		.2byte	0x339
 1176 0437 5A030000 		.4byte	0x35a
 1177 043b 00       		.byte	0
 1178 043c 17       		.uleb128 0x17
 1179 043d C0030000 		.4byte	.LASF66
 1180 0441 04       		.byte	0x4
 1181 0442 6C       		.byte	0x6c
 1182 0443 25000000 		.4byte	0x25
 1183 0447 03       		.byte	0x3
 1184 0448 58040000 		.4byte	0x458
 1185 044c 1B       		.uleb128 0x1b
 1186 044d BC050000 		.4byte	.LASF67
 1187 0451 04       		.byte	0x4
 1188 0452 6C       		.byte	0x6c
 1189 0453 9E000000 		.4byte	0x9e
 1190 0457 00       		.byte	0
 1191 0458 17       		.uleb128 0x17
 1192 0459 65010000 		.4byte	.LASF68
 1193 045d 04       		.byte	0x4
ARM GAS  C:\msys64\tmp\ccbCzhpa.s 			page 22


 1194 045e 96       		.byte	0x96
 1195 045f 25000000 		.4byte	0x25
 1196 0463 03       		.byte	0x3
 1197 0464 AF040000 		.4byte	0x4af
 1198 0468 18       		.uleb128 0x18
 1199 0469 7800     		.ascii	"x\000"
 1200 046b 04       		.byte	0x4
 1201 046c 96       		.byte	0x96
 1202 046d 25000000 		.4byte	0x25
 1203 0471 1C       		.uleb128 0x1c
 1204 0472 7000     		.ascii	"p\000"
 1205 0474 04       		.byte	0x4
 1206 0475 97       		.byte	0x97
 1207 0476 5A030000 		.4byte	0x35a
 1208 047a 1C       		.uleb128 0x1c
 1209 047b 78306600 		.ascii	"x0f\000"
 1210 047f 04       		.byte	0x4
 1211 0480 9A       		.byte	0x9a
 1212 0481 5A030000 		.4byte	0x35a
 1213 0485 1C       		.uleb128 0x1c
 1214 0486 78307000 		.ascii	"x0p\000"
 1215 048a 04       		.byte	0x4
 1216 048b 9B       		.byte	0x9b
 1217 048c DE030000 		.4byte	0x3de
 1218 0490 1C       		.uleb128 0x1c
 1219 0491 783000   		.ascii	"x0\000"
 1220 0494 04       		.byte	0x4
 1221 0495 9D       		.byte	0x9d
 1222 0496 DE030000 		.4byte	0x3de
 1223 049a 1C       		.uleb128 0x1c
 1224 049b 783100   		.ascii	"x1\000"
 1225 049e 04       		.byte	0x4
 1226 049f 9E       		.byte	0x9e
 1227 04a0 DE030000 		.4byte	0x3de
 1228 04a4 1C       		.uleb128 0x1c
 1229 04a5 793000   		.ascii	"y0\000"
 1230 04a8 04       		.byte	0x4
 1231 04a9 A0       		.byte	0xa0
 1232 04aa 5A030000 		.4byte	0x35a
 1233 04ae 00       		.byte	0
 1234 04af 19       		.uleb128 0x19
 1235 04b0 FF060000 		.4byte	.LASF69
 1236 04b4 02       		.byte	0x2
 1237 04b5 AF01     		.2byte	0x1af
 1238 04b7 25000000 		.4byte	0x25
 1239 04bb 03       		.byte	0x3
 1240 04bc CB040000 		.4byte	0x4cb
 1241 04c0 1A       		.uleb128 0x1a
 1242 04c1 7800     		.ascii	"x\000"
 1243 04c3 02       		.byte	0x2
 1244 04c4 AF01     		.2byte	0x1af
 1245 04c6 5A030000 		.4byte	0x35a
 1246 04ca 00       		.byte	0
 1247 04cb 1D       		.uleb128 0x1d
 1248 04cc B2020000 		.4byte	0x2b2
 1249 04d0 03       		.byte	0x3
 1250 04d1 D9040000 		.4byte	0x4d9
ARM GAS  C:\msys64\tmp\ccbCzhpa.s 			page 23


 1251 04d5 E3040000 		.4byte	0x4e3
 1252 04d9 1E       		.uleb128 0x1e
 1253 04da 90040000 		.4byte	.LASF70
 1254 04de E3040000 		.4byte	0x4e3
 1255 04e2 00       		.byte	0
 1256 04e3 08       		.uleb128 0x8
 1257 04e4 22030000 		.4byte	0x322
 1258 04e8 1D       		.uleb128 0x1d
 1259 04e9 49020000 		.4byte	0x249
 1260 04ed 03       		.byte	0x3
 1261 04ee F6040000 		.4byte	0x4f6
 1262 04f2 00050000 		.4byte	0x500
 1263 04f6 1E       		.uleb128 0x1e
 1264 04f7 90040000 		.4byte	.LASF70
 1265 04fb 00050000 		.4byte	0x500
 1266 04ff 00       		.byte	0
 1267 0500 08       		.uleb128 0x8
 1268 0501 1C030000 		.4byte	0x31c
 1269 0505 1D       		.uleb128 0x1d
 1270 0506 95020000 		.4byte	0x295
 1271 050a 03       		.byte	0x3
 1272 050b 13050000 		.4byte	0x513
 1273 050f 1D050000 		.4byte	0x51d
 1274 0513 1E       		.uleb128 0x1e
 1275 0514 90040000 		.4byte	.LASF70
 1276 0518 E3040000 		.4byte	0x4e3
 1277 051c 00       		.byte	0
 1278 051d 17       		.uleb128 0x17
 1279 051e 19060000 		.4byte	.LASF71
 1280 0522 04       		.byte	0x4
 1281 0523 AA       		.byte	0xaa
 1282 0524 25000000 		.4byte	0x25
 1283 0528 03       		.byte	0x3
 1284 0529 37050000 		.4byte	0x537
 1285 052d 18       		.uleb128 0x18
 1286 052e 7800     		.ascii	"x\000"
 1287 0530 04       		.byte	0x4
 1288 0531 AA       		.byte	0xaa
 1289 0532 25000000 		.4byte	0x25
 1290 0536 00       		.byte	0
 1291 0537 17       		.uleb128 0x17
 1292 0538 CC060000 		.4byte	.LASF72
 1293 053c 04       		.byte	0x4
 1294 053d 76       		.byte	0x76
 1295 053e 25000000 		.4byte	0x25
 1296 0542 03       		.byte	0x3
 1297 0543 7B050000 		.4byte	0x57b
 1298 0547 1B       		.uleb128 0x1b
 1299 0548 BC050000 		.4byte	.LASF67
 1300 054c 04       		.byte	0x4
 1301 054d 76       		.byte	0x76
 1302 054e 9E000000 		.4byte	0x9e
 1303 0552 18       		.uleb128 0x18
 1304 0553 6D6F6400 		.ascii	"mod\000"
 1305 0557 04       		.byte	0x4
 1306 0558 76       		.byte	0x76
 1307 0559 9E000000 		.4byte	0x9e
ARM GAS  C:\msys64\tmp\ccbCzhpa.s 			page 24


 1308 055d 1C       		.uleb128 0x1c
 1309 055e 663000   		.ascii	"f0\000"
 1310 0561 04       		.byte	0x4
 1311 0562 77       		.byte	0x77
 1312 0563 5A030000 		.4byte	0x35a
 1313 0567 1C       		.uleb128 0x1c
 1314 0568 663100   		.ascii	"f1\000"
 1315 056b 04       		.byte	0x4
 1316 056c 78       		.byte	0x78
 1317 056d 5A030000 		.4byte	0x35a
 1318 0571 1C       		.uleb128 0x1c
 1319 0572 6600     		.ascii	"f\000"
 1320 0574 04       		.byte	0x4
 1321 0575 7A       		.byte	0x7a
 1322 0576 5A030000 		.4byte	0x35a
 1323 057a 00       		.byte	0
 1324 057b 19       		.uleb128 0x19
 1325 057c 4F020000 		.4byte	.LASF73
 1326 0580 04       		.byte	0x4
 1327 0581 9902     		.2byte	0x299
 1328 0583 25000000 		.4byte	0x25
 1329 0587 03       		.byte	0x3
 1330 0588 A1050000 		.4byte	0x5a1
 1331 058c 1A       		.uleb128 0x1a
 1332 058d 6300     		.ascii	"c\000"
 1333 058f 04       		.byte	0x4
 1334 0590 9902     		.2byte	0x299
 1335 0592 5A030000 		.4byte	0x35a
 1336 0596 1A       		.uleb128 0x1a
 1337 0597 7800     		.ascii	"x\000"
 1338 0599 04       		.byte	0x4
 1339 059a 9902     		.2byte	0x299
 1340 059c 25000000 		.4byte	0x25
 1341 05a0 00       		.byte	0
 1342 05a1 1F       		.uleb128 0x1f
 1343 05a2 9C040000 		.4byte	.LASF111
 1344 05a6 01       		.byte	0x1
 1345 05a7 C2050000 		.4byte	0x5c2
 1346 05ab 1B       		.uleb128 0x1b
 1347 05ac 07030000 		.4byte	.LASF74
 1348 05b0 01       		.byte	0x1
 1349 05b1 6F       		.byte	0x6f
 1350 05b2 33000000 		.4byte	0x33
 1351 05b6 1B       		.uleb128 0x1b
 1352 05b7 2A030000 		.4byte	.LASF75
 1353 05bb 01       		.byte	0x1
 1354 05bc 6F       		.byte	0x6f
 1355 05bd 33000000 		.4byte	0x33
 1356 05c1 00       		.byte	0
 1357 05c2 20       		.uleb128 0x20
 1358 05c3 E2040000 		.4byte	.LASF76
 1359 05c7 01       		.byte	0x1
 1360 05c8 0E       		.byte	0xe
 1361 05c9 00000000 		.4byte	.LFB250
 1362 05cd 02000000 		.4byte	.LFE250-.LFB250
 1363 05d1 01       		.uleb128 0x1
 1364 05d2 9C       		.byte	0x9c
ARM GAS  C:\msys64\tmp\ccbCzhpa.s 			page 25


 1365 05d3 F2050000 		.4byte	0x5f2
 1366 05d7 21       		.uleb128 0x21
 1367 05d8 78010000 		.4byte	.LASF77
 1368 05dc 01       		.byte	0x1
 1369 05dd 0E       		.byte	0xe
 1370 05de BF000000 		.4byte	0xbf
 1371 05e2 01       		.uleb128 0x1
 1372 05e3 50       		.byte	0x50
 1373 05e4 22       		.uleb128 0x22
 1374 05e5 61706900 		.ascii	"api\000"
 1375 05e9 01       		.byte	0x1
 1376 05ea 0E       		.byte	0xe
 1377 05eb BF000000 		.4byte	0xbf
 1378 05ef 01       		.uleb128 0x1
 1379 05f0 51       		.byte	0x51
 1380 05f1 00       		.byte	0
 1381 05f2 1D       		.uleb128 0x1d
 1382 05f3 FD020000 		.4byte	0x2fd
 1383 05f7 03       		.byte	0x3
 1384 05f8 00060000 		.4byte	0x600
 1385 05fc 65060000 		.4byte	0x665
 1386 0600 1E       		.uleb128 0x1e
 1387 0601 90040000 		.4byte	.LASF70
 1388 0605 65060000 		.4byte	0x665
 1389 0609 18       		.uleb128 0x18
 1390 060a 70686900 		.ascii	"phi\000"
 1391 060e 03       		.byte	0x3
 1392 060f 37       		.byte	0x37
 1393 0610 25000000 		.4byte	0x25
 1394 0614 1C       		.uleb128 0x1c
 1395 0615 6400     		.ascii	"d\000"
 1396 0617 03       		.byte	0x3
 1397 0618 38       		.byte	0x38
 1398 0619 25000000 		.4byte	0x25
 1399 061d 1C       		.uleb128 0x1c
 1400 061e 7600     		.ascii	"v\000"
 1401 0620 03       		.byte	0x3
 1402 0621 39       		.byte	0x39
 1403 0622 25000000 		.4byte	0x25
 1404 0626 1C       		.uleb128 0x1c
 1405 0627 706400   		.ascii	"pd\000"
 1406 062a 03       		.byte	0x3
 1407 062b 3B       		.byte	0x3b
 1408 062c 25000000 		.4byte	0x25
 1409 0630 23       		.uleb128 0x23
 1410 0631 41060000 		.4byte	0x641
 1411 0635 24       		.uleb128 0x24
 1412 0636 BD020000 		.4byte	.LASF78
 1413 063a 03       		.byte	0x3
 1414 063b 3D       		.byte	0x3d
 1415 063c 25000000 		.4byte	0x25
 1416 0640 00       		.byte	0
 1417 0641 25       		.uleb128 0x25
 1418 0642 24       		.uleb128 0x24
 1419 0643 5E040000 		.4byte	.LASF79
 1420 0647 03       		.byte	0x3
 1421 0648 40       		.byte	0x40
ARM GAS  C:\msys64\tmp\ccbCzhpa.s 			page 26


 1422 0649 25000000 		.4byte	0x25
 1423 064d 24       		.uleb128 0x24
 1424 064e 8F050000 		.4byte	.LASF80
 1425 0652 03       		.byte	0x3
 1426 0653 41       		.byte	0x41
 1427 0654 25000000 		.4byte	0x25
 1428 0658 24       		.uleb128 0x24
 1429 0659 BD020000 		.4byte	.LASF78
 1430 065d 03       		.byte	0x3
 1431 065e 42       		.byte	0x42
 1432 065f 25000000 		.4byte	0x25
 1433 0663 00       		.byte	0
 1434 0664 00       		.byte	0
 1435 0665 08       		.uleb128 0x8
 1436 0666 28030000 		.4byte	0x328
 1437 066a 20       		.uleb128 0x20
 1438 066b 37020000 		.4byte	.LASF81
 1439 066f 01       		.byte	0x1
 1440 0670 13       		.byte	0x13
 1441 0671 02000000 		.4byte	.LFB251
 1442 0675 A2010000 		.4byte	.LFE251-.LFB251
 1443 0679 01       		.uleb128 0x1
 1444 067a 9C       		.byte	0x9c
 1445 067b C5090000 		.4byte	0x9c5
 1446 067f 26       		.uleb128 0x26
 1447 0680 00000000 		.4byte	.LASF54
 1448 0684 01       		.byte	0x1
 1449 0685 13       		.byte	0x13
 1450 0686 C5090000 		.4byte	0x9c5
 1451 068a 00000000 		.4byte	.LLST0
 1452 068e 27       		.uleb128 0x27
 1453 068f 796E00   		.ascii	"yn\000"
 1454 0692 01       		.byte	0x1
 1455 0693 13       		.byte	0x13
 1456 0694 08010000 		.4byte	0x108
 1457 0698 21000000 		.4byte	.LLST1
 1458 069c 26       		.uleb128 0x26
 1459 069d 97030000 		.4byte	.LASF82
 1460 06a1 01       		.byte	0x1
 1461 06a2 13       		.byte	0x13
 1462 06a3 DE030000 		.4byte	0x3de
 1463 06a7 42000000 		.4byte	.LLST2
 1464 06ab 28       		.uleb128 0x28
 1465 06ac 7300     		.ascii	"s\000"
 1466 06ae 01       		.byte	0x1
 1467 06af 16       		.byte	0x16
 1468 06b0 D0090000 		.4byte	0x9d0
 1469 06b4 06       		.uleb128 0x6
 1470 06b5 03       		.byte	0x3
 1471 06b6 00000000 		.4byte	_ZL4vpsf
 1472 06ba 9F       		.byte	0x9f
 1473 06bb 29       		.uleb128 0x29
 1474 06bc 2D000000 		.4byte	.LASF83
 1475 06c0 01       		.byte	0x1
 1476 06c1 19       		.byte	0x19
 1477 06c2 DE030000 		.4byte	0x3de
 1478 06c6 63000000 		.4byte	.LLST3
ARM GAS  C:\msys64\tmp\ccbCzhpa.s 			page 27


 1479 06ca 29       		.uleb128 0x29
 1480 06cb BC050000 		.4byte	.LASF67
 1481 06cf 01       		.byte	0x1
 1482 06d0 23       		.byte	0x23
 1483 06d1 9E000000 		.4byte	0x9e
 1484 06d5 91000000 		.4byte	.LLST4
 1485 06d9 28       		.uleb128 0x28
 1486 06da 773000   		.ascii	"w0\000"
 1487 06dd 01       		.byte	0x1
 1488 06de 26       		.byte	0x26
 1489 06df 25000000 		.4byte	0x25
 1490 06e3 02       		.uleb128 0x2
 1491 06e4 90       		.byte	0x90
 1492 06e5 4C       		.uleb128 0x4c
 1493 06e6 28       		.uleb128 0x28
 1494 06e7 70686900 		.ascii	"phi\000"
 1495 06eb 01       		.byte	0x1
 1496 06ec 29       		.byte	0x29
 1497 06ed 25000000 		.4byte	0x25
 1498 06f1 02       		.uleb128 0x2
 1499 06f2 90       		.byte	0x90
 1500 06f3 4D       		.uleb128 0x4d
 1501 06f4 2A       		.uleb128 0x2a
 1502 06f5 7900     		.ascii	"y\000"
 1503 06f7 01       		.byte	0x1
 1504 06f8 2C       		.byte	0x2c
 1505 06f9 F7000000 		.4byte	0xf7
 1506 06fd C9000000 		.4byte	.LLST5
 1507 0701 28       		.uleb128 0x28
 1508 0702 795F6500 		.ascii	"y_e\000"
 1509 0706 01       		.byte	0x1
 1510 0707 2D       		.byte	0x2d
 1511 0708 FD000000 		.4byte	0xfd
 1512 070c 01       		.uleb128 0x1
 1513 070d 52       		.byte	0x52
 1514 070e 2B       		.uleb128 0x2b
 1515 070f 37050000 		.4byte	0x537
 1516 0713 04000000 		.4byte	.LBB170
 1517 0717 00000000 		.4byte	.Ldebug_ranges0+0
 1518 071b 01       		.byte	0x1
 1519 071c 26       		.byte	0x26
 1520 071d FF070000 		.4byte	0x7ff
 1521 0721 2C       		.uleb128 0x2c
 1522 0722 52050000 		.4byte	0x552
 1523 0726 F4000000 		.4byte	.LLST6
 1524 072a 2D       		.uleb128 0x2d
 1525 072b 47050000 		.4byte	0x547
 1526 072f 2E       		.uleb128 0x2e
 1527 0730 00000000 		.4byte	.Ldebug_ranges0+0
 1528 0734 2F       		.uleb128 0x2f
 1529 0735 5D050000 		.4byte	0x55d
 1530 0739 2F       		.uleb128 0x2f
 1531 073a 67050000 		.4byte	0x567
 1532 073e 2F       		.uleb128 0x2f
 1533 073f 71050000 		.4byte	0x571
 1534 0743 2B       		.uleb128 0x2b
 1535 0744 09040000 		.4byte	0x409
ARM GAS  C:\msys64\tmp\ccbCzhpa.s 			page 28


 1536 0748 04000000 		.4byte	.LBB172
 1537 074c 38000000 		.4byte	.Ldebug_ranges0+0x38
 1538 0750 04       		.byte	0x4
 1539 0751 7A       		.byte	0x7a
 1540 0752 66070000 		.4byte	0x766
 1541 0756 2D       		.uleb128 0x2d
 1542 0757 30040000 		.4byte	0x430
 1543 075b 2D       		.uleb128 0x2d
 1544 075c 25040000 		.4byte	0x425
 1545 0760 2D       		.uleb128 0x2d
 1546 0761 1A040000 		.4byte	0x41a
 1547 0765 00       		.byte	0
 1548 0766 2B       		.uleb128 0x2b
 1549 0767 3C040000 		.4byte	0x43c
 1550 076b 36000000 		.4byte	.LBB177
 1551 076f 60000000 		.4byte	.Ldebug_ranges0+0x60
 1552 0773 04       		.byte	0x4
 1553 0774 77       		.byte	0x77
 1554 0775 7F070000 		.4byte	0x77f
 1555 0779 2D       		.uleb128 0x2d
 1556 077a 4C040000 		.4byte	0x44c
 1557 077e 00       		.byte	0
 1558 077f 2B       		.uleb128 0x2b
 1559 0780 3C040000 		.4byte	0x43c
 1560 0784 50000000 		.4byte	.LBB185
 1561 0788 90000000 		.4byte	.Ldebug_ranges0+0x90
 1562 078c 04       		.byte	0x4
 1563 078d 78       		.byte	0x78
 1564 078e 98070000 		.4byte	0x798
 1565 0792 2D       		.uleb128 0x2d
 1566 0793 4C040000 		.4byte	0x44c
 1567 0797 00       		.byte	0
 1568 0798 30       		.uleb128 0x30
 1569 0799 E3030000 		.4byte	0x3e3
 1570 079d 7C000000 		.4byte	.LBB194
 1571 07a1 12000000 		.4byte	.LBE194-.LBB194
 1572 07a5 04       		.byte	0x4
 1573 07a6 7A       		.byte	0x7a
 1574 07a7 2C       		.uleb128 0x2c
 1575 07a8 FE030000 		.4byte	0x3fe
 1576 07ac 25010000 		.4byte	.LLST7
 1577 07b0 2D       		.uleb128 0x2d
 1578 07b1 F4030000 		.4byte	0x3f4
 1579 07b5 31       		.uleb128 0x31
 1580 07b6 5F030000 		.4byte	0x35f
 1581 07ba 7C000000 		.4byte	.LBB195
 1582 07be 12000000 		.4byte	.LBE195-.LBB195
 1583 07c2 02       		.byte	0x2
 1584 07c3 8601     		.2byte	0x186
 1585 07c5 2C       		.uleb128 0x2c
 1586 07c6 7A030000 		.4byte	0x37a
 1587 07ca 25010000 		.4byte	.LLST7
 1588 07ce 2D       		.uleb128 0x2d
 1589 07cf 70030000 		.4byte	0x370
 1590 07d3 31       		.uleb128 0x31
 1591 07d4 2E030000 		.4byte	0x32e
 1592 07d8 7C000000 		.4byte	.LBB196
ARM GAS  C:\msys64\tmp\ccbCzhpa.s 			page 29


 1593 07dc 12000000 		.4byte	.LBE196-.LBB196
 1594 07e0 02       		.byte	0x2
 1595 07e1 4B01     		.2byte	0x14b
 1596 07e3 2D       		.uleb128 0x2d
 1597 07e4 50030000 		.4byte	0x350
 1598 07e8 2C       		.uleb128 0x2c
 1599 07e9 47030000 		.4byte	0x347
 1600 07ed 25010000 		.4byte	.LLST7
 1601 07f1 2C       		.uleb128 0x2c
 1602 07f2 3E030000 		.4byte	0x33e
 1603 07f6 3D010000 		.4byte	.LLST10
 1604 07fa 00       		.byte	0
 1605 07fb 00       		.byte	0
 1606 07fc 00       		.byte	0
 1607 07fd 00       		.byte	0
 1608 07fe 00       		.byte	0
 1609 07ff 32       		.uleb128 0x32
 1610 0800 A8000000 		.4byte	.Ldebug_ranges0+0xa8
 1611 0804 A8090000 		.4byte	0x9a8
 1612 0808 1C       		.uleb128 0x1c
 1613 0809 73696700 		.ascii	"sig\000"
 1614 080d 01       		.byte	0x1
 1615 080e 32       		.byte	0x32
 1616 080f 25000000 		.4byte	0x25
 1617 0813 2B       		.uleb128 0x2b
 1618 0814 F2050000 		.4byte	0x5f2
 1619 0818 08000000 		.4byte	.LBB205
 1620 081c D8000000 		.4byte	.Ldebug_ranges0+0xd8
 1621 0820 01       		.byte	0x1
 1622 0821 32       		.byte	0x32
 1623 0822 27090000 		.4byte	0x927
 1624 0826 2C       		.uleb128 0x2c
 1625 0827 09060000 		.4byte	0x609
 1626 082b 5B010000 		.4byte	.LLST11
 1627 082f 2C       		.uleb128 0x2c
 1628 0830 00060000 		.4byte	0x600
 1629 0834 6F010000 		.4byte	.LLST12
 1630 0838 2E       		.uleb128 0x2e
 1631 0839 D8000000 		.4byte	.Ldebug_ranges0+0xd8
 1632 083d 33       		.uleb128 0x33
 1633 083e 14060000 		.4byte	0x614
 1634 0842 87010000 		.4byte	.LLST13
 1635 0846 33       		.uleb128 0x33
 1636 0847 1D060000 		.4byte	0x61d
 1637 084b 9E010000 		.4byte	.LLST14
 1638 084f 33       		.uleb128 0x33
 1639 0850 26060000 		.4byte	0x626
 1640 0854 B5010000 		.4byte	.LLST15
 1641 0858 2B       		.uleb128 0x2b
 1642 0859 1D050000 		.4byte	0x51d
 1643 085d 10000000 		.4byte	.LBB207
 1644 0861 08010000 		.4byte	.Ldebug_ranges0+0x108
 1645 0865 03       		.byte	0x3
 1646 0866 46       		.byte	0x46
 1647 0867 ED080000 		.4byte	0x8ed
 1648 086b 2C       		.uleb128 0x2c
 1649 086c 2D050000 		.4byte	0x52d
ARM GAS  C:\msys64\tmp\ccbCzhpa.s 			page 30


 1650 0870 D5010000 		.4byte	.LLST16
 1651 0874 34       		.uleb128 0x34
 1652 0875 58040000 		.4byte	0x458
 1653 0879 10000000 		.4byte	.LBB209
 1654 087d 30010000 		.4byte	.Ldebug_ranges0+0x130
 1655 0881 04       		.byte	0x4
 1656 0882 AB       		.byte	0xab
 1657 0883 2C       		.uleb128 0x2c
 1658 0884 68040000 		.4byte	0x468
 1659 0888 E9010000 		.4byte	.LLST17
 1660 088c 2E       		.uleb128 0x2e
 1661 088d 30010000 		.4byte	.Ldebug_ranges0+0x130
 1662 0891 33       		.uleb128 0x33
 1663 0892 71040000 		.4byte	0x471
 1664 0896 FD010000 		.4byte	.LLST18
 1665 089a 33       		.uleb128 0x33
 1666 089b 7A040000 		.4byte	0x47a
 1667 089f 1B020000 		.4byte	.LLST19
 1668 08a3 33       		.uleb128 0x33
 1669 08a4 85040000 		.4byte	0x485
 1670 08a8 2F020000 		.4byte	.LLST20
 1671 08ac 33       		.uleb128 0x33
 1672 08ad 90040000 		.4byte	0x490
 1673 08b1 42020000 		.4byte	.LLST21
 1674 08b5 33       		.uleb128 0x33
 1675 08b6 9A040000 		.4byte	0x49a
 1676 08ba 72020000 		.4byte	.LLST22
 1677 08be 2F       		.uleb128 0x2f
 1678 08bf A4040000 		.4byte	0x4a4
 1679 08c3 34       		.uleb128 0x34
 1680 08c4 09040000 		.4byte	0x409
 1681 08c8 FA000000 		.4byte	.LBB211
 1682 08cc 50010000 		.4byte	.Ldebug_ranges0+0x150
 1683 08d0 04       		.byte	0x4
 1684 08d1 A0       		.byte	0xa0
 1685 08d2 2D       		.uleb128 0x2d
 1686 08d3 30040000 		.4byte	0x430
 1687 08d7 2C       		.uleb128 0x2c
 1688 08d8 25040000 		.4byte	0x425
 1689 08dc B5020000 		.4byte	.LLST23
 1690 08e0 2C       		.uleb128 0x2c
 1691 08e1 1A040000 		.4byte	0x41a
 1692 08e5 C9020000 		.4byte	.LLST24
 1693 08e9 00       		.byte	0
 1694 08ea 00       		.byte	0
 1695 08eb 00       		.byte	0
 1696 08ec 00       		.byte	0
 1697 08ed 32       		.uleb128 0x32
 1698 08ee 78010000 		.4byte	.Ldebug_ranges0+0x178
 1699 08f2 12090000 		.4byte	0x912
 1700 08f6 33       		.uleb128 0x33
 1701 08f7 42060000 		.4byte	0x642
 1702 08fb F2020000 		.4byte	.LLST25
 1703 08ff 33       		.uleb128 0x33
 1704 0900 4D060000 		.4byte	0x64d
 1705 0904 2A030000 		.4byte	.LLST26
 1706 0908 33       		.uleb128 0x33
ARM GAS  C:\msys64\tmp\ccbCzhpa.s 			page 31


 1707 0909 58060000 		.4byte	0x658
 1708 090d 48030000 		.4byte	.LLST27
 1709 0911 00       		.byte	0
 1710 0912 35       		.uleb128 0x35
 1711 0913 B4000000 		.4byte	.LBB229
 1712 0917 0A000000 		.4byte	.LBE229-.LBB229
 1713 091b 33       		.uleb128 0x33
 1714 091c 35060000 		.4byte	0x635
 1715 0920 6E030000 		.4byte	.LLST28
 1716 0924 00       		.byte	0
 1717 0925 00       		.byte	0
 1718 0926 00       		.byte	0
 1719 0927 34       		.uleb128 0x34
 1720 0928 7B050000 		.4byte	0x57b
 1721 092c A2000000 		.4byte	.LBB241
 1722 0930 90010000 		.4byte	.Ldebug_ranges0+0x190
 1723 0934 01       		.byte	0x1
 1724 0935 35       		.byte	0x35
 1725 0936 2D       		.uleb128 0x2d
 1726 0937 96050000 		.4byte	0x596
 1727 093b 2C       		.uleb128 0x2c
 1728 093c 8C050000 		.4byte	0x58c
 1729 0940 A6030000 		.4byte	.LLST29
 1730 0944 36       		.uleb128 0x36
 1731 0945 AF040000 		.4byte	0x4af
 1732 0949 A2000000 		.4byte	.LBB243
 1733 094d A8010000 		.4byte	.Ldebug_ranges0+0x1a8
 1734 0951 04       		.byte	0x4
 1735 0952 9B02     		.2byte	0x29b
 1736 0954 2D       		.uleb128 0x2d
 1737 0955 C0040000 		.4byte	0x4c0
 1738 0959 36       		.uleb128 0x36
 1739 095a 87030000 		.4byte	0x387
 1740 095e A2000000 		.4byte	.LBB244
 1741 0962 C0010000 		.4byte	.Ldebug_ranges0+0x1c0
 1742 0966 02       		.byte	0x2
 1743 0967 B001     		.2byte	0x1b0
 1744 0969 2C       		.uleb128 0x2c
 1745 096a AE030000 		.4byte	0x3ae
 1746 096e BE030000 		.4byte	.LLST30
 1747 0972 2D       		.uleb128 0x2d
 1748 0973 A4030000 		.4byte	0x3a4
 1749 0977 2C       		.uleb128 0x2c
 1750 0978 98030000 		.4byte	0x398
 1751 097c D6030000 		.4byte	.LLST31
 1752 0980 36       		.uleb128 0x36
 1753 0981 2E030000 		.4byte	0x32e
 1754 0985 A2000000 		.4byte	.LBB245
 1755 0989 D8010000 		.4byte	.Ldebug_ranges0+0x1d8
 1756 098d 02       		.byte	0x2
 1757 098e 3E01     		.2byte	0x13e
 1758 0990 2C       		.uleb128 0x2c
 1759 0991 50030000 		.4byte	0x350
 1760 0995 EE030000 		.4byte	.LLST32
 1761 0999 2D       		.uleb128 0x2d
 1762 099a 47030000 		.4byte	0x347
 1763 099e 2D       		.uleb128 0x2d
ARM GAS  C:\msys64\tmp\ccbCzhpa.s 			page 32


 1764 099f 3E030000 		.4byte	0x33e
 1765 09a3 00       		.byte	0
 1766 09a4 00       		.byte	0
 1767 09a5 00       		.byte	0
 1768 09a6 00       		.byte	0
 1769 09a7 00       		.byte	0
 1770 09a8 30       		.uleb128 0x30
 1771 09a9 CB040000 		.4byte	0x4cb
 1772 09ad 24000000 		.4byte	.LBB258
 1773 09b1 06000000 		.4byte	.LBE258-.LBB258
 1774 09b5 01       		.byte	0x1
 1775 09b6 1F       		.byte	0x1f
 1776 09b7 37       		.uleb128 0x37
 1777 09b8 D9040000 		.4byte	0x4d9
 1778 09bc 06       		.uleb128 0x6
 1779 09bd 03       		.byte	0x3
 1780 09be 00000000 		.4byte	_ZL4vpsf
 1781 09c2 9F       		.byte	0x9f
 1782 09c3 00       		.byte	0
 1783 09c4 00       		.byte	0
 1784 09c5 08       		.uleb128 0x8
 1785 09c6 F5010000 		.4byte	0x1f5
 1786 09ca 38       		.uleb128 0x38
 1787 09cb 04       		.byte	0x4
 1788 09cc 63020000 		.4byte	0x263
 1789 09d0 08       		.uleb128 0x8
 1790 09d1 CA090000 		.4byte	0x9ca
 1791 09d5 20       		.uleb128 0x20
 1792 09d6 E9020000 		.4byte	.LASF84
 1793 09da 01       		.byte	0x1
 1794 09db 44       		.byte	0x44
 1795 09dc A4010000 		.4byte	.LFB252
 1796 09e0 10000000 		.4byte	.LFE252-.LFB252
 1797 09e4 01       		.uleb128 0x1
 1798 09e5 9C       		.byte	0x9c
 1799 09e6 080A0000 		.4byte	0xa08
 1800 09ea 21       		.uleb128 0x21
 1801 09eb 00000000 		.4byte	.LASF54
 1802 09ef 01       		.byte	0x1
 1803 09f0 44       		.byte	0x44
 1804 09f1 C5090000 		.4byte	0x9c5
 1805 09f5 01       		.uleb128 0x1
 1806 09f6 50       		.byte	0x50
 1807 09f7 28       		.uleb128 0x28
 1808 09f8 7300     		.ascii	"s\000"
 1809 09fa 01       		.byte	0x1
 1810 09fb 45       		.byte	0x45
 1811 09fc 080A0000 		.4byte	0xa08
 1812 0a00 06       		.uleb128 0x6
 1813 0a01 03       		.byte	0x3
 1814 0a02 00000000 		.4byte	_ZL4vpsf
 1815 0a06 9F       		.byte	0x9f
 1816 0a07 00       		.byte	0
 1817 0a08 08       		.uleb128 0x8
 1818 0a09 CA090000 		.4byte	0x9ca
 1819 0a0d 20       		.uleb128 0x20
 1820 0a0e 8D030000 		.4byte	.LASF85
ARM GAS  C:\msys64\tmp\ccbCzhpa.s 			page 33


 1821 0a12 01       		.byte	0x1
 1822 0a13 49       		.byte	0x49
 1823 0a14 B4010000 		.4byte	.LFB253
 1824 0a18 02000000 		.4byte	.LFE253-.LFB253
 1825 0a1c 01       		.uleb128 0x1
 1826 0a1d 9C       		.byte	0x9c
 1827 0a1e 300A0000 		.4byte	0xa30
 1828 0a22 21       		.uleb128 0x21
 1829 0a23 00000000 		.4byte	.LASF54
 1830 0a27 01       		.byte	0x1
 1831 0a28 49       		.byte	0x49
 1832 0a29 C5090000 		.4byte	0x9c5
 1833 0a2d 01       		.uleb128 0x1
 1834 0a2e 50       		.byte	0x50
 1835 0a2f 00       		.byte	0
 1836 0a30 20       		.uleb128 0x20
 1837 0a31 07000000 		.4byte	.LASF86
 1838 0a35 01       		.byte	0x1
 1839 0a36 4E       		.byte	0x4e
 1840 0a37 B6010000 		.4byte	.LFB254
 1841 0a3b 46000000 		.4byte	.LFE254-.LFB254
 1842 0a3f 01       		.uleb128 0x1
 1843 0a40 9C       		.byte	0x9c
 1844 0a41 7F0A0000 		.4byte	0xa7f
 1845 0a45 21       		.uleb128 0x21
 1846 0a46 8C020000 		.4byte	.LASF87
 1847 0a4a 01       		.byte	0x1
 1848 0a4b 4E       		.byte	0x4e
 1849 0a4c A9000000 		.4byte	0xa9
 1850 0a50 01       		.uleb128 0x1
 1851 0a51 50       		.byte	0x50
 1852 0a52 21       		.uleb128 0x21
 1853 0a53 01030000 		.4byte	.LASF88
 1854 0a57 01       		.byte	0x1
 1855 0a58 4E       		.byte	0x4e
 1856 0a59 A9000000 		.4byte	0xa9
 1857 0a5d 01       		.uleb128 0x1
 1858 0a5e 51       		.byte	0x51
 1859 0a5f 28       		.uleb128 0x28
 1860 0a60 7000     		.ascii	"p\000"
 1861 0a62 01       		.byte	0x1
 1862 0a63 50       		.byte	0x50
 1863 0a64 850A0000 		.4byte	0xa85
 1864 0a68 06       		.uleb128 0x6
 1865 0a69 03       		.byte	0x3
 1866 0a6a 0C000000 		.4byte	_ZL4vpsf+12
 1867 0a6e 9F       		.byte	0x9f
 1868 0a6f 29       		.uleb128 0x29
 1869 0a70 70020000 		.4byte	.LASF89
 1870 0a74 01       		.byte	0x1
 1871 0a75 52       		.byte	0x52
 1872 0a76 5A030000 		.4byte	0x35a
 1873 0a7a 16040000 		.4byte	.LLST33
 1874 0a7e 00       		.byte	0
 1875 0a7f 38       		.uleb128 0x38
 1876 0a80 04       		.byte	0x4
 1877 0a81 25020000 		.4byte	0x225
ARM GAS  C:\msys64\tmp\ccbCzhpa.s 			page 34


 1878 0a85 08       		.uleb128 0x8
 1879 0a86 7F0A0000 		.4byte	0xa7f
 1880 0a8a 1D       		.uleb128 0x1d
 1881 0a8b E0020000 		.4byte	0x2e0
 1882 0a8f 02       		.byte	0x2
 1883 0a90 980A0000 		.4byte	0xa98
 1884 0a94 A20A0000 		.4byte	0xaa2
 1885 0a98 1E       		.uleb128 0x1e
 1886 0a99 90040000 		.4byte	.LASF70
 1887 0a9d 65060000 		.4byte	0x665
 1888 0aa1 00       		.byte	0
 1889 0aa2 39       		.uleb128 0x39
 1890 0aa3 20040000 		.4byte	.LASF112
 1891 0aa7 00000000 		.4byte	.LFB256
 1892 0aab 1C000000 		.4byte	.LFE256-.LFB256
 1893 0aaf 01       		.uleb128 0x1
 1894 0ab0 9C       		.byte	0x9c
 1895 0ab1 270B0000 		.4byte	0xb27
 1896 0ab5 30       		.uleb128 0x30
 1897 0ab6 A1050000 		.4byte	0x5a1
 1898 0aba 00000000 		.4byte	.LBB278
 1899 0abe 1C000000 		.4byte	.LBE278-.LBB278
 1900 0ac2 01       		.byte	0x1
 1901 0ac3 6F       		.byte	0x6f
 1902 0ac4 2C       		.uleb128 0x2c
 1903 0ac5 B6050000 		.4byte	0x5b6
 1904 0ac9 65040000 		.4byte	.LLST34
 1905 0acd 2C       		.uleb128 0x2c
 1906 0ace AB050000 		.4byte	0x5ab
 1907 0ad2 7B040000 		.4byte	.LLST35
 1908 0ad6 30       		.uleb128 0x30
 1909 0ad7 8A0A0000 		.4byte	0xa8a
 1910 0adb 00000000 		.4byte	.LBB280
 1911 0adf 1C000000 		.4byte	.LBE280-.LBB280
 1912 0ae3 01       		.byte	0x1
 1913 0ae4 0C       		.byte	0xc
 1914 0ae5 2C       		.uleb128 0x2c
 1915 0ae6 980A0000 		.4byte	0xa98
 1916 0aea 8F040000 		.4byte	.LLST36
 1917 0aee 3A       		.uleb128 0x3a
 1918 0aef 05050000 		.4byte	0x505
 1919 0af3 00000000 		.4byte	.LBB281
 1920 0af7 10000000 		.4byte	.LBE281-.LBB281
 1921 0afb 03       		.byte	0x3
 1922 0afc 32       		.byte	0x32
 1923 0afd 0B0B0000 		.4byte	0xb0b
 1924 0b01 2C       		.uleb128 0x2c
 1925 0b02 13050000 		.4byte	0x513
 1926 0b06 A7040000 		.4byte	.LLST37
 1927 0b0a 00       		.byte	0
 1928 0b0b 30       		.uleb128 0x30
 1929 0b0c E8040000 		.4byte	0x4e8
 1930 0b10 10000000 		.4byte	.LBB283
 1931 0b14 0C000000 		.4byte	.LBE283-.LBB283
 1932 0b18 03       		.byte	0x3
 1933 0b19 32       		.byte	0x32
 1934 0b1a 2C       		.uleb128 0x2c
ARM GAS  C:\msys64\tmp\ccbCzhpa.s 			page 35


 1935 0b1b F6040000 		.4byte	0x4f6
 1936 0b1f BF040000 		.4byte	.LLST38
 1937 0b23 00       		.byte	0
 1938 0b24 00       		.byte	0
 1939 0b25 00       		.byte	0
 1940 0b26 00       		.byte	0
 1941 0b27 3B       		.uleb128 0x3b
 1942 0b28 15070000 		.4byte	.LASF90
 1943 0b2c 04       		.byte	0x4
 1944 0b2d 3F       		.byte	0x3f
 1945 0b2e DE030000 		.4byte	0x3de
 1946 0b32 3B       		.uleb128 0x3b
 1947 0b33 A5050000 		.4byte	.LASF91
 1948 0b37 04       		.byte	0x4
 1949 0b38 44       		.byte	0x44
 1950 0b39 DE030000 		.4byte	0x3de
 1951 0b3d 0D       		.uleb128 0xd
 1952 0b3e 5A030000 		.4byte	0x35a
 1953 0b42 4D0B0000 		.4byte	0xb4d
 1954 0b46 0E       		.uleb128 0xe
 1955 0b47 D6000000 		.4byte	0xd6
 1956 0b4b 97       		.byte	0x97
 1957 0b4c 00       		.byte	0
 1958 0b4d 3B       		.uleb128 0x3b
 1959 0b4e 75020000 		.4byte	.LASF92
 1960 0b52 04       		.byte	0x4
 1961 0b53 61       		.byte	0x61
 1962 0b54 580B0000 		.4byte	0xb58
 1963 0b58 08       		.uleb128 0x8
 1964 0b59 3D0B0000 		.4byte	0xb3d
 1965 0b5d 0D       		.uleb128 0xd
 1966 0b5e 5A030000 		.4byte	0x35a
 1967 0b62 6D0B0000 		.4byte	0xb6d
 1968 0b66 0E       		.uleb128 0xe
 1969 0b67 D6000000 		.4byte	0xd6
 1970 0b6b 80       		.byte	0x80
 1971 0b6c 00       		.byte	0
 1972 0b6d 3B       		.uleb128 0x3b
 1973 0b6e E2050000 		.4byte	.LASF93
 1974 0b72 04       		.byte	0x4
 1975 0b73 8E       		.byte	0x8e
 1976 0b74 780B0000 		.4byte	0xb78
 1977 0b78 08       		.uleb128 0x8
 1978 0b79 5D0B0000 		.4byte	0xb5d
 1979 0b7d 0D       		.uleb128 0xd
 1980 0b7e 5A030000 		.4byte	0x35a
 1981 0b82 8E0B0000 		.4byte	0xb8e
 1982 0b86 3C       		.uleb128 0x3c
 1983 0b87 D6000000 		.4byte	0xd6
 1984 0b8b 8603     		.2byte	0x386
 1985 0b8d 00       		.byte	0
 1986 0b8e 3B       		.uleb128 0x3b
 1987 0b8f 3A040000 		.4byte	.LASF94
 1988 0b93 04       		.byte	0x4
 1989 0b94 C0       		.byte	0xc0
 1990 0b95 990B0000 		.4byte	0xb99
 1991 0b99 08       		.uleb128 0x8
ARM GAS  C:\msys64\tmp\ccbCzhpa.s 			page 36


 1992 0b9a 7D0B0000 		.4byte	0xb7d
 1993 0b9e 3D       		.uleb128 0x3d
 1994 0b9f 22050000 		.4byte	.LASF95
 1995 0ba3 04       		.byte	0x4
 1996 0ba4 3201     		.2byte	0x132
 1997 0ba6 AA0B0000 		.4byte	0xbaa
 1998 0baa 08       		.uleb128 0x8
 1999 0bab 7D0B0000 		.4byte	0xb7d
 2000 0baf 3D       		.uleb128 0x3d
 2001 0bb0 20000000 		.4byte	.LASF96
 2002 0bb4 04       		.byte	0x4
 2003 0bb5 A501     		.2byte	0x1a5
 2004 0bb7 BB0B0000 		.4byte	0xbbb
 2005 0bbb 08       		.uleb128 0x8
 2006 0bbc 7D0B0000 		.4byte	0xb7d
 2007 0bc0 0D       		.uleb128 0xd
 2008 0bc1 5A030000 		.4byte	0x35a
 2009 0bc5 D10B0000 		.4byte	0xbd1
 2010 0bc9 3C       		.uleb128 0x3c
 2011 0bca D6000000 		.4byte	0xd6
 2012 0bce 0001     		.2byte	0x100
 2013 0bd0 00       		.byte	0
 2014 0bd1 3D       		.uleb128 0x3d
 2015 0bd2 CC030000 		.4byte	.LASF97
 2016 0bd6 04       		.byte	0x4
 2017 0bd7 4602     		.2byte	0x246
 2018 0bd9 DD0B0000 		.4byte	0xbdd
 2019 0bdd 08       		.uleb128 0x8
 2020 0bde C00B0000 		.4byte	0xbc0
 2021 0be2 3D       		.uleb128 0x3d
 2022 0be3 43020000 		.4byte	.LASF98
 2023 0be7 04       		.byte	0x4
 2024 0be8 5D02     		.2byte	0x25d
 2025 0bea EE0B0000 		.4byte	0xbee
 2026 0bee 08       		.uleb128 0x8
 2027 0bef C00B0000 		.4byte	0xbc0
 2028 0bf3 3D       		.uleb128 0x3d
 2029 0bf4 F7040000 		.4byte	.LASF99
 2030 0bf8 04       		.byte	0x4
 2031 0bf9 7502     		.2byte	0x275
 2032 0bfb FF0B0000 		.4byte	0xbff
 2033 0bff 08       		.uleb128 0x8
 2034 0c00 C00B0000 		.4byte	0xbc0
 2035 0c04 3D       		.uleb128 0x3d
 2036 0c05 13050000 		.4byte	.LASF100
 2037 0c09 04       		.byte	0x4
 2038 0c0a A402     		.2byte	0x2a4
 2039 0c0c 100C0000 		.4byte	0xc10
 2040 0c10 08       		.uleb128 0x8
 2041 0c11 5D0B0000 		.4byte	0xb5d
 2042 0c15 3D       		.uleb128 0x3d
 2043 0c16 9E030000 		.4byte	.LASF101
 2044 0c1a 04       		.byte	0x4
 2045 0c1b B902     		.2byte	0x2b9
 2046 0c1d 210C0000 		.4byte	0xc21
 2047 0c21 08       		.uleb128 0x8
 2048 0c22 5D0B0000 		.4byte	0xb5d
ARM GAS  C:\msys64\tmp\ccbCzhpa.s 			page 37


 2049 0c26 3D       		.uleb128 0x3d
 2050 0c27 58010000 		.4byte	.LASF102
 2051 0c2b 04       		.byte	0x4
 2052 0c2c D602     		.2byte	0x2d6
 2053 0c2e 320C0000 		.4byte	0xc32
 2054 0c32 08       		.uleb128 0x8
 2055 0c33 5D0B0000 		.4byte	0xb5d
 2056 0c37 3E       		.uleb128 0x3e
 2057 0c38 47040000 		.4byte	.LASF103
 2058 0c3c 01       		.byte	0x1
 2059 0c3d 0C       		.byte	0xc
 2060 0c3e 00020000 		.4byte	0x200
 2061 0c42 05       		.uleb128 0x5
 2062 0c43 03       		.byte	0x3
 2063 0c44 00000000 		.4byte	_ZL4vpsf
 2064 0c48 00       		.byte	0
 2065              		.section	.debug_abbrev,"",%progbits
 2066              	.Ldebug_abbrev0:
 2067 0000 01       		.uleb128 0x1
 2068 0001 11       		.uleb128 0x11
 2069 0002 01       		.byte	0x1
 2070 0003 25       		.uleb128 0x25
 2071 0004 0E       		.uleb128 0xe
 2072 0005 13       		.uleb128 0x13
 2073 0006 0B       		.uleb128 0xb
 2074 0007 03       		.uleb128 0x3
 2075 0008 0E       		.uleb128 0xe
 2076 0009 1B       		.uleb128 0x1b
 2077 000a 0E       		.uleb128 0xe
 2078 000b 55       		.uleb128 0x55
 2079 000c 17       		.uleb128 0x17
 2080 000d 11       		.uleb128 0x11
 2081 000e 01       		.uleb128 0x1
 2082 000f 10       		.uleb128 0x10
 2083 0010 17       		.uleb128 0x17
 2084 0011 00       		.byte	0
 2085 0012 00       		.byte	0
 2086 0013 02       		.uleb128 0x2
 2087 0014 24       		.uleb128 0x24
 2088 0015 00       		.byte	0
 2089 0016 0B       		.uleb128 0xb
 2090 0017 0B       		.uleb128 0xb
 2091 0018 3E       		.uleb128 0x3e
 2092 0019 0B       		.uleb128 0xb
 2093 001a 03       		.uleb128 0x3
 2094 001b 0E       		.uleb128 0xe
 2095 001c 00       		.byte	0
 2096 001d 00       		.byte	0
 2097 001e 03       		.uleb128 0x3
 2098 001f 24       		.uleb128 0x24
 2099 0020 00       		.byte	0
 2100 0021 0B       		.uleb128 0xb
 2101 0022 0B       		.uleb128 0xb
 2102 0023 3E       		.uleb128 0x3e
 2103 0024 0B       		.uleb128 0xb
 2104 0025 03       		.uleb128 0x3
 2105 0026 08       		.uleb128 0x8
ARM GAS  C:\msys64\tmp\ccbCzhpa.s 			page 38


 2106 0027 00       		.byte	0
 2107 0028 00       		.byte	0
 2108 0029 04       		.uleb128 0x4
 2109 002a 16       		.uleb128 0x16
 2110 002b 00       		.byte	0
 2111 002c 03       		.uleb128 0x3
 2112 002d 0E       		.uleb128 0xe
 2113 002e 3A       		.uleb128 0x3a
 2114 002f 0B       		.uleb128 0xb
 2115 0030 3B       		.uleb128 0x3b
 2116 0031 0B       		.uleb128 0xb
 2117 0032 49       		.uleb128 0x49
 2118 0033 13       		.uleb128 0x13
 2119 0034 00       		.byte	0
 2120 0035 00       		.byte	0
 2121 0036 05       		.uleb128 0x5
 2122 0037 3B       		.uleb128 0x3b
 2123 0038 00       		.byte	0
 2124 0039 03       		.uleb128 0x3
 2125 003a 0E       		.uleb128 0xe
 2126 003b 00       		.byte	0
 2127 003c 00       		.byte	0
 2128 003d 06       		.uleb128 0x6
 2129 003e 16       		.uleb128 0x16
 2130 003f 00       		.byte	0
 2131 0040 03       		.uleb128 0x3
 2132 0041 0E       		.uleb128 0xe
 2133 0042 3A       		.uleb128 0x3a
 2134 0043 0B       		.uleb128 0xb
 2135 0044 3B       		.uleb128 0x3b
 2136 0045 05       		.uleb128 0x5
 2137 0046 49       		.uleb128 0x49
 2138 0047 13       		.uleb128 0x13
 2139 0048 00       		.byte	0
 2140 0049 00       		.byte	0
 2141 004a 07       		.uleb128 0x7
 2142 004b 0F       		.uleb128 0xf
 2143 004c 00       		.byte	0
 2144 004d 0B       		.uleb128 0xb
 2145 004e 0B       		.uleb128 0xb
 2146 004f 49       		.uleb128 0x49
 2147 0050 13       		.uleb128 0x13
 2148 0051 00       		.byte	0
 2149 0052 00       		.byte	0
 2150 0053 08       		.uleb128 0x8
 2151 0054 26       		.uleb128 0x26
 2152 0055 00       		.byte	0
 2153 0056 49       		.uleb128 0x49
 2154 0057 13       		.uleb128 0x13
 2155 0058 00       		.byte	0
 2156 0059 00       		.byte	0
 2157 005a 09       		.uleb128 0x9
 2158 005b 04       		.uleb128 0x4
 2159 005c 01       		.byte	0x1
 2160 005d 0B       		.uleb128 0xb
 2161 005e 0B       		.uleb128 0xb
 2162 005f 49       		.uleb128 0x49
ARM GAS  C:\msys64\tmp\ccbCzhpa.s 			page 39


 2163 0060 13       		.uleb128 0x13
 2164 0061 3A       		.uleb128 0x3a
 2165 0062 0B       		.uleb128 0xb
 2166 0063 3B       		.uleb128 0x3b
 2167 0064 0B       		.uleb128 0xb
 2168 0065 01       		.uleb128 0x1
 2169 0066 13       		.uleb128 0x13
 2170 0067 00       		.byte	0
 2171 0068 00       		.byte	0
 2172 0069 0A       		.uleb128 0xa
 2173 006a 28       		.uleb128 0x28
 2174 006b 00       		.byte	0
 2175 006c 03       		.uleb128 0x3
 2176 006d 0E       		.uleb128 0xe
 2177 006e 1C       		.uleb128 0x1c
 2178 006f 0B       		.uleb128 0xb
 2179 0070 00       		.byte	0
 2180 0071 00       		.byte	0
 2181 0072 0B       		.uleb128 0xb
 2182 0073 13       		.uleb128 0x13
 2183 0074 01       		.byte	0x1
 2184 0075 03       		.uleb128 0x3
 2185 0076 0E       		.uleb128 0xe
 2186 0077 0B       		.uleb128 0xb
 2187 0078 0B       		.uleb128 0xb
 2188 0079 3A       		.uleb128 0x3a
 2189 007a 0B       		.uleb128 0xb
 2190 007b 3B       		.uleb128 0x3b
 2191 007c 0B       		.uleb128 0xb
 2192 007d 01       		.uleb128 0x1
 2193 007e 13       		.uleb128 0x13
 2194 007f 00       		.byte	0
 2195 0080 00       		.byte	0
 2196 0081 0C       		.uleb128 0xc
 2197 0082 0D       		.uleb128 0xd
 2198 0083 00       		.byte	0
 2199 0084 03       		.uleb128 0x3
 2200 0085 0E       		.uleb128 0xe
 2201 0086 3A       		.uleb128 0x3a
 2202 0087 0B       		.uleb128 0xb
 2203 0088 3B       		.uleb128 0x3b
 2204 0089 0B       		.uleb128 0xb
 2205 008a 49       		.uleb128 0x49
 2206 008b 13       		.uleb128 0x13
 2207 008c 38       		.uleb128 0x38
 2208 008d 0B       		.uleb128 0xb
 2209 008e 00       		.byte	0
 2210 008f 00       		.byte	0
 2211 0090 0D       		.uleb128 0xd
 2212 0091 01       		.uleb128 0x1
 2213 0092 01       		.byte	0x1
 2214 0093 49       		.uleb128 0x49
 2215 0094 13       		.uleb128 0x13
 2216 0095 01       		.uleb128 0x1
 2217 0096 13       		.uleb128 0x13
 2218 0097 00       		.byte	0
 2219 0098 00       		.byte	0
ARM GAS  C:\msys64\tmp\ccbCzhpa.s 			page 40


 2220 0099 0E       		.uleb128 0xe
 2221 009a 21       		.uleb128 0x21
 2222 009b 00       		.byte	0
 2223 009c 49       		.uleb128 0x49
 2224 009d 13       		.uleb128 0x13
 2225 009e 2F       		.uleb128 0x2f
 2226 009f 0B       		.uleb128 0xb
 2227 00a0 00       		.byte	0
 2228 00a1 00       		.byte	0
 2229 00a2 0F       		.uleb128 0xf
 2230 00a3 04       		.uleb128 0x4
 2231 00a4 01       		.byte	0x1
 2232 00a5 0B       		.uleb128 0xb
 2233 00a6 0B       		.uleb128 0xb
 2234 00a7 49       		.uleb128 0x49
 2235 00a8 13       		.uleb128 0x13
 2236 00a9 3A       		.uleb128 0x3a
 2237 00aa 0B       		.uleb128 0xb
 2238 00ab 3B       		.uleb128 0x3b
 2239 00ac 0B       		.uleb128 0xb
 2240 00ad 6E       		.uleb128 0x6e
 2241 00ae 0E       		.uleb128 0xe
 2242 00af 01       		.uleb128 0x1
 2243 00b0 13       		.uleb128 0x13
 2244 00b1 00       		.byte	0
 2245 00b2 00       		.byte	0
 2246 00b3 10       		.uleb128 0x10
 2247 00b4 2E       		.uleb128 0x2e
 2248 00b5 01       		.byte	0x1
 2249 00b6 3F       		.uleb128 0x3f
 2250 00b7 19       		.uleb128 0x19
 2251 00b8 03       		.uleb128 0x3
 2252 00b9 0E       		.uleb128 0xe
 2253 00ba 3A       		.uleb128 0x3a
 2254 00bb 0B       		.uleb128 0xb
 2255 00bc 3B       		.uleb128 0x3b
 2256 00bd 0B       		.uleb128 0xb
 2257 00be 6E       		.uleb128 0x6e
 2258 00bf 0E       		.uleb128 0xe
 2259 00c0 49       		.uleb128 0x49
 2260 00c1 13       		.uleb128 0x13
 2261 00c2 3C       		.uleb128 0x3c
 2262 00c3 19       		.uleb128 0x19
 2263 00c4 64       		.uleb128 0x64
 2264 00c5 13       		.uleb128 0x13
 2265 00c6 00       		.byte	0
 2266 00c7 00       		.byte	0
 2267 00c8 11       		.uleb128 0x11
 2268 00c9 05       		.uleb128 0x5
 2269 00ca 00       		.byte	0
 2270 00cb 49       		.uleb128 0x49
 2271 00cc 13       		.uleb128 0x13
 2272 00cd 34       		.uleb128 0x34
 2273 00ce 19       		.uleb128 0x19
 2274 00cf 00       		.byte	0
 2275 00d0 00       		.byte	0
 2276 00d1 12       		.uleb128 0x12
ARM GAS  C:\msys64\tmp\ccbCzhpa.s 			page 41


 2277 00d2 0D       		.uleb128 0xd
 2278 00d3 00       		.byte	0
 2279 00d4 03       		.uleb128 0x3
 2280 00d5 08       		.uleb128 0x8
 2281 00d6 3A       		.uleb128 0x3a
 2282 00d7 0B       		.uleb128 0xb
 2283 00d8 3B       		.uleb128 0x3b
 2284 00d9 0B       		.uleb128 0xb
 2285 00da 49       		.uleb128 0x49
 2286 00db 13       		.uleb128 0x13
 2287 00dc 38       		.uleb128 0x38
 2288 00dd 0B       		.uleb128 0xb
 2289 00de 00       		.byte	0
 2290 00df 00       		.byte	0
 2291 00e0 13       		.uleb128 0x13
 2292 00e1 0D       		.uleb128 0xd
 2293 00e2 00       		.byte	0
 2294 00e3 03       		.uleb128 0x3
 2295 00e4 0E       		.uleb128 0xe
 2296 00e5 3A       		.uleb128 0x3a
 2297 00e6 0B       		.uleb128 0xb
 2298 00e7 3B       		.uleb128 0x3b
 2299 00e8 0B       		.uleb128 0xb
 2300 00e9 49       		.uleb128 0x49
 2301 00ea 13       		.uleb128 0x13
 2302 00eb 0B       		.uleb128 0xb
 2303 00ec 0B       		.uleb128 0xb
 2304 00ed 0D       		.uleb128 0xd
 2305 00ee 0B       		.uleb128 0xb
 2306 00ef 0C       		.uleb128 0xc
 2307 00f0 0B       		.uleb128 0xb
 2308 00f1 38       		.uleb128 0x38
 2309 00f2 0B       		.uleb128 0xb
 2310 00f3 00       		.byte	0
 2311 00f4 00       		.byte	0
 2312 00f5 14       		.uleb128 0x14
 2313 00f6 2E       		.uleb128 0x2e
 2314 00f7 01       		.byte	0x1
 2315 00f8 3F       		.uleb128 0x3f
 2316 00f9 19       		.uleb128 0x19
 2317 00fa 03       		.uleb128 0x3
 2318 00fb 0E       		.uleb128 0xe
 2319 00fc 3A       		.uleb128 0x3a
 2320 00fd 0B       		.uleb128 0xb
 2321 00fe 3B       		.uleb128 0x3b
 2322 00ff 0B       		.uleb128 0xb
 2323 0100 6E       		.uleb128 0x6e
 2324 0101 0E       		.uleb128 0xe
 2325 0102 49       		.uleb128 0x49
 2326 0103 13       		.uleb128 0x13
 2327 0104 3C       		.uleb128 0x3c
 2328 0105 19       		.uleb128 0x19
 2329 0106 64       		.uleb128 0x64
 2330 0107 13       		.uleb128 0x13
 2331 0108 01       		.uleb128 0x1
 2332 0109 13       		.uleb128 0x13
 2333 010a 00       		.byte	0
ARM GAS  C:\msys64\tmp\ccbCzhpa.s 			page 42


 2334 010b 00       		.byte	0
 2335 010c 15       		.uleb128 0x15
 2336 010d 2E       		.uleb128 0x2e
 2337 010e 01       		.byte	0x1
 2338 010f 3F       		.uleb128 0x3f
 2339 0110 19       		.uleb128 0x19
 2340 0111 03       		.uleb128 0x3
 2341 0112 0E       		.uleb128 0xe
 2342 0113 3A       		.uleb128 0x3a
 2343 0114 0B       		.uleb128 0xb
 2344 0115 3B       		.uleb128 0x3b
 2345 0116 0B       		.uleb128 0xb
 2346 0117 6E       		.uleb128 0x6e
 2347 0118 0E       		.uleb128 0xe
 2348 0119 3C       		.uleb128 0x3c
 2349 011a 19       		.uleb128 0x19
 2350 011b 64       		.uleb128 0x64
 2351 011c 13       		.uleb128 0x13
 2352 011d 00       		.byte	0
 2353 011e 00       		.byte	0
 2354 011f 16       		.uleb128 0x16
 2355 0120 05       		.uleb128 0x5
 2356 0121 00       		.byte	0
 2357 0122 49       		.uleb128 0x49
 2358 0123 13       		.uleb128 0x13
 2359 0124 00       		.byte	0
 2360 0125 00       		.byte	0
 2361 0126 17       		.uleb128 0x17
 2362 0127 2E       		.uleb128 0x2e
 2363 0128 01       		.byte	0x1
 2364 0129 03       		.uleb128 0x3
 2365 012a 0E       		.uleb128 0xe
 2366 012b 3A       		.uleb128 0x3a
 2367 012c 0B       		.uleb128 0xb
 2368 012d 3B       		.uleb128 0x3b
 2369 012e 0B       		.uleb128 0xb
 2370 012f 49       		.uleb128 0x49
 2371 0130 13       		.uleb128 0x13
 2372 0131 20       		.uleb128 0x20
 2373 0132 0B       		.uleb128 0xb
 2374 0133 01       		.uleb128 0x1
 2375 0134 13       		.uleb128 0x13
 2376 0135 00       		.byte	0
 2377 0136 00       		.byte	0
 2378 0137 18       		.uleb128 0x18
 2379 0138 05       		.uleb128 0x5
 2380 0139 00       		.byte	0
 2381 013a 03       		.uleb128 0x3
 2382 013b 08       		.uleb128 0x8
 2383 013c 3A       		.uleb128 0x3a
 2384 013d 0B       		.uleb128 0xb
 2385 013e 3B       		.uleb128 0x3b
 2386 013f 0B       		.uleb128 0xb
 2387 0140 49       		.uleb128 0x49
 2388 0141 13       		.uleb128 0x13
 2389 0142 00       		.byte	0
 2390 0143 00       		.byte	0
ARM GAS  C:\msys64\tmp\ccbCzhpa.s 			page 43


 2391 0144 19       		.uleb128 0x19
 2392 0145 2E       		.uleb128 0x2e
 2393 0146 01       		.byte	0x1
 2394 0147 03       		.uleb128 0x3
 2395 0148 0E       		.uleb128 0xe
 2396 0149 3A       		.uleb128 0x3a
 2397 014a 0B       		.uleb128 0xb
 2398 014b 3B       		.uleb128 0x3b
 2399 014c 05       		.uleb128 0x5
 2400 014d 49       		.uleb128 0x49
 2401 014e 13       		.uleb128 0x13
 2402 014f 20       		.uleb128 0x20
 2403 0150 0B       		.uleb128 0xb
 2404 0151 01       		.uleb128 0x1
 2405 0152 13       		.uleb128 0x13
 2406 0153 00       		.byte	0
 2407 0154 00       		.byte	0
 2408 0155 1A       		.uleb128 0x1a
 2409 0156 05       		.uleb128 0x5
 2410 0157 00       		.byte	0
 2411 0158 03       		.uleb128 0x3
 2412 0159 08       		.uleb128 0x8
 2413 015a 3A       		.uleb128 0x3a
 2414 015b 0B       		.uleb128 0xb
 2415 015c 3B       		.uleb128 0x3b
 2416 015d 05       		.uleb128 0x5
 2417 015e 49       		.uleb128 0x49
 2418 015f 13       		.uleb128 0x13
 2419 0160 00       		.byte	0
 2420 0161 00       		.byte	0
 2421 0162 1B       		.uleb128 0x1b
 2422 0163 05       		.uleb128 0x5
 2423 0164 00       		.byte	0
 2424 0165 03       		.uleb128 0x3
 2425 0166 0E       		.uleb128 0xe
 2426 0167 3A       		.uleb128 0x3a
 2427 0168 0B       		.uleb128 0xb
 2428 0169 3B       		.uleb128 0x3b
 2429 016a 0B       		.uleb128 0xb
 2430 016b 49       		.uleb128 0x49
 2431 016c 13       		.uleb128 0x13
 2432 016d 00       		.byte	0
 2433 016e 00       		.byte	0
 2434 016f 1C       		.uleb128 0x1c
 2435 0170 34       		.uleb128 0x34
 2436 0171 00       		.byte	0
 2437 0172 03       		.uleb128 0x3
 2438 0173 08       		.uleb128 0x8
 2439 0174 3A       		.uleb128 0x3a
 2440 0175 0B       		.uleb128 0xb
 2441 0176 3B       		.uleb128 0x3b
 2442 0177 0B       		.uleb128 0xb
 2443 0178 49       		.uleb128 0x49
 2444 0179 13       		.uleb128 0x13
 2445 017a 00       		.byte	0
 2446 017b 00       		.byte	0
 2447 017c 1D       		.uleb128 0x1d
ARM GAS  C:\msys64\tmp\ccbCzhpa.s 			page 44


 2448 017d 2E       		.uleb128 0x2e
 2449 017e 01       		.byte	0x1
 2450 017f 47       		.uleb128 0x47
 2451 0180 13       		.uleb128 0x13
 2452 0181 20       		.uleb128 0x20
 2453 0182 0B       		.uleb128 0xb
 2454 0183 64       		.uleb128 0x64
 2455 0184 13       		.uleb128 0x13
 2456 0185 01       		.uleb128 0x1
 2457 0186 13       		.uleb128 0x13
 2458 0187 00       		.byte	0
 2459 0188 00       		.byte	0
 2460 0189 1E       		.uleb128 0x1e
 2461 018a 05       		.uleb128 0x5
 2462 018b 00       		.byte	0
 2463 018c 03       		.uleb128 0x3
 2464 018d 0E       		.uleb128 0xe
 2465 018e 49       		.uleb128 0x49
 2466 018f 13       		.uleb128 0x13
 2467 0190 34       		.uleb128 0x34
 2468 0191 19       		.uleb128 0x19
 2469 0192 00       		.byte	0
 2470 0193 00       		.byte	0
 2471 0194 1F       		.uleb128 0x1f
 2472 0195 2E       		.uleb128 0x2e
 2473 0196 01       		.byte	0x1
 2474 0197 03       		.uleb128 0x3
 2475 0198 0E       		.uleb128 0xe
 2476 0199 34       		.uleb128 0x34
 2477 019a 19       		.uleb128 0x19
 2478 019b 20       		.uleb128 0x20
 2479 019c 0B       		.uleb128 0xb
 2480 019d 01       		.uleb128 0x1
 2481 019e 13       		.uleb128 0x13
 2482 019f 00       		.byte	0
 2483 01a0 00       		.byte	0
 2484 01a1 20       		.uleb128 0x20
 2485 01a2 2E       		.uleb128 0x2e
 2486 01a3 01       		.byte	0x1
 2487 01a4 3F       		.uleb128 0x3f
 2488 01a5 19       		.uleb128 0x19
 2489 01a6 03       		.uleb128 0x3
 2490 01a7 0E       		.uleb128 0xe
 2491 01a8 3A       		.uleb128 0x3a
 2492 01a9 0B       		.uleb128 0xb
 2493 01aa 3B       		.uleb128 0x3b
 2494 01ab 0B       		.uleb128 0xb
 2495 01ac 11       		.uleb128 0x11
 2496 01ad 01       		.uleb128 0x1
 2497 01ae 12       		.uleb128 0x12
 2498 01af 06       		.uleb128 0x6
 2499 01b0 40       		.uleb128 0x40
 2500 01b1 18       		.uleb128 0x18
 2501 01b2 9742     		.uleb128 0x2117
 2502 01b4 19       		.uleb128 0x19
 2503 01b5 01       		.uleb128 0x1
 2504 01b6 13       		.uleb128 0x13
ARM GAS  C:\msys64\tmp\ccbCzhpa.s 			page 45


 2505 01b7 00       		.byte	0
 2506 01b8 00       		.byte	0
 2507 01b9 21       		.uleb128 0x21
 2508 01ba 05       		.uleb128 0x5
 2509 01bb 00       		.byte	0
 2510 01bc 03       		.uleb128 0x3
 2511 01bd 0E       		.uleb128 0xe
 2512 01be 3A       		.uleb128 0x3a
 2513 01bf 0B       		.uleb128 0xb
 2514 01c0 3B       		.uleb128 0x3b
 2515 01c1 0B       		.uleb128 0xb
 2516 01c2 49       		.uleb128 0x49
 2517 01c3 13       		.uleb128 0x13
 2518 01c4 02       		.uleb128 0x2
 2519 01c5 18       		.uleb128 0x18
 2520 01c6 00       		.byte	0
 2521 01c7 00       		.byte	0
 2522 01c8 22       		.uleb128 0x22
 2523 01c9 05       		.uleb128 0x5
 2524 01ca 00       		.byte	0
 2525 01cb 03       		.uleb128 0x3
 2526 01cc 08       		.uleb128 0x8
 2527 01cd 3A       		.uleb128 0x3a
 2528 01ce 0B       		.uleb128 0xb
 2529 01cf 3B       		.uleb128 0x3b
 2530 01d0 0B       		.uleb128 0xb
 2531 01d1 49       		.uleb128 0x49
 2532 01d2 13       		.uleb128 0x13
 2533 01d3 02       		.uleb128 0x2
 2534 01d4 18       		.uleb128 0x18
 2535 01d5 00       		.byte	0
 2536 01d6 00       		.byte	0
 2537 01d7 23       		.uleb128 0x23
 2538 01d8 0B       		.uleb128 0xb
 2539 01d9 01       		.byte	0x1
 2540 01da 01       		.uleb128 0x1
 2541 01db 13       		.uleb128 0x13
 2542 01dc 00       		.byte	0
 2543 01dd 00       		.byte	0
 2544 01de 24       		.uleb128 0x24
 2545 01df 34       		.uleb128 0x34
 2546 01e0 00       		.byte	0
 2547 01e1 03       		.uleb128 0x3
 2548 01e2 0E       		.uleb128 0xe
 2549 01e3 3A       		.uleb128 0x3a
 2550 01e4 0B       		.uleb128 0xb
 2551 01e5 3B       		.uleb128 0x3b
 2552 01e6 0B       		.uleb128 0xb
 2553 01e7 49       		.uleb128 0x49
 2554 01e8 13       		.uleb128 0x13
 2555 01e9 00       		.byte	0
 2556 01ea 00       		.byte	0
 2557 01eb 25       		.uleb128 0x25
 2558 01ec 0B       		.uleb128 0xb
 2559 01ed 01       		.byte	0x1
 2560 01ee 00       		.byte	0
 2561 01ef 00       		.byte	0
ARM GAS  C:\msys64\tmp\ccbCzhpa.s 			page 46


 2562 01f0 26       		.uleb128 0x26
 2563 01f1 05       		.uleb128 0x5
 2564 01f2 00       		.byte	0
 2565 01f3 03       		.uleb128 0x3
 2566 01f4 0E       		.uleb128 0xe
 2567 01f5 3A       		.uleb128 0x3a
 2568 01f6 0B       		.uleb128 0xb
 2569 01f7 3B       		.uleb128 0x3b
 2570 01f8 0B       		.uleb128 0xb
 2571 01f9 49       		.uleb128 0x49
 2572 01fa 13       		.uleb128 0x13
 2573 01fb 02       		.uleb128 0x2
 2574 01fc 17       		.uleb128 0x17
 2575 01fd 00       		.byte	0
 2576 01fe 00       		.byte	0
 2577 01ff 27       		.uleb128 0x27
 2578 0200 05       		.uleb128 0x5
 2579 0201 00       		.byte	0
 2580 0202 03       		.uleb128 0x3
 2581 0203 08       		.uleb128 0x8
 2582 0204 3A       		.uleb128 0x3a
 2583 0205 0B       		.uleb128 0xb
 2584 0206 3B       		.uleb128 0x3b
 2585 0207 0B       		.uleb128 0xb
 2586 0208 49       		.uleb128 0x49
 2587 0209 13       		.uleb128 0x13
 2588 020a 02       		.uleb128 0x2
 2589 020b 17       		.uleb128 0x17
 2590 020c 00       		.byte	0
 2591 020d 00       		.byte	0
 2592 020e 28       		.uleb128 0x28
 2593 020f 34       		.uleb128 0x34
 2594 0210 00       		.byte	0
 2595 0211 03       		.uleb128 0x3
 2596 0212 08       		.uleb128 0x8
 2597 0213 3A       		.uleb128 0x3a
 2598 0214 0B       		.uleb128 0xb
 2599 0215 3B       		.uleb128 0x3b
 2600 0216 0B       		.uleb128 0xb
 2601 0217 49       		.uleb128 0x49
 2602 0218 13       		.uleb128 0x13
 2603 0219 02       		.uleb128 0x2
 2604 021a 18       		.uleb128 0x18
 2605 021b 00       		.byte	0
 2606 021c 00       		.byte	0
 2607 021d 29       		.uleb128 0x29
 2608 021e 34       		.uleb128 0x34
 2609 021f 00       		.byte	0
 2610 0220 03       		.uleb128 0x3
 2611 0221 0E       		.uleb128 0xe
 2612 0222 3A       		.uleb128 0x3a
 2613 0223 0B       		.uleb128 0xb
 2614 0224 3B       		.uleb128 0x3b
 2615 0225 0B       		.uleb128 0xb
 2616 0226 49       		.uleb128 0x49
 2617 0227 13       		.uleb128 0x13
 2618 0228 02       		.uleb128 0x2
ARM GAS  C:\msys64\tmp\ccbCzhpa.s 			page 47


 2619 0229 17       		.uleb128 0x17
 2620 022a 00       		.byte	0
 2621 022b 00       		.byte	0
 2622 022c 2A       		.uleb128 0x2a
 2623 022d 34       		.uleb128 0x34
 2624 022e 00       		.byte	0
 2625 022f 03       		.uleb128 0x3
 2626 0230 08       		.uleb128 0x8
 2627 0231 3A       		.uleb128 0x3a
 2628 0232 0B       		.uleb128 0xb
 2629 0233 3B       		.uleb128 0x3b
 2630 0234 0B       		.uleb128 0xb
 2631 0235 49       		.uleb128 0x49
 2632 0236 13       		.uleb128 0x13
 2633 0237 02       		.uleb128 0x2
 2634 0238 17       		.uleb128 0x17
 2635 0239 00       		.byte	0
 2636 023a 00       		.byte	0
 2637 023b 2B       		.uleb128 0x2b
 2638 023c 1D       		.uleb128 0x1d
 2639 023d 01       		.byte	0x1
 2640 023e 31       		.uleb128 0x31
 2641 023f 13       		.uleb128 0x13
 2642 0240 52       		.uleb128 0x52
 2643 0241 01       		.uleb128 0x1
 2644 0242 55       		.uleb128 0x55
 2645 0243 17       		.uleb128 0x17
 2646 0244 58       		.uleb128 0x58
 2647 0245 0B       		.uleb128 0xb
 2648 0246 59       		.uleb128 0x59
 2649 0247 0B       		.uleb128 0xb
 2650 0248 01       		.uleb128 0x1
 2651 0249 13       		.uleb128 0x13
 2652 024a 00       		.byte	0
 2653 024b 00       		.byte	0
 2654 024c 2C       		.uleb128 0x2c
 2655 024d 05       		.uleb128 0x5
 2656 024e 00       		.byte	0
 2657 024f 31       		.uleb128 0x31
 2658 0250 13       		.uleb128 0x13
 2659 0251 02       		.uleb128 0x2
 2660 0252 17       		.uleb128 0x17
 2661 0253 00       		.byte	0
 2662 0254 00       		.byte	0
 2663 0255 2D       		.uleb128 0x2d
 2664 0256 05       		.uleb128 0x5
 2665 0257 00       		.byte	0
 2666 0258 31       		.uleb128 0x31
 2667 0259 13       		.uleb128 0x13
 2668 025a 00       		.byte	0
 2669 025b 00       		.byte	0
 2670 025c 2E       		.uleb128 0x2e
 2671 025d 0B       		.uleb128 0xb
 2672 025e 01       		.byte	0x1
 2673 025f 55       		.uleb128 0x55
 2674 0260 17       		.uleb128 0x17
 2675 0261 00       		.byte	0
ARM GAS  C:\msys64\tmp\ccbCzhpa.s 			page 48


 2676 0262 00       		.byte	0
 2677 0263 2F       		.uleb128 0x2f
 2678 0264 34       		.uleb128 0x34
 2679 0265 00       		.byte	0
 2680 0266 31       		.uleb128 0x31
 2681 0267 13       		.uleb128 0x13
 2682 0268 00       		.byte	0
 2683 0269 00       		.byte	0
 2684 026a 30       		.uleb128 0x30
 2685 026b 1D       		.uleb128 0x1d
 2686 026c 01       		.byte	0x1
 2687 026d 31       		.uleb128 0x31
 2688 026e 13       		.uleb128 0x13
 2689 026f 11       		.uleb128 0x11
 2690 0270 01       		.uleb128 0x1
 2691 0271 12       		.uleb128 0x12
 2692 0272 06       		.uleb128 0x6
 2693 0273 58       		.uleb128 0x58
 2694 0274 0B       		.uleb128 0xb
 2695 0275 59       		.uleb128 0x59
 2696 0276 0B       		.uleb128 0xb
 2697 0277 00       		.byte	0
 2698 0278 00       		.byte	0
 2699 0279 31       		.uleb128 0x31
 2700 027a 1D       		.uleb128 0x1d
 2701 027b 01       		.byte	0x1
 2702 027c 31       		.uleb128 0x31
 2703 027d 13       		.uleb128 0x13
 2704 027e 11       		.uleb128 0x11
 2705 027f 01       		.uleb128 0x1
 2706 0280 12       		.uleb128 0x12
 2707 0281 06       		.uleb128 0x6
 2708 0282 58       		.uleb128 0x58
 2709 0283 0B       		.uleb128 0xb
 2710 0284 59       		.uleb128 0x59
 2711 0285 05       		.uleb128 0x5
 2712 0286 00       		.byte	0
 2713 0287 00       		.byte	0
 2714 0288 32       		.uleb128 0x32
 2715 0289 0B       		.uleb128 0xb
 2716 028a 01       		.byte	0x1
 2717 028b 55       		.uleb128 0x55
 2718 028c 17       		.uleb128 0x17
 2719 028d 01       		.uleb128 0x1
 2720 028e 13       		.uleb128 0x13
 2721 028f 00       		.byte	0
 2722 0290 00       		.byte	0
 2723 0291 33       		.uleb128 0x33
 2724 0292 34       		.uleb128 0x34
 2725 0293 00       		.byte	0
 2726 0294 31       		.uleb128 0x31
 2727 0295 13       		.uleb128 0x13
 2728 0296 02       		.uleb128 0x2
 2729 0297 17       		.uleb128 0x17
 2730 0298 00       		.byte	0
 2731 0299 00       		.byte	0
 2732 029a 34       		.uleb128 0x34
ARM GAS  C:\msys64\tmp\ccbCzhpa.s 			page 49


 2733 029b 1D       		.uleb128 0x1d
 2734 029c 01       		.byte	0x1
 2735 029d 31       		.uleb128 0x31
 2736 029e 13       		.uleb128 0x13
 2737 029f 52       		.uleb128 0x52
 2738 02a0 01       		.uleb128 0x1
 2739 02a1 55       		.uleb128 0x55
 2740 02a2 17       		.uleb128 0x17
 2741 02a3 58       		.uleb128 0x58
 2742 02a4 0B       		.uleb128 0xb
 2743 02a5 59       		.uleb128 0x59
 2744 02a6 0B       		.uleb128 0xb
 2745 02a7 00       		.byte	0
 2746 02a8 00       		.byte	0
 2747 02a9 35       		.uleb128 0x35
 2748 02aa 0B       		.uleb128 0xb
 2749 02ab 01       		.byte	0x1
 2750 02ac 11       		.uleb128 0x11
 2751 02ad 01       		.uleb128 0x1
 2752 02ae 12       		.uleb128 0x12
 2753 02af 06       		.uleb128 0x6
 2754 02b0 00       		.byte	0
 2755 02b1 00       		.byte	0
 2756 02b2 36       		.uleb128 0x36
 2757 02b3 1D       		.uleb128 0x1d
 2758 02b4 01       		.byte	0x1
 2759 02b5 31       		.uleb128 0x31
 2760 02b6 13       		.uleb128 0x13
 2761 02b7 52       		.uleb128 0x52
 2762 02b8 01       		.uleb128 0x1
 2763 02b9 55       		.uleb128 0x55
 2764 02ba 17       		.uleb128 0x17
 2765 02bb 58       		.uleb128 0x58
 2766 02bc 0B       		.uleb128 0xb
 2767 02bd 59       		.uleb128 0x59
 2768 02be 05       		.uleb128 0x5
 2769 02bf 00       		.byte	0
 2770 02c0 00       		.byte	0
 2771 02c1 37       		.uleb128 0x37
 2772 02c2 05       		.uleb128 0x5
 2773 02c3 00       		.byte	0
 2774 02c4 31       		.uleb128 0x31
 2775 02c5 13       		.uleb128 0x13
 2776 02c6 02       		.uleb128 0x2
 2777 02c7 18       		.uleb128 0x18
 2778 02c8 00       		.byte	0
 2779 02c9 00       		.byte	0
 2780 02ca 38       		.uleb128 0x38
 2781 02cb 10       		.uleb128 0x10
 2782 02cc 00       		.byte	0
 2783 02cd 0B       		.uleb128 0xb
 2784 02ce 0B       		.uleb128 0xb
 2785 02cf 49       		.uleb128 0x49
 2786 02d0 13       		.uleb128 0x13
 2787 02d1 00       		.byte	0
 2788 02d2 00       		.byte	0
 2789 02d3 39       		.uleb128 0x39
ARM GAS  C:\msys64\tmp\ccbCzhpa.s 			page 50


 2790 02d4 2E       		.uleb128 0x2e
 2791 02d5 01       		.byte	0x1
 2792 02d6 03       		.uleb128 0x3
 2793 02d7 0E       		.uleb128 0xe
 2794 02d8 34       		.uleb128 0x34
 2795 02d9 19       		.uleb128 0x19
 2796 02da 11       		.uleb128 0x11
 2797 02db 01       		.uleb128 0x1
 2798 02dc 12       		.uleb128 0x12
 2799 02dd 06       		.uleb128 0x6
 2800 02de 40       		.uleb128 0x40
 2801 02df 18       		.uleb128 0x18
 2802 02e0 9742     		.uleb128 0x2117
 2803 02e2 19       		.uleb128 0x19
 2804 02e3 01       		.uleb128 0x1
 2805 02e4 13       		.uleb128 0x13
 2806 02e5 00       		.byte	0
 2807 02e6 00       		.byte	0
 2808 02e7 3A       		.uleb128 0x3a
 2809 02e8 1D       		.uleb128 0x1d
 2810 02e9 01       		.byte	0x1
 2811 02ea 31       		.uleb128 0x31
 2812 02eb 13       		.uleb128 0x13
 2813 02ec 11       		.uleb128 0x11
 2814 02ed 01       		.uleb128 0x1
 2815 02ee 12       		.uleb128 0x12
 2816 02ef 06       		.uleb128 0x6
 2817 02f0 58       		.uleb128 0x58
 2818 02f1 0B       		.uleb128 0xb
 2819 02f2 59       		.uleb128 0x59
 2820 02f3 0B       		.uleb128 0xb
 2821 02f4 01       		.uleb128 0x1
 2822 02f5 13       		.uleb128 0x13
 2823 02f6 00       		.byte	0
 2824 02f7 00       		.byte	0
 2825 02f8 3B       		.uleb128 0x3b
 2826 02f9 34       		.uleb128 0x34
 2827 02fa 00       		.byte	0
 2828 02fb 03       		.uleb128 0x3
 2829 02fc 0E       		.uleb128 0xe
 2830 02fd 3A       		.uleb128 0x3a
 2831 02fe 0B       		.uleb128 0xb
 2832 02ff 3B       		.uleb128 0x3b
 2833 0300 0B       		.uleb128 0xb
 2834 0301 49       		.uleb128 0x49
 2835 0302 13       		.uleb128 0x13
 2836 0303 3F       		.uleb128 0x3f
 2837 0304 19       		.uleb128 0x19
 2838 0305 3C       		.uleb128 0x3c
 2839 0306 19       		.uleb128 0x19
 2840 0307 00       		.byte	0
 2841 0308 00       		.byte	0
 2842 0309 3C       		.uleb128 0x3c
 2843 030a 21       		.uleb128 0x21
 2844 030b 00       		.byte	0
 2845 030c 49       		.uleb128 0x49
 2846 030d 13       		.uleb128 0x13
ARM GAS  C:\msys64\tmp\ccbCzhpa.s 			page 51


 2847 030e 2F       		.uleb128 0x2f
 2848 030f 05       		.uleb128 0x5
 2849 0310 00       		.byte	0
 2850 0311 00       		.byte	0
 2851 0312 3D       		.uleb128 0x3d
 2852 0313 34       		.uleb128 0x34
 2853 0314 00       		.byte	0
 2854 0315 03       		.uleb128 0x3
 2855 0316 0E       		.uleb128 0xe
 2856 0317 3A       		.uleb128 0x3a
 2857 0318 0B       		.uleb128 0xb
 2858 0319 3B       		.uleb128 0x3b
 2859 031a 05       		.uleb128 0x5
 2860 031b 49       		.uleb128 0x49
 2861 031c 13       		.uleb128 0x13
 2862 031d 3F       		.uleb128 0x3f
 2863 031e 19       		.uleb128 0x19
 2864 031f 3C       		.uleb128 0x3c
 2865 0320 19       		.uleb128 0x19
 2866 0321 00       		.byte	0
 2867 0322 00       		.byte	0
 2868 0323 3E       		.uleb128 0x3e
 2869 0324 34       		.uleb128 0x34
 2870 0325 00       		.byte	0
 2871 0326 03       		.uleb128 0x3
 2872 0327 0E       		.uleb128 0xe
 2873 0328 3A       		.uleb128 0x3a
 2874 0329 0B       		.uleb128 0xb
 2875 032a 3B       		.uleb128 0x3b
 2876 032b 0B       		.uleb128 0xb
 2877 032c 49       		.uleb128 0x49
 2878 032d 13       		.uleb128 0x13
 2879 032e 02       		.uleb128 0x2
 2880 032f 18       		.uleb128 0x18
 2881 0330 00       		.byte	0
 2882 0331 00       		.byte	0
 2883 0332 00       		.byte	0
 2884              		.section	.debug_loc,"",%progbits
 2885              	.Ldebug_loc0:
 2886              	.LLST0:
 2887 0000 02000000 		.4byte	.LVL1
 2888 0004 32000000 		.4byte	.LVL4
 2889 0008 0100     		.2byte	0x1
 2890 000a 50       		.byte	0x50
 2891 000b 32000000 		.4byte	.LVL4
 2892 000f A4010000 		.4byte	.LFE251
 2893 0013 0400     		.2byte	0x4
 2894 0015 F3       		.byte	0xf3
 2895 0016 01       		.uleb128 0x1
 2896 0017 50       		.byte	0x50
 2897 0018 9F       		.byte	0x9f
 2898 0019 00000000 		.4byte	0
 2899 001d 00000000 		.4byte	0
 2900              	.LLST1:
 2901 0021 02000000 		.4byte	.LVL1
 2902 0025 A6000000 		.4byte	.LVL17
 2903 0029 0100     		.2byte	0x1
ARM GAS  C:\msys64\tmp\ccbCzhpa.s 			page 52


 2904 002b 51       		.byte	0x51
 2905 002c A6000000 		.4byte	.LVL17
 2906 0030 A4010000 		.4byte	.LFE251
 2907 0034 0400     		.2byte	0x4
 2908 0036 F3       		.byte	0xf3
 2909 0037 01       		.uleb128 0x1
 2910 0038 51       		.byte	0x51
 2911 0039 9F       		.byte	0x9f
 2912 003a 00000000 		.4byte	0
 2913 003e 00000000 		.4byte	0
 2914              	.LLST2:
 2915 0042 02000000 		.4byte	.LVL1
 2916 0046 78000000 		.4byte	.LVL12
 2917 004a 0100     		.2byte	0x1
 2918 004c 52       		.byte	0x52
 2919 004d 78000000 		.4byte	.LVL12
 2920 0051 A4010000 		.4byte	.LFE251
 2921 0055 0400     		.2byte	0x4
 2922 0057 F3       		.byte	0xf3
 2923 0058 01       		.uleb128 0x1
 2924 0059 52       		.byte	0x52
 2925 005a 9F       		.byte	0x9f
 2926 005b 00000000 		.4byte	0
 2927 005f 00000000 		.4byte	0
 2928              	.LLST3:
 2929 0063 20000000 		.4byte	.LVL2
 2930 0067 24000000 		.4byte	.LVL3
 2931 006b 0500     		.2byte	0x5
 2932 006d 74       		.byte	0x74
 2933 006e 00       		.sleb128 0
 2934 006f 31       		.byte	0x31
 2935 0070 1A       		.byte	0x1a
 2936 0071 9F       		.byte	0x9f
 2937 0072 24000000 		.4byte	.LVL3
 2938 0076 A4010000 		.4byte	.LFE251
 2939 007a 0D00     		.2byte	0xd
 2940 007c 03       		.byte	0x3
 2941 007d 08000000 		.4byte	_ZL4vpsf+8
 2942 0081 94       		.byte	0x94
 2943 0082 01       		.byte	0x1
 2944 0083 31       		.byte	0x31
 2945 0084 1A       		.byte	0x1a
 2946 0085 08       		.byte	0x8
 2947 0086 FF       		.byte	0xff
 2948 0087 1A       		.byte	0x1a
 2949 0088 9F       		.byte	0x9f
 2950 0089 00000000 		.4byte	0
 2951 008d 00000000 		.4byte	0
 2952              	.LLST4:
 2953 0091 32000000 		.4byte	.LVL4
 2954 0095 44000000 		.4byte	.LVL5
 2955 0099 0100     		.2byte	0x1
 2956 009b 50       		.byte	0x50
 2957 009c 44000000 		.4byte	.LVL5
 2958 00a0 46000000 		.4byte	.LVL6
 2959 00a4 0300     		.2byte	0x3
 2960 00a6 70       		.byte	0x70
ARM GAS  C:\msys64\tmp\ccbCzhpa.s 			page 53


 2961 00a7 7F       		.sleb128 -1
 2962 00a8 9F       		.byte	0x9f
 2963 00a9 46000000 		.4byte	.LVL6
 2964 00ad A4010000 		.4byte	.LFE251
 2965 00b1 0E00     		.2byte	0xe
 2966 00b3 F3       		.byte	0xf3
 2967 00b4 01       		.uleb128 0x1
 2968 00b5 50       		.byte	0x50
 2969 00b6 23       		.byte	0x23
 2970 00b7 04       		.uleb128 0x4
 2971 00b8 94       		.byte	0x94
 2972 00b9 02       		.byte	0x2
 2973 00ba 0A       		.byte	0xa
 2974 00bb FFFF     		.2byte	0xffff
 2975 00bd 1A       		.byte	0x1a
 2976 00be 38       		.byte	0x38
 2977 00bf 26       		.byte	0x26
 2978 00c0 9F       		.byte	0x9f
 2979 00c1 00000000 		.4byte	0
 2980 00c5 00000000 		.4byte	0
 2981              	.LLST5:
 2982 00c9 9E000000 		.4byte	.LVL16
 2983 00cd 6A010000 		.4byte	.LVL44
 2984 00d1 0100     		.2byte	0x1
 2985 00d3 51       		.byte	0x51
 2986 00d4 6A010000 		.4byte	.LVL44
 2987 00d8 78010000 		.4byte	.LVL46
 2988 00dc 0300     		.2byte	0x3
 2989 00de 71       		.byte	0x71
 2990 00df 7C       		.sleb128 -4
 2991 00e0 9F       		.byte	0x9f
 2992 00e1 78010000 		.4byte	.LVL46
 2993 00e5 A4010000 		.4byte	.LFE251
 2994 00e9 0100     		.2byte	0x1
 2995 00eb 51       		.byte	0x51
 2996 00ec 00000000 		.4byte	0
 2997 00f0 00000000 		.4byte	0
 2998              	.LLST6:
 2999 00f4 4A000000 		.4byte	.LVL7
 3000 00f8 50000000 		.4byte	.LVL9
 3001 00fc 0100     		.2byte	0x1
 3002 00fe 54       		.byte	0x54
 3003 00ff 50000000 		.4byte	.LVL9
 3004 0103 5A000000 		.4byte	.LVL10
 3005 0107 0200     		.2byte	0x2
 3006 0109 90       		.byte	0x90
 3007 010a 4F       		.uleb128 0x4f
 3008 010b 5A000000 		.4byte	.LVL10
 3009 010f 96000000 		.4byte	.LVL15
 3010 0113 0800     		.2byte	0x8
 3011 0115 F3       		.byte	0xf3
 3012 0116 01       		.uleb128 0x1
 3013 0117 50       		.byte	0x50
 3014 0118 23       		.byte	0x23
 3015 0119 04       		.uleb128 0x4
 3016 011a 94       		.byte	0x94
 3017 011b 02       		.byte	0x2
ARM GAS  C:\msys64\tmp\ccbCzhpa.s 			page 54


 3018 011c 9F       		.byte	0x9f
 3019 011d 00000000 		.4byte	0
 3020 0121 00000000 		.4byte	0
 3021              	.LLST7:
 3022 0125 7C000000 		.4byte	.LVL13
 3023 0129 8E000000 		.4byte	.LVL14
 3024 012d 0600     		.2byte	0x6
 3025 012f 9E       		.byte	0x9e
 3026 0130 04       		.uleb128 0x4
 3027 0131 49FFB846 		.4byte	0x46b8ff49
 3028 0135 00000000 		.4byte	0
 3029 0139 00000000 		.4byte	0
 3030              	.LLST10:
 3031 013d 7C000000 		.4byte	.LVL13
 3032 0141 8E000000 		.4byte	.LVL14
 3033 0145 0C00     		.2byte	0xc
 3034 0147 F5       		.byte	0xf5
 3035 0148 4C       		.uleb128 0x4c
 3036 0149 25       		.uleb128 0x25
 3037 014a F4       		.byte	0xf4
 3038 014b 25       		.uleb128 0x25
 3039 014c 04       		.byte	0x4
 3040 014d 49FFB846 		.4byte	0x46b8ff49
 3041 0151 1C       		.byte	0x1c
 3042 0152 9F       		.byte	0x9f
 3043 0153 00000000 		.4byte	0
 3044 0157 00000000 		.4byte	0
 3045              	.LLST11:
 3046 015b AA000000 		.4byte	.LVL18
 3047 015f 30010000 		.4byte	.LVL38
 3048 0163 0200     		.2byte	0x2
 3049 0165 90       		.byte	0x90
 3050 0166 4D       		.uleb128 0x4d
 3051 0167 00000000 		.4byte	0
 3052 016b 00000000 		.4byte	0
 3053              	.LLST12:
 3054 016f AA000000 		.4byte	.LVL18
 3055 0173 30010000 		.4byte	.LVL38
 3056 0177 0600     		.2byte	0x6
 3057 0179 03       		.byte	0x3
 3058 017a 00000000 		.4byte	_ZL4vpsf
 3059 017e 9F       		.byte	0x9f
 3060 017f 00000000 		.4byte	0
 3061 0183 00000000 		.4byte	0
 3062              	.LLST13:
 3063 0187 AA000000 		.4byte	.LVL18
 3064 018b 30010000 		.4byte	.LVL38
 3065 018f 0500     		.2byte	0x5
 3066 0191 03       		.byte	0x3
 3067 0192 0C000000 		.4byte	_ZL4vpsf+12
 3068 0196 00000000 		.4byte	0
 3069 019a 00000000 		.4byte	0
 3070              	.LLST14:
 3071 019e AA000000 		.4byte	.LVL18
 3072 01a2 30010000 		.4byte	.LVL38
 3073 01a6 0500     		.2byte	0x5
 3074 01a8 03       		.byte	0x3
ARM GAS  C:\msys64\tmp\ccbCzhpa.s 			page 55


 3075 01a9 10000000 		.4byte	_ZL4vpsf+16
 3076 01ad 00000000 		.4byte	0
 3077 01b1 00000000 		.4byte	0
 3078              	.LLST15:
 3079 01b5 BC000000 		.4byte	.LVL21
 3080 01b9 BE000000 		.4byte	.LVL22
 3081 01bd 0200     		.2byte	0x2
 3082 01bf 90       		.byte	0x90
 3083 01c0 4F       		.uleb128 0x4f
 3084 01c1 DA000000 		.4byte	.LVL25
 3085 01c5 DE000000 		.4byte	.LVL26
 3086 01c9 0200     		.2byte	0x2
 3087 01cb 90       		.byte	0x90
 3088 01cc 4F       		.uleb128 0x4f
 3089 01cd 00000000 		.4byte	0
 3090 01d1 00000000 		.4byte	0
 3091              	.LLST16:
 3092 01d5 DA000000 		.4byte	.LVL25
 3093 01d9 DE000000 		.4byte	.LVL26
 3094 01dd 0200     		.2byte	0x2
 3095 01df 90       		.byte	0x90
 3096 01e0 4F       		.uleb128 0x4f
 3097 01e1 00000000 		.4byte	0
 3098 01e5 00000000 		.4byte	0
 3099              	.LLST17:
 3100 01e9 DE000000 		.4byte	.LVL26
 3101 01ed F2000000 		.4byte	.LVL28
 3102 01f1 0200     		.2byte	0x2
 3103 01f3 90       		.byte	0x90
 3104 01f4 4F       		.uleb128 0x4f
 3105 01f5 00000000 		.4byte	0
 3106 01f9 00000000 		.4byte	0
 3107              	.LLST18:
 3108 01fd DE000000 		.4byte	.LVL26
 3109 0201 F2000000 		.4byte	.LVL28
 3110 0205 0C00     		.2byte	0xc
 3111 0207 F5       		.byte	0xf5
 3112 0208 4F       		.uleb128 0x4f
 3113 0209 25       		.uleb128 0x25
 3114 020a F5       		.byte	0xf5
 3115 020b 4F       		.uleb128 0x4f
 3116 020c 25       		.uleb128 0x25
 3117 020d F7       		.byte	0xf7
 3118 020e 2C       		.uleb128 0x2c
 3119 020f F7       		.byte	0xf7
 3120 0210 25       		.uleb128 0x25
 3121 0211 1C       		.byte	0x1c
 3122 0212 9F       		.byte	0x9f
 3123 0213 00000000 		.4byte	0
 3124 0217 00000000 		.4byte	0
 3125              	.LLST19:
 3126 021b EE000000 		.4byte	.LVL27
 3127 021f 18010000 		.4byte	.LVL35
 3128 0223 0200     		.2byte	0x2
 3129 0225 90       		.byte	0x90
 3130 0226 4E       		.uleb128 0x4e
 3131 0227 00000000 		.4byte	0
ARM GAS  C:\msys64\tmp\ccbCzhpa.s 			page 56


 3132 022b 00000000 		.4byte	0
 3133              	.LLST20:
 3134 022f F6000000 		.4byte	.LVL29
 3135 0233 2C010000 		.4byte	.LVL37
 3136 0237 0100     		.2byte	0x1
 3137 0239 54       		.byte	0x54
 3138 023a 00000000 		.4byte	0
 3139 023e 00000000 		.4byte	0
 3140              	.LLST21:
 3141 0242 FA000000 		.4byte	.LVL30
 3142 0246 04010000 		.4byte	.LVL31
 3143 024a 0100     		.2byte	0x1
 3144 024c 50       		.byte	0x50
 3145 024d 04010000 		.4byte	.LVL31
 3146 0251 0C010000 		.4byte	.LVL32
 3147 0255 0300     		.2byte	0x3
 3148 0257 70       		.byte	0x70
 3149 0258 7F       		.sleb128 -1
 3150 0259 9F       		.byte	0x9f
 3151 025a 0C010000 		.4byte	.LVL32
 3152 025e 2C010000 		.4byte	.LVL37
 3153 0262 0600     		.2byte	0x6
 3154 0264 74       		.byte	0x74
 3155 0265 00       		.sleb128 0
 3156 0266 08       		.byte	0x8
 3157 0267 7F       		.byte	0x7f
 3158 0268 1A       		.byte	0x1a
 3159 0269 9F       		.byte	0x9f
 3160 026a 00000000 		.4byte	0
 3161 026e 00000000 		.4byte	0
 3162              	.LLST22:
 3163 0272 FA000000 		.4byte	.LVL30
 3164 0276 04010000 		.4byte	.LVL31
 3165 027a 0600     		.2byte	0x6
 3166 027c 70       		.byte	0x70
 3167 027d 01       		.sleb128 1
 3168 027e 08       		.byte	0x8
 3169 027f 7F       		.byte	0x7f
 3170 0280 1A       		.byte	0x1a
 3171 0281 9F       		.byte	0x9f
 3172 0282 04010000 		.4byte	.LVL31
 3173 0286 0C010000 		.4byte	.LVL32
 3174 028a 0600     		.2byte	0x6
 3175 028c 70       		.byte	0x70
 3176 028d 00       		.sleb128 0
 3177 028e 08       		.byte	0x8
 3178 028f 7F       		.byte	0x7f
 3179 0290 1A       		.byte	0x1a
 3180 0291 9F       		.byte	0x9f
 3181 0292 0C010000 		.4byte	.LVL32
 3182 0296 10010000 		.4byte	.LVL33
 3183 029a 0100     		.2byte	0x1
 3184 029c 50       		.byte	0x50
 3185 029d 10010000 		.4byte	.LVL33
 3186 02a1 2C010000 		.4byte	.LVL37
 3187 02a5 0600     		.2byte	0x6
 3188 02a7 74       		.byte	0x74
ARM GAS  C:\msys64\tmp\ccbCzhpa.s 			page 57


 3189 02a8 01       		.sleb128 1
 3190 02a9 08       		.byte	0x8
 3191 02aa 7F       		.byte	0x7f
 3192 02ab 1A       		.byte	0x1a
 3193 02ac 9F       		.byte	0x9f
 3194 02ad 00000000 		.4byte	0
 3195 02b1 00000000 		.4byte	0
 3196              	.LLST23:
 3197 02b5 14010000 		.4byte	.LVL34
 3198 02b9 26010000 		.4byte	.LVL36
 3199 02bd 0200     		.2byte	0x2
 3200 02bf 90       		.byte	0x90
 3201 02c0 4F       		.uleb128 0x4f
 3202 02c1 00000000 		.4byte	0
 3203 02c5 00000000 		.4byte	0
 3204              	.LLST24:
 3205 02c9 14010000 		.4byte	.LVL34
 3206 02cd 18010000 		.4byte	.LVL35
 3207 02d1 0B00     		.2byte	0xb
 3208 02d3 F5       		.byte	0xf5
 3209 02d4 4E       		.uleb128 0x4e
 3210 02d5 25       		.uleb128 0x25
 3211 02d6 74       		.byte	0x74
 3212 02d7 00       		.sleb128 0
 3213 02d8 F7       		.byte	0xf7
 3214 02d9 2C       		.uleb128 0x2c
 3215 02da F7       		.byte	0xf7
 3216 02db 25       		.uleb128 0x25
 3217 02dc 1C       		.byte	0x1c
 3218 02dd 9F       		.byte	0x9f
 3219 02de 18010000 		.4byte	.LVL35
 3220 02e2 26010000 		.4byte	.LVL36
 3221 02e6 0200     		.2byte	0x2
 3222 02e8 90       		.byte	0x90
 3223 02e9 4E       		.uleb128 0x4e
 3224 02ea 00000000 		.4byte	0
 3225 02ee 00000000 		.4byte	0
 3226              	.LLST25:
 3227 02f2 BE000000 		.4byte	.LVL22
 3228 02f6 C2000000 		.4byte	.LVL23
 3229 02fa 0800     		.2byte	0x8
 3230 02fc F5       		.byte	0xf5
 3231 02fd 4D       		.uleb128 0x4d
 3232 02fe 25       		.uleb128 0x25
 3233 02ff F5       		.byte	0xf5
 3234 0300 4B       		.uleb128 0x4b
 3235 0301 25       		.uleb128 0x25
 3236 0302 1C       		.byte	0x1c
 3237 0303 9F       		.byte	0x9f
 3238 0304 C2000000 		.4byte	.LVL23
 3239 0308 CE000000 		.4byte	.LVL24
 3240 030c 0200     		.2byte	0x2
 3241 030e 90       		.byte	0x90
 3242 030f 4F       		.uleb128 0x4f
 3243 0310 CE000000 		.4byte	.LVL24
 3244 0314 DA000000 		.4byte	.LVL25
 3245 0318 0800     		.2byte	0x8
ARM GAS  C:\msys64\tmp\ccbCzhpa.s 			page 58


 3246 031a F5       		.byte	0xf5
 3247 031b 4D       		.uleb128 0x4d
 3248 031c 25       		.uleb128 0x25
 3249 031d F5       		.byte	0xf5
 3250 031e 4B       		.uleb128 0x4b
 3251 031f 25       		.uleb128 0x25
 3252 0320 1C       		.byte	0x1c
 3253 0321 9F       		.byte	0x9f
 3254 0322 00000000 		.4byte	0
 3255 0326 00000000 		.4byte	0
 3256              	.LLST26:
 3257 032a BE000000 		.4byte	.LVL22
 3258 032e DA000000 		.4byte	.LVL25
 3259 0332 0C00     		.2byte	0xc
 3260 0334 F4       		.byte	0xf4
 3261 0335 25       		.uleb128 0x25
 3262 0336 04       		.byte	0x4
 3263 0337 0000803F 		.4byte	0x3f800000
 3264 033b F5       		.byte	0xf5
 3265 033c 4B       		.uleb128 0x4b
 3266 033d 25       		.uleb128 0x25
 3267 033e 1C       		.byte	0x1c
 3268 033f 9F       		.byte	0x9f
 3269 0340 00000000 		.4byte	0
 3270 0344 00000000 		.4byte	0
 3271              	.LLST27:
 3272 0348 BE000000 		.4byte	.LVL22
 3273 034c DA000000 		.4byte	.LVL25
 3274 0350 1400     		.2byte	0x14
 3275 0352 F5       		.byte	0xf5
 3276 0353 4D       		.uleb128 0x4d
 3277 0354 25       		.uleb128 0x25
 3278 0355 F5       		.byte	0xf5
 3279 0356 4B       		.uleb128 0x4b
 3280 0357 25       		.uleb128 0x25
 3281 0358 1C       		.byte	0x1c
 3282 0359 F4       		.byte	0xf4
 3283 035a 25       		.uleb128 0x25
 3284 035b 04       		.byte	0x4
 3285 035c 0000803F 		.4byte	0x3f800000
 3286 0360 F5       		.byte	0xf5
 3287 0361 4B       		.uleb128 0x4b
 3288 0362 25       		.uleb128 0x25
 3289 0363 1C       		.byte	0x1c
 3290 0364 1B       		.byte	0x1b
 3291 0365 9F       		.byte	0x9f
 3292 0366 00000000 		.4byte	0
 3293 036a 00000000 		.4byte	0
 3294              	.LLST28:
 3295 036e B4000000 		.4byte	.LVL19
 3296 0372 B8000000 		.4byte	.LVL20
 3297 0376 0800     		.2byte	0x8
 3298 0378 F5       		.byte	0xf5
 3299 0379 4D       		.uleb128 0x4d
 3300 037a 25       		.uleb128 0x25
 3301 037b F5       		.byte	0xf5
 3302 037c 4B       		.uleb128 0x4b
ARM GAS  C:\msys64\tmp\ccbCzhpa.s 			page 59


 3303 037d 25       		.uleb128 0x25
 3304 037e 1B       		.byte	0x1b
 3305 037f 9F       		.byte	0x9f
 3306 0380 B8000000 		.4byte	.LVL20
 3307 0384 BC000000 		.4byte	.LVL21
 3308 0388 0200     		.2byte	0x2
 3309 038a 90       		.byte	0x90
 3310 038b 4F       		.uleb128 0x4f
 3311 038c BC000000 		.4byte	.LVL21
 3312 0390 BE000000 		.4byte	.LVL22
 3313 0394 0800     		.2byte	0x8
 3314 0396 F5       		.byte	0xf5
 3315 0397 4D       		.uleb128 0x4d
 3316 0398 25       		.uleb128 0x25
 3317 0399 F5       		.byte	0xf5
 3318 039a 4B       		.uleb128 0x4b
 3319 039b 25       		.uleb128 0x25
 3320 039c 1B       		.byte	0x1b
 3321 039d 9F       		.byte	0x9f
 3322 039e 00000000 		.4byte	0
 3323 03a2 00000000 		.4byte	0
 3324              	.LLST29:
 3325 03a6 30010000 		.4byte	.LVL38
 3326 03aa 4E010000 		.4byte	.LVL42
 3327 03ae 0600     		.2byte	0x6
 3328 03b0 9E       		.byte	0x9e
 3329 03b1 04       		.uleb128 0x4
 3330 03b2 CDCC4C3D 		.4byte	0x3d4ccccd
 3331 03b6 00000000 		.4byte	0
 3332 03ba 00000000 		.4byte	0
 3333              	.LLST30:
 3334 03be 30010000 		.4byte	.LVL38
 3335 03c2 4E010000 		.4byte	.LVL42
 3336 03c6 0600     		.2byte	0x6
 3337 03c8 9E       		.byte	0x9e
 3338 03c9 04       		.uleb128 0x4
 3339 03ca 0000803F 		.4byte	0x3f800000
 3340 03ce 00000000 		.4byte	0
 3341 03d2 00000000 		.4byte	0
 3342              	.LLST31:
 3343 03d6 30010000 		.4byte	.LVL38
 3344 03da 4E010000 		.4byte	.LVL42
 3345 03de 0600     		.2byte	0x6
 3346 03e0 9E       		.byte	0x9e
 3347 03e1 04       		.uleb128 0x4
 3348 03e2 000080BF 		.4byte	0xbf800000
 3349 03e6 00000000 		.4byte	0
 3350 03ea 00000000 		.4byte	0
 3351              	.LLST32:
 3352 03ee 30010000 		.4byte	.LVL38
 3353 03f2 3A010000 		.4byte	.LVL39
 3354 03f6 0600     		.2byte	0x6
 3355 03f8 9E       		.byte	0x9e
 3356 03f9 04       		.uleb128 0x4
 3357 03fa 000080BF 		.4byte	0xbf800000
 3358 03fe 4A010000 		.4byte	.LVL41
 3359 0402 4E010000 		.4byte	.LVL42
ARM GAS  C:\msys64\tmp\ccbCzhpa.s 			page 60


 3360 0406 0600     		.2byte	0x6
 3361 0408 9E       		.byte	0x9e
 3362 0409 04       		.uleb128 0x4
 3363 040a 000080BF 		.4byte	0xbf800000
 3364 040e 00000000 		.4byte	0
 3365 0412 00000000 		.4byte	0
 3366              	.LLST33:
 3367 0416 C8010000 		.4byte	.LVL50
 3368 041a D4010000 		.4byte	.LVL51
 3369 041e 0200     		.2byte	0x2
 3370 0420 90       		.byte	0x90
 3371 0421 4F       		.uleb128 0x4f
 3372 0422 D4010000 		.4byte	.LVL51
 3373 0426 DA010000 		.4byte	.LVL52
 3374 042a 0C00     		.2byte	0xc
 3375 042c F5       		.byte	0xf5
 3376 042d 4E       		.uleb128 0x4e
 3377 042e 25       		.uleb128 0x25
 3378 042f F4       		.byte	0xf4
 3379 0430 25       		.uleb128 0x25
 3380 0431 04       		.byte	0x4
 3381 0432 0820803A 		.4byte	0x3a802008
 3382 0436 1E       		.byte	0x1e
 3383 0437 9F       		.byte	0x9f
 3384 0438 DA010000 		.4byte	.LVL52
 3385 043c E0010000 		.4byte	.LVL53
 3386 0440 0F00     		.2byte	0xf
 3387 0442 71       		.byte	0x71
 3388 0443 00       		.sleb128 0
 3389 0444 F7       		.byte	0xf7
 3390 0445 33       		.uleb128 0x33
 3391 0446 F7       		.byte	0xf7
 3392 0447 25       		.uleb128 0x25
 3393 0448 F4       		.byte	0xf4
 3394 0449 25       		.uleb128 0x25
 3395 044a 04       		.byte	0x4
 3396 044b 0820803A 		.4byte	0x3a802008
 3397 044f 1E       		.byte	0x1e
 3398 0450 9F       		.byte	0x9f
 3399 0451 E0010000 		.4byte	.LVL53
 3400 0455 FC010000 		.4byte	.LFE254
 3401 0459 0200     		.2byte	0x2
 3402 045b 90       		.byte	0x90
 3403 045c 4F       		.uleb128 0x4f
 3404 045d 00000000 		.4byte	0
 3405 0461 00000000 		.4byte	0
 3406              	.LLST34:
 3407 0465 00000000 		.4byte	.LVL54
 3408 0469 14000000 		.4byte	.LVL56
 3409 046d 0400     		.2byte	0x4
 3410 046f 0A       		.byte	0xa
 3411 0470 FFFF     		.2byte	0xffff
 3412 0472 9F       		.byte	0x9f
 3413 0473 00000000 		.4byte	0
 3414 0477 00000000 		.4byte	0
 3415              	.LLST35:
 3416 047b 00000000 		.4byte	.LVL54
ARM GAS  C:\msys64\tmp\ccbCzhpa.s 			page 61


 3417 047f 14000000 		.4byte	.LVL56
 3418 0483 0200     		.2byte	0x2
 3419 0485 31       		.byte	0x31
 3420 0486 9F       		.byte	0x9f
 3421 0487 00000000 		.4byte	0
 3422 048b 00000000 		.4byte	0
 3423              	.LLST36:
 3424 048f 00000000 		.4byte	.LVL54
 3425 0493 14000000 		.4byte	.LVL56
 3426 0497 0600     		.2byte	0x6
 3427 0499 03       		.byte	0x3
 3428 049a 00000000 		.4byte	_ZL4vpsf
 3429 049e 9F       		.byte	0x9f
 3430 049f 00000000 		.4byte	0
 3431 04a3 00000000 		.4byte	0
 3432              	.LLST37:
 3433 04a7 00000000 		.4byte	.LVL54
 3434 04ab 10000000 		.4byte	.LVL55
 3435 04af 0600     		.2byte	0x6
 3436 04b1 03       		.byte	0x3
 3437 04b2 00000000 		.4byte	_ZL4vpsf
 3438 04b6 9F       		.byte	0x9f
 3439 04b7 00000000 		.4byte	0
 3440 04bb 00000000 		.4byte	0
 3441              	.LLST38:
 3442 04bf 10000000 		.4byte	.LVL55
 3443 04c3 14000000 		.4byte	.LVL56
 3444 04c7 0600     		.2byte	0x6
 3445 04c9 03       		.byte	0x3
 3446 04ca 0C000000 		.4byte	_ZL4vpsf+12
 3447 04ce 9F       		.byte	0x9f
 3448 04cf 00000000 		.4byte	0
 3449 04d3 00000000 		.4byte	0
 3450              		.section	.debug_aranges,"",%progbits
 3451 0000 24000000 		.4byte	0x24
 3452 0004 0200     		.2byte	0x2
 3453 0006 00000000 		.4byte	.Ldebug_info0
 3454 000a 04       		.byte	0x4
 3455 000b 00       		.byte	0
 3456 000c 0000     		.2byte	0
 3457 000e 0000     		.2byte	0
 3458 0010 00000000 		.4byte	.Ltext0
 3459 0014 FC010000 		.4byte	.Letext0-.Ltext0
 3460 0018 00000000 		.4byte	.LFB256
 3461 001c 1C000000 		.4byte	.LFE256-.LFB256
 3462 0020 00000000 		.4byte	0
 3463 0024 00000000 		.4byte	0
 3464              		.section	.debug_ranges,"",%progbits
 3465              	.Ldebug_ranges0:
 3466 0000 04000000 		.4byte	.LBB170
 3467 0004 08000000 		.4byte	.LBE170
 3468 0008 36000000 		.4byte	.LBB260
 3469 000c 38000000 		.4byte	.LBE260
 3470 0010 3C000000 		.4byte	.LBB261
 3471 0014 46000000 		.4byte	.LBE261
 3472 0018 4A000000 		.4byte	.LBB262
 3473 001c 66000000 		.4byte	.LBE262
ARM GAS  C:\msys64\tmp\ccbCzhpa.s 			page 62


 3474 0020 68000000 		.4byte	.LBB264
 3475 0024 74000000 		.4byte	.LBE264
 3476 0028 78000000 		.4byte	.LBB265
 3477 002c 96000000 		.4byte	.LBE265
 3478 0030 00000000 		.4byte	0
 3479 0034 00000000 		.4byte	0
 3480 0038 04000000 		.4byte	.LBB172
 3481 003c 08000000 		.4byte	.LBE172
 3482 0040 56000000 		.4byte	.LBB188
 3483 0044 5A000000 		.4byte	.LBE188
 3484 0048 68000000 		.4byte	.LBB192
 3485 004c 74000000 		.4byte	.LBE192
 3486 0050 78000000 		.4byte	.LBB193
 3487 0054 7C000000 		.4byte	.LBE193
 3488 0058 00000000 		.4byte	0
 3489 005c 00000000 		.4byte	0
 3490 0060 36000000 		.4byte	.LBB177
 3491 0064 38000000 		.4byte	.LBE177
 3492 0068 3C000000 		.4byte	.LBB183
 3493 006c 40000000 		.4byte	.LBE183
 3494 0070 4A000000 		.4byte	.LBB184
 3495 0074 50000000 		.4byte	.LBE184
 3496 0078 5A000000 		.4byte	.LBB189
 3497 007c 5E000000 		.4byte	.LBE189
 3498 0080 62000000 		.4byte	.LBB191
 3499 0084 66000000 		.4byte	.LBE191
 3500 0088 00000000 		.4byte	0
 3501 008c 00000000 		.4byte	0
 3502 0090 50000000 		.4byte	.LBB185
 3503 0094 56000000 		.4byte	.LBE185
 3504 0098 5E000000 		.4byte	.LBB190
 3505 009c 62000000 		.4byte	.LBE190
 3506 00a0 00000000 		.4byte	0
 3507 00a4 00000000 		.4byte	0
 3508 00a8 08000000 		.4byte	.LBB204
 3509 00ac 1C000000 		.4byte	.LBE204
 3510 00b0 66000000 		.4byte	.LBB254
 3511 00b4 68000000 		.4byte	.LBE254
 3512 00b8 96000000 		.4byte	.LBB255
 3513 00bc 9A000000 		.4byte	.LBE255
 3514 00c0 9E000000 		.4byte	.LBB256
 3515 00c4 A6000000 		.4byte	.LBE256
 3516 00c8 AA000000 		.4byte	.LBB257
 3517 00cc 76010000 		.4byte	.LBE257
 3518 00d0 00000000 		.4byte	0
 3519 00d4 00000000 		.4byte	0
 3520 00d8 08000000 		.4byte	.LBB205
 3521 00dc 14000000 		.4byte	.LBE205
 3522 00e0 66000000 		.4byte	.LBB238
 3523 00e4 68000000 		.4byte	.LBE238
 3524 00e8 96000000 		.4byte	.LBB239
 3525 00ec 9A000000 		.4byte	.LBE239
 3526 00f0 9E000000 		.4byte	.LBB240
 3527 00f4 A2000000 		.4byte	.LBE240
 3528 00f8 AA000000 		.4byte	.LBB252
 3529 00fc 30010000 		.4byte	.LBE252
 3530 0100 00000000 		.4byte	0
ARM GAS  C:\msys64\tmp\ccbCzhpa.s 			page 63


 3531 0104 00000000 		.4byte	0
 3532 0108 10000000 		.4byte	.LBB207
 3533 010c 14000000 		.4byte	.LBE207
 3534 0110 66000000 		.4byte	.LBB226
 3535 0114 68000000 		.4byte	.LBE226
 3536 0118 9E000000 		.4byte	.LBB231
 3537 011c A2000000 		.4byte	.LBE231
 3538 0120 DA000000 		.4byte	.LBB233
 3539 0124 2C010000 		.4byte	.LBE233
 3540 0128 00000000 		.4byte	0
 3541 012c 00000000 		.4byte	0
 3542 0130 10000000 		.4byte	.LBB209
 3543 0134 14000000 		.4byte	.LBE209
 3544 0138 66000000 		.4byte	.LBB221
 3545 013c 68000000 		.4byte	.LBE221
 3546 0140 DE000000 		.4byte	.LBB222
 3547 0144 2C010000 		.4byte	.LBE222
 3548 0148 00000000 		.4byte	0
 3549 014c 00000000 		.4byte	0
 3550 0150 FA000000 		.4byte	.LBB211
 3551 0154 FE000000 		.4byte	.LBE211
 3552 0158 04010000 		.4byte	.LBB216
 3553 015c 08010000 		.4byte	.LBE216
 3554 0160 14010000 		.4byte	.LBB217
 3555 0164 20010000 		.4byte	.LBE217
 3556 0168 22010000 		.4byte	.LBB218
 3557 016c 26010000 		.4byte	.LBE218
 3558 0170 00000000 		.4byte	0
 3559 0174 00000000 		.4byte	0
 3560 0178 96000000 		.4byte	.LBB228
 3561 017c 9A000000 		.4byte	.LBE228
 3562 0180 BE000000 		.4byte	.LBB230
 3563 0184 DA000000 		.4byte	.LBE230
 3564 0188 00000000 		.4byte	0
 3565 018c 00000000 		.4byte	0
 3566 0190 A2000000 		.4byte	.LBB241
 3567 0194 A6000000 		.4byte	.LBE241
 3568 0198 30010000 		.4byte	.LBB253
 3569 019c 4E010000 		.4byte	.LBE253
 3570 01a0 00000000 		.4byte	0
 3571 01a4 00000000 		.4byte	0
 3572 01a8 A2000000 		.4byte	.LBB243
 3573 01ac A6000000 		.4byte	.LBE243
 3574 01b0 30010000 		.4byte	.LBB250
 3575 01b4 4E010000 		.4byte	.LBE250
 3576 01b8 00000000 		.4byte	0
 3577 01bc 00000000 		.4byte	0
 3578 01c0 A2000000 		.4byte	.LBB244
 3579 01c4 A6000000 		.4byte	.LBE244
 3580 01c8 30010000 		.4byte	.LBB249
 3581 01cc 4E010000 		.4byte	.LBE249
 3582 01d0 00000000 		.4byte	0
 3583 01d4 00000000 		.4byte	0
 3584 01d8 A2000000 		.4byte	.LBB245
 3585 01dc A6000000 		.4byte	.LBE245
 3586 01e0 30010000 		.4byte	.LBB248
 3587 01e4 4E010000 		.4byte	.LBE248
ARM GAS  C:\msys64\tmp\ccbCzhpa.s 			page 64


 3588 01e8 00000000 		.4byte	0
 3589 01ec 00000000 		.4byte	0
 3590 01f0 00000000 		.4byte	.Ltext0
 3591 01f4 FC010000 		.4byte	.Letext0
 3592 01f8 00000000 		.4byte	.LFB256
 3593 01fc 1C000000 		.4byte	.LFE256
 3594 0200 00000000 		.4byte	0
 3595 0204 00000000 		.4byte	0
 3596              		.section	.debug_line,"",%progbits
 3597              	.Ldebug_line0:
 3598 0000 48030000 		.section	.debug_str,"MS",%progbits,1
 3598      02001102 
 3598      00000201 
 3598      FB0E0D00 
 3598      01010101 
 3599              	.LASF54:
 3600 0000 70617261 		.ascii	"params\000"
 3600      6D7300
 3601              	.LASF86:
 3602 0007 5F686F6F 		.ascii	"_hook_param\000"
 3602      6B5F7061 
 3602      72616D00 
 3603              	.LASF56:
 3604 0013 5F5A4E34 		.ascii	"_ZN4VPSFC4Ev\000"
 3604      56505346 
 3604      43344576 
 3604      00
 3605              	.LASF96:
 3606 0020 77745F70 		.ascii	"wt_par_lut_f\000"
 3606      61725F6C 
 3606      75745F66 
 3606      00
 3607              	.LASF83:
 3608 002d 666C6167 		.ascii	"flags\000"
 3608      7300
 3609              	.LASF104:
 3610 0033 474E5520 		.ascii	"GNU C++11 5.4.1 20160919 (release) [ARM/embedded-5-"
 3610      432B2B31 
 3610      3120352E 
 3610      342E3120 
 3610      32303136 
 3611 0066 6272616E 		.ascii	"branch revision 240496] -mcpu=cortex-m4 -mthumb -mn"
 3611      63682072 
 3611      65766973 
 3611      696F6E20 
 3611      32343034 
 3612 0099 6F2D7468 		.ascii	"o-thumb-interwork -mlittle-endian -mfloat-abi=hard "
 3612      756D622D 
 3612      696E7465 
 3612      72776F72 
 3612      6B202D6D 
 3613 00cc 2D6D6670 		.ascii	"-mfpu=fpv4-sp-d16 -g -Os -std=c++11 -fsingle-precis"
 3613      753D6670 
 3613      76342D73 
 3613      702D6431 
 3613      36202D67 
 3614 00ff 696F6E2D 		.ascii	"ion-constant -fcheck-new -fno-rtti -fno-exceptions "
ARM GAS  C:\msys64\tmp\ccbCzhpa.s 			page 65


 3614      636F6E73 
 3614      74616E74 
 3614      202D6663 
 3614      6865636B 
 3615 0132 2D666E6F 		.ascii	"-fno-non-call-exceptions\000"
 3615      2D6E6F6E 
 3615      2D63616C 
 3615      6C2D6578 
 3615      63657074 
 3616              	.LASF1:
 3617 014b 756E7369 		.ascii	"unsigned int\000"
 3617      676E6564 
 3617      20696E74 
 3617      00
 3618              	.LASF102:
 3619 0158 62697472 		.ascii	"bitres_lut_f\000"
 3619      65735F6C 
 3619      75745F66 
 3619      00
 3620              	.LASF68:
 3621 0165 6F73635F 		.ascii	"osc_sinf\000"
 3621      73696E66 
 3621      00
 3622              	.LASF8:
 3623 016e 5F5F696E 		.ascii	"__int32_t\000"
 3623      7433325F 
 3623      7400
 3624              	.LASF77:
 3625 0178 706C6174 		.ascii	"platform\000"
 3625      666F726D 
 3625      00
 3626              	.LASF30:
 3627 0181 70697463 		.ascii	"pitch\000"
 3627      6800
 3628              	.LASF44:
 3629 0187 75736572 		.ascii	"user_osc_param_id_t\000"
 3629      5F6F7363 
 3629      5F706172 
 3629      616D5F69 
 3629      645F7400 
 3630              	.LASF52:
 3631 019b 53746174 		.ascii	"State\000"
 3631      6500
 3632              	.LASF35:
 3633 01a1 6B5F7573 		.ascii	"k_user_osc_param_id1\000"
 3633      65725F6F 
 3633      73635F70 
 3633      6172616D 
 3633      5F696431 
 3634              	.LASF36:
 3635 01b6 6B5F7573 		.ascii	"k_user_osc_param_id2\000"
 3635      65725F6F 
 3635      73635F70 
 3635      6172616D 
 3635      5F696432 
 3636              	.LASF37:
 3637 01cb 6B5F7573 		.ascii	"k_user_osc_param_id3\000"
ARM GAS  C:\msys64\tmp\ccbCzhpa.s 			page 66


 3637      65725F6F 
 3637      73635F70 
 3637      6172616D 
 3637      5F696433 
 3638              	.LASF38:
 3639 01e0 6B5F7573 		.ascii	"k_user_osc_param_id4\000"
 3639      65725F6F 
 3639      73635F70 
 3639      6172616D 
 3639      5F696434 
 3640              	.LASF39:
 3641 01f5 6B5F7573 		.ascii	"k_user_osc_param_id5\000"
 3641      65725F6F 
 3641      73635F70 
 3641      6172616D 
 3641      5F696435 
 3642              	.LASF40:
 3643 020a 6B5F7573 		.ascii	"k_user_osc_param_id6\000"
 3643      65725F6F 
 3643      73635F70 
 3643      6172616D 
 3643      5F696436 
 3644              	.LASF43:
 3645 021f 6B5F6E75 		.ascii	"k_num_user_osc_param_id\000"
 3645      6D5F7573 
 3645      65725F6F 
 3645      73635F70 
 3645      6172616D 
 3646              	.LASF81:
 3647 0237 5F686F6F 		.ascii	"_hook_cycle\000"
 3647      6B5F6379 
 3647      636C6500 
 3648              	.LASF98:
 3649 0243 74616E70 		.ascii	"tanpi_lut_f\000"
 3649      695F6C75 
 3649      745F6600 
 3650              	.LASF73:
 3651 024f 6F73635F 		.ascii	"osc_softclipf\000"
 3651      736F6674 
 3651      636C6970 
 3651      6600
 3652              	.LASF62:
 3653 025d 636C616D 		.ascii	"clampfsel\000"
 3653      70667365 
 3653      6C00
 3654              	.LASF17:
 3655 0267 75696E74 		.ascii	"uint32_t\000"
 3655      33325F74 
 3655      00
 3656              	.LASF89:
 3657 0270 76616C66 		.ascii	"valf\000"
 3657      00
 3658              	.LASF92:
 3659 0275 6D696469 		.ascii	"midi_to_hz_lut_f\000"
 3659      5F746F5F 
 3659      687A5F6C 
 3659      75745F66 
ARM GAS  C:\msys64\tmp\ccbCzhpa.s 			page 67


 3659      00
 3660              	.LASF0:
 3661 0286 666C6F61 		.ascii	"float\000"
 3661      7400
 3662              	.LASF87:
 3663 028c 696E6465 		.ascii	"index\000"
 3663      7800
 3664              	.LASF25:
 3665 0292 6B5F7573 		.ascii	"k_user_module_delfx\000"
 3665      65725F6D 
 3665      6F64756C 
 3665      655F6465 
 3665      6C667800 
 3666              	.LASF13:
 3667 02a6 6C6F6E67 		.ascii	"long long unsigned int\000"
 3667      206C6F6E 
 3667      6720756E 
 3667      7369676E 
 3667      65642069 
 3668              	.LASF78:
 3669 02bd 66726163 		.ascii	"fraction\000"
 3669      74696F6E 
 3669      00
 3670              	.LASF6:
 3671 02c6 5F5F7569 		.ascii	"__uint16_t\000"
 3671      6E743136 
 3671      5F7400
 3672              	.LASF59:
 3673 02d1 5F5A4E34 		.ascii	"_ZN4VPSF11PhaseShaperEf\000"
 3673      56505346 
 3673      31315068 
 3673      61736553 
 3673      68617065 
 3674              	.LASF84:
 3675 02e9 5F686F6F 		.ascii	"_hook_on\000"
 3675      6B5F6F6E 
 3675      00
 3676              	.LASF45:
 3677 02f2 75736572 		.ascii	"user_osc_param\000"
 3677      5F6F7363 
 3677      5F706172 
 3677      616D00
 3678              	.LASF88:
 3679 0301 76616C75 		.ascii	"value\000"
 3679      6500
 3680              	.LASF74:
 3681 0307 5F5F696E 		.ascii	"__initialize_p\000"
 3681      69746961 
 3681      6C697A65 
 3681      5F7000
 3682              	.LASF26:
 3683 0316 6B5F7573 		.ascii	"k_user_module_revfx\000"
 3683      65725F6D 
 3683      6F64756C 
 3683      655F7265 
 3683      76667800 
 3684              	.LASF75:
ARM GAS  C:\msys64\tmp\ccbCzhpa.s 			page 68


 3685 032a 5F5F7072 		.ascii	"__priority\000"
 3685      696F7269 
 3685      747900
 3686              	.LASF51:
 3687 0335 73686966 		.ascii	"shiftshape\000"
 3687      74736861 
 3687      706500
 3688              	.LASF105:
 3689 0340 7670735F 		.ascii	"vps_formants.cpp\000"
 3689      666F726D 
 3689      616E7473 
 3689      2E637070 
 3689      00
 3690              	.LASF58:
 3691 0351 5F5A4E34 		.ascii	"_ZN4VPSF6ParamsC4Ev\000"
 3691      56505346 
 3691      36506172 
 3691      616D7343 
 3691      34457600 
 3692              	.LASF31:
 3693 0365 6375746F 		.ascii	"cutoff\000"
 3693      666600
 3694              	.LASF20:
 3695 036c 63686172 		.ascii	"char\000"
 3695      00
 3696              	.LASF110:
 3697 0371 5F5A4E34 		.ascii	"_ZN4VPSF5State5resetEv\000"
 3697      56505346 
 3697      35537461 
 3697      74653572 
 3697      65736574 
 3698              	.LASF46:
 3699 0388 56505346 		.ascii	"VPSF\000"
 3699      00
 3700              	.LASF85:
 3701 038d 5F686F6F 		.ascii	"_hook_off\000"
 3701      6B5F6F66 
 3701      6600
 3702              	.LASF82:
 3703 0397 6672616D 		.ascii	"frames\000"
 3703      657300
 3704              	.LASF101:
 3705 039e 73636865 		.ascii	"schetzen_lut_f\000"
 3705      747A656E 
 3705      5F6C7574 
 3705      5F6600
 3706              	.LASF14:
 3707 03ad 75696E74 		.ascii	"uint8_t\000"
 3707      385F7400 
 3708              	.LASF47:
 3709 03b5 666C6167 		.ascii	"flags_none\000"
 3709      735F6E6F 
 3709      6E6500
 3710              	.LASF66:
 3711 03c0 6F73635F 		.ascii	"osc_notehzf\000"
 3711      6E6F7465 
 3711      687A6600 
ARM GAS  C:\msys64\tmp\ccbCzhpa.s 			page 69


 3712              	.LASF97:
 3713 03cc 6C6F675F 		.ascii	"log_lut_f\000"
 3713      6C75745F 
 3713      6600
 3714              	.LASF64:
 3715 03d6 636C6970 		.ascii	"clipmaxf\000"
 3715      6D617866 
 3715      00
 3716              	.LASF12:
 3717 03df 6C6F6E67 		.ascii	"long long int\000"
 3717      206C6F6E 
 3717      6720696E 
 3717      7400
 3718              	.LASF48:
 3719 03ed 666C6167 		.ascii	"flag_reset\000"
 3719      5F726573 
 3719      657400
 3720              	.LASF32:
 3721 03f8 7265736F 		.ascii	"resonance\000"
 3721      6E616E63 
 3721      6500
 3722              	.LASF28:
 3723 0402 6B5F6E75 		.ascii	"k_num_user_modules\000"
 3723      6D5F7573 
 3723      65725F6D 
 3723      6F64756C 
 3723      657300
 3724              	.LASF63:
 3725 0415 636C6970 		.ascii	"clipmaxu32\000"
 3725      6D617875 
 3725      333200
 3726              	.LASF112:
 3727 0420 5F474C4F 		.ascii	"_GLOBAL__sub_I__hook_init\000"
 3727      42414C5F 
 3727      5F737562 
 3727      5F495F5F 
 3727      686F6F6B 
 3728              	.LASF94:
 3729 043a 77745F73 		.ascii	"wt_saw_lut_f\000"
 3729      61775F6C 
 3729      75745F66 
 3729      00
 3730              	.LASF103:
 3731 0447 76707366 		.ascii	"vpsf\000"
 3731      00
 3732              	.LASF27:
 3733 044c 6B5F7573 		.ascii	"k_user_module_osc\000"
 3733      65725F6D 
 3733      6F64756C 
 3733      655F6F73 
 3733      6300
 3734              	.LASF79:
 3735 045e 6E756D65 		.ascii	"numerator\000"
 3735      7261746F 
 3735      7200
 3736              	.LASF18:
 3737 0468 6C6F6E67 		.ascii	"long double\000"
ARM GAS  C:\msys64\tmp\ccbCzhpa.s 			page 70


 3737      20646F75 
 3737      626C6500 
 3738              	.LASF15:
 3739 0474 75696E74 		.ascii	"uint16_t\000"
 3739      31365F74 
 3739      00
 3740              	.LASF55:
 3741 047d 5F5A4E34 		.ascii	"_ZN4VPSF5StateC4Ev\000"
 3741      56505346 
 3741      35537461 
 3741      74654334 
 3741      457600
 3742              	.LASF70:
 3743 0490 74686973 		.ascii	"this\000"
 3743      00
 3744              	.LASF49:
 3745 0495 50617261 		.ascii	"Params\000"
 3745      6D7300
 3746              	.LASF111:
 3747 049c 5F5F7374 		.ascii	"__static_initialization_and_destruction_0\000"
 3747      61746963 
 3747      5F696E69 
 3747      7469616C 
 3747      697A6174 
 3748              	.LASF42:
 3749 04c6 6B5F7573 		.ascii	"k_user_osc_param_shiftshape\000"
 3749      65725F6F 
 3749      73635F70 
 3749      6172616D 
 3749      5F736869 
 3750              	.LASF76:
 3751 04e2 5F686F6F 		.ascii	"_hook_init\000"
 3751      6B5F696E 
 3751      697400
 3752              	.LASF4:
 3753 04ed 73686F72 		.ascii	"short int\000"
 3753      7420696E 
 3753      7400
 3754              	.LASF99:
 3755 04f7 73717274 		.ascii	"sqrtm2log_lut_f\000"
 3755      6D326C6F 
 3755      675F6C75 
 3755      745F6600 
 3756              	.LASF57:
 3757 0507 50686173 		.ascii	"PhaseShaper\000"
 3757      65536861 
 3757      70657200 
 3758              	.LASF100:
 3759 0513 63756269 		.ascii	"cubicsat_lut_f\000"
 3759      63736174 
 3759      5F6C7574 
 3759      5F6600
 3760              	.LASF95:
 3761 0522 77745F73 		.ascii	"wt_sqr_lut_f\000"
 3761      71725F6C 
 3761      75745F66 
 3761      00
ARM GAS  C:\msys64\tmp\ccbCzhpa.s 			page 71


 3762              	.LASF9:
 3763 052f 6C6F6E67 		.ascii	"long int\000"
 3763      20696E74 
 3763      00
 3764              	.LASF50:
 3765 0538 73686170 		.ascii	"shape\000"
 3765      6500
 3766              	.LASF24:
 3767 053e 6B5F7573 		.ascii	"k_user_module_modfx\000"
 3767      65725F6D 
 3767      6F64756C 
 3767      655F6D6F 
 3767      64667800 
 3768              	.LASF41:
 3769 0552 6B5F7573 		.ascii	"k_user_osc_param_shape\000"
 3769      65725F6F 
 3769      73635F70 
 3769      6172616D 
 3769      5F736861 
 3770              	.LASF108:
 3771 0569 31397573 		.ascii	"19user_osc_param_id_t\000"
 3771      65725F6F 
 3771      73635F70 
 3771      6172616D 
 3771      5F69645F 
 3772              	.LASF109:
 3773 057f 72657365 		.ascii	"reset\000"
 3773      7400
 3774              	.LASF33:
 3775 0585 72657365 		.ascii	"reserved0\000"
 3775      72766564 
 3775      3000
 3776              	.LASF80:
 3777 058f 64656E6F 		.ascii	"denominator\000"
 3777      6D696E61 
 3777      746F7200 
 3778              	.LASF5:
 3779 059b 5F5F7569 		.ascii	"__uint8_t\000"
 3779      6E74385F 
 3779      7400
 3780              	.LASF91:
 3781 05a5 6B5F6F73 		.ascii	"k_osc_api_version\000"
 3781      635F6170 
 3781      695F7665 
 3781      7273696F 
 3781      6E00
 3782              	.LASF60:
 3783 05b7 6673656C 		.ascii	"fsel\000"
 3783      00
 3784              	.LASF67:
 3785 05bc 6E6F7465 		.ascii	"note\000"
 3785      00
 3786              	.LASF22:
 3787 05c1 7133315F 		.ascii	"q31_t\000"
 3787      7400
 3788              	.LASF19:
 3789 05c7 73697A65 		.ascii	"sizetype\000"
ARM GAS  C:\msys64\tmp\ccbCzhpa.s 			page 72


 3789      74797065 
 3789      00
 3790              	.LASF11:
 3791 05d0 6C6F6E67 		.ascii	"long unsigned int\000"
 3791      20756E73 
 3791      69676E65 
 3791      6420696E 
 3791      7400
 3792              	.LASF93:
 3793 05e2 77745F73 		.ascii	"wt_sine_lut_f\000"
 3793      696E655F 
 3793      6C75745F 
 3793      6600
 3794              	.LASF16:
 3795 05f0 696E7433 		.ascii	"int32_t\000"
 3795      325F7400 
 3796              	.LASF65:
 3797 05f8 6C696E69 		.ascii	"linintf\000"
 3797      6E746600 
 3798              	.LASF3:
 3799 0600 756E7369 		.ascii	"unsigned char\000"
 3799      676E6564 
 3799      20636861 
 3799      7200
 3800              	.LASF10:
 3801 060e 5F5F7569 		.ascii	"__uint32_t\000"
 3801      6E743332 
 3801      5F7400
 3802              	.LASF71:
 3803 0619 6F73635F 		.ascii	"osc_cosf\000"
 3803      636F7366 
 3803      00
 3804              	.LASF23:
 3805 0622 6B5F7573 		.ascii	"k_user_module_global\000"
 3805      65725F6D 
 3805      6F64756C 
 3805      655F676C 
 3805      6F62616C 
 3806              	.LASF107:
 3807 0637 6465636C 		.ascii	"decltype(nullptr)\000"
 3807      74797065 
 3807      286E756C 
 3807      6C707472 
 3807      2900
 3808              	.LASF106:
 3809 0649 433A5C6D 		.ascii	"C:\\msys64\\home\\logue-sdk\\platform\\nutekt-digit"
 3809      73797336 
 3809      345C686F 
 3809      6D655C6C 
 3809      6F677565 
 3810 0677 616C5C43 		.ascii	"al\\Custom-Projects\\osc\\VPS_Project\\vps_formants"
 3810      7573746F 
 3810      6D2D5072 
 3810      6F6A6563 
 3810      74735C6F 
 3811 06a6 00       		.ascii	"\000"
 3812              	.LASF53:
ARM GAS  C:\msys64\tmp\ccbCzhpa.s 			page 73


 3813 06a7 73746174 		.ascii	"state\000"
 3813      6500
 3814              	.LASF2:
 3815 06ad 7369676E 		.ascii	"signed char\000"
 3815      65642063 
 3815      68617200 
 3816              	.LASF7:
 3817 06b9 73686F72 		.ascii	"short unsigned int\000"
 3817      7420756E 
 3817      7369676E 
 3817      65642069 
 3817      6E7400
 3818              	.LASF72:
 3819 06cc 6F73635F 		.ascii	"osc_w0f_for_note\000"
 3819      7730665F 
 3819      666F725F 
 3819      6E6F7465 
 3819      00
 3820              	.LASF34:
 3821 06dd 75736572 		.ascii	"user_osc_param_t\000"
 3821      5F6F7363 
 3821      5F706172 
 3821      616D5F74 
 3821      00
 3822              	.LASF21:
 3823 06ee 646F7562 		.ascii	"double\000"
 3823      6C6500
 3824              	.LASF29:
 3825 06f5 73686170 		.ascii	"shape_lfo\000"
 3825      655F6C66 
 3825      6F00
 3826              	.LASF69:
 3827 06ff 636C6970 		.ascii	"clip1m1f\000"
 3827      316D3166 
 3827      00
 3828              	.LASF61:
 3829 0708 636C616D 		.ascii	"clampmaxfsel\000"
 3829      706D6178 
 3829      6673656C 
 3829      00
 3830              	.LASF90:
 3831 0715 6B5F6F73 		.ascii	"k_osc_api_platform\000"
 3831      635F6170 
 3831      695F706C 
 3831      6174666F 
 3831      726D00
 3832              		.ident	"GCC: (GNU Tools for ARM Embedded Processors) 5.4.1 20160919 (release) [ARM/embedded-5-bran
ARM GAS  C:\msys64\tmp\ccbCzhpa.s 			page 74


DEFINED SYMBOLS
                            *ABS*:00000000 vps_formants.cpp
C:\msys64\tmp\ccbCzhpa.s:21     .text:00000000 $t
C:\msys64\tmp\ccbCzhpa.s:26     .text:00000000 _hook_init
C:\msys64\tmp\ccbCzhpa.s:44     .text:00000002 _hook_cycle
C:\msys64\tmp\ccbCzhpa.s:480    .text:00000180 $d
C:\msys64\tmp\ccbCzhpa.s:492    .text:000001a4 $t
C:\msys64\tmp\ccbCzhpa.s:497    .text:000001a4 _hook_on
C:\msys64\tmp\ccbCzhpa.s:514    .text:000001b0 $d
C:\msys64\tmp\ccbCzhpa.s:518    .text:000001b4 $t
C:\msys64\tmp\ccbCzhpa.s:523    .text:000001b4 _hook_off
C:\msys64\tmp\ccbCzhpa.s:540    .text:000001b6 _hook_param
C:\msys64\tmp\ccbCzhpa.s:587    .text:000001f0 $d
C:\msys64\tmp\ccbCzhpa.s:594    .text.startup:00000000 $t
C:\msys64\tmp\ccbCzhpa.s:598    .text.startup:00000000 _GLOBAL__sub_I__hook_init
C:\msys64\tmp\ccbCzhpa.s:632    .text.startup:00000018 $d
C:\msys64\tmp\ccbCzhpa.s:642    .init_array:00000000 $d
C:\msys64\tmp\ccbCzhpa.s:645    .bss:00000000 $d
C:\msys64\tmp\ccbCzhpa.s:649    .bss:00000000 _ZL4vpsf
                     .debug_frame:00000010 $d

UNDEFINED SYMBOLS
midi_to_hz_lut_f
wt_sine_lut_f
