ARM GAS  C:\msys64\tmp\ccBbREuZ.s 			page 1


   1              		.syntax unified
   2              		.cpu cortex-m4
   3              		.eabi_attribute 27, 1
   4              		.eabi_attribute 28, 1
   5              		.fpu fpv4-sp-d16
   6              		.eabi_attribute 20, 1
   7              		.eabi_attribute 21, 1
   8              		.eabi_attribute 23, 3
   9              		.eabi_attribute 24, 1
  10              		.eabi_attribute 25, 1
  11              		.eabi_attribute 26, 1
  12              		.eabi_attribute 30, 4
  13              		.eabi_attribute 34, 1
  14              		.eabi_attribute 18, 4
  15              		.thumb
  16              		.syntax unified
  17              		.file	"mvps2D.cpp"
  18              		.text
  19              	.Ltext0:
  20              		.cfi_sections	.debug_frame
  21              		.section	.text._ZN6MVPS2DC2Ev,"axG",%progbits,_ZN6MVPS2DC5Ev,comdat
  22              		.align	1
  23              		.weak	_ZN6MVPS2DC2Ev
  24              		.thumb
  25              		.thumb_func
  26              		.type	_ZN6MVPS2DC2Ev, %function
  27              	_ZN6MVPS2DC2Ev:
  28              	.LFB246:
  29              		.file 1 "mvps2D.hpp"
  30              		.loc 1 58 0
  31              		.cfi_startproc
  32              		@ args = 0, pretend = 0, frame = 0
  33              		@ frame_needed = 0, uses_anonymous_args = 0
  34              		@ link register save eliminated.
  35              	.LVL0:
  36              	.LBB110:
  37              		.loc 1 59 0
  38 0000 0022     		movs	r2, #0
  39 0002 0260     		str	r2, [r0]	@ float
  40 0004 4260     		str	r2, [r0, #4]	@ float
  41 0006 8260     		str	r2, [r0, #8]	@ float
  42 0008 C260     		str	r2, [r0, #12]	@ float
  43 000a 0261     		str	r2, [r0, #16]	@ float
  44 000c 4261     		str	r2, [r0, #20]	@ float
  45              		.loc 1 60 0
  46 000e 4FF07C52 		mov	r2, #1056964608
  47 0012 8261     		str	r2, [r0, #24]	@ float
  48 0014 C261     		str	r2, [r0, #28]	@ float
  49 0016 0262     		str	r2, [r0, #32]	@ float
  50 0018 4262     		str	r2, [r0, #36]	@ float
  51 001a 8262     		str	r2, [r0, #40]	@ float
  52 001c C262     		str	r2, [r0, #44]	@ float
  53 001e 0263     		str	r2, [r0, #48]	@ float
  54 0020 4263     		str	r2, [r0, #52]	@ float
  55              	.LBE110:
  56              		.loc 1 61 0
  57 0022 7047     		bx	lr
ARM GAS  C:\msys64\tmp\ccBbREuZ.s 			page 2


  58              		.cfi_endproc
  59              	.LFE246:
  60              		.size	_ZN6MVPS2DC2Ev, .-_ZN6MVPS2DC2Ev
  61              		.weak	_ZN6MVPS2DC1Ev
  62              		.thumb_set _ZN6MVPS2DC1Ev,_ZN6MVPS2DC2Ev
  63              		.section	.text._ZN6MVPS2D16MultiPhaseShaperEfff,"axG",%progbits,_ZN6MVPS2D16MultiPhaseShaperEfff,c
  64              		.align	1
  65              		.weak	_ZN6MVPS2D16MultiPhaseShaperEfff
  66              		.thumb
  67              		.thumb_func
  68              		.type	_ZN6MVPS2D16MultiPhaseShaperEfff, %function
  69              	_ZN6MVPS2D16MultiPhaseShaperEfff:
  70              	.LFB248:
  71              		.loc 1 63 0
  72              		.cfi_startproc
  73              		@ args = 0, pretend = 0, frame = 0
  74              		@ frame_needed = 0, uses_anonymous_args = 0
  75              		@ link register save eliminated.
  76              	.LVL1:
  77              		.loc 1 64 0
  78 0000 90ED067A 		vldr.32	s14, [r0, #24]
  79 0004 90ED085A 		vldr.32	s10, [r0, #32]
  80              		.loc 1 65 0
  81 0008 D0ED074A 		vldr.32	s9, [r0, #28]
  82 000c D0ED0B7A 		vldr.32	s15, [r0, #44]
  83              		.loc 1 66 0
  84 0010 90ED096A 		vldr.32	s12, [r0, #36]
  85              		.loc 1 67 0
  86 0014 D0ED0C5A 		vldr.32	s11, [r0, #48]
  87              		.loc 1 68 0
  88 0018 D0ED0A3A 		vldr.32	s7, [r0, #40]
  89              		.loc 1 69 0
  90 001c 90ED0D4A 		vldr.32	s8, [r0, #52]
  91              		.loc 1 64 0
  92 0020 27EE055A 		vmul.f32	s10, s14, s10
  93              		.loc 1 65 0
  94 0024 64EEA77A 		vmul.f32	s15, s9, s15
  95              		.loc 1 64 0
  96 0028 25EE205A 		vmul.f32	s10, s10, s1
  97              	.LVL2:
  98              		.loc 1 65 0
  99 002c 67EE817A 		vmul.f32	s15, s15, s2
 100              	.LVL3:
 101              	.LBB111:
 102              		.loc 1 72 0
 103 0030 B4EEC05A 		vcmpe.f32	s10, s0
 104 0034 F1EE10FA 		vmrs	APSR_nzcv, FPSCR
 105 0038 04DD     		ble	.L14
 106              	.LVL4:
 107              	.LBB112:
 108              		.loc 1 74 0
 109 003a 80EE051A 		vdiv.f32	s2, s0, s10
 110              	.LVL5:
 111 003e 21EE271A 		vmul.f32	s2, s2, s15
 112              	.LVL6:
 113              	.LBE112:
 114 0042 3FE0     		b	.L5
ARM GAS  C:\msys64\tmp\ccBbREuZ.s 			page 3


 115              	.LVL7:
 116              	.L14:
 117              	.LBE111:
 118              		.loc 1 66 0
 119 0044 27EE066A 		vmul.f32	s12, s14, s12
 120              	.LVL8:
 121 0048 66EE206A 		vmul.f32	s13, s12, s1
 122              		.loc 1 67 0
 123 004c 24EEA56A 		vmul.f32	s12, s9, s11
 124              	.LBB120:
 125              	.LBB113:
 126              		.loc 1 75 0
 127 0050 F4EEC06A 		vcmpe.f32	s13, s0
 128 0054 F1EE10FA 		vmrs	APSR_nzcv, FPSCR
 129              	.LBE113:
 130              	.LBE120:
 131              		.loc 1 67 0
 132 0058 26EE016A 		vmul.f32	s12, s12, s2
 133              	.LBB121:
 134              	.LBB118:
 135              		.loc 1 75 0
 136 005c 0CDD     		ble	.L15
 137              	.LVL9:
 138              	.LBB114:
 139              		.loc 1 80 0
 140 005e 30EE450A 		vsub.f32	s0, s0, s10
 141              	.LVL10:
 142 0062 76EEC50A 		vsub.f32	s1, s13, s10
 143              	.LVL11:
 144 0066 36EE671A 		vsub.f32	s2, s12, s15
 145              	.LVL12:
 146 006a 80EE207A 		vdiv.f32	s14, s0, s1
 147              	.LVL13:
 148 006e E1EE077A 		vfma.f32	s15, s2, s14
 149              	.LVL14:
 150 0072 B0EE671A 		vmov.f32	s2, s15
 151              	.LVL15:
 152              	.LBE114:
 153 0076 25E0     		b	.L5
 154              	.LVL16:
 155              	.L15:
 156              	.LBE118:
 157              	.LBE121:
 158              		.loc 1 68 0
 159 0078 27EE237A 		vmul.f32	s14, s14, s7
 160              	.LVL17:
 161              		.loc 1 69 0
 162 007c 64EE844A 		vmul.f32	s9, s9, s8
 163              	.LVL18:
 164              		.loc 1 68 0
 165 0080 67EE200A 		vmul.f32	s1, s14, s1
 166              	.LVL19:
 167              		.loc 1 69 0
 168 0084 24EE811A 		vmul.f32	s2, s9, s2
 169              	.LVL20:
 170              	.LBB122:
 171              	.LBB119:
ARM GAS  C:\msys64\tmp\ccBbREuZ.s 			page 4


 172              	.LBB115:
 173              		.loc 1 81 0
 174 0088 F4EEC00A 		vcmpe.f32	s1, s0
 175 008c F1EE10FA 		vmrs	APSR_nzcv, FPSCR
 176 0090 0CDD     		ble	.L16
 177              	.LVL21:
 178              	.LBB116:
 179              		.loc 1 86 0
 180 0092 30EE660A 		vsub.f32	s0, s0, s13
 181              	.LVL22:
 182 0096 70EEE60A 		vsub.f32	s1, s1, s13
 183              	.LVL23:
 184 009a 71EE467A 		vsub.f32	s15, s2, s12
 185              	.LVL24:
 186 009e 80EE207A 		vdiv.f32	s14, s0, s1
 187              	.LVL25:
 188 00a2 A7EE876A 		vfma.f32	s12, s15, s14
 189 00a6 B0EE461A 		vmov.f32	s2, s12
 190              	.LVL26:
 191              	.LBE116:
 192 00aa 0BE0     		b	.L5
 193              	.LVL27:
 194              	.L16:
 195              	.LBB117:
 196              		.loc 1 92 0
 197 00ac F7EE007A 		vmov.f32	s15, #1.0e+0
 198              	.LVL28:
 199 00b0 30EE600A 		vsub.f32	s0, s0, s1
 200              	.LVL29:
 201 00b4 77EEE00A 		vsub.f32	s1, s15, s1
 202              	.LVL30:
 203 00b8 37EEC17A 		vsub.f32	s14, s15, s2
 204              	.LVL31:
 205 00bc C0EE207A 		vdiv.f32	s15, s0, s1
 206              	.LVL32:
 207 00c0 A7EE271A 		vfma.f32	s2, s14, s15
 208              	.LVL33:
 209              	.L5:
 210              	.LBE117:
 211              	.LBE115:
 212              	.LBE119:
 213              	.LBE122:
 214              	.LBB123:
 215              	.LBB124:
 216              	.LBB125:
 217              	.LBB126:
 218              		.file 2 "C:/msys64/home/logue-sdk/platform/nutekt-digital/inc/osc_api.h"
 219              		.loc 2 160 0
 220 00c4 174A     		ldr	r2, .L18
 221              	.LBE126:
 222              	.LBE125:
 223              		.loc 2 171 0
 224 00c6 F5EE007A 		vmov.f32	s15, #2.5e-1
 225 00ca 31EE271A 		vadd.f32	s2, s2, s15
 226              	.LVL34:
 227              	.LBB134:
 228              	.LBB133:
ARM GAS  C:\msys64\tmp\ccBbREuZ.s 			page 5


 229              		.loc 2 154 0
 230 00ce FCEEC17A 		vcvt.u32.f32	s15, s2
 231 00d2 F8EE677A 		vcvt.f32.u32	s15, s15
 232 00d6 31EE671A 		vsub.f32	s2, s2, s15
 233              	.LVL35:
 234 00da DFED137A 		vldr.32	s15, .L18+4
 235 00de 21EE271A 		vmul.f32	s2, s2, s15
 236              	.LVL36:
 237              		.loc 2 155 0
 238 00e2 FCEEC17A 		vcvt.u32.f32	s15, s2
 239 00e6 17EE901A 		vmov	r1, s15	@ int
 240              	.LVL37:
 241              		.loc 2 157 0
 242 00ea 01F07F03 		and	r3, r1, #127
 243              	.LVL38:
 244              		.loc 2 160 0
 245 00ee 02EB8300 		add	r0, r2, r3, lsl #2
 246              	.LVL39:
 247 00f2 0133     		adds	r3, r3, #1
 248              	.LVL40:
 249              	.LBB127:
 250              	.LBB128:
 251              		.file 3 "C:/msys64/home/logue-sdk/platform/nutekt-digital/inc/utils/float_math.h"
 252              		.loc 3 826 0
 253 00f4 F8EE677A 		vcvt.f32.u32	s15, s15
 254              	.LBE128:
 255              	.LBE127:
 256              		.loc 2 160 0
 257 00f8 03F07F03 		and	r3, r3, #127
 258              	.LVL41:
 259 00fc 02EB8303 		add	r3, r2, r3, lsl #2
 260              	.LVL42:
 261 0100 90ED000A 		vldr.32	s0, [r0]
 262              	.LVL43:
 263              	.LBB131:
 264              	.LBB129:
 265              		.loc 3 826 0
 266 0104 31EE671A 		vsub.f32	s2, s2, s15
 267              	.LVL44:
 268 0108 D3ED007A 		vldr.32	s15, [r3]
 269 010c 77EEC07A 		vsub.f32	s15, s15, s0
 270              	.LBE129:
 271              	.LBE131:
 272              		.loc 2 161 0
 273 0110 7F29     		cmp	r1, #127
 274              	.LBB132:
 275              	.LBB130:
 276              		.loc 3 826 0
 277 0112 A1EE270A 		vfma.f32	s0, s2, s15
 278              	.LVL45:
 279              	.LBE130:
 280              	.LBE132:
 281              		.loc 2 161 0
 282 0116 88BF     		it	hi
 283 0118 B1EE400A 		vneghi.f32	s0, s0
 284              	.LVL46:
 285              	.LBE133:
ARM GAS  C:\msys64\tmp\ccBbREuZ.s 			page 6


 286              	.LBE134:
 287              	.LBE124:
 288              	.LBE123:
 289              		.loc 1 96 0
 290 011c B1EE400A 		vneg.f32	s0, s0
 291 0120 7047     		bx	lr
 292              	.L19:
 293 0122 00BF     		.align	2
 294              	.L18:
 295 0124 00000000 		.word	wt_sine_lut_f
 296 0128 00008043 		.word	1132462080
 297              		.cfi_endproc
 298              	.LFE248:
 299              		.size	_ZN6MVPS2D16MultiPhaseShaperEfff, .-_ZN6MVPS2D16MultiPhaseShaperEfff
 300              		.text
 301              		.align	1
 302              		.global	_hook_init
 303              		.thumb
 304              		.thumb_func
 305              		.type	_hook_init, %function
 306              	_hook_init:
 307              	.LFB250:
 308              		.file 4 "mvps2D.cpp"
 309              		.loc 4 14 0
 310              		.cfi_startproc
 311              		@ args = 0, pretend = 0, frame = 0
 312              		@ frame_needed = 0, uses_anonymous_args = 0
 313              		@ link register save eliminated.
 314              	.LVL47:
 315 0000 7047     		bx	lr
 316              		.cfi_endproc
 317              	.LFE250:
 318              		.size	_hook_init, .-_hook_init
 319              		.align	1
 320              		.global	_hook_cycle
 321              		.thumb
 322              		.thumb_func
 323              		.type	_hook_cycle, %function
 324              	_hook_cycle:
 325              	.LFB251:
 326              		.loc 4 19 0
 327              		.cfi_startproc
 328              		@ args = 0, pretend = 0, frame = 0
 329              		@ frame_needed = 0, uses_anonymous_args = 0
 330              	.LVL48:
 331              		.loc 4 19 0
 332 0002 F8B5     		push	{r3, r4, r5, r6, r7, lr}
 333              		.cfi_def_cfa_offset 24
 334              		.cfi_offset 3, -24
 335              		.cfi_offset 4, -20
 336              		.cfi_offset 5, -16
 337              		.cfi_offset 6, -12
 338              		.cfi_offset 7, -8
 339              		.cfi_offset 14, -4
 340 0004 0D46     		mov	r5, r1
 341              		.loc 4 24 0
 342 0006 8188     		ldrh	r1, [r0, #4]
ARM GAS  C:\msys64\tmp\ccBbREuZ.s 			page 7


 343              	.LVL49:
 344              	.LBB171:
 345              	.LBB172:
 346              	.LBB173:
 347              	.LBB174:
 348              		.loc 3 826 0
 349 0008 9FED607A 		vldr.32	s14, .L37
 350              	.LBE174:
 351              	.LBE173:
 352              	.LBE172:
 353              	.LBE171:
 354              	.LBB207:
 355              	.LBB208:
 356              	.LBB209:
 357              	.LBB210:
 358              	.LBB211:
 359              	.LBB212:
 360              		.loc 2 160 0
 361 000c 604E     		ldr	r6, .L37+4
 362              	.LBE212:
 363              	.LBE211:
 364              	.LBE210:
 365              	.LBE209:
 366              	.LBE208:
 367              	.LBE207:
 368              		.loc 4 24 0
 369 000e 0B12     		asrs	r3, r1, #8
 370              	.LVL50:
 371              	.LBB296:
 372              	.LBB201:
 373              	.LBB180:
 374              	.LBB181:
 375              		.loc 2 109 0
 376 0010 962B     		cmp	r3, #150
 377 0012 D8BF     		it	le
 378 0014 1C46     		movle	r4, r3
 379              	.LBE181:
 380              	.LBE180:
 381              	.LBE201:
 382              	.LBE296:
 383              		.loc 4 27 0
 384 0016 C9B2     		uxtb	r1, r1
 385              	.LBB297:
 386              	.LBB202:
 387              		.loc 2 120 0
 388 0018 03F10103 		add	r3, r3, #1
 389              	.LVL51:
 390 001c DBB2     		uxtb	r3, r3
 391              	.LVL52:
 392              	.LBE202:
 393              	.LBE297:
 394              		.loc 4 27 0
 395 001e 07EE901A 		vmov	s15, r1	@ int
 396              	.LVL53:
 397              	.LBB298:
 398              	.LBB203:
 399              	.LBB185:
ARM GAS  C:\msys64\tmp\ccBbREuZ.s 			page 8


 400              	.LBB182:
 401              		.loc 2 109 0
 402 0022 C8BF     		it	gt
 403 0024 9724     		movgt	r4, #151
 404              	.LVL54:
 405 0026 5B49     		ldr	r1, .L37+8
 406              	.LVL55:
 407              	.LBE182:
 408              	.LBE185:
 409              	.LBB186:
 410              	.LBB187:
 411 0028 962B     		cmp	r3, #150
 412 002a 88BF     		it	hi
 413 002c 9723     		movhi	r3, #151
 414              	.LBE187:
 415              	.LBE186:
 416              	.LBB189:
 417              	.LBB175:
 418              		.loc 3 826 0
 419 002e F8EEE77A 		vcvt.f32.s32	s15, s15
 420              	.LVL56:
 421              	.LBE175:
 422              	.LBE189:
 423              	.LBB190:
 424              	.LBB183:
 425              		.loc 2 109 0
 426 0032 01EB8404 		add	r4, r1, r4, lsl #2
 427              	.LBE183:
 428              	.LBE190:
 429              	.LBB191:
 430              	.LBB188:
 431 0036 01EB8303 		add	r3, r1, r3, lsl #2
 432              	.LBE188:
 433              	.LBE191:
 434              	.LBE203:
 435              	.LBE298:
 436              		.loc 4 19 0
 437 003a 2DED0C8B 		vpush.64	{d8, d9, d10, d11, d12, d13}
 438              		.cfi_def_cfa_offset 72
 439              		.cfi_offset 80, -72
 440              		.cfi_offset 81, -68
 441              		.cfi_offset 82, -64
 442              		.cfi_offset 83, -60
 443              		.cfi_offset 84, -56
 444              		.cfi_offset 85, -52
 445              		.cfi_offset 86, -48
 446              		.cfi_offset 87, -44
 447              		.cfi_offset 88, -40
 448              		.cfi_offset 89, -36
 449              		.cfi_offset 90, -32
 450              		.cfi_offset 91, -28
 451              	.LBB299:
 452              	.LBB204:
 453              	.LBB192:
 454              	.LBB176:
 455              		.loc 3 826 0
 456 003e 67EE877A 		vmul.f32	s15, s15, s14
ARM GAS  C:\msys64\tmp\ccBbREuZ.s 			page 9


 457              	.LBE176:
 458              	.LBE192:
 459              	.LBB193:
 460              	.LBB184:
 461              		.loc 2 109 0
 462 0042 94ED009A 		vldr.32	s18, [r4]
 463              	.LVL57:
 464              	.LBE184:
 465              	.LBE193:
 466              	.LBB194:
 467              	.LBB177:
 468              		.loc 3 826 0
 469 0046 93ED007A 		vldr.32	s14, [r3]
 470              	.LBE177:
 471              	.LBE194:
 472              	.LBE204:
 473              	.LBE299:
 474              		.loc 4 27 0
 475 004a 534B     		ldr	r3, .L37+12
 476              	.LBB300:
 477              	.LBB291:
 478              	.LBB244:
 479              	.LBB235:
 480              	.LBB228:
 481              	.LBB221:
 482              		.loc 2 154 0
 483 004c 9FED53DA 		vldr.32	s26, .L37+16
 484              	.LBE221:
 485              	.LBE228:
 486              	.LBE235:
 487              	.LBE244:
 488              	.LBE291:
 489              	.LBE300:
 490              		.loc 4 35 0
 491 0050 D3ED039A 		vldr.32	s19, [r3, #12]
 492              		.loc 4 30 0
 493 0054 D3ED008A 		vldr.32	s17, [r3]
 494              		.loc 4 39 0
 495 0058 93ED04CA 		vldr.32	s24, [r3, #16]
 496              		.loc 4 40 0
 497 005c 93ED058A 		vldr.32	s16, [r3, #20]
 498              	.LBB301:
 499              	.LBB292:
 500              		.loc 4 66 0
 501 0060 9FED4FBA 		vldr.32	s22, .L37+20
 502 0064 DFED4FAA 		vldr.32	s21, .L37+24
 503              	.LBE292:
 504              	.LBE301:
 505              	.LBB302:
 506              	.LBB205:
 507              	.LBB195:
 508              	.LBB178:
 509              		.loc 3 826 0
 510 0068 37EE497A 		vsub.f32	s14, s14, s18
 511              	.LBE178:
 512              	.LBE195:
 513              	.LBE205:
ARM GAS  C:\msys64\tmp\ccBbREuZ.s 			page 10


 514              	.LBE302:
 515              		.loc 4 45 0
 516 006c 05EB8207 		add	r7, r5, r2, lsl #2
 517              	.LBB303:
 518              	.LBB206:
 519              	.LBB196:
 520              	.LBB179:
 521              		.loc 3 826 0
 522 0070 A7EE879A 		vfma.f32	s18, s15, s14
 523              	.LVL58:
 524 0074 1C46     		mov	r4, r3
 525              	.LBE179:
 526              	.LBE196:
 527              	.LBB197:
 528              	.LBB198:
 529              	.LBB199:
 530              	.LBB200:
 531              		.loc 3 193 0
 532 0076 DFED4C7A 		vldr.32	s15, .L37+28
 533 007a B4EEE79A 		vcmpe.f32	s18, s15
 534 007e F1EE10FA 		vmrs	APSR_nzcv, FPSCR
 535 0082 A8BF     		it	ge
 536 0084 B0EE679A 		vmovge.f32	s18, s15
 537              	.LVL59:
 538              	.LBE200:
 539              	.LBE199:
 540              	.LBE198:
 541              	.LBE197:
 542              		.loc 2 124 0
 543 0088 DFED487A 		vldr.32	s15, .L37+32
 544 008c 29EE279A 		vmul.f32	s18, s18, s15
 545              	.LVL60:
 546              	.LBE206:
 547              	.LBE303:
 548              		.loc 4 34 0
 549 0090 D0ED007A 		vldr.32	s15, [r0]	@ int
 550              		.loc 4 27 0
 551 0094 83ED019A 		vstr.32	s18, [r3, #4]
 552              	.LVL61:
 553              		.loc 4 34 0
 554 0098 FAEEE07A 		vcvt.f32.s32	s15, s15, #31
 555              		.loc 4 36 0
 556 009c 07EE102A 		vmov	s14, r2	@ int
 557              		.loc 4 34 0
 558 00a0 C3ED027A 		vstr.32	s15, [r3, #8]
 559              	.LVL62:
 560              		.loc 4 36 0
 561 00a4 B8EE477A 		vcvt.f32.u32	s14, s14
 562 00a8 77EEE97A 		vsub.f32	s15, s15, s19
 563              	.LVL63:
 564              	.LBB304:
 565              	.LBB293:
 566              	.LBB245:
 567              	.LBB236:
 568              		.loc 2 171 0
 569 00ac F5EE00CA 		vmov.f32	s25, #2.5e-1
 570              	.LBE236:
ARM GAS  C:\msys64\tmp\ccBbREuZ.s 			page 11


 571              	.LBE245:
 572              	.LBE293:
 573              	.LBE304:
 574              		.loc 4 36 0
 575 00b0 C7EE87BA 		vdiv.f32	s23, s15, s14
 576              	.LVL64:
 577              	.LBB305:
 578              	.LBB294:
 579              	.LBB246:
 580              	.LBB247:
 581              	.LBB248:
 582              	.LBB249:
 583              	.LBB250:
 584              	.LBB251:
 585              		.loc 3 193 0
 586 00b4 FFEE00DA 		vmov.f32	s27, #-1.0e+0
 587              	.LBE251:
 588              	.LBE250:
 589              	.LBB255:
 590              	.LBB256:
 591 00b8 B7EE00AA 		vmov.f32	s20, #1.0e+0
 592              	.LVL65:
 593              	.L29:
 594              	.LBE256:
 595              	.LBE255:
 596              	.LBE249:
 597              	.LBE248:
 598              	.LBE247:
 599              	.LBE246:
 600              	.LBE294:
 601              		.loc 4 48 0
 602 00bc BD42     		cmp	r5, r7
 603 00be 5BD0     		beq	.L25
 604              	.LVL66:
 605              	.LBB295:
 606              	.LBB269:
 607              	.LBB237:
 608              		.loc 2 171 0
 609 00c0 38EE2C7A 		vadd.f32	s14, s16, s25
 610              	.LVL67:
 611              	.LBE237:
 612              	.LBE269:
 613              		.loc 4 53 0
 614 00c4 B0EE680A 		vmov.f32	s0, s17
 615              	.LBB270:
 616              	.LBB238:
 617              	.LBB229:
 618              	.LBB222:
 619              		.loc 2 154 0
 620 00c8 FCEEC77A 		vcvt.u32.f32	s15, s14
 621              	.LBE222:
 622              	.LBE229:
 623              	.LBE238:
 624              	.LBE270:
 625              	.LBB271:
 626              	.LBB272:
 627              		.loc 1 99 0
ARM GAS  C:\msys64\tmp\ccBbREuZ.s 			page 12


 628 00cc 78EE898A 		vadd.f32	s17, s17, s18
 629              	.LVL68:
 630              	.LBE272:
 631              	.LBE271:
 632              	.LBB276:
 633              	.LBB239:
 634              	.LBB230:
 635              	.LBB223:
 636              		.loc 2 154 0
 637 00d0 F8EE677A 		vcvt.f32.u32	s15, s15
 638              	.LBE223:
 639              	.LBE230:
 640              	.LBE239:
 641              	.LBE276:
 642              		.loc 4 53 0
 643 00d4 F0EE690A 		vmov.f32	s1, s19
 644              	.LBB277:
 645              	.LBB240:
 646              	.LBB231:
 647              	.LBB224:
 648              		.loc 2 154 0
 649 00d8 77EE677A 		vsub.f32	s15, s14, s15
 650              	.LBE224:
 651              	.LBE231:
 652              	.LBE240:
 653              	.LBE277:
 654              		.loc 4 53 0
 655 00dc 2E48     		ldr	r0, .L37+12
 656              	.LBB278:
 657              	.LBB241:
 658              	.LBB232:
 659              	.LBB225:
 660              		.loc 2 154 0
 661 00de 67EE8D7A 		vmul.f32	s15, s15, s26
 662              	.LVL69:
 663              	.LBE225:
 664              	.LBE232:
 665              	.LBE241:
 666              	.LBE278:
 667              	.LBB279:
 668              	.LBB280:
 669              		.loc 1 99 0
 670 00e2 3CEE088A 		vadd.f32	s16, s24, s16
 671              	.LVL70:
 672              	.LBE280:
 673              	.LBE279:
 674              	.LBB282:
 675              	.LBB242:
 676              	.LBB233:
 677              	.LBB226:
 678              		.loc 2 155 0
 679 00e6 BCEEE77A 		vcvt.u32.f32	s14, s15
 680              	.LVL71:
 681              	.LBE226:
 682              	.LBE233:
 683              	.LBE242:
 684              	.LBE282:
ARM GAS  C:\msys64\tmp\ccBbREuZ.s 			page 13


 685              		.loc 4 60 0
 686 00ea 79EEAB9A 		vadd.f32	s19, s19, s23
 687              	.LVL72:
 688              	.LBB283:
 689              	.LBB243:
 690              	.LBB234:
 691              	.LBB227:
 692              		.loc 2 155 0
 693 00ee 17EE101A 		vmov	r1, s14	@ int
 694              	.LVL73:
 695              		.loc 2 157 0
 696 00f2 01F07F03 		and	r3, r1, #127
 697              	.LVL74:
 698              		.loc 2 160 0
 699 00f6 06EB8302 		add	r2, r6, r3, lsl #2
 700 00fa 0133     		adds	r3, r3, #1
 701              	.LVL75:
 702              	.LBB213:
 703              	.LBB214:
 704              		.loc 3 826 0
 705 00fc B8EE477A 		vcvt.f32.u32	s14, s14
 706              	.LBE214:
 707              	.LBE213:
 708              		.loc 2 160 0
 709 0100 03F07F03 		and	r3, r3, #127
 710              	.LVL76:
 711 0104 06EB8303 		add	r3, r6, r3, lsl #2
 712              	.LVL77:
 713              	.LBB218:
 714              	.LBB215:
 715              		.loc 3 826 0
 716 0108 77EEC77A 		vsub.f32	s15, s15, s14
 717              	.LVL78:
 718              	.LBE215:
 719              	.LBE218:
 720              		.loc 2 160 0
 721 010c 92ED001A 		vldr.32	s2, [r2]
 722              	.LVL79:
 723              	.LBB219:
 724              	.LBB216:
 725              		.loc 3 826 0
 726 0110 93ED007A 		vldr.32	s14, [r3]
 727 0114 37EE417A 		vsub.f32	s14, s14, s2
 728              	.LBE216:
 729              	.LBE219:
 730              		.loc 2 161 0
 731 0118 7F29     		cmp	r1, #127
 732              	.LBB220:
 733              	.LBB217:
 734              		.loc 3 826 0
 735 011a A7EE871A 		vfma.f32	s2, s15, s14
 736              	.LVL80:
 737              	.LBE217:
 738              	.LBE220:
 739              		.loc 2 161 0
 740 011e 88BF     		it	hi
 741 0120 B1EE411A 		vneghi.f32	s2, s2
ARM GAS  C:\msys64\tmp\ccBbREuZ.s 			page 14


 742              	.LVL81:
 743              	.LBE227:
 744              	.LBE234:
 745              	.LBE243:
 746              	.LBE283:
 747              		.loc 4 53 0
 748 0124 FFF7FEFF 		bl	_ZN6MVPS2D16MultiPhaseShaperEfff
 749              	.LVL82:
 750              	.LBB284:
 751              	.LBB273:
 752              		.loc 1 100 0
 753 0128 FCEEE87A 		vcvt.u32.f32	s15, s17
 754              	.LBE273:
 755              	.LBE284:
 756              	.LBB285:
 757              	.LBB266:
 758              	.LBB263:
 759              	.LBB260:
 760              	.LBB257:
 761              	.LBB252:
 762              		.loc 3 193 0
 763 012c B4EEED0A 		vcmpe.f32	s0, s27
 764              	.LBE252:
 765              	.LBE257:
 766              	.LBE260:
 767              	.LBE263:
 768              	.LBE266:
 769              	.LBE285:
 770              	.LBB286:
 771              	.LBB274:
 772              		.loc 1 100 0
 773 0130 F8EE677A 		vcvt.f32.u32	s15, s15
 774              	.LBE274:
 775              	.LBE286:
 776              	.LBB287:
 777              	.LBB267:
 778              	.LBB264:
 779              	.LBB261:
 780              	.LBB258:
 781              	.LBB253:
 782              		.loc 3 193 0
 783 0134 F1EE10FA 		vmrs	APSR_nzcv, FPSCR
 784              	.LBE253:
 785              	.LBE258:
 786              	.LBE261:
 787              	.LBE264:
 788              	.LBE267:
 789              	.LBE287:
 790              	.LBB288:
 791              	.LBB275:
 792              		.loc 1 100 0
 793 0138 78EEE78A 		vsub.f32	s17, s17, s15
 794              	.LVL83:
 795              	.LBE275:
 796              	.LBE288:
 797              	.LBB289:
 798              	.LBB281:
ARM GAS  C:\msys64\tmp\ccBbREuZ.s 			page 15


 799 013c FCEEC87A 		vcvt.u32.f32	s15, s16
 800 0140 F8EE677A 		vcvt.f32.u32	s15, s15
 801 0144 38EE678A 		vsub.f32	s16, s16, s15
 802              	.LVL84:
 803              	.LBE281:
 804              	.LBE289:
 805              	.LBB290:
 806              	.LBB268:
 807              	.LBB265:
 808              	.LBB262:
 809              	.LBB259:
 810              	.LBB254:
 811              		.loc 3 193 0
 812 0148 07DB     		blt	.L36
 813              	.LVL85:
 814 014a B4EECA0A 		vcmpe.f32	s0, s20
 815 014e F1EE10FA 		vmrs	APSR_nzcv, FPSCR
 816 0152 A8BF     		it	ge
 817 0154 B0EE4A0A 		vmovge.f32	s0, s20
 818              	.LVL86:
 819 0158 01E0     		b	.L27
 820              	.LVL87:
 821              	.L36:
 822 015a BFEE000A 		vmov.f32	s0, #-1.0e+0
 823              	.LVL88:
 824              	.L27:
 825              	.LBE254:
 826              	.LBE259:
 827              	.LBE262:
 828              	.LBE265:
 829              	.LBE268:
 830              	.LBE290:
 831              		.loc 4 66 0
 832 015e 60EE007A 		vmul.f32	s15, s0, s0
 833 0162 60EE677A 		vnmul.f32	s15, s0, s15
 834 0166 A7EE8B0A 		vfma.f32	s0, s15, s22
 835 016a 20EE2A0A 		vmul.f32	s0, s0, s21
 836 016e BDEEC00A 		vcvt.s32.f32	s0, s0
 837 0172 A5EC010A 		vstmia.32	r5!, {s0}	@ int
 838              	.LVL89:
 839              	.LBE295:
 840              		.loc 4 48 0
 841 0176 A1E7     		b	.L29
 842              	.LVL90:
 843              	.L25:
 844              	.LBE305:
 845              		.loc 4 71 0
 846 0178 C4ED008A 		vstr.32	s17, [r4]
 847              		.loc 4 72 0
 848 017c 84ED058A 		vstr.32	s16, [r4, #20]
 849              		.loc 4 73 0
 850 0180 C4ED039A 		vstr.32	s19, [r4, #12]
 851              	.LVL91:
 852              		.loc 4 74 0
 853 0184 BDEC0C8B 		vldm	sp!, {d8-d13}
 854              		.cfi_restore 90
 855              		.cfi_restore 91
ARM GAS  C:\msys64\tmp\ccBbREuZ.s 			page 16


 856              		.cfi_restore 88
 857              		.cfi_restore 89
 858              		.cfi_restore 86
 859              		.cfi_restore 87
 860              		.cfi_restore 84
 861              		.cfi_restore 85
 862              		.cfi_restore 82
 863              		.cfi_restore 83
 864              		.cfi_restore 80
 865              		.cfi_restore 81
 866              		.cfi_def_cfa_offset 24
 867              	.LVL92:
 868 0188 F8BD     		pop	{r3, r4, r5, r6, r7, pc}
 869              	.LVL93:
 870              	.L38:
 871 018a 00BF     		.align	2
 872              	.L37:
 873 018c 8180803B 		.word	998277249
 874 0190 00000000 		.word	wt_sine_lut_f
 875 0194 00000000 		.word	midi_to_hz_lut_f
 876 0198 00000000 		.word	.LANCHOR0
 877 019c 00008043 		.word	1132462080
 878 01a0 CDCC4C3D 		.word	1028443341
 879 01a4 0000004F 		.word	1325400064
 880 01a8 49FFB846 		.word	1186529097
 881 01ac 3EC3AE37 		.word	934200126
 882              		.cfi_endproc
 883              	.LFE251:
 884              		.size	_hook_cycle, .-_hook_cycle
 885              		.align	1
 886              		.global	_hook_on
 887              		.thumb
 888              		.thumb_func
 889              		.type	_hook_on, %function
 890              	_hook_on:
 891              	.LFB259:
 892              		.cfi_startproc
 893              		@ args = 0, pretend = 0, frame = 0
 894              		@ frame_needed = 0, uses_anonymous_args = 0
 895              		@ link register save eliminated.
 896 01b0 7047     		bx	lr
 897              		.cfi_endproc
 898              	.LFE259:
 899              		.size	_hook_on, .-_hook_on
 900              		.align	1
 901              		.global	_hook_off
 902              		.thumb
 903              		.thumb_func
 904              		.type	_hook_off, %function
 905              	_hook_off:
 906              	.LFB253:
 907              		.loc 4 81 0
 908              		.cfi_startproc
 909              		@ args = 0, pretend = 0, frame = 0
 910              		@ frame_needed = 0, uses_anonymous_args = 0
 911              		@ link register save eliminated.
 912              	.LVL94:
ARM GAS  C:\msys64\tmp\ccBbREuZ.s 			page 17


 913 01b2 7047     		bx	lr
 914              		.cfi_endproc
 915              	.LFE253:
 916              		.size	_hook_off, .-_hook_off
 917              		.align	1
 918              		.global	_hook_param
 919              		.thumb
 920              		.thumb_func
 921              		.type	_hook_param, %function
 922              	_hook_param:
 923              	.LFB254:
 924              		.loc 4 86 0
 925              		.cfi_startproc
 926              		@ args = 0, pretend = 0, frame = 0
 927              		@ frame_needed = 0, uses_anonymous_args = 0
 928              		@ link register save eliminated.
 929              	.LVL95:
 930              		.loc 4 91 0
 931 01b4 07EE901A 		vmov	s15, r1	@ int
 932 01b8 9FED297A 		vldr.32	s14, .L52
 933 01bc F8EEE77A 		vcvt.f32.s32	s15, s15
 934 01c0 27EE877A 		vmul.f32	s14, s15, s14
 935              	.LVL96:
 936              		.loc 4 92 0
 937 01c4 0728     		cmp	r0, #7
 938 01c6 4AD8     		bhi	.L41
 939 01c8 DFE800F0 		tbb	[pc, r0]
 940              	.L44:
 941 01cc 04       		.byte	(.L43-.L44)/2
 942 01cd 0C       		.byte	(.L45-.L44)/2
 943 01ce 14       		.byte	(.L46-.L44)/2
 944 01cf 1E       		.byte	(.L47-.L44)/2
 945 01d0 26       		.byte	(.L48-.L44)/2
 946 01d1 30       		.byte	(.L49-.L44)/2
 947 01d2 38       		.byte	(.L50-.L44)/2
 948 01d3 3C       		.byte	(.L51-.L44)/2
 949              		.p2align 1
 950              	.L43:
 951              		.loc 4 95 0
 952 01d4 9FED237A 		vldr.32	s14, .L52+4
 953              	.LVL97:
 954 01d8 234B     		ldr	r3, .L52+8
 955 01da 67EE877A 		vmul.f32	s15, s15, s14
 956              	.LVL98:
 957 01de C3ED087A 		vstr.32	s15, [r3, #32]
 958              		.loc 4 96 0
 959 01e2 7047     		bx	lr
 960              	.LVL99:
 961              	.L45:
 962              		.loc 4 100 0
 963 01e4 9FED217A 		vldr.32	s14, .L52+12
 964              	.LVL100:
 965 01e8 1F4B     		ldr	r3, .L52+8
 966 01ea 67EE877A 		vmul.f32	s15, s15, s14
 967              	.LVL101:
 968 01ee C3ED0B7A 		vstr.32	s15, [r3, #44]
 969              		.loc 4 101 0
ARM GAS  C:\msys64\tmp\ccBbREuZ.s 			page 18


 970 01f2 7047     		bx	lr
 971              	.LVL102:
 972              	.L46:
 973              		.loc 4 105 0
 974 01f4 9FED1E7A 		vldr.32	s14, .L52+16
 975              	.LVL103:
 976 01f8 DFED1A6A 		vldr.32	s13, .L52+4
 977 01fc 1A4B     		ldr	r3, .L52+8
 978 01fe A7EEA67A 		vfma.f32	s14, s15, s13
 979 0202 83ED097A 		vstr.32	s14, [r3, #36]
 980              		.loc 4 106 0
 981 0206 7047     		bx	lr
 982              	.LVL104:
 983              	.L47:
 984              		.loc 4 110 0
 985 0208 9FED187A 		vldr.32	s14, .L52+12
 986              	.LVL105:
 987 020c 164B     		ldr	r3, .L52+8
 988 020e 67EE877A 		vmul.f32	s15, s15, s14
 989              	.LVL106:
 990 0212 C3ED0C7A 		vstr.32	s15, [r3, #48]
 991              		.loc 4 111 0
 992 0216 7047     		bx	lr
 993              	.LVL107:
 994              	.L48:
 995              		.loc 4 115 0
 996 0218 9FED167A 		vldr.32	s14, .L52+20
 997              	.LVL108:
 998 021c DFED166A 		vldr.32	s13, .L52+24
 999 0220 114B     		ldr	r3, .L52+8
 1000 0222 A7EEA67A 		vfma.f32	s14, s15, s13
 1001 0226 83ED0A7A 		vstr.32	s14, [r3, #40]
 1002              		.loc 4 116 0
 1003 022a 7047     		bx	lr
 1004              	.LVL109:
 1005              	.L49:
 1006              		.loc 4 120 0
 1007 022c 9FED0F7A 		vldr.32	s14, .L52+12
 1008              	.LVL110:
 1009 0230 0D4B     		ldr	r3, .L52+8
 1010 0232 67EE877A 		vmul.f32	s15, s15, s14
 1011              	.LVL111:
 1012 0236 C3ED0D7A 		vstr.32	s15, [r3, #52]
 1013              		.loc 4 121 0
 1014 023a 7047     		bx	lr
 1015              	.LVL112:
 1016              	.L50:
 1017              		.loc 4 125 0
 1018 023c 0A4B     		ldr	r3, .L52+8
 1019 023e 83ED067A 		vstr.32	s14, [r3, #24]
 1020              		.loc 4 126 0
 1021 0242 7047     		bx	lr
 1022              	.L51:
 1023              		.loc 4 130 0
 1024 0244 084B     		ldr	r3, .L52+8
 1025 0246 83ED077A 		vstr.32	s14, [r3, #28]
 1026              		.loc 4 131 0
ARM GAS  C:\msys64\tmp\ccBbREuZ.s 			page 19


 1027 024a 9FED0C7A 		vldr.32	s14, .L52+28
 1028              	.LVL113:
 1029 024e 67EE877A 		vmul.f32	s15, s15, s14
 1030 0252 9FED0B7A 		vldr.32	s14, .L52+32
 1031 0256 67EE877A 		vmul.f32	s15, s15, s14
 1032 025a C3ED047A 		vstr.32	s15, [r3, #16]
 1033              	.LVL114:
 1034              	.L41:
 1035 025e 7047     		bx	lr
 1036              	.L53:
 1037              		.align	2
 1038              	.L52:
 1039 0260 0820803A 		.word	981475336
 1040 0264 A69B443B 		.word	994352038
 1041 0268 00000000 		.word	.LANCHOR0
 1042 026c 0AD7233C 		.word	1008981770
 1043 0270 9A99993E 		.word	1050253722
 1044 0274 9A99193F 		.word	1058642330
 1045 0278 6F12833B 		.word	998445679
 1046 027c 8FC2F53C 		.word	1022739087
 1047 0280 3EC3AE37 		.word	934200126
 1048              		.cfi_endproc
 1049              	.LFE254:
 1050              		.size	_hook_param, .-_hook_param
 1051              		.section	.text.startup,"ax",%progbits
 1052              		.align	1
 1053              		.thumb
 1054              		.thumb_func
 1055              		.type	_GLOBAL__sub_I__hook_init, %function
 1056              	_GLOBAL__sub_I__hook_init:
 1057              	.LFB256:
 1058              		.loc 4 136 0
 1059              		.cfi_startproc
 1060              		@ args = 0, pretend = 0, frame = 0
 1061              		@ frame_needed = 0, uses_anonymous_args = 0
 1062              	.LVL115:
 1063 0000 08B5     		push	{r3, lr}
 1064              		.cfi_def_cfa_offset 8
 1065              		.cfi_offset 3, -8
 1066              		.cfi_offset 14, -4
 1067              	.LBB306:
 1068              	.LBB307:
 1069              		.loc 4 12 0
 1070 0002 0248     		ldr	r0, .L55
 1071 0004 FFF7FEFF 		bl	_ZN6MVPS2DC1Ev
 1072              	.LVL116:
 1073 0008 08BD     		pop	{r3, pc}
 1074              	.L56:
 1075 000a 00BF     		.align	2
 1076              	.L55:
 1077 000c 00000000 		.word	.LANCHOR0
 1078              	.LBE307:
 1079              	.LBE306:
 1080              		.cfi_endproc
 1081              	.LFE256:
 1082              		.size	_GLOBAL__sub_I__hook_init, .-_GLOBAL__sub_I__hook_init
 1083              		.section	.init_array,"aw",%init_array
ARM GAS  C:\msys64\tmp\ccBbREuZ.s 			page 20


 1084              		.align	2
 1085 0000 00000000 		.word	_GLOBAL__sub_I__hook_init(target1)
 1086              		.bss
 1087              		.align	2
 1088              		.set	.LANCHOR0,. + 0
 1089              		.type	_ZL6mvps2D, %object
 1090              		.size	_ZL6mvps2D, 56
 1091              	_ZL6mvps2D:
 1092 0000 00000000 		.space	56
 1092      00000000 
 1092      00000000 
 1092      00000000 
 1092      00000000 
 1093              		.text
 1094              	.Letext0:
 1095              		.file 5 "c:\\msys64\\home\\logue-sdk\\tools\\gcc\\gcc-arm-none-eabi-5_4-2016q3\\arm-none-eabi\\inc
 1096              		.file 6 "c:\\msys64\\home\\logue-sdk\\tools\\gcc\\gcc-arm-none-eabi-5_4-2016q3\\arm-none-eabi\\inc
 1097              		.file 7 "c:\\msys64\\home\\logue-sdk\\platform\\ext\\cmsis\\cmsis\\include\\arm_math.h"
 1098              		.file 8 "C:/msys64/home/logue-sdk/platform/nutekt-digital/inc/userosc.h"
 1099              		.file 9 "C:/msys64/home/logue-sdk/platform/nutekt-digital/inc/utils/int_math.h"
 1100              		.file 10 "C:/msys64/home/logue-sdk/platform/nutekt-digital/inc/userprg.h"