ARM GAS  C:\msys64\tmp\cczuWTTA.s 			page 1


   1              		.syntax unified
   2              		.cpu cortex-m4
   3              		.eabi_attribute 27, 1
   4              		.eabi_attribute 28, 1
   5              		.fpu fpv4-sp-d16
   6              		.eabi_attribute 20, 1
   7              		.eabi_attribute 21, 1
   8              		.eabi_attribute 23, 3
   9              		.eabi_attribute 24, 1
  10              		.eabi_attribute 25, 1
  11              		.eabi_attribute 26, 1
  12              		.eabi_attribute 30, 4
  13              		.eabi_attribute 34, 1
  14              		.eabi_attribute 18, 4
  15              		.thumb
  16              		.syntax unified
  17              		.file	"vps_intpl_2.cpp"
  18              		.text
  19              	.Ltext0:
  20              		.cfi_sections	.debug_frame
  21              		.align	1
  22              		.global	_hook_init
  23              		.thumb
  24              		.thumb_func
  25              		.type	_hook_init, %function
  26              	_hook_init:
  27              	.LFB293:
  28              		.file 1 "vps_intpl_2.cpp"
  29              		.loc 1 14 0
  30              		.cfi_startproc
  31              		@ args = 0, pretend = 0, frame = 0
  32              		@ frame_needed = 0, uses_anonymous_args = 0
  33              		@ link register save eliminated.
  34              	.LVL0:
  35 0000 7047     		bx	lr
  36              		.cfi_endproc
  37              	.LFE293:
  38              		.size	_hook_init, .-_hook_init
  39              		.align	1
  40              		.global	_hook_cycle
  41              		.thumb
  42              		.thumb_func
  43              		.type	_hook_cycle, %function
  44              	_hook_cycle:
  45              	.LFB294:
  46              		.loc 1 19 0
  47              		.cfi_startproc
  48              		@ args = 0, pretend = 0, frame = 0
  49              		@ frame_needed = 0, uses_anonymous_args = 0
  50              	.LVL1:
  51              		.loc 1 25 0
  52 0002 B04B     		ldr	r3, .L33
  53 0004 9FEDB05A 		vldr.32	s10, .L33+4
  54              	.LBB252:
  55              	.LBB253:
  56              	.LBB254:
  57              	.LBB255:
ARM GAS  C:\msys64\tmp\cczuWTTA.s 			page 2


  58              		.file 2 "C:/msys64/home/logue-sdk/platform/nutekt-digital/inc/utils/float_math.h"
  59              		.loc 2 826 0
  60 0008 9FEDB07A 		vldr.32	s14, .L33+8
  61              	.LBE255:
  62              	.LBE254:
  63              	.LBE253:
  64              	.LBE252:
  65              	.LBB295:
  66              	.LBB296:
  67              		.file 3 "vps_intpl_2.hpp"
  68              		.loc 3 68 0
  69 000c 93ED066A 		vldr.32	s12, [r3, #24]
  70              	.LBB297:
  71              	.LBB298:
  72              		.file 4 "C:/msys64/home/logue-sdk/platform/nutekt-digital/inc/osc_api.h"
  73              		.loc 4 615 0
  74 0010 9FEDAF4A 		vldr.32	s8, .L33+12
  75              	.LBE298:
  76              	.LBE297:
  77              	.LBE296:
  78              	.LBE295:
  79              	.LBB379:
  80              	.LBB380:
  81              	.LBB381:
  82              	.LBB382:
  83              		.loc 3 77 0
  84 0014 D3ED043A 		vldr.32	s7, [r3, #16]
  85              		.loc 3 78 0
  86 0018 93ED052A 		vldr.32	s4, [r3, #20]
  87              	.LBE382:
  88              	.LBE381:
  89              		.loc 1 63 0
  90 001c 9FEDAD0A 		vldr.32	s0, .L33+16
  91              	.LBE380:
  92              	.LBE379:
  93              		.loc 1 19 0
  94 0020 70B5     		push	{r4, r5, r6, lr}
  95              		.cfi_def_cfa_offset 16
  96              		.cfi_offset 4, -16
  97              		.cfi_offset 5, -12
  98              		.cfi_offset 6, -8
  99              		.cfi_offset 14, -4
 100              		.loc 1 25 0
 101 0022 1C7B     		ldrb	r4, [r3, #12]	@ zero_extendqisi2
 102              	.LVL2:
 103              		.loc 1 31 0
 104 0024 14F0010F 		tst	r4, #1
 105              		.loc 1 28 0
 106 0028 2546     		mov	r5, r4
 107              		.loc 1 36 0
 108 002a 8488     		ldrh	r4, [r0, #4]
 109              	.LVL3:
 110 002c 4FEA2420 		asr	r0, r4, #8
 111              	.LVL4:
 112              		.loc 1 19 0
 113 0030 2DED068B 		vpush.64	{d8, d9, d10}
 114              		.cfi_def_cfa_offset 40
ARM GAS  C:\msys64\tmp\cczuWTTA.s 			page 3


 115              		.cfi_offset 80, -40
 116              		.cfi_offset 81, -36
 117              		.cfi_offset 82, -32
 118              		.cfi_offset 83, -28
 119              		.cfi_offset 84, -24
 120              		.cfi_offset 85, -20
 121              		.loc 1 28 0
 122 0034 6FF30005 		bfc	r5, #0, #1
 123              	.LBB449:
 124              	.LBB450:
 125              		.loc 3 52 0
 126 0038 18BF     		it	ne
 127 003a 83ED005A 		vstrne.32	s10, [r3]
 128              	.LBE450:
 129              	.LBE449:
 130              	.LBB451:
 131              	.LBB286:
 132              	.LBB260:
 133              	.LBB261:
 134              		.loc 4 109 0
 135 003e 9628     		cmp	r0, #150
 136              	.LBE261:
 137              	.LBE260:
 138              	.LBE286:
 139              	.LBE451:
 140              		.loc 1 28 0
 141 0040 1D73     		strb	r5, [r3, #12]
 142              		.loc 1 39 0
 143 0042 E4B2     		uxtb	r4, r4
 144              	.LBB452:
 145              	.LBB287:
 146              	.LBB266:
 147              	.LBB262:
 148              		.loc 4 109 0
 149 0044 D8BF     		it	le
 150 0046 0546     		movle	r5, r0
 151              	.LBE262:
 152              	.LBE266:
 153              		.loc 4 120 0
 154 0048 00F10100 		add	r0, r0, #1
 155              	.LVL5:
 156 004c C0B2     		uxtb	r0, r0
 157              	.LVL6:
 158              	.LBE287:
 159              	.LBE452:
 160              		.loc 1 39 0
 161 004e 07EE904A 		vmov	s15, r4	@ int
 162              	.LVL7:
 163              	.LBB453:
 164              	.LBB288:
 165              	.LBB267:
 166              	.LBB263:
 167              		.loc 4 109 0
 168 0052 C8BF     		it	gt
 169 0054 9725     		movgt	r5, #151
 170              	.LVL8:
 171 0056 A04C     		ldr	r4, .L33+20
ARM GAS  C:\msys64\tmp\cczuWTTA.s 			page 4


 172              	.LVL9:
 173              	.LBE263:
 174              	.LBE267:
 175              	.LBE288:
 176              	.LBE453:
 177              	.LBB454:
 178              	.LBB368:
 179              	.LBB306:
 180              	.LBB307:
 181              		.file 5 "c:\\msys64\\home\\logue-sdk\\platform\\nutekt-digital\\inc\\dsp\\biquad.hpp"
 182              		.loc 5 143 0
 183 0058 83ED095A 		vstr.32	s10, [r3, #36]
 184              	.LBE307:
 185              	.LBE306:
 186              	.LBE368:
 187              	.LBE454:
 188              	.LBB455:
 189              	.LBB289:
 190              	.LBB268:
 191              	.LBB269:
 192              		.loc 4 109 0
 193 005c 9628     		cmp	r0, #150
 194 005e 88BF     		it	hi
 195 0060 9720     		movhi	r0, #151
 196              	.LBE269:
 197              	.LBE268:
 198              	.LBB271:
 199              	.LBB256:
 200              		.loc 2 826 0
 201 0062 F8EEE77A 		vcvt.f32.s32	s15, s15
 202              	.LVL10:
 203              	.LBE256:
 204              	.LBE271:
 205              	.LBB272:
 206              	.LBB264:
 207              		.loc 4 109 0
 208 0066 04EB8505 		add	r5, r4, r5, lsl #2
 209              	.LBE264:
 210              	.LBE272:
 211              	.LBB273:
 212              	.LBB270:
 213 006a 04EB8000 		add	r0, r4, r0, lsl #2
 214              	.LBE270:
 215              	.LBE273:
 216              	.LBB274:
 217              	.LBB265:
 218 006e D5ED005A 		vldr.32	s11, [r5]
 219              	.LVL11:
 220              	.LBE265:
 221              	.LBE274:
 222              	.LBE289:
 223              	.LBE455:
 224              	.LBB456:
 225              	.LBB369:
 226              	.LBB312:
 227              	.LBB308:
 228              		.loc 5 143 0
ARM GAS  C:\msys64\tmp\cczuWTTA.s 			page 5


 229 0072 83ED0B5A 		vstr.32	s10, [r3, #44]
 230              	.LBE308:
 231              	.LBE312:
 232              	.LBE369:
 233              	.LBE456:
 234              	.LBB457:
 235              	.LBB290:
 236              	.LBB275:
 237              	.LBB257:
 238              		.loc 2 826 0
 239 0076 67EE877A 		vmul.f32	s15, s15, s14
 240 007a 90ED007A 		vldr.32	s14, [r0]
 241              	.LBE257:
 242              	.LBE275:
 243              	.LBE290:
 244              	.LBE457:
 245              	.LBB458:
 246              	.LBB370:
 247              	.LBB313:
 248              	.LBB303:
 249              		.loc 4 617 0
 250 007e 9748     		ldr	r0, .L33+24
 251              	.LBE303:
 252              	.LBE313:
 253              	.LBB314:
 254              	.LBB315:
 255              		.loc 5 159 0
 256 0080 83ED105A 		vstr.32	s10, [r3, #64]
 257              	.LBE315:
 258              	.LBE314:
 259              	.LBE370:
 260              	.LBE458:
 261              	.LBB459:
 262              	.LBB291:
 263              	.LBB276:
 264              	.LBB258:
 265              		.loc 2 826 0
 266 0084 37EE657A 		vsub.f32	s14, s14, s11
 267              	.LBE258:
 268              	.LBE276:
 269              	.LBE291:
 270              	.LBE459:
 271              	.LBB460:
 272              	.LBB371:
 273              	.LBB318:
 274              	.LBB316:
 275              		.loc 5 159 0
 276 0088 83ED125A 		vstr.32	s10, [r3, #72]
 277              	.LBE316:
 278              	.LBE318:
 279              	.LBE371:
 280              	.LBE460:
 281              	.LBB461:
 282              	.LBB292:
 283              	.LBB277:
 284              	.LBB259:
 285              		.loc 2 826 0
ARM GAS  C:\msys64\tmp\cczuWTTA.s 			page 6


 286 008c E7EE875A 		vfma.f32	s11, s15, s14
 287              	.LVL12:
 288              	.LBE259:
 289              	.LBE277:
 290              	.LBE292:
 291              	.LBE461:
 292              		.loc 1 51 0
 293 0090 01EB8202 		add	r2, r1, r2, lsl #2
 294              	.LVL13:
 295              	.LBB462:
 296              	.LBB293:
 297              	.LBB278:
 298              	.LBB279:
 299              	.LBB280:
 300              	.LBB281:
 301              		.loc 2 193 0
 302 0094 DFED927A 		vldr.32	s15, .L33+28
 303              	.LBE281:
 304              	.LBE280:
 305              	.LBE279:
 306              	.LBE278:
 307              	.LBE293:
 308              	.LBE462:
 309              	.LBB463:
 310              	.LBB443:
 311              	.LBB421:
 312              	.LBB417:
 313              	.LBB383:
 314              	.LBB384:
 315              	.LBB385:
 316              	.LBB386:
 317              		.loc 4 154 0
 318 0098 9FED929A 		vldr.32	s18, .L33+32
 319              	.LBE386:
 320              	.LBE385:
 321              	.LBE384:
 322              	.LBE383:
 323              	.LBE417:
 324              	.LBE421:
 325              		.loc 1 63 0
 326 009c 9FED928A 		vldr.32	s16, .L33+36
 327              	.LBE443:
 328              	.LBE463:
 329              	.LBB464:
 330              	.LBB294:
 331              	.LBB285:
 332              	.LBB284:
 333              	.LBB283:
 334              	.LBB282:
 335              		.loc 2 193 0
 336 00a0 F4EEE75A 		vcmpe.f32	s11, s15
 337 00a4 F1EE10FA 		vmrs	APSR_nzcv, FPSCR
 338 00a8 A8BF     		it	ge
 339 00aa F0EE675A 		vmovge.f32	s11, s15
 340              	.LVL14:
 341              	.LBE282:
 342              	.LBE283:
ARM GAS  C:\msys64\tmp\cczuWTTA.s 			page 7


 343              	.LBE284:
 344              	.LBE285:
 345              		.loc 4 124 0
 346 00ae DFED8F7A 		vldr.32	s15, .L33+40
 347 00b2 65EEA75A 		vmul.f32	s11, s11, s15
 348              	.LVL15:
 349              	.LBE294:
 350              	.LBE464:
 351              	.LBB465:
 352              	.LBB372:
 353              	.LBB319:
 354              	.LBB320:
 355              	.LBB321:
 356              	.LBB322:
 357              	.LBB323:
 358              		.loc 2 193 0
 359 00b6 DFED8E7A 		vldr.32	s15, .L33+44
 360              	.LBE323:
 361              	.LBE322:
 362              	.LBE321:
 363              	.LBE320:
 364              	.LBE319:
 365              	.LBE372:
 366              	.LBE465:
 367              		.loc 1 39 0
 368 00ba C3ED015A 		vstr.32	s11, [r3, #4]
 369              	.LVL16:
 370              	.LBB466:
 371              	.LBB373:
 372              		.loc 3 69 0
 373 00be 25EE867A 		vmul.f32	s14, s11, s12
 374              	.LVL17:
 375              	.LBE373:
 376              	.LBE466:
 377              	.LBB467:
 378              	.LBB444:
 379              	.LBB422:
 380              	.LBB418:
 381              	.LBB404:
 382              	.LBB401:
 383              		.loc 4 171 0
 384 00c2 F5EE008A 		vmov.f32	s17, #2.5e-1
 385              	.LBE401:
 386              	.LBE404:
 387              	.LBE418:
 388              	.LBE422:
 389              	.LBE444:
 390              	.LBE467:
 391              	.LBB468:
 392              	.LBB374:
 393              	.LBB336:
 394              	.LBB333:
 395              	.LBB330:
 396              	.LBB327:
 397              	.LBB324:
 398              		.loc 2 193 0
 399 00c6 77EE676A 		vsub.f32	s13, s14, s15
ARM GAS  C:\msys64\tmp\cczuWTTA.s 			page 8


 400              	.LVL18:
 401              	.LBE324:
 402              	.LBE327:
 403              	.LBE330:
 404              	.LBE333:
 405              	.LBE336:
 406              	.LBE374:
 407              	.LBE468:
 408              	.LBB469:
 409              	.LBB445:
 410              	.LBB423:
 411              	.LBB424:
 412              	.LBB425:
 413              	.LBB426:
 414              	.LBB427:
 415              	.LBB428:
 416 00ca FFEE009A 		vmov.f32	s19, #-1.0e+0
 417              	.LBE428:
 418              	.LBE427:
 419              	.LBE426:
 420              	.LBE425:
 421              	.LBE424:
 422              	.LBE423:
 423              	.LBE445:
 424              	.LBE469:
 425              	.LBB470:
 426              	.LBB375:
 427              	.LBB337:
 428              	.LBB334:
 429              	.LBB331:
 430              	.LBB328:
 431              	.LBB325:
 432 00ce F5EEC06A 		vcmpe.f32	s13, #0
 433 00d2 F1EE10FA 		vmrs	APSR_nzcv, FPSCR
 434              	.LBE325:
 435              	.LBE328:
 436              	.LBE331:
 437              	.LBE334:
 438              	.LBE337:
 439              		.loc 3 70 0
 440 00d6 F7EE006A 		vmov.f32	s13, #1.0e+0
 441              	.LVL19:
 442              	.LBB338:
 443              	.LBB335:
 444              	.LBB332:
 445              	.LBB329:
 446              	.LBB326:
 447              		.loc 2 193 0
 448 00da B8BF     		it	lt
 449 00dc F0EE477A 		vmovlt.f32	s15, s14
 450              	.LVL20:
 451              	.LBE326:
 452              	.LBE329:
 453              	.LBE332:
 454              	.LBE335:
 455              	.LBE338:
 456              		.loc 3 70 0
ARM GAS  C:\msys64\tmp\cczuWTTA.s 			page 9


 457 00e0 86EE867A 		vdiv.f32	s14, s13, s12
 458              	.LBB339:
 459              	.LBB304:
 460              		.loc 4 615 0
 461 00e4 67EE847A 		vmul.f32	s15, s15, s8
 462              	.LBE304:
 463              	.LBE339:
 464              		.loc 3 70 0
 465 00e8 27EE256A 		vmul.f32	s12, s14, s11
 466              	.LVL21:
 467              	.LBE375:
 468              	.LBE470:
 469              	.LBB471:
 470              	.LBB446:
 471              	.LBB439:
 472              	.LBB437:
 473              	.LBB435:
 474              	.LBB433:
 475              	.LBB431:
 476              	.LBB429:
 477              		.loc 2 193 0
 478 00ec B0EE66AA 		vmov.f32	s20, s13
 479              	.LBE429:
 480              	.LBE431:
 481              	.LBE433:
 482              	.LBE435:
 483              	.LBE437:
 484              	.LBE439:
 485              	.LBE446:
 486              	.LBE471:
 487              	.LBB472:
 488              	.LBB376:
 489              	.LBB340:
 490              	.LBB341:
 491              	.LBB342:
 492              	.LBB343:
 493              	.LBB344:
 494 00f0 35EE467A 		vsub.f32	s14, s10, s12
 495              	.LVL22:
 496 00f4 93ED025A 		vldr.32	s10, [r3, #8]
 497 00f8 B5EEC07A 		vcmpe.f32	s14, #0
 498 00fc 9FED727A 		vldr.32	s14, .L33+4
 499              	.LVL23:
 500 0100 F1EE10FA 		vmrs	APSR_nzcv, FPSCR
 501 0104 B8BF     		it	lt
 502 0106 B0EE467A 		vmovlt.f32	s14, s12
 503              	.LVL24:
 504              	.LBE344:
 505              	.LBE343:
 506              	.LBE342:
 507              	.LBE341:
 508              	.LBE340:
 509              	.LBB345:
 510              	.LBB305:
 511              		.loc 4 616 0
 512 010a BCEEE76A 		vcvt.u32.f32	s12, s15
 513 010e 16EE104A 		vmov	r4, s12	@ int
ARM GAS  C:\msys64\tmp\cczuWTTA.s 			page 10


 514              	.LVL25:
 515              	.LBB299:
 516              	.LBB300:
 517              		.loc 2 826 0
 518 0112 04EE904A 		vmov	s9, r4	@ int
 519 0116 F8EE644A 		vcvt.f32.u32	s9, s9
 520              	.LBE300:
 521              	.LBE299:
 522              		.loc 4 617 0
 523 011a 00EB8405 		add	r5, r0, r4, lsl #2
 524 011e 95ED006A 		vldr.32	s12, [r5]
 525              	.LVL26:
 526              	.LBB302:
 527              	.LBB301:
 528              		.loc 2 826 0
 529 0122 77EEE47A 		vsub.f32	s15, s15, s9
 530              	.LVL27:
 531 0126 D5ED014A 		vldr.32	s9, [r5, #4]
 532 012a 74EEC64A 		vsub.f32	s9, s9, s12
 533 012e A7EEA46A 		vfma.f32	s12, s15, s9
 534              	.LVL28:
 535 0132 D3ED134A 		vldr.32	s9, [r3, #76]
 536              	.LBE301:
 537              	.LBE302:
 538              	.LBE305:
 539              	.LBE345:
 540              	.LBB346:
 541              	.LBB309:
 542              		.loc 5 139 0
 543 0136 76EE267A 		vadd.f32	s15, s12, s13
 544              	.LVL29:
 545              		.loc 5 141 0
 546 013a 86EE273A 		vdiv.f32	s6, s12, s15
 547              		.loc 5 142 0
 548 013e 36EE666A 		vsub.f32	s12, s12, s13
 549              		.loc 5 141 0
 550 0142 83ED083A 		vstr.32	s6, [r3, #32]
 551              		.loc 5 142 0
 552 0146 C6EE271A 		vdiv.f32	s3, s12, s15
 553              	.LBE309:
 554              	.LBE346:
 555              	.LBB347:
 556              	.LBB348:
 557              		.loc 4 615 0
 558 014a 67EE047A 		vmul.f32	s15, s14, s8
 559              	.LVL30:
 560 014e 93ED0C4A 		vldr.32	s8, [r3, #48]
 561              	.LBE348:
 562              	.LBE347:
 563              	.LBB361:
 564              	.LBB310:
 565              		.loc 5 141 0
 566 0152 83ED073A 		vstr.32	s6, [r3, #28]
 567              	.LBE310:
 568              	.LBE361:
 569              	.LBB362:
 570              	.LBB357:
ARM GAS  C:\msys64\tmp\cczuWTTA.s 			page 11


 571              		.loc 4 616 0
 572 0156 BCEEE77A 		vcvt.u32.f32	s14, s15
 573              	.LBE357:
 574              	.LBE362:
 575              	.LBB363:
 576              	.LBB311:
 577              		.loc 5 142 0
 578 015a C3ED0A1A 		vstr.32	s3, [r3, #40]
 579              	.LBE311:
 580              	.LBE363:
 581              	.LBB364:
 582              	.LBB358:
 583              		.loc 4 616 0
 584 015e 17EE104A 		vmov	r4, s14	@ int
 585              	.LVL31:
 586              	.LBB349:
 587              	.LBB350:
 588              		.loc 2 826 0
 589 0162 06EE104A 		vmov	s12, r4	@ int
 590 0166 B8EE466A 		vcvt.f32.u32	s12, s12
 591              	.LBE350:
 592              	.LBE349:
 593              		.loc 4 617 0
 594 016a 00EB8405 		add	r5, r0, r4, lsl #2
 595 016e 95ED007A 		vldr.32	s14, [r5]
 596              	.LVL32:
 597              	.LBB354:
 598              	.LBB351:
 599              		.loc 2 826 0
 600 0172 77EEC67A 		vsub.f32	s15, s15, s12
 601              	.LVL33:
 602 0176 95ED016A 		vldr.32	s12, [r5, #4]
 603              	.LBE351:
 604              	.LBE354:
 605              	.LBE358:
 606              	.LBE364:
 607              	.LBE376:
 608              	.LBE472:
 609              	.LBB473:
 610              	.LBB447:
 611              	.LBB440:
 612              	.LBB419:
 613              	.LBB405:
 614              	.LBB402:
 615              	.LBB399:
 616              	.LBB397:
 617              		.loc 4 160 0
 618 017a 5E4D     		ldr	r5, .L33+48
 619              	.LBE397:
 620              	.LBE399:
 621              	.LBE402:
 622              	.LBE405:
 623              	.LBE419:
 624              	.LBE440:
 625              	.LBE447:
 626              	.LBE473:
 627              	.LBB474:
ARM GAS  C:\msys64\tmp\cczuWTTA.s 			page 12


 628              	.LBB377:
 629              	.LBB365:
 630              	.LBB359:
 631              	.LBB355:
 632              	.LBB352:
 633              		.loc 2 826 0
 634 017c 36EE476A 		vsub.f32	s12, s12, s14
 635 0180 A7EE867A 		vfma.f32	s14, s15, s12
 636              	.LVL34:
 637              	.LBE352:
 638              	.LBE355:
 639              	.LBE359:
 640              	.LBE365:
 641              	.LBE377:
 642              	.LBE474:
 643              		.loc 1 45 0
 644 0184 93ED006A 		vldr.32	s12, [r3]
 645              	.LBB475:
 646              	.LBB378:
 647              	.LBB366:
 648              	.LBB360:
 649              	.LBB356:
 650              	.LBB353:
 651              		.loc 2 826 0
 652 0188 F0EE477A 		vmov.f32	s15, s14
 653              	.LVL35:
 654              	.LBE353:
 655              	.LBE356:
 656              	.LBE360:
 657              	.LBE366:
 658              	.LBB367:
 659              	.LBB317:
 660              		.loc 5 154 0
 661 018c 37EE267A 		vadd.f32	s14, s14, s13
 662              	.LVL36:
 663              		.loc 5 158 0
 664 0190 77EEE67A 		vsub.f32	s15, s15, s13
 665              		.loc 5 156 0
 666 0194 C6EE872A 		vdiv.f32	s5, s13, s14
 667              		.loc 5 158 0
 668 0198 C7EE870A 		vdiv.f32	s1, s15, s14
 669              		.loc 5 157 0
 670 019c B1EE621A 		vneg.f32	s2, s5
 671              		.loc 5 156 0
 672 01a0 C3ED0E2A 		vstr.32	s5, [r3, #56]
 673              		.loc 5 157 0
 674 01a4 83ED0F1A 		vstr.32	s2, [r3, #60]
 675              		.loc 5 158 0
 676 01a8 C3ED110A 		vstr.32	s1, [r3, #68]
 677              	.LVL37:
 678              	.L16:
 679              	.LBE317:
 680              	.LBE367:
 681              	.LBE378:
 682              	.LBE475:
 683              	.LBB476:
 684              		.loc 1 54 0
ARM GAS  C:\msys64\tmp\cczuWTTA.s 			page 13


 685 01ac 9142     		cmp	r1, r2
 686 01ae 7ED0     		beq	.L9
 687              	.LVL38:
 688              	.LBB448:
 689              	.LBB441:
 690              	.LBB420:
 691              		.loc 3 81 0
 692 01b0 B4EEE36A 		vcmpe.f32	s12, s7
 693 01b4 F1EE10FA 		vmrs	APSR_nzcv, FPSCR
 694 01b8 04D5     		bpl	.L30
 695              		.loc 3 82 0
 696 01ba 86EE237A 		vdiv.f32	s14, s12, s7
 697              	.LVL39:
 698              		.loc 3 83 0
 699 01be 22EE077A 		vmul.f32	s14, s4, s14
 700              	.LVL40:
 701 01c2 0DE0     		b	.L12
 702              	.LVL41:
 703              	.L30:
 704              		.loc 3 85 0
 705 01c4 76EE637A 		vsub.f32	s15, s12, s7
 706              		.loc 3 86 0
 707 01c8 76EEE3AA 		vsub.f32	s21, s13, s7
 708 01cc 87EEAA7A 		vdiv.f32	s14, s15, s21
 709              	.LVL42:
 710              		.loc 3 88 0
 711 01d0 76EEC27A 		vsub.f32	s15, s13, s4
 712 01d4 F0EE42AA 		vmov.f32	s21, s4
 713 01d8 E7EE27AA 		vfma.f32	s21, s14, s15
 714 01dc B0EE6A7A 		vmov.f32	s14, s21
 715              	.LVL43:
 716              	.L12:
 717              	.LBB406:
 718              	.LBB403:
 719              		.loc 4 171 0
 720 01e0 37EE287A 		vadd.f32	s14, s14, s17
 721              	.LVL44:
 722              	.LBB400:
 723              	.LBB398:
 724              		.loc 4 154 0
 725 01e4 FCEEC77A 		vcvt.u32.f32	s15, s14
 726 01e8 F8EE677A 		vcvt.f32.u32	s15, s15
 727 01ec 77EE677A 		vsub.f32	s15, s14, s15
 728 01f0 67EE897A 		vmul.f32	s15, s15, s18
 729              	.LVL45:
 730              		.loc 4 155 0
 731 01f4 BCEEE77A 		vcvt.u32.f32	s14, s15
 732              	.LVL46:
 733 01f8 17EE104A 		vmov	r4, s14	@ int
 734              	.LVL47:
 735              		.loc 4 157 0
 736 01fc 04F07F00 		and	r0, r4, #127
 737              	.LVL48:
 738              	.LBB387:
 739              	.LBB388:
 740              		.loc 2 826 0
 741 0200 0AEE904A 		vmov	s21, r4	@ int
ARM GAS  C:\msys64\tmp\cczuWTTA.s 			page 14


 742              	.LBE388:
 743              	.LBE387:
 744              		.loc 4 160 0
 745 0204 05EB8006 		add	r6, r5, r0, lsl #2
 746 0208 0130     		adds	r0, r0, #1
 747              	.LVL49:
 748              	.LBB393:
 749              	.LBB389:
 750              		.loc 2 826 0
 751 020a F8EE6AAA 		vcvt.f32.u32	s21, s21
 752              	.LBE389:
 753              	.LBE393:
 754              		.loc 4 160 0
 755 020e 00F07F00 		and	r0, r0, #127
 756              	.LVL50:
 757 0212 05EB8000 		add	r0, r5, r0, lsl #2
 758              	.LVL51:
 759              	.LBB394:
 760              	.LBB390:
 761              		.loc 2 826 0
 762 0216 77EEEA7A 		vsub.f32	s15, s15, s21
 763              	.LVL52:
 764              	.LBE390:
 765              	.LBE394:
 766              		.loc 4 160 0
 767 021a 96ED007A 		vldr.32	s14, [r6]
 768              	.LVL53:
 769              	.LBB395:
 770              	.LBB391:
 771              		.loc 2 826 0
 772 021e D0ED00AA 		vldr.32	s21, [r0]
 773 0222 7AEEC7AA 		vsub.f32	s21, s21, s14
 774              	.LBE391:
 775              	.LBE395:
 776              		.loc 4 161 0
 777 0226 7F2C     		cmp	r4, #127
 778              	.LBB396:
 779              	.LBB392:
 780              		.loc 2 826 0
 781 0228 A7EEAA7A 		vfma.f32	s14, s15, s21
 782              	.LVL54:
 783 022c F0EE477A 		vmov.f32	s15, s14
 784              	.LVL55:
 785              	.LBE392:
 786              	.LBE396:
 787              		.loc 4 161 0
 788 0230 88BF     		it	hi
 789 0232 F1EE477A 		vneghi.f32	s15, s14
 790              	.LVL56:
 791              	.LBE398:
 792              	.LBE400:
 793              	.LBE403:
 794              	.LBE406:
 795              		.loc 3 91 0
 796 0236 F1EE677A 		vneg.f32	s15, s15
 797              	.LVL57:
 798              	.LBB407:
ARM GAS  C:\msys64\tmp\cczuWTTA.s 			page 15


 799              	.LBB408:
 800              		.loc 5 385 0
 801 023a B0EE447A 		vmov.f32	s14, s8
 802 023e A3EE277A 		vfma.f32	s14, s6, s15
 803              	.LVL58:
 804              		.loc 5 387 0
 805 0242 27EE614A 		vnmul.f32	s8, s14, s3
 806 0246 A3EE274A 		vfma.f32	s8, s6, s15
 807              	.LVL59:
 808              	.LBE408:
 809              	.LBE407:
 810              	.LBB409:
 811              	.LBB410:
 812              		.loc 5 385 0
 813 024a F0EE647A 		vmov.f32	s15, s9
 814 024e E2EE877A 		vfma.f32	s15, s5, s14
 815              	.LVL60:
 816              		.loc 5 387 0
 817 0252 67EEE04A 		vnmul.f32	s9, s15, s1
 818              	.LBE410:
 819              	.LBE409:
 820              	.LBB412:
 821              	.LBB413:
 822              		.loc 2 826 0
 823 0256 77EEC57A 		vsub.f32	s15, s15, s10
 824              	.LVL61:
 825              	.LBE413:
 826              	.LBE412:
 827              	.LBB415:
 828              	.LBB411:
 829              		.loc 5 387 0
 830 025a E1EE074A 		vfma.f32	s9, s2, s14
 831              	.LVL62:
 832              	.LBE411:
 833              	.LBE415:
 834              	.LBB416:
 835              	.LBB414:
 836              		.loc 2 826 0
 837 025e A6EE275A 		vfma.f32	s10, s12, s15
 838              	.LVL63:
 839              	.LBE414:
 840              	.LBE416:
 841              	.LBE420:
 842              	.LBE441:
 843              	.LBB442:
 844              	.LBB438:
 845              	.LBB436:
 846              	.LBB434:
 847              	.LBB432:
 848              	.LBB430:
 849              		.loc 2 193 0
 850 0262 B4EEE95A 		vcmpe.f32	s10, s19
 851 0266 F1EE10FA 		vmrs	APSR_nzcv, FPSCR
 852 026a 09DB     		blt	.L31
 853              	.LVL64:
 854 026c B4EEE65A 		vcmpe.f32	s10, s13
 855 0270 F1EE10FA 		vmrs	APSR_nzcv, FPSCR
ARM GAS  C:\msys64\tmp\cczuWTTA.s 			page 16


 856 0274 B4BF     		ite	lt
 857 0276 F0EE457A 		vmovlt.f32	s15, s10
 858 027a F0EE4A7A 		vmovge.f32	s15, s20
 859 027e 01E0     		b	.L14
 860              	.LVL65:
 861              	.L31:
 862 0280 FFEE007A 		vmov.f32	s15, #-1.0e+0
 863              	.LVL66:
 864              	.L14:
 865              	.LBE430:
 866              	.LBE432:
 867              	.LBE434:
 868              	.LBE436:
 869              	.LBE438:
 870              	.LBE442:
 871              		.loc 1 63 0
 872 0284 27EEA77A 		vmul.f32	s14, s15, s15
 873              		.loc 1 66 0
 874 0288 36EE256A 		vadd.f32	s12, s12, s11
 875              	.LVL67:
 876              		.loc 1 63 0
 877 028c 27EEC77A 		vnmul.f32	s14, s15, s14
 878 0290 E7EE087A 		vfma.f32	s15, s14, s16
 879 0294 67EE807A 		vmul.f32	s15, s15, s0
 880 0298 FDEEE77A 		vcvt.s32.f32	s15, s15
 881 029c E1EC017A 		vstmia.32	r1!, {s15}	@ int
 882              	.LVL68:
 883              		.loc 1 67 0
 884 02a0 FCEEC67A 		vcvt.u32.f32	s15, s12
 885 02a4 F8EE677A 		vcvt.f32.u32	s15, s15
 886 02a8 36EE676A 		vsub.f32	s12, s12, s15
 887              	.LVL69:
 888              	.LBE448:
 889              		.loc 1 54 0
 890 02ac 7EE7     		b	.L16
 891              	.LVL70:
 892              	.L9:
 893              	.LBE476:
 894              		.loc 1 73 0
 895 02ae BDEC068B 		vldm	sp!, {d8-d10}
 896              		.cfi_restore 84
 897              		.cfi_restore 85
 898              		.cfi_restore 82
 899              		.cfi_restore 83
 900              		.cfi_restore 80
 901              		.cfi_restore 81
 902              		.cfi_def_cfa_offset 16
 903 02b2 83ED0C4A 		vstr.32	s8, [r3, #48]
 904 02b6 C3ED134A 		vstr.32	s9, [r3, #76]
 905 02ba 83ED025A 		vstr.32	s10, [r3, #8]
 906              		.loc 1 71 0
 907 02be 83ED006A 		vstr.32	s12, [r3]
 908              		.loc 1 73 0
 909 02c2 70BD     		pop	{r4, r5, r6, pc}
 910              	.L34:
 911              		.align	2
 912              	.L33:
ARM GAS  C:\msys64\tmp\cczuWTTA.s 			page 17


 913 02c4 00000000 		.word	.LANCHOR0
 914 02c8 00000000 		.word	0
 915 02cc 8180803B 		.word	998277249
 916 02d0 BC9C0244 		.word	1141021884
 917 02d4 0000004F 		.word	1325400064
 918 02d8 00000000 		.word	midi_to_hz_lut_f
 919 02dc 00000000 		.word	tanpi_lut_f
 920 02e0 49FFB846 		.word	1186529097
 921 02e4 00008043 		.word	1132462080
 922 02e8 CDCC4C3C 		.word	1011666125
 923 02ec 3EC3AE37 		.word	934200126
 924 02f0 48E1FA3E 		.word	1056629064
 925 02f4 00000000 		.word	wt_sine_lut_f
 926              		.cfi_endproc
 927              	.LFE294:
 928              		.size	_hook_cycle, .-_hook_cycle
 929              		.align	1
 930              		.global	_hook_on
 931              		.thumb
 932              		.thumb_func
 933              		.type	_hook_on, %function
 934              	_hook_on:
 935              	.LFB295:
 936              		.loc 1 75 0
 937              		.cfi_startproc
 938              		@ args = 0, pretend = 0, frame = 0
 939              		@ frame_needed = 0, uses_anonymous_args = 0
 940              		@ link register save eliminated.
 941              	.LVL71:
 942              		.loc 1 78 0
 943 02f8 024A     		ldr	r2, .L36
 944 02fa 137B     		ldrb	r3, [r2, #12]	@ zero_extendqisi2
 945 02fc 43F00103 		orr	r3, r3, #1
 946 0300 1373     		strb	r3, [r2, #12]
 947 0302 7047     		bx	lr
 948              	.L37:
 949              		.align	2
 950              	.L36:
 951 0304 00000000 		.word	.LANCHOR0
 952              		.cfi_endproc
 953              	.LFE295:
 954              		.size	_hook_on, .-_hook_on
 955              		.align	1
 956              		.global	_hook_off
 957              		.thumb
 958              		.thumb_func
 959              		.type	_hook_off, %function
 960              	_hook_off:
 961              	.LFB296:
 962              		.loc 1 81 0
 963              		.cfi_startproc
 964              		@ args = 0, pretend = 0, frame = 0
 965              		@ frame_needed = 0, uses_anonymous_args = 0
 966              		@ link register save eliminated.
 967              	.LVL72:
 968 0308 7047     		bx	lr
 969              		.cfi_endproc
ARM GAS  C:\msys64\tmp\cczuWTTA.s 			page 18


 970              	.LFE296:
 971              		.size	_hook_off, .-_hook_off
 972              		.align	1
 973              		.global	_hook_param
 974              		.thumb
 975              		.thumb_func
 976              		.type	_hook_param, %function
 977              	_hook_param:
 978              	.LFB297:
 979              		.loc 1 86 0
 980              		.cfi_startproc
 981              		@ args = 0, pretend = 0, frame = 0
 982              		@ frame_needed = 0, uses_anonymous_args = 0
 983              		@ link register save eliminated.
 984              	.LVL73:
 985              		.loc 1 90 0
 986 030a 0128     		cmp	r0, #1
 987              		.loc 1 86 0
 988 030c 07EE901A 		vmov	s15, r1	@ int
 989              		.loc 1 90 0
 990 0310 1ED0     		beq	.L41
 991 0312 02D3     		bcc	.L42
 992 0314 0228     		cmp	r0, #2
 993 0316 36D0     		beq	.L43
 994 0318 7047     		bx	lr
 995              	.L42:
 996              		.loc 1 93 0
 997 031a F8EEE77A 		vcvt.f32.s32	s15, s15
 998 031e 9FED1F7A 		vldr.32	s14, .L56
 999 0322 67EE877A 		vmul.f32	s15, s15, s14
 1000              	.LVL74:
 1001              	.LBB477:
 1002              	.LBB478:
 1003              	.LBB479:
 1004              	.LBB480:
 1005              		.loc 2 193 0
 1006 0326 F5EEC07A 		vcmpe.f32	s15, #0
 1007 032a F1EE10FA 		vmrs	APSR_nzcv, FPSCR
 1008 032e 09DB     		blt	.L54
 1009              	.LVL75:
 1010              	.LBE480:
 1011              	.LBE479:
 1012              	.LBB482:
 1013              	.LBB483:
 1014 0330 B7EE007A 		vmov.f32	s14, #1.0e+0
 1015              	.LBE483:
 1016              	.LBE482:
 1017              	.LBB484:
 1018              	.LBB481:
 1019 0334 F4EEC77A 		vcmpe.f32	s15, s14
 1020 0338 F1EE10FA 		vmrs	APSR_nzcv, FPSCR
 1021 033c A8BF     		it	ge
 1022 033e F0EE477A 		vmovge.f32	s15, s14
 1023              	.LVL76:
 1024 0342 01E0     		b	.L44
 1025              	.LVL77:
 1026              	.L54:
ARM GAS  C:\msys64\tmp\cczuWTTA.s 			page 19


 1027 0344 DFED167A 		vldr.32	s15, .L56+4
 1028              	.LVL78:
 1029              	.L44:
 1030              	.LBE481:
 1031              	.LBE484:
 1032              	.LBE478:
 1033              	.LBE477:
 1034              		.loc 1 93 0
 1035 0348 164B     		ldr	r3, .L56+8
 1036 034a C3ED047A 		vstr.32	s15, [r3, #16]
 1037              		.loc 1 94 0
 1038 034e 7047     		bx	lr
 1039              	.L41:
 1040              		.loc 1 98 0
 1041 0350 F8EEE77A 		vcvt.f32.s32	s15, s15
 1042 0354 9FED117A 		vldr.32	s14, .L56
 1043 0358 67EE877A 		vmul.f32	s15, s15, s14
 1044              	.LVL79:
 1045              	.LBB485:
 1046              	.LBB486:
 1047              	.LBB487:
 1048              	.LBB488:
 1049              		.loc 2 193 0
 1050 035c F5EEC07A 		vcmpe.f32	s15, #0
 1051 0360 F1EE10FA 		vmrs	APSR_nzcv, FPSCR
 1052 0364 09DB     		blt	.L55
 1053              	.LVL80:
 1054              	.LBE488:
 1055              	.LBE487:
 1056              	.LBB490:
 1057              	.LBB491:
 1058 0366 B7EE007A 		vmov.f32	s14, #1.0e+0
 1059              	.LBE491:
 1060              	.LBE490:
 1061              	.LBB492:
 1062              	.LBB489:
 1063 036a F4EEC77A 		vcmpe.f32	s15, s14
 1064 036e F1EE10FA 		vmrs	APSR_nzcv, FPSCR
 1065 0372 A8BF     		it	ge
 1066 0374 F0EE477A 		vmovge.f32	s15, s14
 1067              	.LVL81:
 1068 0378 01E0     		b	.L46
 1069              	.LVL82:
 1070              	.L55:
 1071 037a DFED097A 		vldr.32	s15, .L56+4
 1072              	.LVL83:
 1073              	.L46:
 1074              	.LBE489:
 1075              	.LBE492:
 1076              	.LBE486:
 1077              	.LBE485:
 1078              		.loc 1 98 0
 1079 037e 094B     		ldr	r3, .L56+8
 1080 0380 C3ED057A 		vstr.32	s15, [r3, #20]
 1081              		.loc 1 99 0
 1082 0384 7047     		bx	lr
 1083              	.L43:
ARM GAS  C:\msys64\tmp\cczuWTTA.s 			page 20


 1084              		.loc 1 103 0
 1085 0386 F8EEE77A 		vcvt.f32.s32	s15, s15
 1086 038a B7EE007A 		vmov.f32	s14, #1.0e+0
 1087 038e 77EE877A 		vadd.f32	s15, s15, s14
 1088 0392 044B     		ldr	r3, .L56+8
 1089 0394 C3ED067A 		vstr.32	s15, [r3, #24]
 1090 0398 7047     		bx	lr
 1091              	.L57:
 1092 039a 00BF     		.align	2
 1093              	.L56:
 1094 039c 0AD7A33B 		.word	1000593162
 1095 03a0 00000000 		.word	0
 1096 03a4 00000000 		.word	.LANCHOR0
 1097              		.cfi_endproc
 1098              	.LFE297:
 1099              		.size	_hook_param, .-_hook_param
 1100              		.section	.text.startup,"ax",%progbits
 1101              		.align	1
 1102              		.thumb
 1103              		.thumb_func
 1104              		.type	_GLOBAL__sub_I__hook_init, %function
 1105              	_GLOBAL__sub_I__hook_init:
 1106              	.LFB299:
 1107              		.loc 1 123 0
 1108              		.cfi_startproc
 1109              		@ args = 0, pretend = 0, frame = 0
 1110              		@ frame_needed = 0, uses_anonymous_args = 0
 1111              		@ link register save eliminated.
 1112              	.LVL84:
 1113              	.LBB516:
 1114              	.LBB517:
 1115              	.LBB518:
 1116              	.LBB519:
 1117              	.LBB520:
 1118              		.loc 3 46 0
 1119 0000 0F4B     		ldr	r3, .L59
 1120 0002 197B     		ldrb	r1, [r3, #12]	@ zero_extendqisi2
 1121 0004 6FF30001 		bfc	r1, #0, #1
 1122 0008 1973     		strb	r1, [r3, #12]
 1123              	.LVL85:
 1124              	.LBE520:
 1125              	.LBE519:
 1126              	.LBB523:
 1127              	.LBB524:
 1128              		.loc 3 33 0
 1129 000a 4FF07C51 		mov	r1, #1056964608
 1130              	.LBE524:
 1131              	.LBE523:
 1132              	.LBB527:
 1133              	.LBB521:
 1134              		.loc 3 46 0
 1135 000e 0022     		movs	r2, #0
 1136              	.LBE521:
 1137              	.LBE527:
 1138              	.LBB528:
 1139              	.LBB525:
 1140              		.loc 3 33 0
ARM GAS  C:\msys64\tmp\cczuWTTA.s 			page 21


 1141 0010 1961     		str	r1, [r3, #16]	@ float
 1142 0012 5961     		str	r1, [r3, #20]	@ float
 1143 0014 4FF07E51 		mov	r1, #1065353216
 1144              	.LBE525:
 1145              	.LBE528:
 1146              	.LBB529:
 1147              	.LBB522:
 1148              		.loc 3 46 0
 1149 0018 1A60     		str	r2, [r3]	@ float
 1150 001a 5A60     		str	r2, [r3, #4]	@ float
 1151 001c 9A60     		str	r2, [r3, #8]	@ float
 1152              	.LBE522:
 1153              	.LBE529:
 1154              	.LBB530:
 1155              	.LBB526:
 1156              		.loc 3 33 0
 1157 001e 9961     		str	r1, [r3, #24]	@ float
 1158              	.LVL86:
 1159              	.LBE526:
 1160              	.LBE530:
 1161              	.LBB531:
 1162              	.LBB532:
 1163              	.LBB533:
 1164              	.LBB534:
 1165              		.loc 5 77 0
 1166 0020 DA61     		str	r2, [r3, #28]	@ float
 1167 0022 1A62     		str	r2, [r3, #32]	@ float
 1168 0024 5A62     		str	r2, [r3, #36]	@ float
 1169 0026 9A62     		str	r2, [r3, #40]	@ float
 1170 0028 DA62     		str	r2, [r3, #44]	@ float
 1171              	.LVL87:
 1172              	.LBE534:
 1173              	.LBE533:
 1174              		.loc 5 344 0
 1175 002a 1A63     		str	r2, [r3, #48]	@ float
 1176 002c 5A63     		str	r2, [r3, #52]	@ float
 1177              	.LVL88:
 1178              	.LBE532:
 1179              	.LBE531:
 1180              	.LBB535:
 1181              	.LBB536:
 1182              	.LBB537:
 1183              	.LBB538:
 1184              		.loc 5 77 0
 1185 002e 9A63     		str	r2, [r3, #56]	@ float
 1186 0030 DA63     		str	r2, [r3, #60]	@ float
 1187 0032 1A64     		str	r2, [r3, #64]	@ float
 1188 0034 5A64     		str	r2, [r3, #68]	@ float
 1189 0036 9A64     		str	r2, [r3, #72]	@ float
 1190              	.LVL89:
 1191              	.LBE538:
 1192              	.LBE537:
 1193              		.loc 5 344 0
 1194 0038 DA64     		str	r2, [r3, #76]	@ float
 1195 003a 1A65     		str	r2, [r3, #80]	@ float
 1196              	.LVL90:
 1197 003c 7047     		bx	lr
ARM GAS  C:\msys64\tmp\cczuWTTA.s 			page 22


 1198              	.L60:
 1199 003e 00BF     		.align	2
 1200              	.L59:
 1201 0040 00000000 		.word	.LANCHOR0
 1202              	.LBE536:
 1203              	.LBE535:
 1204              	.LBE518:
 1205              	.LBE517:
 1206              	.LBE516:
 1207              		.cfi_endproc
 1208              	.LFE299:
 1209              		.size	_GLOBAL__sub_I__hook_init, .-_GLOBAL__sub_I__hook_init
 1210              		.section	.init_array,"aw",%init_array
 1211              		.align	2
 1212 0000 00000000 		.word	_GLOBAL__sub_I__hook_init(target1)
 1213              		.bss
 1214              		.align	2
 1215              		.set	.LANCHOR0,. + 0
 1216              		.type	_ZL3vps, %object
 1217              		.size	_ZL3vps, 84
 1218              	_ZL3vps:
 1219 0000 00000000 		.space	84
 1219      00000000 
 1219      00000000 
 1219      00000000 
 1219      00000000 
 1220              		.text
 1221              	.Letext0:
 1222              		.file 6 "c:\\msys64\\home\\logue-sdk\\tools\\gcc\\gcc-arm-none-eabi-5_4-2016q3\\arm-none-eabi\\inc
 1223              		.file 7 "c:\\msys64\\home\\logue-sdk\\tools\\gcc\\gcc-arm-none-eabi-5_4-2016q3\\arm-none-eabi\\inc
 1224              		.file 8 "c:\\msys64\\home\\logue-sdk\\platform\\ext\\cmsis\\cmsis\\include\\arm_math.h"
 1225              		.file 9 "C:/msys64/home/logue-sdk/platform/nutekt-digital/inc/userosc.h"
 1226              		.file 10 "C:/msys64/home/logue-sdk/platform/nutekt-digital/inc/userprg.h"
 1227              		.file 11 "C:/msys64/home/logue-sdk/platform/nutekt-digital/inc/utils/int_math.h"