ARM GAS  C:\msys64\tmp\cctsVYwx.s 			page 1


   1              		.syntax unified
   2              		.cpu cortex-m4
   3              		.eabi_attribute 27, 1
   4              		.eabi_attribute 28, 1
   5              		.fpu fpv4-sp-d16
   6              		.eabi_attribute 20, 1
   7              		.eabi_attribute 21, 1
   8              		.eabi_attribute 23, 3
   9              		.eabi_attribute 24, 1
  10              		.eabi_attribute 25, 1
  11              		.eabi_attribute 26, 1
  12              		.eabi_attribute 30, 4
  13              		.eabi_attribute 34, 1
  14              		.eabi_attribute 18, 4
  15              		.thumb
  16              		.syntax unified
  17              		.file	"pd_1.cpp"
  18              		.text
  19              	.Ltext0:
  20              		.cfi_sections	.debug_frame
  21              		.align	1
  22              		.global	_hook_init
  23              		.thumb
  24              		.thumb_func
  25              		.type	_hook_init, %function
  26              	_hook_init:
  27              	.LFB250:
  28              		.file 1 "pd_1.cpp"
  29              		.loc 1 14 0
  30              		.cfi_startproc
  31              		@ args = 0, pretend = 0, frame = 0
  32              		@ frame_needed = 0, uses_anonymous_args = 0
  33              		@ link register save eliminated.
  34              	.LVL0:
  35 0000 7047     		bx	lr
  36              		.cfi_endproc
  37              	.LFE250:
  38              		.size	_hook_init, .-_hook_init
  39              		.align	1
  40              		.global	_hook_cycle
  41              		.thumb
  42              		.thumb_func
  43              		.type	_hook_cycle, %function
  44              	_hook_cycle:
  45              	.LFB251:
  46              		.loc 1 19 0
  47              		.cfi_startproc
  48              		@ args = 0, pretend = 0, frame = 0
  49              		@ frame_needed = 0, uses_anonymous_args = 0
  50              	.LVL1:
  51              		.loc 1 19 0
  52 0002 70B5     		push	{r4, r5, r6, lr}
  53              		.cfi_def_cfa_offset 16
  54              		.cfi_offset 4, -16
  55              		.cfi_offset 5, -12
  56              		.cfi_offset 6, -8
  57              		.cfi_offset 14, -4
ARM GAS  C:\msys64\tmp\cctsVYwx.s 			page 2


  58              		.loc 1 25 0
  59 0004 5B4C     		ldr	r4, .L29
  60              		.loc 1 36 0
  61 0006 8088     		ldrh	r0, [r0, #4]
  62              	.LVL2:
  63              		.loc 1 25 0
  64 0008 237A     		ldrb	r3, [r4, #8]	@ zero_extendqisi2
  65              	.LVL3:
  66              	.LBB205:
  67              	.LBB206:
  68              	.LBB207:
  69              	.LBB208:
  70              		.file 2 "C:/msys64/home/logue-sdk/platform/nutekt-digital/inc/utils/float_math.h"
  71              		.loc 2 826 0
  72 000a 9FED5B7A 		vldr.32	s14, .L29+4
  73 000e D4ED035A 		vldr.32	s11, [r4, #12]
  74              	.LBE208:
  75              	.LBE207:
  76              	.LBE206:
  77              	.LBE205:
  78              	.LBB239:
  79              	.LBB240:
  80              	.LBB241:
  81              	.LBB242:
  82              	.LBB243:
  83              	.LBB244:
  84              	.LBB245:
  85              	.LBB246:
  86              		.file 3 "C:/msys64/home/logue-sdk/platform/nutekt-digital/inc/osc_api.h"
  87              		.loc 3 154 0
  88 0012 9FED5A2A 		vldr.32	s4, .L29+8
  89              	.LBE246:
  90              	.LBE245:
  91              	.LBE244:
  92              	.LBE243:
  93              	.LBE242:
  94              	.LBE241:
  95              		.loc 1 60 0
  96 0016 9FED5A3A 		vldr.32	s6, .L29+12
  97 001a DFED5A3A 		vldr.32	s7, .L29+16
  98              	.LBE240:
  99              	.LBE239:
 100              		.loc 1 28 0
 101 001e 1D46     		mov	r5, r3
 102              		.loc 1 31 0
 103 0020 DB07     		lsls	r3, r3, #31
 104              	.LVL4:
 105              	.LBB292:
 106              	.LBB293:
 107              		.file 4 "pd_1.hpp"
 108              		.loc 4 44 0
 109 0022 44BF     		itt	mi
 110 0024 0023     		movmi	r3, #0
 111 0026 2360     		strmi	r3, [r4]	@ float
 112              	.LBE293:
 113              	.LBE292:
 114              		.loc 1 36 0
ARM GAS  C:\msys64\tmp\cctsVYwx.s 			page 3


 115 0028 0312     		asrs	r3, r0, #8
 116              	.LVL5:
 117              		.loc 1 28 0
 118 002a 6FF30005 		bfc	r5, #0, #1
 119              	.LBB294:
 120              	.LBB233:
 121              	.LBB212:
 122              	.LBB213:
 123              		.loc 3 109 0
 124 002e 962B     		cmp	r3, #150
 125              	.LBE213:
 126              	.LBE212:
 127              	.LBE233:
 128              	.LBE294:
 129              		.loc 1 28 0
 130 0030 2572     		strb	r5, [r4, #8]
 131              		.loc 1 39 0
 132 0032 C0B2     		uxtb	r0, r0
 133              	.LBB295:
 134              	.LBB234:
 135              	.LBB218:
 136              	.LBB214:
 137              		.loc 3 109 0
 138 0034 D8BF     		it	le
 139 0036 1D46     		movle	r5, r3
 140              	.LBE214:
 141              	.LBE218:
 142              		.loc 3 120 0
 143 0038 03F10103 		add	r3, r3, #1
 144              	.LVL6:
 145 003c DBB2     		uxtb	r3, r3
 146              	.LVL7:
 147              	.LBE234:
 148              	.LBE295:
 149              		.loc 1 39 0
 150 003e 07EE900A 		vmov	s15, r0	@ int
 151              	.LVL8:
 152              	.LBB296:
 153              	.LBB235:
 154              	.LBB219:
 155              	.LBB215:
 156              		.loc 3 109 0
 157 0042 C8BF     		it	gt
 158 0044 9725     		movgt	r5, #151
 159              	.LVL9:
 160 0046 5048     		ldr	r0, .L29+20
 161              	.LVL10:
 162              	.LBE215:
 163              	.LBE219:
 164              	.LBE235:
 165              	.LBE296:
 166              		.loc 1 42 0
 167 0048 D4ED006A 		vldr.32	s13, [r4]
 168              	.LBB297:
 169              	.LBB236:
 170              	.LBB220:
 171              	.LBB221:
ARM GAS  C:\msys64\tmp\cctsVYwx.s 			page 4


 172              		.loc 3 109 0
 173 004c 962B     		cmp	r3, #150
 174 004e 88BF     		it	hi
 175 0050 9723     		movhi	r3, #151
 176              	.LBE221:
 177              	.LBE220:
 178              	.LBB223:
 179              	.LBB209:
 180              		.loc 2 826 0
 181 0052 F8EEE77A 		vcvt.f32.s32	s15, s15
 182              	.LVL11:
 183              	.LBE209:
 184              	.LBE223:
 185              	.LBB224:
 186              	.LBB216:
 187              		.loc 3 109 0
 188 0056 00EB8505 		add	r5, r0, r5, lsl #2
 189              	.LBE216:
 190              	.LBE224:
 191              	.LBB225:
 192              	.LBB222:
 193 005a 00EB8303 		add	r3, r0, r3, lsl #2
 194              	.LBE222:
 195              	.LBE225:
 196              	.LBB226:
 197              	.LBB217:
 198 005e 95ED006A 		vldr.32	s12, [r5]
 199              	.LVL12:
 200              	.LBE217:
 201              	.LBE226:
 202              	.LBE236:
 203              	.LBE297:
 204              	.LBB298:
 205              	.LBB289:
 206              	.LBB274:
 207              	.LBB271:
 208              	.LBB262:
 209              	.LBB259:
 210              	.LBB257:
 211              	.LBB255:
 212              		.loc 3 160 0
 213 0062 4A4D     		ldr	r5, .L29+24
 214              	.LBE255:
 215              	.LBE257:
 216              	.LBE259:
 217              	.LBE262:
 218              	.LBE271:
 219              	.LBE274:
 220              	.LBE289:
 221              	.LBE298:
 222              	.LBB299:
 223              	.LBB237:
 224              	.LBB227:
 225              	.LBB210:
 226              		.loc 2 826 0
 227 0064 67EE877A 		vmul.f32	s15, s15, s14
 228 0068 93ED007A 		vldr.32	s14, [r3]
ARM GAS  C:\msys64\tmp\cctsVYwx.s 			page 5


 229 006c 37EE467A 		vsub.f32	s14, s14, s12
 230              	.LBE210:
 231              	.LBE227:
 232              	.LBE237:
 233              	.LBE299:
 234              		.loc 1 48 0
 235 0070 01EB8202 		add	r2, r1, r2, lsl #2
 236              	.LVL13:
 237              	.LBB300:
 238              	.LBB238:
 239              	.LBB228:
 240              	.LBB211:
 241              		.loc 2 826 0
 242 0074 A7EE876A 		vfma.f32	s12, s15, s14
 243              	.LVL14:
 244              	.LBE211:
 245              	.LBE228:
 246              	.LBB229:
 247              	.LBB230:
 248              	.LBB231:
 249              	.LBB232:
 250              		.loc 2 193 0
 251 0078 DFED457A 		vldr.32	s15, .L29+28
 252 007c B4EEE76A 		vcmpe.f32	s12, s15
 253 0080 F1EE10FA 		vmrs	APSR_nzcv, FPSCR
 254 0084 A8BF     		it	ge
 255 0086 B0EE676A 		vmovge.f32	s12, s15
 256              	.LVL15:
 257              	.LBE232:
 258              	.LBE231:
 259              	.LBE230:
 260              	.LBE229:
 261              		.loc 3 124 0
 262 008a DFED427A 		vldr.32	s15, .L29+32
 263 008e 26EE276A 		vmul.f32	s12, s12, s15
 264              	.LVL16:
 265 0092 B6EE004A 		vmov.f32	s8, #5.0e-1
 266              	.LBE238:
 267              	.LBE300:
 268              		.loc 1 39 0
 269 0096 84ED016A 		vstr.32	s12, [r4, #4]
 270              	.LVL17:
 271              	.LBB301:
 272              	.LBB290:
 273              	.LBB275:
 274              	.LBB272:
 275              	.LBB263:
 276              	.LBB264:
 277              		.loc 4 64 0
 278 009a B7EE005A 		vmov.f32	s10, #1.0e+0
 279              	.LBE264:
 280              	.LBE263:
 281              	.LBB268:
 282              	.LBB260:
 283              		.loc 3 171 0
 284 009e F5EE002A 		vmov.f32	s5, #2.5e-1
 285              	.LBE260:
ARM GAS  C:\msys64\tmp\cctsVYwx.s 			page 6


 286              	.LBE268:
 287              	.LBE272:
 288              	.LBE275:
 289              	.LBB276:
 290              	.LBB277:
 291              	.LBB278:
 292              	.LBB279:
 293              	.LBB280:
 294              	.LBB281:
 295              		.loc 2 193 0
 296 00a2 FFEE001A 		vmov.f32	s3, #-1.0e+0
 297              	.LVL18:
 298              	.L14:
 299              	.LBE281:
 300              	.LBE280:
 301              	.LBE279:
 302              	.LBE278:
 303              	.LBE277:
 304              	.LBE276:
 305              	.LBE290:
 306              		.loc 1 51 0
 307 00a6 9142     		cmp	r1, r2
 308 00a8 60D0     		beq	.L7
 309              	.LVL19:
 310              	.LBB291:
 311              	.LBB287:
 312              	.LBB273:
 313              	.LBB269:
 314              		.loc 4 57 0
 315 00aa F4EEE56A 		vcmpe.f32	s13, s11
 316 00ae F1EE10FA 		vmrs	APSR_nzcv, FPSCR
 317              	.LVL20:
 318              	.LBB265:
 319              		.loc 4 64 0
 320 00b2 5BBF     		ittet	pl
 321 00b4 36EEE57A 		vsubpl.f32	s14, s13, s11
 322 00b8 75EE654A 		vsubpl.f32	s9, s10, s11
 323              	.LBE265:
 324              	.LBB266:
 325              		.loc 4 59 0
 326 00bc C6EEA57A 		vdivmi.f32	s15, s13, s11
 327              	.LVL21:
 328              	.LBE266:
 329              	.LBB267:
 330              		.loc 4 64 0
 331 00c0 C7EE247A 		vdivpl.f32	s15, s14, s9
 332 00c4 58BF     		it	pl
 333 00c6 77EE857A 		vaddpl.f32	s15, s15, s10
 334 00ca 67EE847A 		vmul.f32	s15, s15, s8
 335              	.LVL22:
 336              	.LBE267:
 337              	.LBE269:
 338              	.LBB270:
 339              	.LBB261:
 340              		.loc 3 171 0
 341 00ce 77EEA27A 		vadd.f32	s15, s15, s5
 342              	.LVL23:
ARM GAS  C:\msys64\tmp\cctsVYwx.s 			page 7


 343              	.LBB258:
 344              	.LBB256:
 345              		.loc 3 154 0
 346 00d2 BCEEE77A 		vcvt.u32.f32	s14, s15
 347 00d6 B8EE477A 		vcvt.f32.u32	s14, s14
 348 00da 37EEC77A 		vsub.f32	s14, s15, s14
 349 00de 27EE027A 		vmul.f32	s14, s14, s4
 350              	.LVL24:
 351              		.loc 3 155 0
 352 00e2 FCEEC77A 		vcvt.u32.f32	s15, s14
 353              	.LVL25:
 354 00e6 17EE900A 		vmov	r0, s15	@ int
 355              	.LVL26:
 356              		.loc 3 157 0
 357 00ea 00F07F03 		and	r3, r0, #127
 358              	.LVL27:
 359              	.LBB247:
 360              	.LBB248:
 361              		.loc 2 826 0
 362 00ee 04EE900A 		vmov	s9, r0	@ int
 363              	.LBE248:
 364              	.LBE247:
 365              		.loc 3 160 0
 366 00f2 05EB8306 		add	r6, r5, r3, lsl #2
 367 00f6 0133     		adds	r3, r3, #1
 368              	.LVL28:
 369              	.LBB252:
 370              	.LBB249:
 371              		.loc 2 826 0
 372 00f8 F8EE644A 		vcvt.f32.u32	s9, s9
 373              	.LBE249:
 374              	.LBE252:
 375              		.loc 3 160 0
 376 00fc 03F07F03 		and	r3, r3, #127
 377              	.LVL29:
 378 0100 05EB8303 		add	r3, r5, r3, lsl #2
 379              	.LVL30:
 380 0104 D6ED007A 		vldr.32	s15, [r6]
 381              	.LVL31:
 382              	.LBB253:
 383              	.LBB250:
 384              		.loc 2 826 0
 385 0108 37EE647A 		vsub.f32	s14, s14, s9
 386              	.LVL32:
 387 010c D3ED004A 		vldr.32	s9, [r3]
 388 0110 74EEE74A 		vsub.f32	s9, s9, s15
 389              	.LBE250:
 390              	.LBE253:
 391              		.loc 3 161 0
 392 0114 7F28     		cmp	r0, #127
 393              	.LBB254:
 394              	.LBB251:
 395              		.loc 2 826 0
 396 0116 E7EE247A 		vfma.f32	s15, s14, s9
 397              	.LVL33:
 398              	.LBE251:
 399              	.LBE254:
ARM GAS  C:\msys64\tmp\cctsVYwx.s 			page 8


 400              		.loc 3 161 0
 401 011a 88BF     		it	hi
 402 011c F1EE677A 		vneghi.f32	s15, s15
 403              	.LVL34:
 404              	.LBE256:
 405              	.LBE258:
 406              	.LBE261:
 407              	.LBE270:
 408              		.loc 4 67 0
 409 0120 F1EE677A 		vneg.f32	s15, s15
 410              	.LVL35:
 411              	.LBE273:
 412              	.LBE287:
 413              	.LBB288:
 414              	.LBB286:
 415              	.LBB285:
 416              	.LBB284:
 417              	.LBB283:
 418              	.LBB282:
 419              		.loc 2 193 0
 420 0124 F4EEE17A 		vcmpe.f32	s15, s3
 421 0128 F1EE10FA 		vmrs	APSR_nzcv, FPSCR
 422 012c 07DB     		blt	.L27
 423              	.LVL36:
 424 012e F4EEC57A 		vcmpe.f32	s15, s10
 425 0132 F1EE10FA 		vmrs	APSR_nzcv, FPSCR
 426 0136 A8BF     		it	ge
 427 0138 F0EE457A 		vmovge.f32	s15, s10
 428              	.LVL37:
 429 013c 01E0     		b	.L12
 430              	.LVL38:
 431              	.L27:
 432 013e FFEE007A 		vmov.f32	s15, #-1.0e+0
 433              	.LVL39:
 434              	.L12:
 435              	.LBE282:
 436              	.LBE283:
 437              	.LBE284:
 438              	.LBE285:
 439              	.LBE286:
 440              	.LBE288:
 441              		.loc 1 60 0
 442 0142 27EEA77A 		vmul.f32	s14, s15, s15
 443              		.loc 1 63 0
 444 0146 76EE866A 		vadd.f32	s13, s13, s12
 445              	.LVL40:
 446              		.loc 1 60 0
 447 014a 27EEC77A 		vnmul.f32	s14, s15, s14
 448 014e E7EE037A 		vfma.f32	s15, s14, s6
 449 0152 67EEA37A 		vmul.f32	s15, s15, s7
 450 0156 FDEEE77A 		vcvt.s32.f32	s15, s15
 451 015a E1EC017A 		vstmia.32	r1!, {s15}	@ int
 452              	.LVL41:
 453              		.loc 1 64 0
 454 015e FCEEE67A 		vcvt.u32.f32	s15, s13
 455 0162 F8EE677A 		vcvt.f32.u32	s15, s15
 456 0166 76EEE76A 		vsub.f32	s13, s13, s15
ARM GAS  C:\msys64\tmp\cctsVYwx.s 			page 9


 457              	.LVL42:
 458              	.LBE291:
 459              		.loc 1 51 0
 460 016a 9CE7     		b	.L14
 461              	.LVL43:
 462              	.L7:
 463              	.LBE301:
 464              		.loc 1 68 0
 465 016c C4ED006A 		vstr.32	s13, [r4]
 466 0170 70BD     		pop	{r4, r5, r6, pc}
 467              	.L30:
 468 0172 00BF     		.align	2
 469              	.L29:
 470 0174 00000000 		.word	.LANCHOR0
 471 0178 8180803B 		.word	998277249
 472 017c 00008043 		.word	1132462080
 473 0180 CDCC4C3D 		.word	1028443341
 474 0184 0000004F 		.word	1325400064
 475 0188 00000000 		.word	midi_to_hz_lut_f
 476 018c 00000000 		.word	wt_sine_lut_f
 477 0190 49FFB846 		.word	1186529097
 478 0194 3EC3AE37 		.word	934200126
 479              		.cfi_endproc
 480              	.LFE251:
 481              		.size	_hook_cycle, .-_hook_cycle
 482              		.align	1
 483              		.global	_hook_on
 484              		.thumb
 485              		.thumb_func
 486              		.type	_hook_on, %function
 487              	_hook_on:
 488              	.LFB252:
 489              		.loc 1 71 0
 490              		.cfi_startproc
 491              		@ args = 0, pretend = 0, frame = 0
 492              		@ frame_needed = 0, uses_anonymous_args = 0
 493              		@ link register save eliminated.
 494              	.LVL44:
 495              		.loc 1 73 0
 496 0198 024A     		ldr	r2, .L32
 497 019a 137A     		ldrb	r3, [r2, #8]	@ zero_extendqisi2
 498 019c 43F00103 		orr	r3, r3, #1
 499 01a0 1372     		strb	r3, [r2, #8]
 500 01a2 7047     		bx	lr
 501              	.L33:
 502              		.align	2
 503              	.L32:
 504 01a4 00000000 		.word	.LANCHOR0
 505              		.cfi_endproc
 506              	.LFE252:
 507              		.size	_hook_on, .-_hook_on
 508              		.align	1
 509              		.global	_hook_off
 510              		.thumb
 511              		.thumb_func
 512              		.type	_hook_off, %function
 513              	_hook_off:
ARM GAS  C:\msys64\tmp\cctsVYwx.s 			page 10


 514              	.LFB253:
 515              		.loc 1 76 0
 516              		.cfi_startproc
 517              		@ args = 0, pretend = 0, frame = 0
 518              		@ frame_needed = 0, uses_anonymous_args = 0
 519              		@ link register save eliminated.
 520              	.LVL45:
 521 01a8 7047     		bx	lr
 522              		.cfi_endproc
 523              	.LFE253:
 524              		.size	_hook_off, .-_hook_off
 525              		.align	1
 526              		.global	_hook_param
 527              		.thumb
 528              		.thumb_func
 529              		.type	_hook_param, %function
 530              	_hook_param:
 531              	.LFB254:
 532              		.loc 1 81 0
 533              		.cfi_startproc
 534              		@ args = 0, pretend = 0, frame = 0
 535              		@ frame_needed = 0, uses_anonymous_args = 0
 536              		@ link register save eliminated.
 537              	.LVL46:
 538              		.loc 1 81 0
 539 01aa 07EE901A 		vmov	s15, r1	@ int
 540              		.loc 1 86 0
 541 01ae C8B9     		cbnz	r0, .L35
 542              		.loc 1 90 0
 543 01b0 F8EEE77A 		vcvt.f32.s32	s15, s15
 544 01b4 9FED0C7A 		vldr.32	s14, .L44
 545 01b8 67EE877A 		vmul.f32	s15, s15, s14
 546              	.LVL47:
 547              	.LBB302:
 548              	.LBB303:
 549              	.LBB304:
 550              	.LBB305:
 551              		.loc 2 193 0
 552 01bc F5EEC07A 		vcmpe.f32	s15, #0
 553 01c0 F1EE10FA 		vmrs	APSR_nzcv, FPSCR
 554 01c4 09DB     		blt	.L43
 555              	.LVL48:
 556              	.LBE305:
 557              	.LBE304:
 558              	.LBB307:
 559              	.LBB308:
 560 01c6 B7EE007A 		vmov.f32	s14, #1.0e+0
 561              	.LBE308:
 562              	.LBE307:
 563              	.LBB309:
 564              	.LBB306:
 565 01ca F4EEC77A 		vcmpe.f32	s15, s14
 566 01ce F1EE10FA 		vmrs	APSR_nzcv, FPSCR
 567 01d2 A8BF     		it	ge
 568 01d4 F0EE477A 		vmovge.f32	s15, s14
 569              	.LVL49:
 570 01d8 01E0     		b	.L38
ARM GAS  C:\msys64\tmp\cctsVYwx.s 			page 11


 571              	.LVL50:
 572              	.L43:
 573 01da DFED047A 		vldr.32	s15, .L44+4
 574              	.LVL51:
 575              	.L38:
 576              	.LBE306:
 577              	.LBE309:
 578              	.LBE303:
 579              	.LBE302:
 580              		.loc 1 90 0
 581 01de 044B     		ldr	r3, .L44+8
 582 01e0 C3ED037A 		vstr.32	s15, [r3, #12]
 583              	.L35:
 584 01e4 7047     		bx	lr
 585              	.L45:
 586 01e6 00BF     		.align	2
 587              	.L44:
 588 01e8 0AD7233C 		.word	1008981770
 589 01ec 00000000 		.word	0
 590 01f0 00000000 		.word	.LANCHOR0
 591              		.cfi_endproc
 592              	.LFE254:
 593              		.size	_hook_param, .-_hook_param
 594              		.section	.text.startup,"ax",%progbits
 595              		.align	1
 596              		.thumb
 597              		.thumb_func
 598              		.type	_GLOBAL__sub_I__hook_init, %function
 599              	_GLOBAL__sub_I__hook_init:
 600              	.LFB256:
 601              		.loc 1 116 0
 602              		.cfi_startproc
 603              		@ args = 0, pretend = 0, frame = 0
 604              		@ frame_needed = 0, uses_anonymous_args = 0
 605              		@ link register save eliminated.
 606              	.LVL52:
 607              	.LBB319:
 608              	.LBB320:
 609              	.LBB321:
 610              	.LBB322:
 611              	.LBB323:
 612              		.loc 4 38 0
 613 0000 054B     		ldr	r3, .L47
 614 0002 0022     		movs	r2, #0
 615 0004 1A60     		str	r2, [r3]	@ float
 616 0006 5A60     		str	r2, [r3, #4]	@ float
 617 0008 1A7A     		ldrb	r2, [r3, #8]	@ zero_extendqisi2
 618 000a 6FF30002 		bfc	r2, #0, #1
 619 000e 1A72     		strb	r2, [r3, #8]
 620              	.LVL53:
 621              	.LBE323:
 622              	.LBE322:
 623              	.LBB324:
 624              	.LBB325:
 625              		.loc 4 27 0
 626 0010 4FF07C52 		mov	r2, #1056964608
 627 0014 DA60     		str	r2, [r3, #12]	@ float
ARM GAS  C:\msys64\tmp\cctsVYwx.s 			page 12


 628              	.LVL54:
 629 0016 7047     		bx	lr
 630              	.L48:
 631              		.align	2
 632              	.L47:
 633 0018 00000000 		.word	.LANCHOR0
 634              	.LBE325:
 635              	.LBE324:
 636              	.LBE321:
 637              	.LBE320:
 638              	.LBE319:
 639              		.cfi_endproc
 640              	.LFE256:
 641              		.size	_GLOBAL__sub_I__hook_init, .-_GLOBAL__sub_I__hook_init
 642              		.section	.init_array,"aw",%init_array
 643              		.align	2
 644 0000 00000000 		.word	_GLOBAL__sub_I__hook_init(target1)
 645              		.bss
 646              		.align	2
 647              		.set	.LANCHOR0,. + 0
 648              		.type	_ZL2pd, %object
 649              		.size	_ZL2pd, 16
 650              	_ZL2pd:
 651 0000 00000000 		.space	16
 651      00000000 
 651      00000000 
 651      00000000 
 652              		.text
 653              	.Letext0:
 654              		.file 5 "c:\\msys64\\home\\logue-sdk\\tools\\gcc\\gcc-arm-none-eabi-5_4-2016q3\\arm-none-eabi\\inc
 655              		.file 6 "c:\\msys64\\home\\logue-sdk\\tools\\gcc\\gcc-arm-none-eabi-5_4-2016q3\\arm-none-eabi\\inc
 656              		.file 7 "c:\\msys64\\home\\logue-sdk\\platform\\ext\\cmsis\\cmsis\\include\\arm_math.h"
 657              		.file 8 "C:/msys64/home/logue-sdk/platform/nutekt-digital/inc/userosc.h"
 658              		.file 9 "C:/msys64/home/logue-sdk/platform/nutekt-digital/inc/userprg.h"
 659              		.file 10 "C:/msys64/home/logue-sdk/platform/nutekt-digital/inc/utils/int_math.h"
 660              		.section	.debug_info,"",%progbits
 661              	.Ldebug_info0:
 662 0000 CF0C0000 		.4byte	0xccf
 663 0004 0400     		.2byte	0x4
 664 0006 00000000 		.4byte	.Ldebug_abbrev0
 665 000a 04       		.byte	0x4
 666 000b 01       		.uleb128 0x1
 667 000c 26000000 		.4byte	.LASF98
 668 0010 04       		.byte	0x4
 669 0011 72040000 		.4byte	.LASF99
 670 0015 78020000 		.4byte	.LASF100
 671 0019 08020000 		.4byte	.Ldebug_ranges0+0x208
 672 001d 00000000 		.4byte	0
 673 0021 00000000 		.4byte	.Ldebug_line0
 674 0025 02       		.uleb128 0x2
 675 0026 04       		.byte	0x4
 676 0027 04       		.byte	0x4
 677 0028 F6020000 		.4byte	.LASF0
 678 002c 02       		.uleb128 0x2
 679 002d 04       		.byte	0x4
 680 002e 07       		.byte	0x7
 681 002f 3E010000 		.4byte	.LASF1
ARM GAS  C:\msys64\tmp\cctsVYwx.s 			page 13


 682 0033 03       		.uleb128 0x3
 683 0034 04       		.byte	0x4
 684 0035 05       		.byte	0x5
 685 0036 696E7400 		.ascii	"int\000"
 686 003a 02       		.uleb128 0x2
 687 003b 01       		.byte	0x1
 688 003c 06       		.byte	0x6
 689 003d 9A060000 		.4byte	.LASF2
 690 0041 04       		.uleb128 0x4
 691 0042 CC050000 		.4byte	.LASF5
 692 0046 05       		.byte	0x5
 693 0047 1D       		.byte	0x1d
 694 0048 4C000000 		.4byte	0x4c
 695 004c 02       		.uleb128 0x2
 696 004d 01       		.byte	0x1
 697 004e 08       		.byte	0x8
 698 004f 4B060000 		.4byte	.LASF3
 699 0053 02       		.uleb128 0x2
 700 0054 02       		.byte	0x2
 701 0055 05       		.byte	0x5
 702 0056 30050000 		.4byte	.LASF4
 703 005a 04       		.uleb128 0x4
 704 005b 46030000 		.4byte	.LASF6
 705 005f 05       		.byte	0x5
 706 0060 2B       		.byte	0x2b
 707 0061 65000000 		.4byte	0x65
 708 0065 02       		.uleb128 0x2
 709 0066 02       		.byte	0x2
 710 0067 07       		.byte	0x7
 711 0068 A6060000 		.4byte	.LASF7
 712 006c 04       		.uleb128 0x4
 713 006d 61010000 		.4byte	.LASF8
 714 0071 05       		.byte	0x5
 715 0072 3F       		.byte	0x3f
 716 0073 77000000 		.4byte	0x77
 717 0077 02       		.uleb128 0x2
 718 0078 04       		.byte	0x4
 719 0079 05       		.byte	0x5
 720 007a 66050000 		.4byte	.LASF9
 721 007e 04       		.uleb128 0x4
 722 007f 59060000 		.4byte	.LASF10
 723 0083 05       		.byte	0x5
 724 0084 41       		.byte	0x41
 725 0085 89000000 		.4byte	0x89
 726 0089 02       		.uleb128 0x2
 727 008a 04       		.byte	0x4
 728 008b 07       		.byte	0x7
 729 008c 1B060000 		.4byte	.LASF11
 730 0090 02       		.uleb128 0x2
 731 0091 08       		.byte	0x8
 732 0092 05       		.byte	0x5
 733 0093 20040000 		.4byte	.LASF12
 734 0097 02       		.uleb128 0x2
 735 0098 08       		.byte	0x8
 736 0099 07       		.byte	0x7
 737 009a 16030000 		.4byte	.LASF13
 738 009e 04       		.uleb128 0x4
ARM GAS  C:\msys64\tmp\cctsVYwx.s 			page 14


 739 009f D1030000 		.4byte	.LASF14
 740 00a3 06       		.byte	0x6
 741 00a4 18       		.byte	0x18
 742 00a5 41000000 		.4byte	0x41
 743 00a9 04       		.uleb128 0x4
 744 00aa CA040000 		.4byte	.LASF15
 745 00ae 06       		.byte	0x6
 746 00af 24       		.byte	0x24
 747 00b0 5A000000 		.4byte	0x5a
 748 00b4 04       		.uleb128 0x4
 749 00b5 3B060000 		.4byte	.LASF16
 750 00b9 06       		.byte	0x6
 751 00ba 2C       		.byte	0x2c
 752 00bb 6C000000 		.4byte	0x6c
 753 00bf 04       		.uleb128 0x4
 754 00c0 6F020000 		.4byte	.LASF17
 755 00c4 06       		.byte	0x6
 756 00c5 30       		.byte	0x30
 757 00c6 7E000000 		.4byte	0x7e
 758 00ca 02       		.uleb128 0x2
 759 00cb 08       		.byte	0x8
 760 00cc 04       		.byte	0x4
 761 00cd BE040000 		.4byte	.LASF18
 762 00d1 05       		.uleb128 0x5
 763 00d2 82060000 		.4byte	.LASF101
 764 00d6 02       		.uleb128 0x2
 765 00d7 04       		.byte	0x4
 766 00d8 07       		.byte	0x7
 767 00d9 12060000 		.4byte	.LASF19
 768 00dd 02       		.uleb128 0x2
 769 00de 01       		.byte	0x1
 770 00df 08       		.byte	0x8
 771 00e0 A4030000 		.4byte	.LASF20
 772 00e4 02       		.uleb128 0x2
 773 00e5 08       		.byte	0x8
 774 00e6 04       		.byte	0x4
 775 00e7 DB060000 		.4byte	.LASF21
 776 00eb 06       		.uleb128 0x6
 777 00ec F2050000 		.4byte	.LASF22
 778 00f0 07       		.byte	0x7
 779 00f1 8D01     		.2byte	0x18d
 780 00f3 B4000000 		.4byte	0xb4
 781 00f7 07       		.uleb128 0x7
 782 00f8 04       		.byte	0x4
 783 00f9 EB000000 		.4byte	0xeb
 784 00fd 07       		.uleb128 0x7
 785 00fe 04       		.byte	0x4
 786 00ff 03010000 		.4byte	0x103
 787 0103 08       		.uleb128 0x8
 788 0104 EB000000 		.4byte	0xeb
 789 0108 07       		.uleb128 0x7
 790 0109 04       		.byte	0x4
 791 010a B4000000 		.4byte	0xb4
 792 010e 09       		.uleb128 0x9
 793 010f 01       		.byte	0x1
 794 0110 4C000000 		.4byte	0x4c
 795 0114 09       		.byte	0x9
ARM GAS  C:\msys64\tmp\cctsVYwx.s 			page 15


 796 0115 35       		.byte	0x35
 797 0116 3F010000 		.4byte	0x13f
 798 011a 0A       		.uleb128 0xa
 799 011b 6D060000 		.4byte	.LASF23
 800 011f 00       		.byte	0
 801 0120 0A       		.uleb128 0xa
 802 0121 6F050000 		.4byte	.LASF24
 803 0125 01       		.byte	0x1
 804 0126 0A       		.uleb128 0xa
 805 0127 02030000 		.4byte	.LASF25
 806 012b 02       		.byte	0x2
 807 012c 0A       		.uleb128 0xa
 808 012d 7E030000 		.4byte	.LASF26
 809 0131 03       		.byte	0x3
 810 0132 0A       		.uleb128 0xa
 811 0133 A2040000 		.4byte	.LASF27
 812 0137 04       		.byte	0x4
 813 0138 0A       		.uleb128 0xa
 814 0139 54040000 		.4byte	.LASF28
 815 013d 05       		.byte	0x5
 816 013e 00       		.byte	0
 817 013f 0B       		.uleb128 0xb
 818 0140 5A030000 		.4byte	.LASF45
 819 0144 10       		.byte	0x10
 820 0145 08       		.byte	0x8
 821 0146 3C       		.byte	0x3c
 822 0147 88010000 		.4byte	0x188
 823 014b 0C       		.uleb128 0xc
 824 014c E2060000 		.4byte	.LASF29
 825 0150 08       		.byte	0x8
 826 0151 3E       		.byte	0x3e
 827 0152 B4000000 		.4byte	0xb4
 828 0156 00       		.byte	0
 829 0157 0C       		.uleb128 0xc
 830 0158 74010000 		.4byte	.LASF30
 831 015c 08       		.byte	0x8
 832 015d 40       		.byte	0x40
 833 015e A9000000 		.4byte	0xa9
 834 0162 04       		.byte	0x4
 835 0163 0C       		.uleb128 0xc
 836 0164 9D030000 		.4byte	.LASF31
 837 0168 08       		.byte	0x8
 838 0169 42       		.byte	0x42
 839 016a A9000000 		.4byte	0xa9
 840 016e 06       		.byte	0x6
 841 016f 0C       		.uleb128 0xc
 842 0170 4A040000 		.4byte	.LASF32
 843 0174 08       		.byte	0x8
 844 0175 44       		.byte	0x44
 845 0176 A9000000 		.4byte	0xa9
 846 017a 08       		.byte	0x8
 847 017b 0C       		.uleb128 0xc
 848 017c B6050000 		.4byte	.LASF33
 849 0180 08       		.byte	0x8
 850 0181 45       		.byte	0x45
 851 0182 88010000 		.4byte	0x188
 852 0186 0A       		.byte	0xa
ARM GAS  C:\msys64\tmp\cctsVYwx.s 			page 16


 853 0187 00       		.byte	0
 854 0188 0D       		.uleb128 0xd
 855 0189 A9000000 		.4byte	0xa9
 856 018d 98010000 		.4byte	0x198
 857 0191 0E       		.uleb128 0xe
 858 0192 D6000000 		.4byte	0xd6
 859 0196 02       		.byte	0x2
 860 0197 00       		.byte	0
 861 0198 04       		.uleb128 0x4
 862 0199 CA060000 		.4byte	.LASF34
 863 019d 08       		.byte	0x8
 864 019e 46       		.byte	0x46
 865 019f 3F010000 		.4byte	0x13f
 866 01a3 0F       		.uleb128 0xf
 867 01a4 01       		.byte	0x1
 868 01a5 4C000000 		.4byte	0x4c
 869 01a9 08       		.byte	0x8
 870 01aa 4B       		.byte	0x4b
 871 01ab 9A050000 		.4byte	.LASF102
 872 01af EA010000 		.4byte	0x1ea
 873 01b3 0A       		.uleb128 0xa
 874 01b4 94010000 		.4byte	.LASF35
 875 01b8 00       		.byte	0
 876 01b9 0A       		.uleb128 0xa
 877 01ba A9010000 		.4byte	.LASF36
 878 01be 01       		.byte	0x1
 879 01bf 0A       		.uleb128 0xa
 880 01c0 BE010000 		.4byte	.LASF37
 881 01c4 02       		.byte	0x2
 882 01c5 0A       		.uleb128 0xa
 883 01c6 D3010000 		.4byte	.LASF38
 884 01ca 03       		.byte	0x3
 885 01cb 0A       		.uleb128 0xa
 886 01cc E8010000 		.4byte	.LASF39
 887 01d0 04       		.byte	0x4
 888 01d1 0A       		.uleb128 0xa
 889 01d2 FD010000 		.4byte	.LASF40
 890 01d6 05       		.byte	0x5
 891 01d7 0A       		.uleb128 0xa
 892 01d8 83050000 		.4byte	.LASF41
 893 01dc 06       		.byte	0x6
 894 01dd 0A       		.uleb128 0xa
 895 01de 09050000 		.4byte	.LASF42
 896 01e2 07       		.byte	0x7
 897 01e3 0A       		.uleb128 0xa
 898 01e4 27020000 		.4byte	.LASF43
 899 01e8 08       		.byte	0x8
 900 01e9 00       		.byte	0
 901 01ea 04       		.uleb128 0x4
 902 01eb 7A010000 		.4byte	.LASF44
 903 01ef 08       		.byte	0x8
 904 01f0 5D       		.byte	0x5d
 905 01f1 A3010000 		.4byte	0x1a3
 906 01f5 07       		.uleb128 0x7
 907 01f6 04       		.byte	0x4
 908 01f7 FB010000 		.4byte	0x1fb
 909 01fb 08       		.uleb128 0x8
ARM GAS  C:\msys64\tmp\cctsVYwx.s 			page 17


 910 01fc 98010000 		.4byte	0x198
 911 0200 10       		.uleb128 0x10
 912 0201 504400   		.ascii	"PD\000"
 913 0204 10       		.byte	0x10
 914 0205 04       		.byte	0x4
 915 0206 10       		.byte	0x10
 916 0207 0C030000 		.4byte	0x30c
 917 020b 09       		.uleb128 0x9
 918 020c 01       		.byte	0x1
 919 020d 4C000000 		.4byte	0x4c
 920 0211 04       		.byte	0x4
 921 0212 12       		.byte	0x12
 922 0213 24020000 		.4byte	0x224
 923 0217 0A       		.uleb128 0xa
 924 0218 D9030000 		.4byte	.LASF46
 925 021c 00       		.byte	0
 926 021d 0A       		.uleb128 0xa
 927 021e 3F040000 		.4byte	.LASF47
 928 0222 01       		.byte	0x1
 929 0223 00       		.byte	0
 930 0224 0B       		.uleb128 0xb
 931 0225 D8040000 		.4byte	.LASF48
 932 0229 04       		.byte	0x4
 933 022a 04       		.byte	0x4
 934 022b 17       		.byte	0x17
 935 022c 54020000 		.4byte	0x254
 936 0230 11       		.uleb128 0x11
 937 0231 6400     		.ascii	"d\000"
 938 0233 04       		.byte	0x4
 939 0234 18       		.byte	0x18
 940 0235 25000000 		.4byte	0x25
 941 0239 00       		.byte	0
 942 023a 12       		.uleb128 0x12
 943 023b D8040000 		.4byte	.LASF48
 944 023f 04       		.byte	0x4
 945 0240 1A       		.byte	0x1a
 946 0241 FA030000 		.4byte	.LASF53
 947 0245 0C030000 		.4byte	0x30c
 948 0249 4D020000 		.4byte	0x24d
 949 024d 13       		.uleb128 0x13
 950 024e 0C030000 		.4byte	0x30c
 951 0252 00       		.byte	0
 952 0253 00       		.byte	0
 953 0254 0B       		.uleb128 0xb
 954 0255 8E010000 		.4byte	.LASF49
 955 0259 0C       		.byte	0xc
 956 025a 04       		.byte	0x4
 957 025b 1F       		.byte	0x1f
 958 025c B9020000 		.4byte	0x2b9
 959 0260 11       		.uleb128 0x11
 960 0261 70686900 		.ascii	"phi\000"
 961 0265 04       		.byte	0x4
 962 0266 20       		.byte	0x20
 963 0267 25000000 		.4byte	0x25
 964 026b 00       		.byte	0
 965 026c 11       		.uleb128 0x11
 966 026d 773000   		.ascii	"w0\000"
ARM GAS  C:\msys64\tmp\cctsVYwx.s 			page 18


 967 0270 04       		.byte	0x4
 968 0271 21       		.byte	0x21
 969 0272 25000000 		.4byte	0x25
 970 0276 04       		.byte	0x4
 971 0277 14       		.uleb128 0x14
 972 0278 20000000 		.4byte	.LASF79
 973 027c 04       		.byte	0x4
 974 027d 22       		.byte	0x22
 975 027e BF000000 		.4byte	0xbf
 976 0282 04       		.byte	0x4
 977 0283 01       		.byte	0x1
 978 0284 1F       		.byte	0x1f
 979 0285 08       		.byte	0x8
 980 0286 15       		.uleb128 0x15
 981 0287 8E010000 		.4byte	.LASF49
 982 028b 04       		.byte	0x4
 983 028c 23       		.byte	0x23
 984 028d 2E040000 		.4byte	.LASF103
 985 0291 12030000 		.4byte	0x312
 986 0295 9D020000 		.4byte	0x29d
 987 0299 A3020000 		.4byte	0x2a3
 988 029d 13       		.uleb128 0x13
 989 029e 12030000 		.4byte	0x312
 990 02a2 00       		.byte	0
 991 02a3 16       		.uleb128 0x16
 992 02a4 B0050000 		.4byte	.LASF104
 993 02a8 04       		.byte	0x4
 994 02a9 2B       		.byte	0x2b
 995 02aa 12020000 		.4byte	.LASF105
 996 02ae B2020000 		.4byte	0x2b2
 997 02b2 13       		.uleb128 0x13
 998 02b3 12030000 		.4byte	0x312
 999 02b7 00       		.byte	0
 1000 02b8 00       		.byte	0
 1001 02b9 0C       		.uleb128 0xc
 1002 02ba 94060000 		.4byte	.LASF50
 1003 02be 04       		.byte	0x4
 1004 02bf 46       		.byte	0x46
 1005 02c0 54020000 		.4byte	0x254
 1006 02c4 00       		.byte	0
 1007 02c5 0C       		.uleb128 0xc
 1008 02c6 00000000 		.4byte	.LASF51
 1009 02ca 04       		.byte	0x4
 1010 02cb 47       		.byte	0x47
 1011 02cc 24020000 		.4byte	0x224
 1012 02d0 0C       		.byte	0xc
 1013 02d1 17       		.uleb128 0x17
 1014 02d2 504400   		.ascii	"PD\000"
 1015 02d5 04       		.byte	0x4
 1016 02d6 30       		.byte	0x30
 1017 02d7 0C040000 		.4byte	.LASF106
 1018 02db 18030000 		.4byte	0x318
 1019 02df E7020000 		.4byte	0x2e7
 1020 02e3 ED020000 		.4byte	0x2ed
 1021 02e7 13       		.uleb128 0x13
 1022 02e8 18030000 		.4byte	0x318
 1023 02ec 00       		.byte	0
ARM GAS  C:\msys64\tmp\cctsVYwx.s 			page 19


 1024 02ed 12       		.uleb128 0x12
 1025 02ee 2D030000 		.4byte	.LASF52
 1026 02f2 04       		.byte	0x4
 1027 02f3 35       		.byte	0x35
 1028 02f4 F8050000 		.4byte	.LASF54
 1029 02f8 25000000 		.4byte	0x25
 1030 02fc 00030000 		.4byte	0x300
 1031 0300 13       		.uleb128 0x13
 1032 0301 18030000 		.4byte	0x318
 1033 0305 18       		.uleb128 0x18
 1034 0306 25000000 		.4byte	0x25
 1035 030a 00       		.byte	0
 1036 030b 00       		.byte	0
 1037 030c 07       		.uleb128 0x7
 1038 030d 04       		.byte	0x4
 1039 030e 24020000 		.4byte	0x224
 1040 0312 07       		.uleb128 0x7
 1041 0313 04       		.byte	0x4
 1042 0314 54020000 		.4byte	0x254
 1043 0318 07       		.uleb128 0x7
 1044 0319 04       		.byte	0x4
 1045 031a 00020000 		.4byte	0x200
 1046 031e 19       		.uleb128 0x19
 1047 031f E8050000 		.4byte	.LASF55
 1048 0323 02       		.byte	0x2
 1049 0324 C0       		.byte	0xc0
 1050 0325 25000000 		.4byte	0x25
 1051 0329 03       		.byte	0x3
 1052 032a 4A030000 		.4byte	0x34a
 1053 032e 1A       		.uleb128 0x1a
 1054 032f 6100     		.ascii	"a\000"
 1055 0331 02       		.byte	0x2
 1056 0332 C0       		.byte	0xc0
 1057 0333 4A030000 		.4byte	0x34a
 1058 0337 1A       		.uleb128 0x1a
 1059 0338 6200     		.ascii	"b\000"
 1060 033a 02       		.byte	0x2
 1061 033b C0       		.byte	0xc0
 1062 033c 4A030000 		.4byte	0x34a
 1063 0340 1A       		.uleb128 0x1a
 1064 0341 6300     		.ascii	"c\000"
 1065 0343 02       		.byte	0x2
 1066 0344 C0       		.byte	0xc0
 1067 0345 4A030000 		.4byte	0x34a
 1068 0349 00       		.byte	0
 1069 034a 08       		.uleb128 0x8
 1070 034b 25000000 		.4byte	0x25
 1071 034f 1B       		.uleb128 0x1b
 1072 0350 F5060000 		.4byte	.LASF56
 1073 0354 02       		.byte	0x2
 1074 0355 4901     		.2byte	0x149
 1075 0357 25000000 		.4byte	0x25
 1076 035b 03       		.byte	0x3
 1077 035c 77030000 		.4byte	0x377
 1078 0360 1C       		.uleb128 0x1c
 1079 0361 7800     		.ascii	"x\000"
 1080 0363 02       		.byte	0x2
ARM GAS  C:\msys64\tmp\cctsVYwx.s 			page 20


 1081 0364 4901     		.2byte	0x149
 1082 0366 4A030000 		.4byte	0x34a
 1083 036a 1C       		.uleb128 0x1c
 1084 036b 6D617800 		.ascii	"max\000"
 1085 036f 02       		.byte	0x2
 1086 0370 4901     		.2byte	0x149
 1087 0372 4A030000 		.4byte	0x34a
 1088 0376 00       		.byte	0
 1089 0377 1B       		.uleb128 0x1b
 1090 0378 65020000 		.4byte	.LASF57
 1091 037c 02       		.byte	0x2
 1092 037d 3C01     		.2byte	0x13c
 1093 037f 25000000 		.4byte	0x25
 1094 0383 03       		.byte	0x3
 1095 0384 AB030000 		.4byte	0x3ab
 1096 0388 1C       		.uleb128 0x1c
 1097 0389 6D696E00 		.ascii	"min\000"
 1098 038d 02       		.byte	0x2
 1099 038e 3C01     		.2byte	0x13c
 1100 0390 4A030000 		.4byte	0x34a
 1101 0394 1C       		.uleb128 0x1c
 1102 0395 7800     		.ascii	"x\000"
 1103 0397 02       		.byte	0x2
 1104 0398 3C01     		.2byte	0x13c
 1105 039a 25000000 		.4byte	0x25
 1106 039e 1C       		.uleb128 0x1c
 1107 039f 6D617800 		.ascii	"max\000"
 1108 03a3 02       		.byte	0x2
 1109 03a4 3C01     		.2byte	0x13c
 1110 03a6 4A030000 		.4byte	0x34a
 1111 03aa 00       		.byte	0
 1112 03ab 19       		.uleb128 0x19
 1113 03ac 67040000 		.4byte	.LASF58
 1114 03b0 0A       		.byte	0xa
 1115 03b1 54       		.byte	0x54
 1116 03b2 BF000000 		.4byte	0xbf
 1117 03b6 03       		.byte	0x3
 1118 03b7 CE030000 		.4byte	0x3ce
 1119 03bb 1A       		.uleb128 0x1a
 1120 03bc 7800     		.ascii	"x\000"
 1121 03be 0A       		.byte	0xa
 1122 03bf 54       		.byte	0x54
 1123 03c0 CE030000 		.4byte	0x3ce
 1124 03c4 1A       		.uleb128 0x1a
 1125 03c5 6D00     		.ascii	"m\000"
 1126 03c7 0A       		.byte	0xa
 1127 03c8 54       		.byte	0x54
 1128 03c9 CE030000 		.4byte	0x3ce
 1129 03cd 00       		.byte	0
 1130 03ce 08       		.uleb128 0x8
 1131 03cf BF000000 		.4byte	0xbf
 1132 03d3 1B       		.uleb128 0x1b
 1133 03d4 17040000 		.4byte	.LASF59
 1134 03d8 02       		.byte	0x2
 1135 03d9 8501     		.2byte	0x185
 1136 03db 25000000 		.4byte	0x25
 1137 03df 03       		.byte	0x3
ARM GAS  C:\msys64\tmp\cctsVYwx.s 			page 21


 1138 03e0 F9030000 		.4byte	0x3f9
 1139 03e4 1C       		.uleb128 0x1c
 1140 03e5 7800     		.ascii	"x\000"
 1141 03e7 02       		.byte	0x2
 1142 03e8 8501     		.2byte	0x185
 1143 03ea 4A030000 		.4byte	0x34a
 1144 03ee 1C       		.uleb128 0x1c
 1145 03ef 6D00     		.ascii	"m\000"
 1146 03f1 02       		.byte	0x2
 1147 03f2 8501     		.2byte	0x185
 1148 03f4 4A030000 		.4byte	0x34a
 1149 03f8 00       		.byte	0
 1150 03f9 1B       		.uleb128 0x1b
 1151 03fa 43060000 		.4byte	.LASF60
 1152 03fe 02       		.byte	0x2
 1153 03ff 3903     		.2byte	0x339
 1154 0401 25000000 		.4byte	0x25
 1155 0405 03       		.byte	0x3
 1156 0406 2C040000 		.4byte	0x42c
 1157 040a 1C       		.uleb128 0x1c
 1158 040b 667200   		.ascii	"fr\000"
 1159 040e 02       		.byte	0x2
 1160 040f 3903     		.2byte	0x339
 1161 0411 4A030000 		.4byte	0x34a
 1162 0415 1C       		.uleb128 0x1c
 1163 0416 783000   		.ascii	"x0\000"
 1164 0419 02       		.byte	0x2
 1165 041a 3903     		.2byte	0x339
 1166 041c 4A030000 		.4byte	0x34a
 1167 0420 1C       		.uleb128 0x1c
 1168 0421 783100   		.ascii	"x1\000"
 1169 0424 02       		.byte	0x2
 1170 0425 3903     		.2byte	0x339
 1171 0427 4A030000 		.4byte	0x34a
 1172 042b 00       		.byte	0
 1173 042c 19       		.uleb128 0x19
 1174 042d E4030000 		.4byte	.LASF61
 1175 0431 03       		.byte	0x3
 1176 0432 6C       		.byte	0x6c
 1177 0433 25000000 		.4byte	0x25
 1178 0437 03       		.byte	0x3
 1179 0438 48040000 		.4byte	0x448
 1180 043c 1D       		.uleb128 0x1d
 1181 043d ED050000 		.4byte	.LASF62
 1182 0441 03       		.byte	0x3
 1183 0442 6C       		.byte	0x6c
 1184 0443 9E000000 		.4byte	0x9e
 1185 0447 00       		.byte	0
 1186 0448 19       		.uleb128 0x19
 1187 0449 58010000 		.4byte	.LASF63
 1188 044d 03       		.byte	0x3
 1189 044e 96       		.byte	0x96
 1190 044f 25000000 		.4byte	0x25
 1191 0453 03       		.byte	0x3
 1192 0454 9F040000 		.4byte	0x49f
 1193 0458 1A       		.uleb128 0x1a
 1194 0459 7800     		.ascii	"x\000"
ARM GAS  C:\msys64\tmp\cctsVYwx.s 			page 22


 1195 045b 03       		.byte	0x3
 1196 045c 96       		.byte	0x96
 1197 045d 25000000 		.4byte	0x25
 1198 0461 1E       		.uleb128 0x1e
 1199 0462 7000     		.ascii	"p\000"
 1200 0464 03       		.byte	0x3
 1201 0465 97       		.byte	0x97
 1202 0466 4A030000 		.4byte	0x34a
 1203 046a 1E       		.uleb128 0x1e
 1204 046b 78306600 		.ascii	"x0f\000"
 1205 046f 03       		.byte	0x3
 1206 0470 9A       		.byte	0x9a
 1207 0471 4A030000 		.4byte	0x34a
 1208 0475 1E       		.uleb128 0x1e
 1209 0476 78307000 		.ascii	"x0p\000"
 1210 047a 03       		.byte	0x3
 1211 047b 9B       		.byte	0x9b
 1212 047c CE030000 		.4byte	0x3ce
 1213 0480 1E       		.uleb128 0x1e
 1214 0481 783000   		.ascii	"x0\000"
 1215 0484 03       		.byte	0x3
 1216 0485 9D       		.byte	0x9d
 1217 0486 CE030000 		.4byte	0x3ce
 1218 048a 1E       		.uleb128 0x1e
 1219 048b 783100   		.ascii	"x1\000"
 1220 048e 03       		.byte	0x3
 1221 048f 9E       		.byte	0x9e
 1222 0490 CE030000 		.4byte	0x3ce
 1223 0494 1E       		.uleb128 0x1e
 1224 0495 793000   		.ascii	"y0\000"
 1225 0498 03       		.byte	0x3
 1226 0499 A0       		.byte	0xa0
 1227 049a 4A030000 		.4byte	0x34a
 1228 049e 00       		.byte	0
 1229 049f 1B       		.uleb128 0x1b
 1230 04a0 EC060000 		.4byte	.LASF64
 1231 04a4 02       		.byte	0x2
 1232 04a5 AF01     		.2byte	0x1af
 1233 04a7 25000000 		.4byte	0x25
 1234 04ab 03       		.byte	0x3
 1235 04ac BB040000 		.4byte	0x4bb
 1236 04b0 1C       		.uleb128 0x1c
 1237 04b1 7800     		.ascii	"x\000"
 1238 04b3 02       		.byte	0x2
 1239 04b4 AF01     		.2byte	0x1af
 1240 04b6 4A030000 		.4byte	0x34a
 1241 04ba 00       		.byte	0
 1242 04bb 1F       		.uleb128 0x1f
 1243 04bc A3020000 		.4byte	0x2a3
 1244 04c0 03       		.byte	0x3
 1245 04c1 C9040000 		.4byte	0x4c9
 1246 04c5 D3040000 		.4byte	0x4d3
 1247 04c9 20       		.uleb128 0x20
 1248 04ca D3040000 		.4byte	.LASF65
 1249 04ce D3040000 		.4byte	0x4d3
 1250 04d2 00       		.byte	0
 1251 04d3 08       		.uleb128 0x8
ARM GAS  C:\msys64\tmp\cctsVYwx.s 			page 23


 1252 04d4 12030000 		.4byte	0x312
 1253 04d8 1F       		.uleb128 0x1f
 1254 04d9 3A020000 		.4byte	0x23a
 1255 04dd 03       		.byte	0x3
 1256 04de E6040000 		.4byte	0x4e6
 1257 04e2 F0040000 		.4byte	0x4f0
 1258 04e6 20       		.uleb128 0x20
 1259 04e7 D3040000 		.4byte	.LASF65
 1260 04eb F0040000 		.4byte	0x4f0
 1261 04ef 00       		.byte	0
 1262 04f0 08       		.uleb128 0x8
 1263 04f1 0C030000 		.4byte	0x30c
 1264 04f5 1F       		.uleb128 0x1f
 1265 04f6 86020000 		.4byte	0x286
 1266 04fa 03       		.byte	0x3
 1267 04fb 03050000 		.4byte	0x503
 1268 04ff 0D050000 		.4byte	0x50d
 1269 0503 20       		.uleb128 0x20
 1270 0504 D3040000 		.4byte	.LASF65
 1271 0508 D3040000 		.4byte	0x4d3
 1272 050c 00       		.byte	0
 1273 050d 1F       		.uleb128 0x1f
 1274 050e D1020000 		.4byte	0x2d1
 1275 0512 03       		.byte	0x3
 1276 0513 1B050000 		.4byte	0x51b
 1277 0517 25050000 		.4byte	0x525
 1278 051b 20       		.uleb128 0x20
 1279 051c D3040000 		.4byte	.LASF65
 1280 0520 25050000 		.4byte	0x525
 1281 0524 00       		.byte	0
 1282 0525 08       		.uleb128 0x8
 1283 0526 18030000 		.4byte	0x318
 1284 052a 19       		.uleb128 0x19
 1285 052b 64060000 		.4byte	.LASF66
 1286 052f 03       		.byte	0x3
 1287 0530 AA       		.byte	0xaa
 1288 0531 25000000 		.4byte	0x25
 1289 0535 03       		.byte	0x3
 1290 0536 44050000 		.4byte	0x544
 1291 053a 1A       		.uleb128 0x1a
 1292 053b 7800     		.ascii	"x\000"
 1293 053d 03       		.byte	0x3
 1294 053e AA       		.byte	0xaa
 1295 053f 25000000 		.4byte	0x25
 1296 0543 00       		.byte	0
 1297 0544 1F       		.uleb128 0x1f
 1298 0545 ED020000 		.4byte	0x2ed
 1299 0549 03       		.byte	0x3
 1300 054a 52050000 		.4byte	0x552
 1301 054e AE050000 		.4byte	0x5ae
 1302 0552 20       		.uleb128 0x20
 1303 0553 D3040000 		.4byte	.LASF65
 1304 0557 25050000 		.4byte	0x525
 1305 055b 1A       		.uleb128 0x1a
 1306 055c 70686900 		.ascii	"phi\000"
 1307 0560 04       		.byte	0x4
 1308 0561 35       		.byte	0x35
ARM GAS  C:\msys64\tmp\cctsVYwx.s 			page 24


 1309 0562 25000000 		.4byte	0x25
 1310 0566 1E       		.uleb128 0x1e
 1311 0567 6400     		.ascii	"d\000"
 1312 0569 04       		.byte	0x4
 1313 056a 36       		.byte	0x36
 1314 056b 25000000 		.4byte	0x25
 1315 056f 1E       		.uleb128 0x1e
 1316 0570 706400   		.ascii	"pd\000"
 1317 0573 04       		.byte	0x4
 1318 0574 38       		.byte	0x38
 1319 0575 25000000 		.4byte	0x25
 1320 0579 21       		.uleb128 0x21
 1321 057a 8A050000 		.4byte	0x58a
 1322 057e 22       		.uleb128 0x22
 1323 057f 3D030000 		.4byte	.LASF67
 1324 0583 04       		.byte	0x4
 1325 0584 3A       		.byte	0x3a
 1326 0585 25000000 		.4byte	0x25
 1327 0589 00       		.byte	0
 1328 058a 23       		.uleb128 0x23
 1329 058b 22       		.uleb128 0x22
 1330 058c B4040000 		.4byte	.LASF68
 1331 0590 04       		.byte	0x4
 1332 0591 3D       		.byte	0x3d
 1333 0592 25000000 		.4byte	0x25
 1334 0596 22       		.uleb128 0x22
 1335 0597 C0050000 		.4byte	.LASF69
 1336 059b 04       		.byte	0x4
 1337 059c 3E       		.byte	0x3e
 1338 059d 25000000 		.4byte	0x25
 1339 05a1 22       		.uleb128 0x22
 1340 05a2 3D030000 		.4byte	.LASF67
 1341 05a6 04       		.byte	0x4
 1342 05a7 3F       		.byte	0x3f
 1343 05a8 25000000 		.4byte	0x25
 1344 05ac 00       		.byte	0
 1345 05ad 00       		.byte	0
 1346 05ae 19       		.uleb128 0x19
 1347 05af B9060000 		.4byte	.LASF70
 1348 05b3 03       		.byte	0x3
 1349 05b4 76       		.byte	0x76
 1350 05b5 25000000 		.4byte	0x25
 1351 05b9 03       		.byte	0x3
 1352 05ba F2050000 		.4byte	0x5f2
 1353 05be 1D       		.uleb128 0x1d
 1354 05bf ED050000 		.4byte	.LASF62
 1355 05c3 03       		.byte	0x3
 1356 05c4 76       		.byte	0x76
 1357 05c5 9E000000 		.4byte	0x9e
 1358 05c9 1A       		.uleb128 0x1a
 1359 05ca 6D6F6400 		.ascii	"mod\000"
 1360 05ce 03       		.byte	0x3
 1361 05cf 76       		.byte	0x76
 1362 05d0 9E000000 		.4byte	0x9e
 1363 05d4 1E       		.uleb128 0x1e
 1364 05d5 663000   		.ascii	"f0\000"
 1365 05d8 03       		.byte	0x3
ARM GAS  C:\msys64\tmp\cctsVYwx.s 			page 25


 1366 05d9 77       		.byte	0x77
 1367 05da 4A030000 		.4byte	0x34a
 1368 05de 1E       		.uleb128 0x1e
 1369 05df 663100   		.ascii	"f1\000"
 1370 05e2 03       		.byte	0x3
 1371 05e3 78       		.byte	0x78
 1372 05e4 4A030000 		.4byte	0x34a
 1373 05e8 1E       		.uleb128 0x1e
 1374 05e9 6600     		.ascii	"f\000"
 1375 05eb 03       		.byte	0x3
 1376 05ec 7A       		.byte	0x7a
 1377 05ed 4A030000 		.4byte	0x34a
 1378 05f1 00       		.byte	0
 1379 05f2 1B       		.uleb128 0x1b
 1380 05f3 57020000 		.4byte	.LASF71
 1381 05f7 03       		.byte	0x3
 1382 05f8 9902     		.2byte	0x299
 1383 05fa 25000000 		.4byte	0x25
 1384 05fe 03       		.byte	0x3
 1385 05ff 18060000 		.4byte	0x618
 1386 0603 1C       		.uleb128 0x1c
 1387 0604 6300     		.ascii	"c\000"
 1388 0606 03       		.byte	0x3
 1389 0607 9902     		.2byte	0x299
 1390 0609 4A030000 		.4byte	0x34a
 1391 060d 1C       		.uleb128 0x1c
 1392 060e 7800     		.ascii	"x\000"
 1393 0610 03       		.byte	0x3
 1394 0611 9902     		.2byte	0x299
 1395 0613 25000000 		.4byte	0x25
 1396 0617 00       		.byte	0
 1397 0618 1B       		.uleb128 0x1b
 1398 0619 A9030000 		.4byte	.LASF72
 1399 061d 02       		.byte	0x2
 1400 061e A301     		.2byte	0x1a3
 1401 0620 25000000 		.4byte	0x25
 1402 0624 03       		.byte	0x3
 1403 0625 34060000 		.4byte	0x634
 1404 0629 1C       		.uleb128 0x1c
 1405 062a 7800     		.ascii	"x\000"
 1406 062c 02       		.byte	0x2
 1407 062d A301     		.2byte	0x1a3
 1408 062f 4A030000 		.4byte	0x34a
 1409 0633 00       		.byte	0
 1410 0634 24       		.uleb128 0x24
 1411 0635 DF040000 		.4byte	.LASF107
 1412 0639 01       		.byte	0x1
 1413 063a 55060000 		.4byte	0x655
 1414 063e 1D       		.uleb128 0x1d
 1415 063f 6F030000 		.4byte	.LASF73
 1416 0643 01       		.byte	0x1
 1417 0644 74       		.byte	0x74
 1418 0645 33000000 		.4byte	0x33
 1419 0649 1D       		.uleb128 0x1d
 1420 064a 92030000 		.4byte	.LASF74
 1421 064e 01       		.byte	0x1
 1422 064f 74       		.byte	0x74
ARM GAS  C:\msys64\tmp\cctsVYwx.s 			page 26


 1423 0650 33000000 		.4byte	0x33
 1424 0654 00       		.byte	0
 1425 0655 25       		.uleb128 0x25
 1426 0656 25050000 		.4byte	.LASF75
 1427 065a 01       		.byte	0x1
 1428 065b 0E       		.byte	0xe
 1429 065c 00000000 		.4byte	.LFB250
 1430 0660 02000000 		.4byte	.LFE250-.LFB250
 1431 0664 01       		.uleb128 0x1
 1432 0665 9C       		.byte	0x9c
 1433 0666 85060000 		.4byte	0x685
 1434 066a 26       		.uleb128 0x26
 1435 066b 6B010000 		.4byte	.LASF76
 1436 066f 01       		.byte	0x1
 1437 0670 0E       		.byte	0xe
 1438 0671 BF000000 		.4byte	0xbf
 1439 0675 01       		.uleb128 0x1
 1440 0676 50       		.byte	0x50
 1441 0677 27       		.uleb128 0x27
 1442 0678 61706900 		.ascii	"api\000"
 1443 067c 01       		.byte	0x1
 1444 067d 0E       		.byte	0xe
 1445 067e BF000000 		.4byte	0xbf
 1446 0682 01       		.uleb128 0x1
 1447 0683 51       		.byte	0x51
 1448 0684 00       		.byte	0
 1449 0685 25       		.uleb128 0x25
 1450 0686 3F020000 		.4byte	.LASF77
 1451 068a 01       		.byte	0x1
 1452 068b 13       		.byte	0x13
 1453 068c 02000000 		.4byte	.LFB251
 1454 0690 96010000 		.4byte	.LFE251-.LFB251
 1455 0694 01       		.uleb128 0x1
 1456 0695 9C       		.byte	0x9c
 1457 0696 D7090000 		.4byte	0x9d7
 1458 069a 28       		.uleb128 0x28
 1459 069b 00000000 		.4byte	.LASF51
 1460 069f 01       		.byte	0x1
 1461 06a0 13       		.byte	0x13
 1462 06a1 D7090000 		.4byte	0x9d7
 1463 06a5 00000000 		.4byte	.LLST0
 1464 06a9 29       		.uleb128 0x29
 1465 06aa 796E00   		.ascii	"yn\000"
 1466 06ad 01       		.byte	0x1
 1467 06ae 13       		.byte	0x13
 1468 06af 08010000 		.4byte	0x108
 1469 06b3 21000000 		.4byte	.LLST1
 1470 06b7 28       		.uleb128 0x28
 1471 06b8 BB030000 		.4byte	.LASF78
 1472 06bc 01       		.byte	0x1
 1473 06bd 13       		.byte	0x13
 1474 06be CE030000 		.4byte	0x3ce
 1475 06c2 42000000 		.4byte	.LLST2
 1476 06c6 2A       		.uleb128 0x2a
 1477 06c7 7300     		.ascii	"s\000"
 1478 06c9 01       		.byte	0x1
 1479 06ca 16       		.byte	0x16
ARM GAS  C:\msys64\tmp\cctsVYwx.s 			page 27


 1480 06cb E2090000 		.4byte	0x9e2
 1481 06cf 06       		.uleb128 0x6
 1482 06d0 03       		.byte	0x3
 1483 06d1 00000000 		.4byte	_ZL2pd
 1484 06d5 9F       		.byte	0x9f
 1485 06d6 2B       		.uleb128 0x2b
 1486 06d7 20000000 		.4byte	.LASF79
 1487 06db 01       		.byte	0x1
 1488 06dc 19       		.byte	0x19
 1489 06dd CE030000 		.4byte	0x3ce
 1490 06e1 63000000 		.4byte	.LLST3
 1491 06e5 2B       		.uleb128 0x2b
 1492 06e6 ED050000 		.4byte	.LASF62
 1493 06ea 01       		.byte	0x1
 1494 06eb 24       		.byte	0x24
 1495 06ec 9E000000 		.4byte	0x9e
 1496 06f0 91000000 		.4byte	.LLST4
 1497 06f4 2A       		.uleb128 0x2a
 1498 06f5 773000   		.ascii	"w0\000"
 1499 06f8 01       		.byte	0x1
 1500 06f9 27       		.byte	0x27
 1501 06fa 25000000 		.4byte	0x25
 1502 06fe 02       		.uleb128 0x2
 1503 06ff 90       		.byte	0x90
 1504 0700 4C       		.uleb128 0x4c
 1505 0701 2A       		.uleb128 0x2a
 1506 0702 70686900 		.ascii	"phi\000"
 1507 0706 01       		.byte	0x1
 1508 0707 2A       		.byte	0x2a
 1509 0708 25000000 		.4byte	0x25
 1510 070c 02       		.uleb128 0x2
 1511 070d 90       		.byte	0x90
 1512 070e 4D       		.uleb128 0x4d
 1513 070f 2C       		.uleb128 0x2c
 1514 0710 7900     		.ascii	"y\000"
 1515 0712 01       		.byte	0x1
 1516 0713 2D       		.byte	0x2d
 1517 0714 F7000000 		.4byte	0xf7
 1518 0718 C9000000 		.4byte	.LLST5
 1519 071c 2A       		.uleb128 0x2a
 1520 071d 795F6500 		.ascii	"y_e\000"
 1521 0721 01       		.byte	0x1
 1522 0722 30       		.byte	0x30
 1523 0723 FD000000 		.4byte	0xfd
 1524 0727 01       		.uleb128 0x1
 1525 0728 52       		.byte	0x52
 1526 0729 2D       		.uleb128 0x2d
 1527 072a AE050000 		.4byte	0x5ae
 1528 072e 0A000000 		.4byte	.LBB205
 1529 0732 00000000 		.4byte	.Ldebug_ranges0+0
 1530 0736 01       		.byte	0x1
 1531 0737 27       		.byte	0x27
 1532 0738 1A080000 		.4byte	0x81a
 1533 073c 2E       		.uleb128 0x2e
 1534 073d C9050000 		.4byte	0x5c9
 1535 0741 F4000000 		.4byte	.LLST6
 1536 0745 2F       		.uleb128 0x2f
ARM GAS  C:\msys64\tmp\cctsVYwx.s 			page 28


 1537 0746 BE050000 		.4byte	0x5be
 1538 074a 30       		.uleb128 0x30
 1539 074b 00000000 		.4byte	.Ldebug_ranges0+0
 1540 074f 31       		.uleb128 0x31
 1541 0750 D4050000 		.4byte	0x5d4
 1542 0754 31       		.uleb128 0x31
 1543 0755 DE050000 		.4byte	0x5de
 1544 0759 31       		.uleb128 0x31
 1545 075a E8050000 		.4byte	0x5e8
 1546 075e 2D       		.uleb128 0x2d
 1547 075f F9030000 		.4byte	0x3f9
 1548 0763 0A000000 		.4byte	.LBB207
 1549 0767 40000000 		.4byte	.Ldebug_ranges0+0x40
 1550 076b 03       		.byte	0x3
 1551 076c 7A       		.byte	0x7a
 1552 076d 81070000 		.4byte	0x781
 1553 0771 2F       		.uleb128 0x2f
 1554 0772 20040000 		.4byte	0x420
 1555 0776 2F       		.uleb128 0x2f
 1556 0777 15040000 		.4byte	0x415
 1557 077b 2F       		.uleb128 0x2f
 1558 077c 0A040000 		.4byte	0x40a
 1559 0780 00       		.byte	0
 1560 0781 2D       		.uleb128 0x2d
 1561 0782 2C040000 		.4byte	0x42c
 1562 0786 2E000000 		.4byte	.LBB212
 1563 078a 68000000 		.4byte	.Ldebug_ranges0+0x68
 1564 078e 03       		.byte	0x3
 1565 078f 77       		.byte	0x77
 1566 0790 9A070000 		.4byte	0x79a
 1567 0794 2F       		.uleb128 0x2f
 1568 0795 3C040000 		.4byte	0x43c
 1569 0799 00       		.byte	0
 1570 079a 2D       		.uleb128 0x2d
 1571 079b 2C040000 		.4byte	0x42c
 1572 079f 4C000000 		.4byte	.LBB220
 1573 07a3 98000000 		.4byte	.Ldebug_ranges0+0x98
 1574 07a7 03       		.byte	0x3
 1575 07a8 78       		.byte	0x78
 1576 07a9 B3070000 		.4byte	0x7b3
 1577 07ad 2F       		.uleb128 0x2f
 1578 07ae 3C040000 		.4byte	0x43c
 1579 07b2 00       		.byte	0
 1580 07b3 32       		.uleb128 0x32
 1581 07b4 D3030000 		.4byte	0x3d3
 1582 07b8 78000000 		.4byte	.LBB229
 1583 07bc 12000000 		.4byte	.LBE229-.LBB229
 1584 07c0 03       		.byte	0x3
 1585 07c1 7A       		.byte	0x7a
 1586 07c2 2E       		.uleb128 0x2e
 1587 07c3 EE030000 		.4byte	0x3ee
 1588 07c7 25010000 		.4byte	.LLST7
 1589 07cb 2F       		.uleb128 0x2f
 1590 07cc E4030000 		.4byte	0x3e4
 1591 07d0 33       		.uleb128 0x33
 1592 07d1 4F030000 		.4byte	0x34f
 1593 07d5 78000000 		.4byte	.LBB230
ARM GAS  C:\msys64\tmp\cctsVYwx.s 			page 29


 1594 07d9 12000000 		.4byte	.LBE230-.LBB230
 1595 07dd 02       		.byte	0x2
 1596 07de 8601     		.2byte	0x186
 1597 07e0 2E       		.uleb128 0x2e
 1598 07e1 6A030000 		.4byte	0x36a
 1599 07e5 25010000 		.4byte	.LLST7
 1600 07e9 2F       		.uleb128 0x2f
 1601 07ea 60030000 		.4byte	0x360
 1602 07ee 33       		.uleb128 0x33
 1603 07ef 1E030000 		.4byte	0x31e
 1604 07f3 78000000 		.4byte	.LBB231
 1605 07f7 12000000 		.4byte	.LBE231-.LBB231
 1606 07fb 02       		.byte	0x2
 1607 07fc 4B01     		.2byte	0x14b
 1608 07fe 2F       		.uleb128 0x2f
 1609 07ff 40030000 		.4byte	0x340
 1610 0803 2E       		.uleb128 0x2e
 1611 0804 37030000 		.4byte	0x337
 1612 0808 25010000 		.4byte	.LLST7
 1613 080c 2E       		.uleb128 0x2e
 1614 080d 2E030000 		.4byte	0x32e
 1615 0811 3D010000 		.4byte	.LLST10
 1616 0815 00       		.byte	0
 1617 0816 00       		.byte	0
 1618 0817 00       		.byte	0
 1619 0818 00       		.byte	0
 1620 0819 00       		.byte	0
 1621 081a 34       		.uleb128 0x34
 1622 081b B0000000 		.4byte	.Ldebug_ranges0+0xb0
 1623 081f BA090000 		.4byte	0x9ba
 1624 0823 1E       		.uleb128 0x1e
 1625 0824 73696700 		.ascii	"sig\000"
 1626 0828 01       		.byte	0x1
 1627 0829 36       		.byte	0x36
 1628 082a 25000000 		.4byte	0x25
 1629 082e 2D       		.uleb128 0x2d
 1630 082f 44050000 		.4byte	0x544
 1631 0833 12000000 		.4byte	.LBB241
 1632 0837 D8000000 		.4byte	.Ldebug_ranges0+0xd8
 1633 083b 01       		.byte	0x1
 1634 083c 36       		.byte	0x36
 1635 083d 39090000 		.4byte	0x939
 1636 0841 2E       		.uleb128 0x2e
 1637 0842 52050000 		.4byte	0x552
 1638 0846 5B010000 		.4byte	.LLST11
 1639 084a 2E       		.uleb128 0x2e
 1640 084b 5B050000 		.4byte	0x55b
 1641 084f 73010000 		.4byte	.LLST12
 1642 0853 30       		.uleb128 0x30
 1643 0854 D8000000 		.4byte	.Ldebug_ranges0+0xd8
 1644 0858 35       		.uleb128 0x35
 1645 0859 66050000 		.4byte	0x566
 1646 085d 87010000 		.4byte	.LLST13
 1647 0861 35       		.uleb128 0x35
 1648 0862 6F050000 		.4byte	0x56f
 1649 0866 9E010000 		.4byte	.LLST14
 1650 086a 2D       		.uleb128 0x2d
ARM GAS  C:\msys64\tmp\cctsVYwx.s 			page 30


 1651 086b 2A050000 		.4byte	0x52a
 1652 086f 12000000 		.4byte	.LBB243
 1653 0873 00010000 		.4byte	.Ldebug_ranges0+0x100
 1654 0877 04       		.byte	0x4
 1655 0878 43       		.byte	0x43
 1656 0879 FF080000 		.4byte	0x8ff
 1657 087d 2E       		.uleb128 0x2e
 1658 087e 3A050000 		.4byte	0x53a
 1659 0882 9E010000 		.4byte	.LLST14
 1660 0886 36       		.uleb128 0x36
 1661 0887 48040000 		.4byte	0x448
 1662 088b 12000000 		.4byte	.LBB245
 1663 088f 28010000 		.4byte	.Ldebug_ranges0+0x128
 1664 0893 03       		.byte	0x3
 1665 0894 AB       		.byte	0xab
 1666 0895 2E       		.uleb128 0x2e
 1667 0896 58040000 		.4byte	0x458
 1668 089a B2010000 		.4byte	.LLST16
 1669 089e 30       		.uleb128 0x30
 1670 089f 28010000 		.4byte	.Ldebug_ranges0+0x128
 1671 08a3 35       		.uleb128 0x35
 1672 08a4 61040000 		.4byte	0x461
 1673 08a8 C6010000 		.4byte	.LLST17
 1674 08ac 35       		.uleb128 0x35
 1675 08ad 6A040000 		.4byte	0x46a
 1676 08b1 E4010000 		.4byte	.LLST18
 1677 08b5 35       		.uleb128 0x35
 1678 08b6 75040000 		.4byte	0x475
 1679 08ba F8010000 		.4byte	.LLST19
 1680 08be 35       		.uleb128 0x35
 1681 08bf 80040000 		.4byte	0x480
 1682 08c3 0B020000 		.4byte	.LLST20
 1683 08c7 35       		.uleb128 0x35
 1684 08c8 8A040000 		.4byte	0x48a
 1685 08cc 3B020000 		.4byte	.LLST21
 1686 08d0 31       		.uleb128 0x31
 1687 08d1 94040000 		.4byte	0x494
 1688 08d5 36       		.uleb128 0x36
 1689 08d6 F9030000 		.4byte	0x3f9
 1690 08da EE000000 		.4byte	.LBB247
 1691 08de 48010000 		.4byte	.Ldebug_ranges0+0x148
 1692 08e2 03       		.byte	0x3
 1693 08e3 A0       		.byte	0xa0
 1694 08e4 2F       		.uleb128 0x2f
 1695 08e5 20040000 		.4byte	0x420
 1696 08e9 2E       		.uleb128 0x2e
 1697 08ea 15040000 		.4byte	0x415
 1698 08ee 7E020000 		.4byte	.LLST22
 1699 08f2 2E       		.uleb128 0x2e
 1700 08f3 0A040000 		.4byte	0x40a
 1701 08f7 92020000 		.4byte	.LLST23
 1702 08fb 00       		.byte	0
 1703 08fc 00       		.byte	0
 1704 08fd 00       		.byte	0
 1705 08fe 00       		.byte	0
 1706 08ff 34       		.uleb128 0x34
 1707 0900 70010000 		.4byte	.Ldebug_ranges0+0x170
ARM GAS  C:\msys64\tmp\cctsVYwx.s 			page 31


 1708 0904 24090000 		.4byte	0x924
 1709 0908 35       		.uleb128 0x35
 1710 0909 8B050000 		.4byte	0x58b
 1711 090d BB020000 		.4byte	.LLST24
 1712 0911 35       		.uleb128 0x35
 1713 0912 96050000 		.4byte	0x596
 1714 0916 D5020000 		.4byte	.LLST25
 1715 091a 35       		.uleb128 0x35
 1716 091b A1050000 		.4byte	0x5a1
 1717 091f F3020000 		.4byte	.LLST26
 1718 0923 00       		.byte	0
 1719 0924 37       		.uleb128 0x37
 1720 0925 BC000000 		.4byte	.LBB266
 1721 0929 04000000 		.4byte	.LBE266-.LBB266
 1722 092d 35       		.uleb128 0x35
 1723 092e 7E050000 		.4byte	0x57e
 1724 0932 19030000 		.4byte	.LLST27
 1725 0936 00       		.byte	0
 1726 0937 00       		.byte	0
 1727 0938 00       		.byte	0
 1728 0939 36       		.uleb128 0x36
 1729 093a F2050000 		.4byte	0x5f2
 1730 093e A2000000 		.4byte	.LBB276
 1731 0942 90010000 		.4byte	.Ldebug_ranges0+0x190
 1732 0946 01       		.byte	0x1
 1733 0947 39       		.byte	0x39
 1734 0948 2F       		.uleb128 0x2f
 1735 0949 0D060000 		.4byte	0x60d
 1736 094d 2E       		.uleb128 0x2e
 1737 094e 03060000 		.4byte	0x603
 1738 0952 33030000 		.4byte	.LLST28
 1739 0956 38       		.uleb128 0x38
 1740 0957 9F040000 		.4byte	0x49f
 1741 095b A2000000 		.4byte	.LBB278
 1742 095f A8010000 		.4byte	.Ldebug_ranges0+0x1a8
 1743 0963 03       		.byte	0x3
 1744 0964 9B02     		.2byte	0x29b
 1745 0966 2F       		.uleb128 0x2f
 1746 0967 B0040000 		.4byte	0x4b0
 1747 096b 38       		.uleb128 0x38
 1748 096c 77030000 		.4byte	0x377
 1749 0970 A2000000 		.4byte	.LBB279
 1750 0974 C0010000 		.4byte	.Ldebug_ranges0+0x1c0
 1751 0978 02       		.byte	0x2
 1752 0979 B001     		.2byte	0x1b0
 1753 097b 2E       		.uleb128 0x2e
 1754 097c 9E030000 		.4byte	0x39e
 1755 0980 4B030000 		.4byte	.LLST29
 1756 0984 2F       		.uleb128 0x2f
 1757 0985 94030000 		.4byte	0x394
 1758 0989 2E       		.uleb128 0x2e
 1759 098a 88030000 		.4byte	0x388
 1760 098e 63030000 		.4byte	.LLST30
 1761 0992 38       		.uleb128 0x38
 1762 0993 1E030000 		.4byte	0x31e
 1763 0997 A2000000 		.4byte	.LBB280
 1764 099b D8010000 		.4byte	.Ldebug_ranges0+0x1d8
ARM GAS  C:\msys64\tmp\cctsVYwx.s 			page 32


 1765 099f 02       		.byte	0x2
 1766 09a0 3E01     		.2byte	0x13e
 1767 09a2 2E       		.uleb128 0x2e
 1768 09a3 40030000 		.4byte	0x340
 1769 09a7 7B030000 		.4byte	.LLST31
 1770 09ab 2F       		.uleb128 0x2f
 1771 09ac 37030000 		.4byte	0x337
 1772 09b0 2F       		.uleb128 0x2f
 1773 09b1 2E030000 		.4byte	0x32e
 1774 09b5 00       		.byte	0
 1775 09b6 00       		.byte	0
 1776 09b7 00       		.byte	0
 1777 09b8 00       		.byte	0
 1778 09b9 00       		.byte	0
 1779 09ba 32       		.uleb128 0x32
 1780 09bb BB040000 		.4byte	0x4bb
 1781 09bf 22000000 		.4byte	.LBB292
 1782 09c3 06000000 		.4byte	.LBE292-.LBB292
 1783 09c7 01       		.byte	0x1
 1784 09c8 20       		.byte	0x20
 1785 09c9 39       		.uleb128 0x39
 1786 09ca C9040000 		.4byte	0x4c9
 1787 09ce 06       		.uleb128 0x6
 1788 09cf 03       		.byte	0x3
 1789 09d0 00000000 		.4byte	_ZL2pd
 1790 09d4 9F       		.byte	0x9f
 1791 09d5 00       		.byte	0
 1792 09d6 00       		.byte	0
 1793 09d7 08       		.uleb128 0x8
 1794 09d8 F5010000 		.4byte	0x1f5
 1795 09dc 3A       		.uleb128 0x3a
 1796 09dd 04       		.byte	0x4
 1797 09de 54020000 		.4byte	0x254
 1798 09e2 08       		.uleb128 0x8
 1799 09e3 DC090000 		.4byte	0x9dc
 1800 09e7 25       		.uleb128 0x25
 1801 09e8 51030000 		.4byte	.LASF80
 1802 09ec 01       		.byte	0x1
 1803 09ed 47       		.byte	0x47
 1804 09ee 98010000 		.4byte	.LFB252
 1805 09f2 10000000 		.4byte	.LFE252-.LFB252
 1806 09f6 01       		.uleb128 0x1
 1807 09f7 9C       		.byte	0x9c
 1808 09f8 1A0A0000 		.4byte	0xa1a
 1809 09fc 26       		.uleb128 0x26
 1810 09fd 00000000 		.4byte	.LASF51
 1811 0a01 01       		.byte	0x1
 1812 0a02 47       		.byte	0x47
 1813 0a03 D7090000 		.4byte	0x9d7
 1814 0a07 01       		.uleb128 0x1
 1815 0a08 50       		.byte	0x50
 1816 0a09 2A       		.uleb128 0x2a
 1817 0a0a 7300     		.ascii	"s\000"
 1818 0a0c 01       		.byte	0x1
 1819 0a0d 48       		.byte	0x48
 1820 0a0e 1A0A0000 		.4byte	0xa1a
 1821 0a12 06       		.uleb128 0x6
ARM GAS  C:\msys64\tmp\cctsVYwx.s 			page 33


 1822 0a13 03       		.byte	0x3
 1823 0a14 00000000 		.4byte	_ZL2pd
 1824 0a18 9F       		.byte	0x9f
 1825 0a19 00       		.byte	0
 1826 0a1a 08       		.uleb128 0x8
 1827 0a1b DC090000 		.4byte	0x9dc
 1828 0a1f 25       		.uleb128 0x25
 1829 0a20 B1030000 		.4byte	.LASF81
 1830 0a24 01       		.byte	0x1
 1831 0a25 4C       		.byte	0x4c
 1832 0a26 A8010000 		.4byte	.LFB253
 1833 0a2a 02000000 		.4byte	.LFE253-.LFB253
 1834 0a2e 01       		.uleb128 0x1
 1835 0a2f 9C       		.byte	0x9c
 1836 0a30 420A0000 		.4byte	0xa42
 1837 0a34 26       		.uleb128 0x26
 1838 0a35 00000000 		.4byte	.LASF51
 1839 0a39 01       		.byte	0x1
 1840 0a3a 4C       		.byte	0x4c
 1841 0a3b D7090000 		.4byte	0x9d7
 1842 0a3f 01       		.uleb128 0x1
 1843 0a40 50       		.byte	0x50
 1844 0a41 00       		.byte	0
 1845 0a42 25       		.uleb128 0x25
 1846 0a43 07000000 		.4byte	.LASF82
 1847 0a47 01       		.byte	0x1
 1848 0a48 51       		.byte	0x51
 1849 0a49 AA010000 		.4byte	.LFB254
 1850 0a4d 4A000000 		.4byte	.LFE254-.LFB254
 1851 0a51 01       		.uleb128 0x1
 1852 0a52 9C       		.byte	0x9c
 1853 0a53 1F0B0000 		.4byte	0xb1f
 1854 0a57 26       		.uleb128 0x26
 1855 0a58 FC020000 		.4byte	.LASF83
 1856 0a5c 01       		.byte	0x1
 1857 0a5d 51       		.byte	0x51
 1858 0a5e A9000000 		.4byte	0xa9
 1859 0a62 01       		.uleb128 0x1
 1860 0a63 50       		.byte	0x50
 1861 0a64 26       		.uleb128 0x26
 1862 0a65 69030000 		.4byte	.LASF84
 1863 0a69 01       		.byte	0x1
 1864 0a6a 51       		.byte	0x51
 1865 0a6b A9000000 		.4byte	0xa9
 1866 0a6f 01       		.uleb128 0x1
 1867 0a70 51       		.byte	0x51
 1868 0a71 2A       		.uleb128 0x2a
 1869 0a72 7000     		.ascii	"p\000"
 1870 0a74 01       		.byte	0x1
 1871 0a75 54       		.byte	0x54
 1872 0a76 250B0000 		.4byte	0xb25
 1873 0a7a 06       		.uleb128 0x6
 1874 0a7b 03       		.byte	0x3
 1875 0a7c 0C000000 		.4byte	_ZL2pd+12
 1876 0a80 9F       		.byte	0x9f
 1877 0a81 32       		.uleb128 0x32
 1878 0a82 18060000 		.4byte	0x618
ARM GAS  C:\msys64\tmp\cctsVYwx.s 			page 34


 1879 0a86 BC010000 		.4byte	.LBB302
 1880 0a8a 22000000 		.4byte	.LBE302-.LBB302
 1881 0a8e 01       		.byte	0x1
 1882 0a8f 5A       		.byte	0x5a
 1883 0a90 2E       		.uleb128 0x2e
 1884 0a91 29060000 		.4byte	0x629
 1885 0a95 A3030000 		.4byte	.LLST32
 1886 0a99 33       		.uleb128 0x33
 1887 0a9a 77030000 		.4byte	0x377
 1888 0a9e BC010000 		.4byte	.LBB303
 1889 0aa2 22000000 		.4byte	.LBE303-.LBB303
 1890 0aa6 02       		.byte	0x2
 1891 0aa7 A401     		.2byte	0x1a4
 1892 0aa9 2E       		.uleb128 0x2e
 1893 0aaa 9E030000 		.4byte	0x39e
 1894 0aae DC030000 		.4byte	.LLST33
 1895 0ab2 2E       		.uleb128 0x2e
 1896 0ab3 94030000 		.4byte	0x394
 1897 0ab7 F4030000 		.4byte	.LLST34
 1898 0abb 2E       		.uleb128 0x2e
 1899 0abc 88030000 		.4byte	0x388
 1900 0ac0 14040000 		.4byte	.LLST35
 1901 0ac4 3B       		.uleb128 0x3b
 1902 0ac5 1E030000 		.4byte	0x31e
 1903 0ac9 BC010000 		.4byte	.LBB304
 1904 0acd F0010000 		.4byte	.Ldebug_ranges0+0x1f0
 1905 0ad1 02       		.byte	0x2
 1906 0ad2 3E01     		.2byte	0x13e
 1907 0ad4 F40A0000 		.4byte	0xaf4
 1908 0ad8 2E       		.uleb128 0x2e
 1909 0ad9 40030000 		.4byte	0x340
 1910 0add 2C040000 		.4byte	.LLST36
 1911 0ae1 2E       		.uleb128 0x2e
 1912 0ae2 37030000 		.4byte	0x337
 1913 0ae6 F4030000 		.4byte	.LLST34
 1914 0aea 2E       		.uleb128 0x2e
 1915 0aeb 2E030000 		.4byte	0x32e
 1916 0aef F4030000 		.4byte	.LLST34
 1917 0af3 00       		.byte	0
 1918 0af4 33       		.uleb128 0x33
 1919 0af5 1E030000 		.4byte	0x31e
 1920 0af9 C6010000 		.4byte	.LBB307
 1921 0afd 04000000 		.4byte	.LBE307-.LBB307
 1922 0b01 02       		.byte	0x2
 1923 0b02 3F01     		.2byte	0x13f
 1924 0b04 2F       		.uleb128 0x2f
 1925 0b05 40030000 		.4byte	0x340
 1926 0b09 2E       		.uleb128 0x2e
 1927 0b0a 37030000 		.4byte	0x337
 1928 0b0e 54040000 		.4byte	.LLST39
 1929 0b12 2E       		.uleb128 0x2e
 1930 0b13 2E030000 		.4byte	0x32e
 1931 0b17 6C040000 		.4byte	.LLST40
 1932 0b1b 00       		.byte	0
 1933 0b1c 00       		.byte	0
 1934 0b1d 00       		.byte	0
 1935 0b1e 00       		.byte	0
ARM GAS  C:\msys64\tmp\cctsVYwx.s 			page 35


 1936 0b1f 3A       		.uleb128 0x3a
 1937 0b20 04       		.byte	0x4
 1938 0b21 24020000 		.4byte	0x224
 1939 0b25 08       		.uleb128 0x8
 1940 0b26 1F0B0000 		.4byte	0xb1f
 1941 0b2a 3C       		.uleb128 0x3c
 1942 0b2b 7B040000 		.4byte	.LASF108
 1943 0b2f 00000000 		.4byte	.LFB256
 1944 0b33 1C000000 		.4byte	.LFE256-.LFB256
 1945 0b37 01       		.uleb128 0x1
 1946 0b38 9C       		.byte	0x9c
 1947 0b39 B20B0000 		.4byte	0xbb2
 1948 0b3d 32       		.uleb128 0x32
 1949 0b3e 34060000 		.4byte	0x634
 1950 0b42 00000000 		.4byte	.LBB319
 1951 0b46 1C000000 		.4byte	.LBE319-.LBB319
 1952 0b4a 01       		.byte	0x1
 1953 0b4b 74       		.byte	0x74
 1954 0b4c 2E       		.uleb128 0x2e
 1955 0b4d 3E060000 		.4byte	0x63e
 1956 0b51 AB040000 		.4byte	.LLST41
 1957 0b55 2E       		.uleb128 0x2e
 1958 0b56 49060000 		.4byte	0x649
 1959 0b5a BF040000 		.4byte	.LLST42
 1960 0b5e 32       		.uleb128 0x32
 1961 0b5f 0D050000 		.4byte	0x50d
 1962 0b63 00000000 		.4byte	.LBB321
 1963 0b67 1C000000 		.4byte	.LBE321-.LBB321
 1964 0b6b 01       		.byte	0x1
 1965 0b6c 0C       		.byte	0xc
 1966 0b6d 39       		.uleb128 0x39
 1967 0b6e 1B050000 		.4byte	0x51b
 1968 0b72 06       		.uleb128 0x6
 1969 0b73 03       		.byte	0x3
 1970 0b74 00000000 		.4byte	_ZL2pd
 1971 0b78 9F       		.byte	0x9f
 1972 0b79 3D       		.uleb128 0x3d
 1973 0b7a F5040000 		.4byte	0x4f5
 1974 0b7e 00000000 		.4byte	.LBB322
 1975 0b82 10000000 		.4byte	.LBE322-.LBB322
 1976 0b86 04       		.byte	0x4
 1977 0b87 30       		.byte	0x30
 1978 0b88 960B0000 		.4byte	0xb96
 1979 0b8c 2E       		.uleb128 0x2e
 1980 0b8d 03050000 		.4byte	0x503
 1981 0b91 D5040000 		.4byte	.LLST43
 1982 0b95 00       		.byte	0
 1983 0b96 32       		.uleb128 0x32
 1984 0b97 D8040000 		.4byte	0x4d8
 1985 0b9b 10000000 		.4byte	.LBB324
 1986 0b9f 0C000000 		.4byte	.LBE324-.LBB324
 1987 0ba3 04       		.byte	0x4
 1988 0ba4 30       		.byte	0x30
 1989 0ba5 2E       		.uleb128 0x2e
 1990 0ba6 E6040000 		.4byte	0x4e6
 1991 0baa ED040000 		.4byte	.LLST44
 1992 0bae 00       		.byte	0
ARM GAS  C:\msys64\tmp\cctsVYwx.s 			page 36


 1993 0baf 00       		.byte	0
 1994 0bb0 00       		.byte	0
 1995 0bb1 00       		.byte	0
 1996 0bb2 3E       		.uleb128 0x3e
 1997 0bb3 02070000 		.4byte	.LASF85
 1998 0bb7 03       		.byte	0x3
 1999 0bb8 3F       		.byte	0x3f
 2000 0bb9 CE030000 		.4byte	0x3ce
 2001 0bbd 3E       		.uleb128 0x3e
 2002 0bbe D6050000 		.4byte	.LASF86
 2003 0bc2 03       		.byte	0x3
 2004 0bc3 44       		.byte	0x44
 2005 0bc4 CE030000 		.4byte	0x3ce
 2006 0bc8 0D       		.uleb128 0xd
 2007 0bc9 4A030000 		.4byte	0x34a
 2008 0bcd D80B0000 		.4byte	0xbd8
 2009 0bd1 0E       		.uleb128 0xe
 2010 0bd2 D6000000 		.4byte	0xd6
 2011 0bd6 97       		.byte	0x97
 2012 0bd7 00       		.byte	0
 2013 0bd8 3E       		.uleb128 0x3e
 2014 0bd9 E5020000 		.4byte	.LASF87
 2015 0bdd 03       		.byte	0x3
 2016 0bde 61       		.byte	0x61
 2017 0bdf E30B0000 		.4byte	0xbe3
 2018 0be3 08       		.uleb128 0x8
 2019 0be4 C80B0000 		.4byte	0xbc8
 2020 0be8 0D       		.uleb128 0xd
 2021 0be9 4A030000 		.4byte	0x34a
 2022 0bed F80B0000 		.4byte	0xbf8
 2023 0bf1 0E       		.uleb128 0xe
 2024 0bf2 D6000000 		.4byte	0xd6
 2025 0bf6 80       		.byte	0x80
 2026 0bf7 00       		.byte	0
 2027 0bf8 3E       		.uleb128 0x3e
 2028 0bf9 2D060000 		.4byte	.LASF88
 2029 0bfd 03       		.byte	0x3
 2030 0bfe 8E       		.byte	0x8e
 2031 0bff 030C0000 		.4byte	0xc03
 2032 0c03 08       		.uleb128 0x8
 2033 0c04 E80B0000 		.4byte	0xbe8
 2034 0c08 0D       		.uleb128 0xd
 2035 0c09 4A030000 		.4byte	0x34a
 2036 0c0d 190C0000 		.4byte	0xc19
 2037 0c11 3F       		.uleb128 0x3f
 2038 0c12 D6000000 		.4byte	0xd6
 2039 0c16 8603     		.2byte	0x386
 2040 0c18 00       		.byte	0
 2041 0c19 3E       		.uleb128 0x3e
 2042 0c1a 95040000 		.4byte	.LASF89
 2043 0c1e 03       		.byte	0x3
 2044 0c1f C0       		.byte	0xc0
 2045 0c20 240C0000 		.4byte	0xc24
 2046 0c24 08       		.uleb128 0x8
 2047 0c25 080C0000 		.4byte	0xc08
 2048 0c29 40       		.uleb128 0x40
 2049 0c2a 59050000 		.4byte	.LASF90
ARM GAS  C:\msys64\tmp\cctsVYwx.s 			page 37


 2050 0c2e 03       		.byte	0x3
 2051 0c2f 3201     		.2byte	0x132
 2052 0c31 350C0000 		.4byte	0xc35
 2053 0c35 08       		.uleb128 0x8
 2054 0c36 080C0000 		.4byte	0xc08
 2055 0c3a 40       		.uleb128 0x40
 2056 0c3b 13000000 		.4byte	.LASF91
 2057 0c3f 03       		.byte	0x3
 2058 0c40 A501     		.2byte	0x1a5
 2059 0c42 460C0000 		.4byte	0xc46
 2060 0c46 08       		.uleb128 0x8
 2061 0c47 080C0000 		.4byte	0xc08
 2062 0c4b 0D       		.uleb128 0xd
 2063 0c4c 4A030000 		.4byte	0x34a
 2064 0c50 5C0C0000 		.4byte	0xc5c
 2065 0c54 3F       		.uleb128 0x3f
 2066 0c55 D6000000 		.4byte	0xd6
 2067 0c59 0001     		.2byte	0x100
 2068 0c5b 00       		.byte	0
 2069 0c5c 40       		.uleb128 0x40
 2070 0c5d F0030000 		.4byte	.LASF92
 2071 0c61 03       		.byte	0x3
 2072 0c62 4602     		.2byte	0x246
 2073 0c64 680C0000 		.4byte	0xc68
 2074 0c68 08       		.uleb128 0x8
 2075 0c69 4B0C0000 		.4byte	0xc4b
 2076 0c6d 40       		.uleb128 0x40
 2077 0c6e 4B020000 		.4byte	.LASF93
 2078 0c72 03       		.byte	0x3
 2079 0c73 5D02     		.2byte	0x25d
 2080 0c75 790C0000 		.4byte	0xc79
 2081 0c79 08       		.uleb128 0x8
 2082 0c7a 4B0C0000 		.4byte	0xc4b
 2083 0c7e 40       		.uleb128 0x40
 2084 0c7f 3A050000 		.4byte	.LASF94
 2085 0c83 03       		.byte	0x3
 2086 0c84 7502     		.2byte	0x275
 2087 0c86 8A0C0000 		.4byte	0xc8a
 2088 0c8a 08       		.uleb128 0x8
 2089 0c8b 4B0C0000 		.4byte	0xc4b
 2090 0c8f 40       		.uleb128 0x40
 2091 0c90 4A050000 		.4byte	.LASF95
 2092 0c94 03       		.byte	0x3
 2093 0c95 A402     		.2byte	0x2a4
 2094 0c97 9B0C0000 		.4byte	0xc9b
 2095 0c9b 08       		.uleb128 0x8
 2096 0c9c E80B0000 		.4byte	0xbe8
 2097 0ca0 40       		.uleb128 0x40
 2098 0ca1 C2030000 		.4byte	.LASF96
 2099 0ca5 03       		.byte	0x3
 2100 0ca6 B902     		.2byte	0x2b9
 2101 0ca8 AC0C0000 		.4byte	0xcac
 2102 0cac 08       		.uleb128 0x8
 2103 0cad E80B0000 		.4byte	0xbe8
 2104 0cb1 40       		.uleb128 0x40
 2105 0cb2 4B010000 		.4byte	.LASF97
 2106 0cb6 03       		.byte	0x3
ARM GAS  C:\msys64\tmp\cctsVYwx.s 			page 38


 2107 0cb7 D602     		.2byte	0x2d6
 2108 0cb9 BD0C0000 		.4byte	0xcbd
 2109 0cbd 08       		.uleb128 0x8
 2110 0cbe E80B0000 		.4byte	0xbe8
 2111 0cc2 2A       		.uleb128 0x2a
 2112 0cc3 706400   		.ascii	"pd\000"
 2113 0cc6 01       		.byte	0x1
 2114 0cc7 0C       		.byte	0xc
 2115 0cc8 00020000 		.4byte	0x200
 2116 0ccc 05       		.uleb128 0x5
 2117 0ccd 03       		.byte	0x3
 2118 0cce 00000000 		.4byte	_ZL2pd
 2119 0cd2 00       		.byte	0
 2120              		.section	.debug_abbrev,"",%progbits
 2121              	.Ldebug_abbrev0:
 2122 0000 01       		.uleb128 0x1
 2123 0001 11       		.uleb128 0x11
 2124 0002 01       		.byte	0x1
 2125 0003 25       		.uleb128 0x25
 2126 0004 0E       		.uleb128 0xe
 2127 0005 13       		.uleb128 0x13
 2128 0006 0B       		.uleb128 0xb
 2129 0007 03       		.uleb128 0x3
 2130 0008 0E       		.uleb128 0xe
 2131 0009 1B       		.uleb128 0x1b
 2132 000a 0E       		.uleb128 0xe
 2133 000b 55       		.uleb128 0x55
 2134 000c 17       		.uleb128 0x17
 2135 000d 11       		.uleb128 0x11
 2136 000e 01       		.uleb128 0x1
 2137 000f 10       		.uleb128 0x10
 2138 0010 17       		.uleb128 0x17
 2139 0011 00       		.byte	0
 2140 0012 00       		.byte	0
 2141 0013 02       		.uleb128 0x2
 2142 0014 24       		.uleb128 0x24
 2143 0015 00       		.byte	0
 2144 0016 0B       		.uleb128 0xb
 2145 0017 0B       		.uleb128 0xb
 2146 0018 3E       		.uleb128 0x3e
 2147 0019 0B       		.uleb128 0xb
 2148 001a 03       		.uleb128 0x3
 2149 001b 0E       		.uleb128 0xe
 2150 001c 00       		.byte	0
 2151 001d 00       		.byte	0
 2152 001e 03       		.uleb128 0x3
 2153 001f 24       		.uleb128 0x24
 2154 0020 00       		.byte	0
 2155 0021 0B       		.uleb128 0xb
 2156 0022 0B       		.uleb128 0xb
 2157 0023 3E       		.uleb128 0x3e
 2158 0024 0B       		.uleb128 0xb
 2159 0025 03       		.uleb128 0x3
 2160 0026 08       		.uleb128 0x8
 2161 0027 00       		.byte	0
 2162 0028 00       		.byte	0
 2163 0029 04       		.uleb128 0x4
ARM GAS  C:\msys64\tmp\cctsVYwx.s 			page 39


 2164 002a 16       		.uleb128 0x16
 2165 002b 00       		.byte	0
 2166 002c 03       		.uleb128 0x3
 2167 002d 0E       		.uleb128 0xe
 2168 002e 3A       		.uleb128 0x3a
 2169 002f 0B       		.uleb128 0xb
 2170 0030 3B       		.uleb128 0x3b
 2171 0031 0B       		.uleb128 0xb
 2172 0032 49       		.uleb128 0x49
 2173 0033 13       		.uleb128 0x13
 2174 0034 00       		.byte	0
 2175 0035 00       		.byte	0
 2176 0036 05       		.uleb128 0x5
 2177 0037 3B       		.uleb128 0x3b
 2178 0038 00       		.byte	0
 2179 0039 03       		.uleb128 0x3
 2180 003a 0E       		.uleb128 0xe
 2181 003b 00       		.byte	0
 2182 003c 00       		.byte	0
 2183 003d 06       		.uleb128 0x6
 2184 003e 16       		.uleb128 0x16
 2185 003f 00       		.byte	0
 2186 0040 03       		.uleb128 0x3
 2187 0041 0E       		.uleb128 0xe
 2188 0042 3A       		.uleb128 0x3a
 2189 0043 0B       		.uleb128 0xb
 2190 0044 3B       		.uleb128 0x3b
 2191 0045 05       		.uleb128 0x5
 2192 0046 49       		.uleb128 0x49
 2193 0047 13       		.uleb128 0x13
 2194 0048 00       		.byte	0
 2195 0049 00       		.byte	0
 2196 004a 07       		.uleb128 0x7
 2197 004b 0F       		.uleb128 0xf
 2198 004c 00       		.byte	0
 2199 004d 0B       		.uleb128 0xb
 2200 004e 0B       		.uleb128 0xb
 2201 004f 49       		.uleb128 0x49
 2202 0050 13       		.uleb128 0x13
 2203 0051 00       		.byte	0
 2204 0052 00       		.byte	0
 2205 0053 08       		.uleb128 0x8
 2206 0054 26       		.uleb128 0x26
 2207 0055 00       		.byte	0
 2208 0056 49       		.uleb128 0x49
 2209 0057 13       		.uleb128 0x13
 2210 0058 00       		.byte	0
 2211 0059 00       		.byte	0
 2212 005a 09       		.uleb128 0x9
 2213 005b 04       		.uleb128 0x4
 2214 005c 01       		.byte	0x1
 2215 005d 0B       		.uleb128 0xb
 2216 005e 0B       		.uleb128 0xb
 2217 005f 49       		.uleb128 0x49
 2218 0060 13       		.uleb128 0x13
 2219 0061 3A       		.uleb128 0x3a
 2220 0062 0B       		.uleb128 0xb
ARM GAS  C:\msys64\tmp\cctsVYwx.s 			page 40


 2221 0063 3B       		.uleb128 0x3b
 2222 0064 0B       		.uleb128 0xb
 2223 0065 01       		.uleb128 0x1
 2224 0066 13       		.uleb128 0x13
 2225 0067 00       		.byte	0
 2226 0068 00       		.byte	0
 2227 0069 0A       		.uleb128 0xa
 2228 006a 28       		.uleb128 0x28
 2229 006b 00       		.byte	0
 2230 006c 03       		.uleb128 0x3
 2231 006d 0E       		.uleb128 0xe
 2232 006e 1C       		.uleb128 0x1c
 2233 006f 0B       		.uleb128 0xb
 2234 0070 00       		.byte	0
 2235 0071 00       		.byte	0
 2236 0072 0B       		.uleb128 0xb
 2237 0073 13       		.uleb128 0x13
 2238 0074 01       		.byte	0x1
 2239 0075 03       		.uleb128 0x3
 2240 0076 0E       		.uleb128 0xe
 2241 0077 0B       		.uleb128 0xb
 2242 0078 0B       		.uleb128 0xb
 2243 0079 3A       		.uleb128 0x3a
 2244 007a 0B       		.uleb128 0xb
 2245 007b 3B       		.uleb128 0x3b
 2246 007c 0B       		.uleb128 0xb
 2247 007d 01       		.uleb128 0x1
 2248 007e 13       		.uleb128 0x13
 2249 007f 00       		.byte	0
 2250 0080 00       		.byte	0
 2251 0081 0C       		.uleb128 0xc
 2252 0082 0D       		.uleb128 0xd
 2253 0083 00       		.byte	0
 2254 0084 03       		.uleb128 0x3
 2255 0085 0E       		.uleb128 0xe
 2256 0086 3A       		.uleb128 0x3a
 2257 0087 0B       		.uleb128 0xb
 2258 0088 3B       		.uleb128 0x3b
 2259 0089 0B       		.uleb128 0xb
 2260 008a 49       		.uleb128 0x49
 2261 008b 13       		.uleb128 0x13
 2262 008c 38       		.uleb128 0x38
 2263 008d 0B       		.uleb128 0xb
 2264 008e 00       		.byte	0
 2265 008f 00       		.byte	0
 2266 0090 0D       		.uleb128 0xd
 2267 0091 01       		.uleb128 0x1
 2268 0092 01       		.byte	0x1
 2269 0093 49       		.uleb128 0x49
 2270 0094 13       		.uleb128 0x13
 2271 0095 01       		.uleb128 0x1
 2272 0096 13       		.uleb128 0x13
 2273 0097 00       		.byte	0
 2274 0098 00       		.byte	0
 2275 0099 0E       		.uleb128 0xe
 2276 009a 21       		.uleb128 0x21
 2277 009b 00       		.byte	0
ARM GAS  C:\msys64\tmp\cctsVYwx.s 			page 41


 2278 009c 49       		.uleb128 0x49
 2279 009d 13       		.uleb128 0x13
 2280 009e 2F       		.uleb128 0x2f
 2281 009f 0B       		.uleb128 0xb
 2282 00a0 00       		.byte	0
 2283 00a1 00       		.byte	0
 2284 00a2 0F       		.uleb128 0xf
 2285 00a3 04       		.uleb128 0x4
 2286 00a4 01       		.byte	0x1
 2287 00a5 0B       		.uleb128 0xb
 2288 00a6 0B       		.uleb128 0xb
 2289 00a7 49       		.uleb128 0x49
 2290 00a8 13       		.uleb128 0x13
 2291 00a9 3A       		.uleb128 0x3a
 2292 00aa 0B       		.uleb128 0xb
 2293 00ab 3B       		.uleb128 0x3b
 2294 00ac 0B       		.uleb128 0xb
 2295 00ad 6E       		.uleb128 0x6e
 2296 00ae 0E       		.uleb128 0xe
 2297 00af 01       		.uleb128 0x1
 2298 00b0 13       		.uleb128 0x13
 2299 00b1 00       		.byte	0
 2300 00b2 00       		.byte	0
 2301 00b3 10       		.uleb128 0x10
 2302 00b4 13       		.uleb128 0x13
 2303 00b5 01       		.byte	0x1
 2304 00b6 03       		.uleb128 0x3
 2305 00b7 08       		.uleb128 0x8
 2306 00b8 0B       		.uleb128 0xb
 2307 00b9 0B       		.uleb128 0xb
 2308 00ba 3A       		.uleb128 0x3a
 2309 00bb 0B       		.uleb128 0xb
 2310 00bc 3B       		.uleb128 0x3b
 2311 00bd 0B       		.uleb128 0xb
 2312 00be 01       		.uleb128 0x1
 2313 00bf 13       		.uleb128 0x13
 2314 00c0 00       		.byte	0
 2315 00c1 00       		.byte	0
 2316 00c2 11       		.uleb128 0x11
 2317 00c3 0D       		.uleb128 0xd
 2318 00c4 00       		.byte	0
 2319 00c5 03       		.uleb128 0x3
 2320 00c6 08       		.uleb128 0x8
 2321 00c7 3A       		.uleb128 0x3a
 2322 00c8 0B       		.uleb128 0xb
 2323 00c9 3B       		.uleb128 0x3b
 2324 00ca 0B       		.uleb128 0xb
 2325 00cb 49       		.uleb128 0x49
 2326 00cc 13       		.uleb128 0x13
 2327 00cd 38       		.uleb128 0x38
 2328 00ce 0B       		.uleb128 0xb
 2329 00cf 00       		.byte	0
 2330 00d0 00       		.byte	0
 2331 00d1 12       		.uleb128 0x12
 2332 00d2 2E       		.uleb128 0x2e
 2333 00d3 01       		.byte	0x1
 2334 00d4 3F       		.uleb128 0x3f
ARM GAS  C:\msys64\tmp\cctsVYwx.s 			page 42


 2335 00d5 19       		.uleb128 0x19
 2336 00d6 03       		.uleb128 0x3
 2337 00d7 0E       		.uleb128 0xe
 2338 00d8 3A       		.uleb128 0x3a
 2339 00d9 0B       		.uleb128 0xb
 2340 00da 3B       		.uleb128 0x3b
 2341 00db 0B       		.uleb128 0xb
 2342 00dc 6E       		.uleb128 0x6e
 2343 00dd 0E       		.uleb128 0xe
 2344 00de 49       		.uleb128 0x49
 2345 00df 13       		.uleb128 0x13
 2346 00e0 3C       		.uleb128 0x3c
 2347 00e1 19       		.uleb128 0x19
 2348 00e2 64       		.uleb128 0x64
 2349 00e3 13       		.uleb128 0x13
 2350 00e4 00       		.byte	0
 2351 00e5 00       		.byte	0
 2352 00e6 13       		.uleb128 0x13
 2353 00e7 05       		.uleb128 0x5
 2354 00e8 00       		.byte	0
 2355 00e9 49       		.uleb128 0x49
 2356 00ea 13       		.uleb128 0x13
 2357 00eb 34       		.uleb128 0x34
 2358 00ec 19       		.uleb128 0x19
 2359 00ed 00       		.byte	0
 2360 00ee 00       		.byte	0
 2361 00ef 14       		.uleb128 0x14
 2362 00f0 0D       		.uleb128 0xd
 2363 00f1 00       		.byte	0
 2364 00f2 03       		.uleb128 0x3
 2365 00f3 0E       		.uleb128 0xe
 2366 00f4 3A       		.uleb128 0x3a
 2367 00f5 0B       		.uleb128 0xb
 2368 00f6 3B       		.uleb128 0x3b
 2369 00f7 0B       		.uleb128 0xb
 2370 00f8 49       		.uleb128 0x49
 2371 00f9 13       		.uleb128 0x13
 2372 00fa 0B       		.uleb128 0xb
 2373 00fb 0B       		.uleb128 0xb
 2374 00fc 0D       		.uleb128 0xd
 2375 00fd 0B       		.uleb128 0xb
 2376 00fe 0C       		.uleb128 0xc
 2377 00ff 0B       		.uleb128 0xb
 2378 0100 38       		.uleb128 0x38
 2379 0101 0B       		.uleb128 0xb
 2380 0102 00       		.byte	0
 2381 0103 00       		.byte	0
 2382 0104 15       		.uleb128 0x15
 2383 0105 2E       		.uleb128 0x2e
 2384 0106 01       		.byte	0x1
 2385 0107 3F       		.uleb128 0x3f
 2386 0108 19       		.uleb128 0x19
 2387 0109 03       		.uleb128 0x3
 2388 010a 0E       		.uleb128 0xe
 2389 010b 3A       		.uleb128 0x3a
 2390 010c 0B       		.uleb128 0xb
 2391 010d 3B       		.uleb128 0x3b
ARM GAS  C:\msys64\tmp\cctsVYwx.s 			page 43


 2392 010e 0B       		.uleb128 0xb
 2393 010f 6E       		.uleb128 0x6e
 2394 0110 0E       		.uleb128 0xe
 2395 0111 49       		.uleb128 0x49
 2396 0112 13       		.uleb128 0x13
 2397 0113 3C       		.uleb128 0x3c
 2398 0114 19       		.uleb128 0x19
 2399 0115 64       		.uleb128 0x64
 2400 0116 13       		.uleb128 0x13
 2401 0117 01       		.uleb128 0x1
 2402 0118 13       		.uleb128 0x13
 2403 0119 00       		.byte	0
 2404 011a 00       		.byte	0
 2405 011b 16       		.uleb128 0x16
 2406 011c 2E       		.uleb128 0x2e
 2407 011d 01       		.byte	0x1
 2408 011e 3F       		.uleb128 0x3f
 2409 011f 19       		.uleb128 0x19
 2410 0120 03       		.uleb128 0x3
 2411 0121 0E       		.uleb128 0xe
 2412 0122 3A       		.uleb128 0x3a
 2413 0123 0B       		.uleb128 0xb
 2414 0124 3B       		.uleb128 0x3b
 2415 0125 0B       		.uleb128 0xb
 2416 0126 6E       		.uleb128 0x6e
 2417 0127 0E       		.uleb128 0xe
 2418 0128 3C       		.uleb128 0x3c
 2419 0129 19       		.uleb128 0x19
 2420 012a 64       		.uleb128 0x64
 2421 012b 13       		.uleb128 0x13
 2422 012c 00       		.byte	0
 2423 012d 00       		.byte	0
 2424 012e 17       		.uleb128 0x17
 2425 012f 2E       		.uleb128 0x2e
 2426 0130 01       		.byte	0x1
 2427 0131 3F       		.uleb128 0x3f
 2428 0132 19       		.uleb128 0x19
 2429 0133 03       		.uleb128 0x3
 2430 0134 08       		.uleb128 0x8
 2431 0135 3A       		.uleb128 0x3a
 2432 0136 0B       		.uleb128 0xb
 2433 0137 3B       		.uleb128 0x3b
 2434 0138 0B       		.uleb128 0xb
 2435 0139 6E       		.uleb128 0x6e
 2436 013a 0E       		.uleb128 0xe
 2437 013b 49       		.uleb128 0x49
 2438 013c 13       		.uleb128 0x13
 2439 013d 3C       		.uleb128 0x3c
 2440 013e 19       		.uleb128 0x19
 2441 013f 64       		.uleb128 0x64
 2442 0140 13       		.uleb128 0x13
 2443 0141 01       		.uleb128 0x1
 2444 0142 13       		.uleb128 0x13
 2445 0143 00       		.byte	0
 2446 0144 00       		.byte	0
 2447 0145 18       		.uleb128 0x18
 2448 0146 05       		.uleb128 0x5
ARM GAS  C:\msys64\tmp\cctsVYwx.s 			page 44


 2449 0147 00       		.byte	0
 2450 0148 49       		.uleb128 0x49
 2451 0149 13       		.uleb128 0x13
 2452 014a 00       		.byte	0
 2453 014b 00       		.byte	0
 2454 014c 19       		.uleb128 0x19
 2455 014d 2E       		.uleb128 0x2e
 2456 014e 01       		.byte	0x1
 2457 014f 03       		.uleb128 0x3
 2458 0150 0E       		.uleb128 0xe
 2459 0151 3A       		.uleb128 0x3a
 2460 0152 0B       		.uleb128 0xb
 2461 0153 3B       		.uleb128 0x3b
 2462 0154 0B       		.uleb128 0xb
 2463 0155 49       		.uleb128 0x49
 2464 0156 13       		.uleb128 0x13
 2465 0157 20       		.uleb128 0x20
 2466 0158 0B       		.uleb128 0xb
 2467 0159 01       		.uleb128 0x1
 2468 015a 13       		.uleb128 0x13
 2469 015b 00       		.byte	0
 2470 015c 00       		.byte	0
 2471 015d 1A       		.uleb128 0x1a
 2472 015e 05       		.uleb128 0x5
 2473 015f 00       		.byte	0
 2474 0160 03       		.uleb128 0x3
 2475 0161 08       		.uleb128 0x8
 2476 0162 3A       		.uleb128 0x3a
 2477 0163 0B       		.uleb128 0xb
 2478 0164 3B       		.uleb128 0x3b
 2479 0165 0B       		.uleb128 0xb
 2480 0166 49       		.uleb128 0x49
 2481 0167 13       		.uleb128 0x13
 2482 0168 00       		.byte	0
 2483 0169 00       		.byte	0
 2484 016a 1B       		.uleb128 0x1b
 2485 016b 2E       		.uleb128 0x2e
 2486 016c 01       		.byte	0x1
 2487 016d 03       		.uleb128 0x3
 2488 016e 0E       		.uleb128 0xe
 2489 016f 3A       		.uleb128 0x3a
 2490 0170 0B       		.uleb128 0xb
 2491 0171 3B       		.uleb128 0x3b
 2492 0172 05       		.uleb128 0x5
 2493 0173 49       		.uleb128 0x49
 2494 0174 13       		.uleb128 0x13
 2495 0175 20       		.uleb128 0x20
 2496 0176 0B       		.uleb128 0xb
 2497 0177 01       		.uleb128 0x1
 2498 0178 13       		.uleb128 0x13
 2499 0179 00       		.byte	0
 2500 017a 00       		.byte	0
 2501 017b 1C       		.uleb128 0x1c
 2502 017c 05       		.uleb128 0x5
 2503 017d 00       		.byte	0
 2504 017e 03       		.uleb128 0x3
 2505 017f 08       		.uleb128 0x8
ARM GAS  C:\msys64\tmp\cctsVYwx.s 			page 45


 2506 0180 3A       		.uleb128 0x3a
 2507 0181 0B       		.uleb128 0xb
 2508 0182 3B       		.uleb128 0x3b
 2509 0183 05       		.uleb128 0x5
 2510 0184 49       		.uleb128 0x49
 2511 0185 13       		.uleb128 0x13
 2512 0186 00       		.byte	0
 2513 0187 00       		.byte	0
 2514 0188 1D       		.uleb128 0x1d
 2515 0189 05       		.uleb128 0x5
 2516 018a 00       		.byte	0
 2517 018b 03       		.uleb128 0x3
 2518 018c 0E       		.uleb128 0xe
 2519 018d 3A       		.uleb128 0x3a
 2520 018e 0B       		.uleb128 0xb
 2521 018f 3B       		.uleb128 0x3b
 2522 0190 0B       		.uleb128 0xb
 2523 0191 49       		.uleb128 0x49
 2524 0192 13       		.uleb128 0x13
 2525 0193 00       		.byte	0
 2526 0194 00       		.byte	0
 2527 0195 1E       		.uleb128 0x1e
 2528 0196 34       		.uleb128 0x34
 2529 0197 00       		.byte	0
 2530 0198 03       		.uleb128 0x3
 2531 0199 08       		.uleb128 0x8
 2532 019a 3A       		.uleb128 0x3a
 2533 019b 0B       		.uleb128 0xb
 2534 019c 3B       		.uleb128 0x3b
 2535 019d 0B       		.uleb128 0xb
 2536 019e 49       		.uleb128 0x49
 2537 019f 13       		.uleb128 0x13
 2538 01a0 00       		.byte	0
 2539 01a1 00       		.byte	0
 2540 01a2 1F       		.uleb128 0x1f
 2541 01a3 2E       		.uleb128 0x2e
 2542 01a4 01       		.byte	0x1
 2543 01a5 47       		.uleb128 0x47
 2544 01a6 13       		.uleb128 0x13
 2545 01a7 20       		.uleb128 0x20
 2546 01a8 0B       		.uleb128 0xb
 2547 01a9 64       		.uleb128 0x64
 2548 01aa 13       		.uleb128 0x13
 2549 01ab 01       		.uleb128 0x1
 2550 01ac 13       		.uleb128 0x13
 2551 01ad 00       		.byte	0
 2552 01ae 00       		.byte	0
 2553 01af 20       		.uleb128 0x20
 2554 01b0 05       		.uleb128 0x5
 2555 01b1 00       		.byte	0
 2556 01b2 03       		.uleb128 0x3
 2557 01b3 0E       		.uleb128 0xe
 2558 01b4 49       		.uleb128 0x49
 2559 01b5 13       		.uleb128 0x13
 2560 01b6 34       		.uleb128 0x34
 2561 01b7 19       		.uleb128 0x19
 2562 01b8 00       		.byte	0
ARM GAS  C:\msys64\tmp\cctsVYwx.s 			page 46


 2563 01b9 00       		.byte	0
 2564 01ba 21       		.uleb128 0x21
 2565 01bb 0B       		.uleb128 0xb
 2566 01bc 01       		.byte	0x1
 2567 01bd 01       		.uleb128 0x1
 2568 01be 13       		.uleb128 0x13
 2569 01bf 00       		.byte	0
 2570 01c0 00       		.byte	0
 2571 01c1 22       		.uleb128 0x22
 2572 01c2 34       		.uleb128 0x34
 2573 01c3 00       		.byte	0
 2574 01c4 03       		.uleb128 0x3
 2575 01c5 0E       		.uleb128 0xe
 2576 01c6 3A       		.uleb128 0x3a
 2577 01c7 0B       		.uleb128 0xb
 2578 01c8 3B       		.uleb128 0x3b
 2579 01c9 0B       		.uleb128 0xb
 2580 01ca 49       		.uleb128 0x49
 2581 01cb 13       		.uleb128 0x13
 2582 01cc 00       		.byte	0
 2583 01cd 00       		.byte	0
 2584 01ce 23       		.uleb128 0x23
 2585 01cf 0B       		.uleb128 0xb
 2586 01d0 01       		.byte	0x1
 2587 01d1 00       		.byte	0
 2588 01d2 00       		.byte	0
 2589 01d3 24       		.uleb128 0x24
 2590 01d4 2E       		.uleb128 0x2e
 2591 01d5 01       		.byte	0x1
 2592 01d6 03       		.uleb128 0x3
 2593 01d7 0E       		.uleb128 0xe
 2594 01d8 34       		.uleb128 0x34
 2595 01d9 19       		.uleb128 0x19
 2596 01da 20       		.uleb128 0x20
 2597 01db 0B       		.uleb128 0xb
 2598 01dc 01       		.uleb128 0x1
 2599 01dd 13       		.uleb128 0x13
 2600 01de 00       		.byte	0
 2601 01df 00       		.byte	0
 2602 01e0 25       		.uleb128 0x25
 2603 01e1 2E       		.uleb128 0x2e
 2604 01e2 01       		.byte	0x1
 2605 01e3 3F       		.uleb128 0x3f
 2606 01e4 19       		.uleb128 0x19
 2607 01e5 03       		.uleb128 0x3
 2608 01e6 0E       		.uleb128 0xe
 2609 01e7 3A       		.uleb128 0x3a
 2610 01e8 0B       		.uleb128 0xb
 2611 01e9 3B       		.uleb128 0x3b
 2612 01ea 0B       		.uleb128 0xb
 2613 01eb 11       		.uleb128 0x11
 2614 01ec 01       		.uleb128 0x1
 2615 01ed 12       		.uleb128 0x12
 2616 01ee 06       		.uleb128 0x6
 2617 01ef 40       		.uleb128 0x40
 2618 01f0 18       		.uleb128 0x18
 2619 01f1 9742     		.uleb128 0x2117
ARM GAS  C:\msys64\tmp\cctsVYwx.s 			page 47


 2620 01f3 19       		.uleb128 0x19
 2621 01f4 01       		.uleb128 0x1
 2622 01f5 13       		.uleb128 0x13
 2623 01f6 00       		.byte	0
 2624 01f7 00       		.byte	0
 2625 01f8 26       		.uleb128 0x26
 2626 01f9 05       		.uleb128 0x5
 2627 01fa 00       		.byte	0
 2628 01fb 03       		.uleb128 0x3
 2629 01fc 0E       		.uleb128 0xe
 2630 01fd 3A       		.uleb128 0x3a
 2631 01fe 0B       		.uleb128 0xb
 2632 01ff 3B       		.uleb128 0x3b
 2633 0200 0B       		.uleb128 0xb
 2634 0201 49       		.uleb128 0x49
 2635 0202 13       		.uleb128 0x13
 2636 0203 02       		.uleb128 0x2
 2637 0204 18       		.uleb128 0x18
 2638 0205 00       		.byte	0
 2639 0206 00       		.byte	0
 2640 0207 27       		.uleb128 0x27
 2641 0208 05       		.uleb128 0x5
 2642 0209 00       		.byte	0
 2643 020a 03       		.uleb128 0x3
 2644 020b 08       		.uleb128 0x8
 2645 020c 3A       		.uleb128 0x3a
 2646 020d 0B       		.uleb128 0xb
 2647 020e 3B       		.uleb128 0x3b
 2648 020f 0B       		.uleb128 0xb
 2649 0210 49       		.uleb128 0x49
 2650 0211 13       		.uleb128 0x13
 2651 0212 02       		.uleb128 0x2
 2652 0213 18       		.uleb128 0x18
 2653 0214 00       		.byte	0
 2654 0215 00       		.byte	0
 2655 0216 28       		.uleb128 0x28
 2656 0217 05       		.uleb128 0x5
 2657 0218 00       		.byte	0
 2658 0219 03       		.uleb128 0x3
 2659 021a 0E       		.uleb128 0xe
 2660 021b 3A       		.uleb128 0x3a
 2661 021c 0B       		.uleb128 0xb
 2662 021d 3B       		.uleb128 0x3b
 2663 021e 0B       		.uleb128 0xb
 2664 021f 49       		.uleb128 0x49
 2665 0220 13       		.uleb128 0x13
 2666 0221 02       		.uleb128 0x2
 2667 0222 17       		.uleb128 0x17
 2668 0223 00       		.byte	0
 2669 0224 00       		.byte	0
 2670 0225 29       		.uleb128 0x29
 2671 0226 05       		.uleb128 0x5
 2672 0227 00       		.byte	0
 2673 0228 03       		.uleb128 0x3
 2674 0229 08       		.uleb128 0x8
 2675 022a 3A       		.uleb128 0x3a
 2676 022b 0B       		.uleb128 0xb
ARM GAS  C:\msys64\tmp\cctsVYwx.s 			page 48


 2677 022c 3B       		.uleb128 0x3b
 2678 022d 0B       		.uleb128 0xb
 2679 022e 49       		.uleb128 0x49
 2680 022f 13       		.uleb128 0x13
 2681 0230 02       		.uleb128 0x2
 2682 0231 17       		.uleb128 0x17
 2683 0232 00       		.byte	0
 2684 0233 00       		.byte	0
 2685 0234 2A       		.uleb128 0x2a
 2686 0235 34       		.uleb128 0x34
 2687 0236 00       		.byte	0
 2688 0237 03       		.uleb128 0x3
 2689 0238 08       		.uleb128 0x8
 2690 0239 3A       		.uleb128 0x3a
 2691 023a 0B       		.uleb128 0xb
 2692 023b 3B       		.uleb128 0x3b
 2693 023c 0B       		.uleb128 0xb
 2694 023d 49       		.uleb128 0x49
 2695 023e 13       		.uleb128 0x13
 2696 023f 02       		.uleb128 0x2
 2697 0240 18       		.uleb128 0x18
 2698 0241 00       		.byte	0
 2699 0242 00       		.byte	0
 2700 0243 2B       		.uleb128 0x2b
 2701 0244 34       		.uleb128 0x34
 2702 0245 00       		.byte	0
 2703 0246 03       		.uleb128 0x3
 2704 0247 0E       		.uleb128 0xe
 2705 0248 3A       		.uleb128 0x3a
 2706 0249 0B       		.uleb128 0xb
 2707 024a 3B       		.uleb128 0x3b
 2708 024b 0B       		.uleb128 0xb
 2709 024c 49       		.uleb128 0x49
 2710 024d 13       		.uleb128 0x13
 2711 024e 02       		.uleb128 0x2
 2712 024f 17       		.uleb128 0x17
 2713 0250 00       		.byte	0
 2714 0251 00       		.byte	0
 2715 0252 2C       		.uleb128 0x2c
 2716 0253 34       		.uleb128 0x34
 2717 0254 00       		.byte	0
 2718 0255 03       		.uleb128 0x3
 2719 0256 08       		.uleb128 0x8
 2720 0257 3A       		.uleb128 0x3a
 2721 0258 0B       		.uleb128 0xb
 2722 0259 3B       		.uleb128 0x3b
 2723 025a 0B       		.uleb128 0xb
 2724 025b 49       		.uleb128 0x49
 2725 025c 13       		.uleb128 0x13
 2726 025d 02       		.uleb128 0x2
 2727 025e 17       		.uleb128 0x17
 2728 025f 00       		.byte	0
 2729 0260 00       		.byte	0
 2730 0261 2D       		.uleb128 0x2d
 2731 0262 1D       		.uleb128 0x1d
 2732 0263 01       		.byte	0x1
 2733 0264 31       		.uleb128 0x31
ARM GAS  C:\msys64\tmp\cctsVYwx.s 			page 49


 2734 0265 13       		.uleb128 0x13
 2735 0266 52       		.uleb128 0x52
 2736 0267 01       		.uleb128 0x1
 2737 0268 55       		.uleb128 0x55
 2738 0269 17       		.uleb128 0x17
 2739 026a 58       		.uleb128 0x58
 2740 026b 0B       		.uleb128 0xb
 2741 026c 59       		.uleb128 0x59
 2742 026d 0B       		.uleb128 0xb
 2743 026e 01       		.uleb128 0x1
 2744 026f 13       		.uleb128 0x13
 2745 0270 00       		.byte	0
 2746 0271 00       		.byte	0
 2747 0272 2E       		.uleb128 0x2e
 2748 0273 05       		.uleb128 0x5
 2749 0274 00       		.byte	0
 2750 0275 31       		.uleb128 0x31
 2751 0276 13       		.uleb128 0x13
 2752 0277 02       		.uleb128 0x2
 2753 0278 17       		.uleb128 0x17
 2754 0279 00       		.byte	0
 2755 027a 00       		.byte	0
 2756 027b 2F       		.uleb128 0x2f
 2757 027c 05       		.uleb128 0x5
 2758 027d 00       		.byte	0
 2759 027e 31       		.uleb128 0x31
 2760 027f 13       		.uleb128 0x13
 2761 0280 00       		.byte	0
 2762 0281 00       		.byte	0
 2763 0282 30       		.uleb128 0x30
 2764 0283 0B       		.uleb128 0xb
 2765 0284 01       		.byte	0x1
 2766 0285 55       		.uleb128 0x55
 2767 0286 17       		.uleb128 0x17
 2768 0287 00       		.byte	0
 2769 0288 00       		.byte	0
 2770 0289 31       		.uleb128 0x31
 2771 028a 34       		.uleb128 0x34
 2772 028b 00       		.byte	0
 2773 028c 31       		.uleb128 0x31
 2774 028d 13       		.uleb128 0x13
 2775 028e 00       		.byte	0
 2776 028f 00       		.byte	0
 2777 0290 32       		.uleb128 0x32
 2778 0291 1D       		.uleb128 0x1d
 2779 0292 01       		.byte	0x1
 2780 0293 31       		.uleb128 0x31
 2781 0294 13       		.uleb128 0x13
 2782 0295 11       		.uleb128 0x11
 2783 0296 01       		.uleb128 0x1
 2784 0297 12       		.uleb128 0x12
 2785 0298 06       		.uleb128 0x6
 2786 0299 58       		.uleb128 0x58
 2787 029a 0B       		.uleb128 0xb
 2788 029b 59       		.uleb128 0x59
 2789 029c 0B       		.uleb128 0xb
 2790 029d 00       		.byte	0
ARM GAS  C:\msys64\tmp\cctsVYwx.s 			page 50


 2791 029e 00       		.byte	0
 2792 029f 33       		.uleb128 0x33
 2793 02a0 1D       		.uleb128 0x1d
 2794 02a1 01       		.byte	0x1
 2795 02a2 31       		.uleb128 0x31
 2796 02a3 13       		.uleb128 0x13
 2797 02a4 11       		.uleb128 0x11
 2798 02a5 01       		.uleb128 0x1
 2799 02a6 12       		.uleb128 0x12
 2800 02a7 06       		.uleb128 0x6
 2801 02a8 58       		.uleb128 0x58
 2802 02a9 0B       		.uleb128 0xb
 2803 02aa 59       		.uleb128 0x59
 2804 02ab 05       		.uleb128 0x5
 2805 02ac 00       		.byte	0
 2806 02ad 00       		.byte	0
 2807 02ae 34       		.uleb128 0x34
 2808 02af 0B       		.uleb128 0xb
 2809 02b0 01       		.byte	0x1
 2810 02b1 55       		.uleb128 0x55
 2811 02b2 17       		.uleb128 0x17
 2812 02b3 01       		.uleb128 0x1
 2813 02b4 13       		.uleb128 0x13
 2814 02b5 00       		.byte	0
 2815 02b6 00       		.byte	0
 2816 02b7 35       		.uleb128 0x35
 2817 02b8 34       		.uleb128 0x34
 2818 02b9 00       		.byte	0
 2819 02ba 31       		.uleb128 0x31
 2820 02bb 13       		.uleb128 0x13
 2821 02bc 02       		.uleb128 0x2
 2822 02bd 17       		.uleb128 0x17
 2823 02be 00       		.byte	0
 2824 02bf 00       		.byte	0
 2825 02c0 36       		.uleb128 0x36
 2826 02c1 1D       		.uleb128 0x1d
 2827 02c2 01       		.byte	0x1
 2828 02c3 31       		.uleb128 0x31
 2829 02c4 13       		.uleb128 0x13
 2830 02c5 52       		.uleb128 0x52
 2831 02c6 01       		.uleb128 0x1
 2832 02c7 55       		.uleb128 0x55
 2833 02c8 17       		.uleb128 0x17
 2834 02c9 58       		.uleb128 0x58
 2835 02ca 0B       		.uleb128 0xb
 2836 02cb 59       		.uleb128 0x59
 2837 02cc 0B       		.uleb128 0xb
 2838 02cd 00       		.byte	0
 2839 02ce 00       		.byte	0
 2840 02cf 37       		.uleb128 0x37
 2841 02d0 0B       		.uleb128 0xb
 2842 02d1 01       		.byte	0x1
 2843 02d2 11       		.uleb128 0x11
 2844 02d3 01       		.uleb128 0x1
 2845 02d4 12       		.uleb128 0x12
 2846 02d5 06       		.uleb128 0x6
 2847 02d6 00       		.byte	0
ARM GAS  C:\msys64\tmp\cctsVYwx.s 			page 51


 2848 02d7 00       		.byte	0
 2849 02d8 38       		.uleb128 0x38
 2850 02d9 1D       		.uleb128 0x1d
 2851 02da 01       		.byte	0x1
 2852 02db 31       		.uleb128 0x31
 2853 02dc 13       		.uleb128 0x13
 2854 02dd 52       		.uleb128 0x52
 2855 02de 01       		.uleb128 0x1
 2856 02df 55       		.uleb128 0x55
 2857 02e0 17       		.uleb128 0x17
 2858 02e1 58       		.uleb128 0x58
 2859 02e2 0B       		.uleb128 0xb
 2860 02e3 59       		.uleb128 0x59
 2861 02e4 05       		.uleb128 0x5
 2862 02e5 00       		.byte	0
 2863 02e6 00       		.byte	0
 2864 02e7 39       		.uleb128 0x39
 2865 02e8 05       		.uleb128 0x5
 2866 02e9 00       		.byte	0
 2867 02ea 31       		.uleb128 0x31
 2868 02eb 13       		.uleb128 0x13
 2869 02ec 02       		.uleb128 0x2
 2870 02ed 18       		.uleb128 0x18
 2871 02ee 00       		.byte	0
 2872 02ef 00       		.byte	0
 2873 02f0 3A       		.uleb128 0x3a
 2874 02f1 10       		.uleb128 0x10
 2875 02f2 00       		.byte	0
 2876 02f3 0B       		.uleb128 0xb
 2877 02f4 0B       		.uleb128 0xb
 2878 02f5 49       		.uleb128 0x49
 2879 02f6 13       		.uleb128 0x13
 2880 02f7 00       		.byte	0
 2881 02f8 00       		.byte	0
 2882 02f9 3B       		.uleb128 0x3b
 2883 02fa 1D       		.uleb128 0x1d
 2884 02fb 01       		.byte	0x1
 2885 02fc 31       		.uleb128 0x31
 2886 02fd 13       		.uleb128 0x13
 2887 02fe 52       		.uleb128 0x52
 2888 02ff 01       		.uleb128 0x1
 2889 0300 55       		.uleb128 0x55
 2890 0301 17       		.uleb128 0x17
 2891 0302 58       		.uleb128 0x58
 2892 0303 0B       		.uleb128 0xb
 2893 0304 59       		.uleb128 0x59
 2894 0305 05       		.uleb128 0x5
 2895 0306 01       		.uleb128 0x1
 2896 0307 13       		.uleb128 0x13
 2897 0308 00       		.byte	0
 2898 0309 00       		.byte	0
 2899 030a 3C       		.uleb128 0x3c
 2900 030b 2E       		.uleb128 0x2e
 2901 030c 01       		.byte	0x1
 2902 030d 03       		.uleb128 0x3
 2903 030e 0E       		.uleb128 0xe
 2904 030f 34       		.uleb128 0x34
ARM GAS  C:\msys64\tmp\cctsVYwx.s 			page 52


 2905 0310 19       		.uleb128 0x19
 2906 0311 11       		.uleb128 0x11
 2907 0312 01       		.uleb128 0x1
 2908 0313 12       		.uleb128 0x12
 2909 0314 06       		.uleb128 0x6
 2910 0315 40       		.uleb128 0x40
 2911 0316 18       		.uleb128 0x18
 2912 0317 9742     		.uleb128 0x2117
 2913 0319 19       		.uleb128 0x19
 2914 031a 01       		.uleb128 0x1
 2915 031b 13       		.uleb128 0x13
 2916 031c 00       		.byte	0
 2917 031d 00       		.byte	0
 2918 031e 3D       		.uleb128 0x3d
 2919 031f 1D       		.uleb128 0x1d
 2920 0320 01       		.byte	0x1
 2921 0321 31       		.uleb128 0x31
 2922 0322 13       		.uleb128 0x13
 2923 0323 11       		.uleb128 0x11
 2924 0324 01       		.uleb128 0x1
 2925 0325 12       		.uleb128 0x12
 2926 0326 06       		.uleb128 0x6
 2927 0327 58       		.uleb128 0x58
 2928 0328 0B       		.uleb128 0xb
 2929 0329 59       		.uleb128 0x59
 2930 032a 0B       		.uleb128 0xb
 2931 032b 01       		.uleb128 0x1
 2932 032c 13       		.uleb128 0x13
 2933 032d 00       		.byte	0
 2934 032e 00       		.byte	0
 2935 032f 3E       		.uleb128 0x3e
 2936 0330 34       		.uleb128 0x34
 2937 0331 00       		.byte	0
 2938 0332 03       		.uleb128 0x3
 2939 0333 0E       		.uleb128 0xe
 2940 0334 3A       		.uleb128 0x3a
 2941 0335 0B       		.uleb128 0xb
 2942 0336 3B       		.uleb128 0x3b
 2943 0337 0B       		.uleb128 0xb
 2944 0338 49       		.uleb128 0x49
 2945 0339 13       		.uleb128 0x13
 2946 033a 3F       		.uleb128 0x3f
 2947 033b 19       		.uleb128 0x19
 2948 033c 3C       		.uleb128 0x3c
 2949 033d 19       		.uleb128 0x19
 2950 033e 00       		.byte	0
 2951 033f 00       		.byte	0
 2952 0340 3F       		.uleb128 0x3f
 2953 0341 21       		.uleb128 0x21
 2954 0342 00       		.byte	0
 2955 0343 49       		.uleb128 0x49
 2956 0344 13       		.uleb128 0x13
 2957 0345 2F       		.uleb128 0x2f
 2958 0346 05       		.uleb128 0x5
 2959 0347 00       		.byte	0
 2960 0348 00       		.byte	0
 2961 0349 40       		.uleb128 0x40
ARM GAS  C:\msys64\tmp\cctsVYwx.s 			page 53


 2962 034a 34       		.uleb128 0x34
 2963 034b 00       		.byte	0
 2964 034c 03       		.uleb128 0x3
 2965 034d 0E       		.uleb128 0xe
 2966 034e 3A       		.uleb128 0x3a
 2967 034f 0B       		.uleb128 0xb
 2968 0350 3B       		.uleb128 0x3b
 2969 0351 05       		.uleb128 0x5
 2970 0352 49       		.uleb128 0x49
 2971 0353 13       		.uleb128 0x13
 2972 0354 3F       		.uleb128 0x3f
 2973 0355 19       		.uleb128 0x19
 2974 0356 3C       		.uleb128 0x3c
 2975 0357 19       		.uleb128 0x19
 2976 0358 00       		.byte	0
 2977 0359 00       		.byte	0
 2978 035a 00       		.byte	0
 2979              		.section	.debug_loc,"",%progbits
 2980              	.Ldebug_loc0:
 2981              	.LLST0:
 2982 0000 02000000 		.4byte	.LVL1
 2983 0004 08000000 		.4byte	.LVL2
 2984 0008 0100     		.2byte	0x1
 2985 000a 50       		.byte	0x50
 2986 000b 08000000 		.4byte	.LVL2
 2987 000f 98010000 		.4byte	.LFE251
 2988 0013 0400     		.2byte	0x4
 2989 0015 F3       		.byte	0xf3
 2990 0016 01       		.uleb128 0x1
 2991 0017 50       		.byte	0x50
 2992 0018 9F       		.byte	0x9f
 2993 0019 00000000 		.4byte	0
 2994 001d 00000000 		.4byte	0
 2995              	.LLST1:
 2996 0021 02000000 		.4byte	.LVL1
 2997 0025 A6000000 		.4byte	.LVL18
 2998 0029 0100     		.2byte	0x1
 2999 002b 51       		.byte	0x51
 3000 002c A6000000 		.4byte	.LVL18
 3001 0030 98010000 		.4byte	.LFE251
 3002 0034 0400     		.2byte	0x4
 3003 0036 F3       		.byte	0xf3
 3004 0037 01       		.uleb128 0x1
 3005 0038 51       		.byte	0x51
 3006 0039 9F       		.byte	0x9f
 3007 003a 00000000 		.4byte	0
 3008 003e 00000000 		.4byte	0
 3009              	.LLST2:
 3010 0042 02000000 		.4byte	.LVL1
 3011 0046 74000000 		.4byte	.LVL13
 3012 004a 0100     		.2byte	0x1
 3013 004c 52       		.byte	0x52
 3014 004d 74000000 		.4byte	.LVL13
 3015 0051 98010000 		.4byte	.LFE251
 3016 0055 0400     		.2byte	0x4
 3017 0057 F3       		.byte	0xf3
 3018 0058 01       		.uleb128 0x1
ARM GAS  C:\msys64\tmp\cctsVYwx.s 			page 54


 3019 0059 52       		.byte	0x52
 3020 005a 9F       		.byte	0x9f
 3021 005b 00000000 		.4byte	0
 3022 005f 00000000 		.4byte	0
 3023              	.LLST3:
 3024 0063 0A000000 		.4byte	.LVL3
 3025 0067 22000000 		.4byte	.LVL4
 3026 006b 0500     		.2byte	0x5
 3027 006d 73       		.byte	0x73
 3028 006e 00       		.sleb128 0
 3029 006f 31       		.byte	0x31
 3030 0070 1A       		.byte	0x1a
 3031 0071 9F       		.byte	0x9f
 3032 0072 22000000 		.4byte	.LVL4
 3033 0076 98010000 		.4byte	.LFE251
 3034 007a 0D00     		.2byte	0xd
 3035 007c 03       		.byte	0x3
 3036 007d 08000000 		.4byte	_ZL2pd+8
 3037 0081 94       		.byte	0x94
 3038 0082 01       		.byte	0x1
 3039 0083 31       		.byte	0x31
 3040 0084 1A       		.byte	0x1a
 3041 0085 08       		.byte	0x8
 3042 0086 FF       		.byte	0xff
 3043 0087 1A       		.byte	0x1a
 3044 0088 9F       		.byte	0x9f
 3045 0089 00000000 		.4byte	0
 3046 008d 00000000 		.4byte	0
 3047              	.LLST4:
 3048 0091 2A000000 		.4byte	.LVL5
 3049 0095 3C000000 		.4byte	.LVL6
 3050 0099 0100     		.2byte	0x1
 3051 009b 53       		.byte	0x53
 3052 009c 3C000000 		.4byte	.LVL6
 3053 00a0 3E000000 		.4byte	.LVL7
 3054 00a4 0300     		.2byte	0x3
 3055 00a6 73       		.byte	0x73
 3056 00a7 7F       		.sleb128 -1
 3057 00a8 9F       		.byte	0x9f
 3058 00a9 3E000000 		.4byte	.LVL7
 3059 00ad 98010000 		.4byte	.LFE251
 3060 00b1 0E00     		.2byte	0xe
 3061 00b3 F3       		.byte	0xf3
 3062 00b4 01       		.uleb128 0x1
 3063 00b5 50       		.byte	0x50
 3064 00b6 23       		.byte	0x23
 3065 00b7 04       		.uleb128 0x4
 3066 00b8 94       		.byte	0x94
 3067 00b9 02       		.byte	0x2
 3068 00ba 0A       		.byte	0xa
 3069 00bb FFFF     		.2byte	0xffff
 3070 00bd 1A       		.byte	0x1a
 3071 00be 38       		.byte	0x38
 3072 00bf 26       		.byte	0x26
 3073 00c0 9F       		.byte	0x9f
 3074 00c1 00000000 		.4byte	0
 3075 00c5 00000000 		.4byte	0
ARM GAS  C:\msys64\tmp\cctsVYwx.s 			page 55


 3076              	.LLST5:
 3077 00c9 9A000000 		.4byte	.LVL17
 3078 00cd 5E010000 		.4byte	.LVL41
 3079 00d1 0100     		.2byte	0x1
 3080 00d3 51       		.byte	0x51
 3081 00d4 5E010000 		.4byte	.LVL41
 3082 00d8 6C010000 		.4byte	.LVL43
 3083 00dc 0300     		.2byte	0x3
 3084 00de 71       		.byte	0x71
 3085 00df 7C       		.sleb128 -4
 3086 00e0 9F       		.byte	0x9f
 3087 00e1 6C010000 		.4byte	.LVL43
 3088 00e5 98010000 		.4byte	.LFE251
 3089 00e9 0100     		.2byte	0x1
 3090 00eb 51       		.byte	0x51
 3091 00ec 00000000 		.4byte	0
 3092 00f0 00000000 		.4byte	0
 3093              	.LLST6:
 3094 00f4 42000000 		.4byte	.LVL8
 3095 00f8 48000000 		.4byte	.LVL10
 3096 00fc 0100     		.2byte	0x1
 3097 00fe 50       		.byte	0x50
 3098 00ff 48000000 		.4byte	.LVL10
 3099 0103 56000000 		.4byte	.LVL11
 3100 0107 0200     		.2byte	0x2
 3101 0109 90       		.byte	0x90
 3102 010a 4F       		.uleb128 0x4f
 3103 010b 56000000 		.4byte	.LVL11
 3104 010f 92000000 		.4byte	.LVL16
 3105 0113 0800     		.2byte	0x8
 3106 0115 F3       		.byte	0xf3
 3107 0116 01       		.uleb128 0x1
 3108 0117 50       		.byte	0x50
 3109 0118 23       		.byte	0x23
 3110 0119 04       		.uleb128 0x4
 3111 011a 94       		.byte	0x94
 3112 011b 02       		.byte	0x2
 3113 011c 9F       		.byte	0x9f
 3114 011d 00000000 		.4byte	0
 3115 0121 00000000 		.4byte	0
 3116              	.LLST7:
 3117 0125 78000000 		.4byte	.LVL14
 3118 0129 8A000000 		.4byte	.LVL15
 3119 012d 0600     		.2byte	0x6
 3120 012f 9E       		.byte	0x9e
 3121 0130 04       		.uleb128 0x4
 3122 0131 49FFB846 		.4byte	0x46b8ff49
 3123 0135 00000000 		.4byte	0
 3124 0139 00000000 		.4byte	0
 3125              	.LLST10:
 3126 013d 78000000 		.4byte	.LVL14
 3127 0141 8A000000 		.4byte	.LVL15
 3128 0145 0C00     		.2byte	0xc
 3129 0147 F5       		.byte	0xf5
 3130 0148 4C       		.uleb128 0x4c
 3131 0149 25       		.uleb128 0x25
 3132 014a F4       		.byte	0xf4
ARM GAS  C:\msys64\tmp\cctsVYwx.s 			page 56


 3133 014b 25       		.uleb128 0x25
 3134 014c 04       		.byte	0x4
 3135 014d 49FFB846 		.4byte	0x46b8ff49
 3136 0151 1C       		.byte	0x1c
 3137 0152 9F       		.byte	0x9f
 3138 0153 00000000 		.4byte	0
 3139 0157 00000000 		.4byte	0
 3140              	.LLST11:
 3141 015b AA000000 		.4byte	.LVL19
 3142 015f 6C010000 		.4byte	.LVL43
 3143 0163 0600     		.2byte	0x6
 3144 0165 03       		.byte	0x3
 3145 0166 00000000 		.4byte	_ZL2pd
 3146 016a 9F       		.byte	0x9f
 3147 016b 00000000 		.4byte	0
 3148 016f 00000000 		.4byte	0
 3149              	.LLST12:
 3150 0173 AA000000 		.4byte	.LVL19
 3151 0177 24010000 		.4byte	.LVL35
 3152 017b 0200     		.2byte	0x2
 3153 017d 90       		.byte	0x90
 3154 017e 4D       		.uleb128 0x4d
 3155 017f 00000000 		.4byte	0
 3156 0183 00000000 		.4byte	0
 3157              	.LLST13:
 3158 0187 AA000000 		.4byte	.LVL19
 3159 018b 24010000 		.4byte	.LVL35
 3160 018f 0500     		.2byte	0x5
 3161 0191 03       		.byte	0x3
 3162 0192 0C000000 		.4byte	_ZL2pd+12
 3163 0196 00000000 		.4byte	0
 3164 019a 00000000 		.4byte	0
 3165              	.LLST14:
 3166 019e CE000000 		.4byte	.LVL22
 3167 01a2 D2000000 		.4byte	.LVL23
 3168 01a6 0200     		.2byte	0x2
 3169 01a8 90       		.byte	0x90
 3170 01a9 4F       		.uleb128 0x4f
 3171 01aa 00000000 		.4byte	0
 3172 01ae 00000000 		.4byte	0
 3173              	.LLST16:
 3174 01b2 D2000000 		.4byte	.LVL23
 3175 01b6 E6000000 		.4byte	.LVL25
 3176 01ba 0200     		.2byte	0x2
 3177 01bc 90       		.byte	0x90
 3178 01bd 4F       		.uleb128 0x4f
 3179 01be 00000000 		.4byte	0
 3180 01c2 00000000 		.4byte	0
 3181              	.LLST17:
 3182 01c6 D2000000 		.4byte	.LVL23
 3183 01ca E6000000 		.4byte	.LVL25
 3184 01ce 0C00     		.2byte	0xc
 3185 01d0 F5       		.byte	0xf5
 3186 01d1 4F       		.uleb128 0x4f
 3187 01d2 25       		.uleb128 0x25
 3188 01d3 F5       		.byte	0xf5
 3189 01d4 4F       		.uleb128 0x4f
ARM GAS  C:\msys64\tmp\cctsVYwx.s 			page 57


 3190 01d5 25       		.uleb128 0x25
 3191 01d6 F7       		.byte	0xf7
 3192 01d7 2C       		.uleb128 0x2c
 3193 01d8 F7       		.byte	0xf7
 3194 01d9 25       		.uleb128 0x25
 3195 01da 1C       		.byte	0x1c
 3196 01db 9F       		.byte	0x9f
 3197 01dc 00000000 		.4byte	0
 3198 01e0 00000000 		.4byte	0
 3199              	.LLST18:
 3200 01e4 E2000000 		.4byte	.LVL24
 3201 01e8 0C010000 		.4byte	.LVL32
 3202 01ec 0200     		.2byte	0x2
 3203 01ee 90       		.byte	0x90
 3204 01ef 4E       		.uleb128 0x4e
 3205 01f0 00000000 		.4byte	0
 3206 01f4 00000000 		.4byte	0
 3207              	.LLST19:
 3208 01f8 EA000000 		.4byte	.LVL26
 3209 01fc 20010000 		.4byte	.LVL34
 3210 0200 0100     		.2byte	0x1
 3211 0202 50       		.byte	0x50
 3212 0203 00000000 		.4byte	0
 3213 0207 00000000 		.4byte	0
 3214              	.LLST20:
 3215 020b EE000000 		.4byte	.LVL27
 3216 020f F8000000 		.4byte	.LVL28
 3217 0213 0100     		.2byte	0x1
 3218 0215 53       		.byte	0x53
 3219 0216 F8000000 		.4byte	.LVL28
 3220 021a 00010000 		.4byte	.LVL29
 3221 021e 0300     		.2byte	0x3
 3222 0220 73       		.byte	0x73
 3223 0221 7F       		.sleb128 -1
 3224 0222 9F       		.byte	0x9f
 3225 0223 00010000 		.4byte	.LVL29
 3226 0227 20010000 		.4byte	.LVL34
 3227 022b 0600     		.2byte	0x6
 3228 022d 70       		.byte	0x70
 3229 022e 00       		.sleb128 0
 3230 022f 08       		.byte	0x8
 3231 0230 7F       		.byte	0x7f
 3232 0231 1A       		.byte	0x1a
 3233 0232 9F       		.byte	0x9f
 3234 0233 00000000 		.4byte	0
 3235 0237 00000000 		.4byte	0
 3236              	.LLST21:
 3237 023b EE000000 		.4byte	.LVL27
 3238 023f F8000000 		.4byte	.LVL28
 3239 0243 0600     		.2byte	0x6
 3240 0245 73       		.byte	0x73
 3241 0246 01       		.sleb128 1
 3242 0247 08       		.byte	0x8
 3243 0248 7F       		.byte	0x7f
 3244 0249 1A       		.byte	0x1a
 3245 024a 9F       		.byte	0x9f
 3246 024b F8000000 		.4byte	.LVL28
ARM GAS  C:\msys64\tmp\cctsVYwx.s 			page 58


 3247 024f 00010000 		.4byte	.LVL29
 3248 0253 0600     		.2byte	0x6
 3249 0255 73       		.byte	0x73
 3250 0256 00       		.sleb128 0
 3251 0257 08       		.byte	0x8
 3252 0258 7F       		.byte	0x7f
 3253 0259 1A       		.byte	0x1a
 3254 025a 9F       		.byte	0x9f
 3255 025b 00010000 		.4byte	.LVL29
 3256 025f 04010000 		.4byte	.LVL30
 3257 0263 0100     		.2byte	0x1
 3258 0265 53       		.byte	0x53
 3259 0266 04010000 		.4byte	.LVL30
 3260 026a 20010000 		.4byte	.LVL34
 3261 026e 0600     		.2byte	0x6
 3262 0270 70       		.byte	0x70
 3263 0271 01       		.sleb128 1
 3264 0272 08       		.byte	0x8
 3265 0273 7F       		.byte	0x7f
 3266 0274 1A       		.byte	0x1a
 3267 0275 9F       		.byte	0x9f
 3268 0276 00000000 		.4byte	0
 3269 027a 00000000 		.4byte	0
 3270              	.LLST22:
 3271 027e 08010000 		.4byte	.LVL31
 3272 0282 1A010000 		.4byte	.LVL33
 3273 0286 0200     		.2byte	0x2
 3274 0288 90       		.byte	0x90
 3275 0289 4F       		.uleb128 0x4f
 3276 028a 00000000 		.4byte	0
 3277 028e 00000000 		.4byte	0
 3278              	.LLST23:
 3279 0292 08010000 		.4byte	.LVL31
 3280 0296 0C010000 		.4byte	.LVL32
 3281 029a 0B00     		.2byte	0xb
 3282 029c F5       		.byte	0xf5
 3283 029d 4E       		.uleb128 0x4e
 3284 029e 25       		.uleb128 0x25
 3285 029f 70       		.byte	0x70
 3286 02a0 00       		.sleb128 0
 3287 02a1 F7       		.byte	0xf7
 3288 02a2 2C       		.uleb128 0x2c
 3289 02a3 F7       		.byte	0xf7
 3290 02a4 25       		.uleb128 0x25
 3291 02a5 1C       		.byte	0x1c
 3292 02a6 9F       		.byte	0x9f
 3293 02a7 0C010000 		.4byte	.LVL32
 3294 02ab 1A010000 		.4byte	.LVL33
 3295 02af 0200     		.2byte	0x2
 3296 02b1 90       		.byte	0x90
 3297 02b2 4E       		.uleb128 0x4e
 3298 02b3 00000000 		.4byte	0
 3299 02b7 00000000 		.4byte	0
 3300              	.LLST24:
 3301 02bb C0000000 		.4byte	.LVL21
 3302 02bf 24010000 		.4byte	.LVL35
 3303 02c3 0800     		.2byte	0x8
ARM GAS  C:\msys64\tmp\cctsVYwx.s 			page 59


 3304 02c5 F5       		.byte	0xf5
 3305 02c6 4D       		.uleb128 0x4d
 3306 02c7 25       		.uleb128 0x25
 3307 02c8 F5       		.byte	0xf5
 3308 02c9 4B       		.uleb128 0x4b
 3309 02ca 25       		.uleb128 0x25
 3310 02cb 1C       		.byte	0x1c
 3311 02cc 9F       		.byte	0x9f
 3312 02cd 00000000 		.4byte	0
 3313 02d1 00000000 		.4byte	0
 3314              	.LLST25:
 3315 02d5 C0000000 		.4byte	.LVL21
 3316 02d9 24010000 		.4byte	.LVL35
 3317 02dd 0C00     		.2byte	0xc
 3318 02df F4       		.byte	0xf4
 3319 02e0 25       		.uleb128 0x25
 3320 02e1 04       		.byte	0x4
 3321 02e2 0000803F 		.4byte	0x3f800000
 3322 02e6 F5       		.byte	0xf5
 3323 02e7 4B       		.uleb128 0x4b
 3324 02e8 25       		.uleb128 0x25
 3325 02e9 1C       		.byte	0x1c
 3326 02ea 9F       		.byte	0x9f
 3327 02eb 00000000 		.4byte	0
 3328 02ef 00000000 		.4byte	0
 3329              	.LLST26:
 3330 02f3 C0000000 		.4byte	.LVL21
 3331 02f7 24010000 		.4byte	.LVL35
 3332 02fb 1400     		.2byte	0x14
 3333 02fd F5       		.byte	0xf5
 3334 02fe 4D       		.uleb128 0x4d
 3335 02ff 25       		.uleb128 0x25
 3336 0300 F5       		.byte	0xf5
 3337 0301 4B       		.uleb128 0x4b
 3338 0302 25       		.uleb128 0x25
 3339 0303 1C       		.byte	0x1c
 3340 0304 F4       		.byte	0xf4
 3341 0305 25       		.uleb128 0x25
 3342 0306 04       		.byte	0x4
 3343 0307 0000803F 		.4byte	0x3f800000
 3344 030b F5       		.byte	0xf5
 3345 030c 4B       		.uleb128 0x4b
 3346 030d 25       		.uleb128 0x25
 3347 030e 1C       		.byte	0x1c
 3348 030f 1B       		.byte	0x1b
 3349 0310 9F       		.byte	0x9f
 3350 0311 00000000 		.4byte	0
 3351 0315 00000000 		.4byte	0
 3352              	.LLST27:
 3353 0319 B2000000 		.4byte	.LVL20
 3354 031d 24010000 		.4byte	.LVL35
 3355 0321 0800     		.2byte	0x8
 3356 0323 F5       		.byte	0xf5
 3357 0324 4D       		.uleb128 0x4d
 3358 0325 25       		.uleb128 0x25
 3359 0326 F5       		.byte	0xf5
 3360 0327 4B       		.uleb128 0x4b
ARM GAS  C:\msys64\tmp\cctsVYwx.s 			page 60


 3361 0328 25       		.uleb128 0x25
 3362 0329 1B       		.byte	0x1b
 3363 032a 9F       		.byte	0x9f
 3364 032b 00000000 		.4byte	0
 3365 032f 00000000 		.4byte	0
 3366              	.LLST28:
 3367 0333 24010000 		.4byte	.LVL35
 3368 0337 42010000 		.4byte	.LVL39
 3369 033b 0600     		.2byte	0x6
 3370 033d 9E       		.byte	0x9e
 3371 033e 04       		.uleb128 0x4
 3372 033f CDCC4C3D 		.4byte	0x3d4ccccd
 3373 0343 00000000 		.4byte	0
 3374 0347 00000000 		.4byte	0
 3375              	.LLST29:
 3376 034b 24010000 		.4byte	.LVL35
 3377 034f 42010000 		.4byte	.LVL39
 3378 0353 0600     		.2byte	0x6
 3379 0355 9E       		.byte	0x9e
 3380 0356 04       		.uleb128 0x4
 3381 0357 0000803F 		.4byte	0x3f800000
 3382 035b 00000000 		.4byte	0
 3383 035f 00000000 		.4byte	0
 3384              	.LLST30:
 3385 0363 24010000 		.4byte	.LVL35
 3386 0367 42010000 		.4byte	.LVL39
 3387 036b 0600     		.2byte	0x6
 3388 036d 9E       		.byte	0x9e
 3389 036e 04       		.uleb128 0x4
 3390 036f 000080BF 		.4byte	0xbf800000
 3391 0373 00000000 		.4byte	0
 3392 0377 00000000 		.4byte	0
 3393              	.LLST31:
 3394 037b 24010000 		.4byte	.LVL35
 3395 037f 2E010000 		.4byte	.LVL36
 3396 0383 0600     		.2byte	0x6
 3397 0385 9E       		.byte	0x9e
 3398 0386 04       		.uleb128 0x4
 3399 0387 000080BF 		.4byte	0xbf800000
 3400 038b 3E010000 		.4byte	.LVL38
 3401 038f 42010000 		.4byte	.LVL39
 3402 0393 0600     		.2byte	0x6
 3403 0395 9E       		.byte	0x9e
 3404 0396 04       		.uleb128 0x4
 3405 0397 000080BF 		.4byte	0xbf800000
 3406 039b 00000000 		.4byte	0
 3407 039f 00000000 		.4byte	0
 3408              	.LLST32:
 3409 03a3 BC010000 		.4byte	.LVL47
 3410 03a7 D8010000 		.4byte	.LVL49
 3411 03ab 0200     		.2byte	0x2
 3412 03ad 90       		.byte	0x90
 3413 03ae 4F       		.uleb128 0x4f
 3414 03af D8010000 		.4byte	.LVL49
 3415 03b3 DA010000 		.4byte	.LVL50
 3416 03b7 0F00     		.2byte	0xf
 3417 03b9 71       		.byte	0x71
ARM GAS  C:\msys64\tmp\cctsVYwx.s 			page 61


 3418 03ba 00       		.sleb128 0
 3419 03bb F7       		.byte	0xf7
 3420 03bc 33       		.uleb128 0x33
 3421 03bd F7       		.byte	0xf7
 3422 03be 25       		.uleb128 0x25
 3423 03bf F4       		.byte	0xf4
 3424 03c0 25       		.uleb128 0x25
 3425 03c1 04       		.byte	0x4
 3426 03c2 0AD7233C 		.4byte	0x3c23d70a
 3427 03c6 1E       		.byte	0x1e
 3428 03c7 9F       		.byte	0x9f
 3429 03c8 DA010000 		.4byte	.LVL50
 3430 03cc DE010000 		.4byte	.LVL51
 3431 03d0 0200     		.2byte	0x2
 3432 03d2 90       		.byte	0x90
 3433 03d3 4F       		.uleb128 0x4f
 3434 03d4 00000000 		.4byte	0
 3435 03d8 00000000 		.4byte	0
 3436              	.LLST33:
 3437 03dc BC010000 		.4byte	.LVL47
 3438 03e0 DE010000 		.4byte	.LVL51
 3439 03e4 0600     		.2byte	0x6
 3440 03e6 9E       		.byte	0x9e
 3441 03e7 04       		.uleb128 0x4
 3442 03e8 0000803F 		.4byte	0x3f800000
 3443 03ec 00000000 		.4byte	0
 3444 03f0 00000000 		.4byte	0
 3445              	.LLST34:
 3446 03f4 BC010000 		.4byte	.LVL47
 3447 03f8 C6010000 		.4byte	.LVL48
 3448 03fc 0200     		.2byte	0x2
 3449 03fe 90       		.byte	0x90
 3450 03ff 4F       		.uleb128 0x4f
 3451 0400 DA010000 		.4byte	.LVL50
 3452 0404 DE010000 		.4byte	.LVL51
 3453 0408 0200     		.2byte	0x2
 3454 040a 90       		.byte	0x90
 3455 040b 4F       		.uleb128 0x4f
 3456 040c 00000000 		.4byte	0
 3457 0410 00000000 		.4byte	0
 3458              	.LLST35:
 3459 0414 BC010000 		.4byte	.LVL47
 3460 0418 DE010000 		.4byte	.LVL51
 3461 041c 0600     		.2byte	0x6
 3462 041e 9E       		.byte	0x9e
 3463 041f 04       		.uleb128 0x4
 3464 0420 00000000 		.4byte	0
 3465 0424 00000000 		.4byte	0
 3466 0428 00000000 		.4byte	0
 3467              	.LLST36:
 3468 042c BC010000 		.4byte	.LVL47
 3469 0430 C6010000 		.4byte	.LVL48
 3470 0434 0600     		.2byte	0x6
 3471 0436 9E       		.byte	0x9e
 3472 0437 04       		.uleb128 0x4
 3473 0438 00000000 		.4byte	0
 3474 043c DA010000 		.4byte	.LVL50
ARM GAS  C:\msys64\tmp\cctsVYwx.s 			page 62


 3475 0440 DE010000 		.4byte	.LVL51
 3476 0444 0600     		.2byte	0x6
 3477 0446 9E       		.byte	0x9e
 3478 0447 04       		.uleb128 0x4
 3479 0448 00000000 		.4byte	0
 3480 044c 00000000 		.4byte	0
 3481 0450 00000000 		.4byte	0
 3482              	.LLST39:
 3483 0454 C6010000 		.4byte	.LVL48
 3484 0458 DA010000 		.4byte	.LVL50
 3485 045c 0600     		.2byte	0x6
 3486 045e 9E       		.byte	0x9e
 3487 045f 04       		.uleb128 0x4
 3488 0460 0000803F 		.4byte	0x3f800000
 3489 0464 00000000 		.4byte	0
 3490 0468 00000000 		.4byte	0
 3491              	.LLST40:
 3492 046c C6010000 		.4byte	.LVL48
 3493 0470 D8010000 		.4byte	.LVL49
 3494 0474 0C00     		.2byte	0xc
 3495 0476 F5       		.byte	0xf5
 3496 0477 4F       		.uleb128 0x4f
 3497 0478 25       		.uleb128 0x25
 3498 0479 F4       		.byte	0xf4
 3499 047a 25       		.uleb128 0x25
 3500 047b 04       		.byte	0x4
 3501 047c 0000803F 		.4byte	0x3f800000
 3502 0480 1C       		.byte	0x1c
 3503 0481 9F       		.byte	0x9f
 3504 0482 D8010000 		.4byte	.LVL49
 3505 0486 DA010000 		.4byte	.LVL50
 3506 048a 1700     		.2byte	0x17
 3507 048c 71       		.byte	0x71
 3508 048d 00       		.sleb128 0
 3509 048e F7       		.byte	0xf7
 3510 048f 33       		.uleb128 0x33
 3511 0490 F7       		.byte	0xf7
 3512 0491 25       		.uleb128 0x25
 3513 0492 F4       		.byte	0xf4
 3514 0493 25       		.uleb128 0x25
 3515 0494 04       		.byte	0x4
 3516 0495 0AD7233C 		.4byte	0x3c23d70a
 3517 0499 1E       		.byte	0x1e
 3518 049a F4       		.byte	0xf4
 3519 049b 25       		.uleb128 0x25
 3520 049c 04       		.byte	0x4
 3521 049d 0000803F 		.4byte	0x3f800000
 3522 04a1 1C       		.byte	0x1c
 3523 04a2 9F       		.byte	0x9f
 3524 04a3 00000000 		.4byte	0
 3525 04a7 00000000 		.4byte	0
 3526              	.LLST41:
 3527 04ab 00000000 		.4byte	.LVL52
 3528 04af 16000000 		.4byte	.LVL54
 3529 04b3 0200     		.2byte	0x2
 3530 04b5 31       		.byte	0x31
 3531 04b6 9F       		.byte	0x9f
ARM GAS  C:\msys64\tmp\cctsVYwx.s 			page 63


 3532 04b7 00000000 		.4byte	0
 3533 04bb 00000000 		.4byte	0
 3534              	.LLST42:
 3535 04bf 00000000 		.4byte	.LVL52
 3536 04c3 16000000 		.4byte	.LVL54
 3537 04c7 0400     		.2byte	0x4
 3538 04c9 0A       		.byte	0xa
 3539 04ca FFFF     		.2byte	0xffff
 3540 04cc 9F       		.byte	0x9f
 3541 04cd 00000000 		.4byte	0
 3542 04d1 00000000 		.4byte	0
 3543              	.LLST43:
 3544 04d5 00000000 		.4byte	.LVL52
 3545 04d9 10000000 		.4byte	.LVL53
 3546 04dd 0600     		.2byte	0x6
 3547 04df 03       		.byte	0x3
 3548 04e0 00000000 		.4byte	_ZL2pd
 3549 04e4 9F       		.byte	0x9f
 3550 04e5 00000000 		.4byte	0
 3551 04e9 00000000 		.4byte	0
 3552              	.LLST44:
 3553 04ed 10000000 		.4byte	.LVL53
 3554 04f1 16000000 		.4byte	.LVL54
 3555 04f5 0600     		.2byte	0x6
 3556 04f7 03       		.byte	0x3
 3557 04f8 0C000000 		.4byte	_ZL2pd+12
 3558 04fc 9F       		.byte	0x9f
 3559 04fd 00000000 		.4byte	0
 3560 0501 00000000 		.4byte	0
 3561              		.section	.debug_aranges,"",%progbits
 3562 0000 24000000 		.4byte	0x24
 3563 0004 0200     		.2byte	0x2
 3564 0006 00000000 		.4byte	.Ldebug_info0
 3565 000a 04       		.byte	0x4
 3566 000b 00       		.byte	0
 3567 000c 0000     		.2byte	0
 3568 000e 0000     		.2byte	0
 3569 0010 00000000 		.4byte	.Ltext0
 3570 0014 F4010000 		.4byte	.Letext0-.Ltext0
 3571 0018 00000000 		.4byte	.LFB256
 3572 001c 1C000000 		.4byte	.LFE256-.LFB256
 3573 0020 00000000 		.4byte	0
 3574 0024 00000000 		.4byte	0
 3575              		.section	.debug_ranges,"",%progbits
 3576              	.Ldebug_ranges0:
 3577 0000 0A000000 		.4byte	.LBB205
 3578 0004 12000000 		.4byte	.LBE205
 3579 0008 2E000000 		.4byte	.LBB294
 3580 000c 30000000 		.4byte	.LBE294
 3581 0010 34000000 		.4byte	.LBB295
 3582 0014 3E000000 		.4byte	.LBE295
 3583 0018 42000000 		.4byte	.LBB296
 3584 001c 48000000 		.4byte	.LBE296
 3585 0020 4C000000 		.4byte	.LBB297
 3586 0024 62000000 		.4byte	.LBE297
 3587 0028 64000000 		.4byte	.LBB299
 3588 002c 70000000 		.4byte	.LBE299
ARM GAS  C:\msys64\tmp\cctsVYwx.s 			page 64


 3589 0030 74000000 		.4byte	.LBB300
 3590 0034 96000000 		.4byte	.LBE300
 3591 0038 00000000 		.4byte	0
 3592 003c 00000000 		.4byte	0
 3593 0040 0A000000 		.4byte	.LBB207
 3594 0044 12000000 		.4byte	.LBE207
 3595 0048 52000000 		.4byte	.LBB223
 3596 004c 56000000 		.4byte	.LBE223
 3597 0050 64000000 		.4byte	.LBB227
 3598 0054 70000000 		.4byte	.LBE227
 3599 0058 74000000 		.4byte	.LBB228
 3600 005c 78000000 		.4byte	.LBE228
 3601 0060 00000000 		.4byte	0
 3602 0064 00000000 		.4byte	0
 3603 0068 2E000000 		.4byte	.LBB212
 3604 006c 30000000 		.4byte	.LBE212
 3605 0070 34000000 		.4byte	.LBB218
 3606 0074 38000000 		.4byte	.LBE218
 3607 0078 42000000 		.4byte	.LBB219
 3608 007c 48000000 		.4byte	.LBE219
 3609 0080 56000000 		.4byte	.LBB224
 3610 0084 5A000000 		.4byte	.LBE224
 3611 0088 5E000000 		.4byte	.LBB226
 3612 008c 62000000 		.4byte	.LBE226
 3613 0090 00000000 		.4byte	0
 3614 0094 00000000 		.4byte	0
 3615 0098 4C000000 		.4byte	.LBB220
 3616 009c 52000000 		.4byte	.LBE220
 3617 00a0 5A000000 		.4byte	.LBB225
 3618 00a4 5E000000 		.4byte	.LBE225
 3619 00a8 00000000 		.4byte	0
 3620 00ac 00000000 		.4byte	0
 3621 00b0 12000000 		.4byte	.LBB240
 3622 00b4 1E000000 		.4byte	.LBE240
 3623 00b8 62000000 		.4byte	.LBB289
 3624 00bc 64000000 		.4byte	.LBE289
 3625 00c0 9A000000 		.4byte	.LBB290
 3626 00c4 A6000000 		.4byte	.LBE290
 3627 00c8 AA000000 		.4byte	.LBB291
 3628 00cc 6A010000 		.4byte	.LBE291
 3629 00d0 00000000 		.4byte	0
 3630 00d4 00000000 		.4byte	0
 3631 00d8 12000000 		.4byte	.LBB241
 3632 00dc 16000000 		.4byte	.LBE241
 3633 00e0 62000000 		.4byte	.LBB274
 3634 00e4 64000000 		.4byte	.LBE274
 3635 00e8 9A000000 		.4byte	.LBB275
 3636 00ec A2000000 		.4byte	.LBE275
 3637 00f0 AA000000 		.4byte	.LBB287
 3638 00f4 24010000 		.4byte	.LBE287
 3639 00f8 00000000 		.4byte	0
 3640 00fc 00000000 		.4byte	0
 3641 0100 12000000 		.4byte	.LBB243
 3642 0104 16000000 		.4byte	.LBE243
 3643 0108 62000000 		.4byte	.LBB262
 3644 010c 64000000 		.4byte	.LBE262
 3645 0110 9E000000 		.4byte	.LBB268
ARM GAS  C:\msys64\tmp\cctsVYwx.s 			page 65


 3646 0114 A2000000 		.4byte	.LBE268
 3647 0118 CE000000 		.4byte	.LBB270
 3648 011c 20010000 		.4byte	.LBE270
 3649 0120 00000000 		.4byte	0
 3650 0124 00000000 		.4byte	0
 3651 0128 12000000 		.4byte	.LBB245
 3652 012c 16000000 		.4byte	.LBE245
 3653 0130 62000000 		.4byte	.LBB257
 3654 0134 64000000 		.4byte	.LBE257
 3655 0138 D2000000 		.4byte	.LBB258
 3656 013c 20010000 		.4byte	.LBE258
 3657 0140 00000000 		.4byte	0
 3658 0144 00000000 		.4byte	0
 3659 0148 EE000000 		.4byte	.LBB247
 3660 014c F2000000 		.4byte	.LBE247
 3661 0150 F8000000 		.4byte	.LBB252
 3662 0154 FC000000 		.4byte	.LBE252
 3663 0158 08010000 		.4byte	.LBB253
 3664 015c 14010000 		.4byte	.LBE253
 3665 0160 16010000 		.4byte	.LBB254
 3666 0164 1A010000 		.4byte	.LBE254
 3667 0168 00000000 		.4byte	0
 3668 016c 00000000 		.4byte	0
 3669 0170 9A000000 		.4byte	.LBB264
 3670 0174 9E000000 		.4byte	.LBE264
 3671 0178 B2000000 		.4byte	.LBB265
 3672 017c BC000000 		.4byte	.LBE265
 3673 0180 C0000000 		.4byte	.LBB267
 3674 0184 CE000000 		.4byte	.LBE267
 3675 0188 00000000 		.4byte	0
 3676 018c 00000000 		.4byte	0
 3677 0190 A2000000 		.4byte	.LBB276
 3678 0194 A6000000 		.4byte	.LBE276
 3679 0198 24010000 		.4byte	.LBB288
 3680 019c 42010000 		.4byte	.LBE288
 3681 01a0 00000000 		.4byte	0
 3682 01a4 00000000 		.4byte	0
 3683 01a8 A2000000 		.4byte	.LBB278
 3684 01ac A6000000 		.4byte	.LBE278
 3685 01b0 24010000 		.4byte	.LBB285
 3686 01b4 42010000 		.4byte	.LBE285
 3687 01b8 00000000 		.4byte	0
 3688 01bc 00000000 		.4byte	0
 3689 01c0 A2000000 		.4byte	.LBB279
 3690 01c4 A6000000 		.4byte	.LBE279
 3691 01c8 24010000 		.4byte	.LBB284
 3692 01cc 42010000 		.4byte	.LBE284
 3693 01d0 00000000 		.4byte	0
 3694 01d4 00000000 		.4byte	0
 3695 01d8 A2000000 		.4byte	.LBB280
 3696 01dc A6000000 		.4byte	.LBE280
 3697 01e0 24010000 		.4byte	.LBB283
 3698 01e4 42010000 		.4byte	.LBE283
 3699 01e8 00000000 		.4byte	0
 3700 01ec 00000000 		.4byte	0
 3701 01f0 BC010000 		.4byte	.LBB304
 3702 01f4 C6010000 		.4byte	.LBE304
ARM GAS  C:\msys64\tmp\cctsVYwx.s 			page 66


 3703 01f8 CA010000 		.4byte	.LBB309
 3704 01fc DE010000 		.4byte	.LBE309
 3705 0200 00000000 		.4byte	0
 3706 0204 00000000 		.4byte	0
 3707 0208 00000000 		.4byte	.Ltext0
 3708 020c F4010000 		.4byte	.Letext0
 3709 0210 00000000 		.4byte	.LFB256
 3710 0214 1C000000 		.4byte	.LFE256
 3711 0218 00000000 		.4byte	0
 3712 021c 00000000 		.4byte	0
 3713              		.section	.debug_line,"",%progbits
 3714              	.Ldebug_line0:
 3715 0000 43030000 		.section	.debug_str,"MS",%progbits,1
 3715      02000102 
 3715      00000201 
 3715      FB0E0D00 
 3715      01010101 
 3716              	.LASF51:
 3717 0000 70617261 		.ascii	"params\000"
 3717      6D7300
 3718              	.LASF82:
 3719 0007 5F686F6F 		.ascii	"_hook_param\000"
 3719      6B5F7061 
 3719      72616D00 
 3720              	.LASF91:
 3721 0013 77745F70 		.ascii	"wt_par_lut_f\000"
 3721      61725F6C 
 3721      75745F66 
 3721      00
 3722              	.LASF79:
 3723 0020 666C6167 		.ascii	"flags\000"
 3723      7300
 3724              	.LASF98:
 3725 0026 474E5520 		.ascii	"GNU C++11 5.4.1 20160919 (release) [ARM/embedded-5-"
 3725      432B2B31 
 3725      3120352E 
 3725      342E3120 
 3725      32303136 
 3726 0059 6272616E 		.ascii	"branch revision 240496] -mcpu=cortex-m4 -mthumb -mn"
 3726      63682072 
 3726      65766973 
 3726      696F6E20 
 3726      32343034 
 3727 008c 6F2D7468 		.ascii	"o-thumb-interwork -mlittle-endian -mfloat-abi=hard "
 3727      756D622D 
 3727      696E7465 
 3727      72776F72 
 3727      6B202D6D 
 3728 00bf 2D6D6670 		.ascii	"-mfpu=fpv4-sp-d16 -g -Os -std=c++11 -fsingle-precis"
 3728      753D6670 
 3728      76342D73 
 3728      702D6431 
 3728      36202D67 
 3729 00f2 696F6E2D 		.ascii	"ion-constant -fcheck-new -fno-rtti -fno-exceptions "
 3729      636F6E73 
 3729      74616E74 
 3729      202D6663 
ARM GAS  C:\msys64\tmp\cctsVYwx.s 			page 67


 3729      6865636B 
 3730 0125 2D666E6F 		.ascii	"-fno-non-call-exceptions\000"
 3730      2D6E6F6E 
 3730      2D63616C 
 3730      6C2D6578 
 3730      63657074 
 3731              	.LASF1:
 3732 013e 756E7369 		.ascii	"unsigned int\000"
 3732      676E6564 
 3732      20696E74 
 3732      00
 3733              	.LASF97:
 3734 014b 62697472 		.ascii	"bitres_lut_f\000"
 3734      65735F6C 
 3734      75745F66 
 3734      00
 3735              	.LASF63:
 3736 0158 6F73635F 		.ascii	"osc_sinf\000"
 3736      73696E66 
 3736      00
 3737              	.LASF8:
 3738 0161 5F5F696E 		.ascii	"__int32_t\000"
 3738      7433325F 
 3738      7400
 3739              	.LASF76:
 3740 016b 706C6174 		.ascii	"platform\000"
 3740      666F726D 
 3740      00
 3741              	.LASF30:
 3742 0174 70697463 		.ascii	"pitch\000"
 3742      6800
 3743              	.LASF44:
 3744 017a 75736572 		.ascii	"user_osc_param_id_t\000"
 3744      5F6F7363 
 3744      5F706172 
 3744      616D5F69 
 3744      645F7400 
 3745              	.LASF49:
 3746 018e 53746174 		.ascii	"State\000"
 3746      6500
 3747              	.LASF35:
 3748 0194 6B5F7573 		.ascii	"k_user_osc_param_id1\000"
 3748      65725F6F 
 3748      73635F70 
 3748      6172616D 
 3748      5F696431 
 3749              	.LASF36:
 3750 01a9 6B5F7573 		.ascii	"k_user_osc_param_id2\000"
 3750      65725F6F 
 3750      73635F70 
 3750      6172616D 
 3750      5F696432 
 3751              	.LASF37:
 3752 01be 6B5F7573 		.ascii	"k_user_osc_param_id3\000"
 3752      65725F6F 
 3752      73635F70 
 3752      6172616D 
ARM GAS  C:\msys64\tmp\cctsVYwx.s 			page 68


 3752      5F696433 
 3753              	.LASF38:
 3754 01d3 6B5F7573 		.ascii	"k_user_osc_param_id4\000"
 3754      65725F6F 
 3754      73635F70 
 3754      6172616D 
 3754      5F696434 
 3755              	.LASF39:
 3756 01e8 6B5F7573 		.ascii	"k_user_osc_param_id5\000"
 3756      65725F6F 
 3756      73635F70 
 3756      6172616D 
 3756      5F696435 
 3757              	.LASF40:
 3758 01fd 6B5F7573 		.ascii	"k_user_osc_param_id6\000"
 3758      65725F6F 
 3758      73635F70 
 3758      6172616D 
 3758      5F696436 
 3759              	.LASF105:
 3760 0212 5F5A4E32 		.ascii	"_ZN2PD5State5resetEv\000"
 3760      50443553 
 3760      74617465 
 3760      35726573 
 3760      65744576 
 3761              	.LASF43:
 3762 0227 6B5F6E75 		.ascii	"k_num_user_osc_param_id\000"
 3762      6D5F7573 
 3762      65725F6F 
 3762      73635F70 
 3762      6172616D 
 3763              	.LASF77:
 3764 023f 5F686F6F 		.ascii	"_hook_cycle\000"
 3764      6B5F6379 
 3764      636C6500 
 3765              	.LASF93:
 3766 024b 74616E70 		.ascii	"tanpi_lut_f\000"
 3766      695F6C75 
 3766      745F6600 
 3767              	.LASF71:
 3768 0257 6F73635F 		.ascii	"osc_softclipf\000"
 3768      736F6674 
 3768      636C6970 
 3768      6600
 3769              	.LASF57:
 3770 0265 636C616D 		.ascii	"clampfsel\000"
 3770      70667365 
 3770      6C00
 3771              	.LASF17:
 3772 026f 75696E74 		.ascii	"uint32_t\000"
 3772      33325F74 
 3772      00
 3773              	.LASF100:
 3774 0278 433A5C6D 		.ascii	"C:\\msys64\\home\\logue-sdk\\platform\\nutekt-digit"
 3774      73797336 
 3774      345C686F 
 3774      6D655C6C 
ARM GAS  C:\msys64\tmp\cctsVYwx.s 			page 69


 3774      6F677565 
 3775 02a6 616C5C43 		.ascii	"al\\Custom-Projects\\osc\\VPS_Project\\Basic Phase "
 3775      7573746F 
 3775      6D2D5072 
 3775      6F6A6563 
 3775      74735C6F 
 3776 02d5 44697374 		.ascii	"Distortion\\pd_1\000"
 3776      6F727469 
 3776      6F6E5C70 
 3776      645F3100 
 3777              	.LASF87:
 3778 02e5 6D696469 		.ascii	"midi_to_hz_lut_f\000"
 3778      5F746F5F 
 3778      687A5F6C 
 3778      75745F66 
 3778      00
 3779              	.LASF0:
 3780 02f6 666C6F61 		.ascii	"float\000"
 3780      7400
 3781              	.LASF83:
 3782 02fc 696E6465 		.ascii	"index\000"
 3782      7800
 3783              	.LASF25:
 3784 0302 6B5F7573 		.ascii	"k_user_module_delfx\000"
 3784      65725F6D 
 3784      6F64756C 
 3784      655F6465 
 3784      6C667800 
 3785              	.LASF13:
 3786 0316 6C6F6E67 		.ascii	"long long unsigned int\000"
 3786      206C6F6E 
 3786      6720756E 
 3786      7369676E 
 3786      65642069 
 3787              	.LASF52:
 3788 032d 50686173 		.ascii	"PhaseDistortion\000"
 3788      65446973 
 3788      746F7274 
 3788      696F6E00 
 3789              	.LASF67:
 3790 033d 66726163 		.ascii	"fraction\000"
 3790      74696F6E 
 3790      00
 3791              	.LASF6:
 3792 0346 5F5F7569 		.ascii	"__uint16_t\000"
 3792      6E743136 
 3792      5F7400
 3793              	.LASF80:
 3794 0351 5F686F6F 		.ascii	"_hook_on\000"
 3794      6B5F6F6E 
 3794      00
 3795              	.LASF45:
 3796 035a 75736572 		.ascii	"user_osc_param\000"
 3796      5F6F7363 
 3796      5F706172 
 3796      616D00
 3797              	.LASF84:
ARM GAS  C:\msys64\tmp\cctsVYwx.s 			page 70


 3798 0369 76616C75 		.ascii	"value\000"
 3798      6500
 3799              	.LASF73:
 3800 036f 5F5F696E 		.ascii	"__initialize_p\000"
 3800      69746961 
 3800      6C697A65 
 3800      5F7000
 3801              	.LASF26:
 3802 037e 6B5F7573 		.ascii	"k_user_module_revfx\000"
 3802      65725F6D 
 3802      6F64756C 
 3802      655F7265 
 3802      76667800 
 3803              	.LASF74:
 3804 0392 5F5F7072 		.ascii	"__priority\000"
 3804      696F7269 
 3804      747900
 3805              	.LASF31:
 3806 039d 6375746F 		.ascii	"cutoff\000"
 3806      666600
 3807              	.LASF20:
 3808 03a4 63686172 		.ascii	"char\000"
 3808      00
 3809              	.LASF72:
 3810 03a9 636C6970 		.ascii	"clip01f\000"
 3810      30316600 
 3811              	.LASF81:
 3812 03b1 5F686F6F 		.ascii	"_hook_off\000"
 3812      6B5F6F66 
 3812      6600
 3813              	.LASF78:
 3814 03bb 6672616D 		.ascii	"frames\000"
 3814      657300
 3815              	.LASF96:
 3816 03c2 73636865 		.ascii	"schetzen_lut_f\000"
 3816      747A656E 
 3816      5F6C7574 
 3816      5F6600
 3817              	.LASF14:
 3818 03d1 75696E74 		.ascii	"uint8_t\000"
 3818      385F7400 
 3819              	.LASF46:
 3820 03d9 666C6167 		.ascii	"flags_none\000"
 3820      735F6E6F 
 3820      6E6500
 3821              	.LASF61:
 3822 03e4 6F73635F 		.ascii	"osc_notehzf\000"
 3822      6E6F7465 
 3822      687A6600 
 3823              	.LASF92:
 3824 03f0 6C6F675F 		.ascii	"log_lut_f\000"
 3824      6C75745F 
 3824      6600
 3825              	.LASF53:
 3826 03fa 5F5A4E32 		.ascii	"_ZN2PD6ParamsC4Ev\000"
 3826      50443650 
 3826      6172616D 
ARM GAS  C:\msys64\tmp\cctsVYwx.s 			page 71


 3826      73433445 
 3826      7600
 3827              	.LASF106:
 3828 040c 5F5A4E32 		.ascii	"_ZN2PDC4Ev\000"
 3828      50444334 
 3828      457600
 3829              	.LASF59:
 3830 0417 636C6970 		.ascii	"clipmaxf\000"
 3830      6D617866 
 3830      00
 3831              	.LASF12:
 3832 0420 6C6F6E67 		.ascii	"long long int\000"
 3832      206C6F6E 
 3832      6720696E 
 3832      7400
 3833              	.LASF103:
 3834 042e 5F5A4E32 		.ascii	"_ZN2PD5StateC4Ev\000"
 3834      50443553 
 3834      74617465 
 3834      43344576 
 3834      00
 3835              	.LASF47:
 3836 043f 666C6167 		.ascii	"flag_reset\000"
 3836      5F726573 
 3836      657400
 3837              	.LASF32:
 3838 044a 7265736F 		.ascii	"resonance\000"
 3838      6E616E63 
 3838      6500
 3839              	.LASF28:
 3840 0454 6B5F6E75 		.ascii	"k_num_user_modules\000"
 3840      6D5F7573 
 3840      65725F6D 
 3840      6F64756C 
 3840      657300
 3841              	.LASF58:
 3842 0467 636C6970 		.ascii	"clipmaxu32\000"
 3842      6D617875 
 3842      333200
 3843              	.LASF99:
 3844 0472 70645F31 		.ascii	"pd_1.cpp\000"
 3844      2E637070 
 3844      00
 3845              	.LASF108:
 3846 047b 5F474C4F 		.ascii	"_GLOBAL__sub_I__hook_init\000"
 3846      42414C5F 
 3846      5F737562 
 3846      5F495F5F 
 3846      686F6F6B 
 3847              	.LASF89:
 3848 0495 77745F73 		.ascii	"wt_saw_lut_f\000"
 3848      61775F6C 
 3848      75745F66 
 3848      00
 3849              	.LASF27:
 3850 04a2 6B5F7573 		.ascii	"k_user_module_osc\000"
 3850      65725F6D 
ARM GAS  C:\msys64\tmp\cctsVYwx.s 			page 72


 3850      6F64756C 
 3850      655F6F73 
 3850      6300
 3851              	.LASF68:
 3852 04b4 6E756D65 		.ascii	"numerator\000"
 3852      7261746F 
 3852      7200
 3853              	.LASF18:
 3854 04be 6C6F6E67 		.ascii	"long double\000"
 3854      20646F75 
 3854      626C6500 
 3855              	.LASF15:
 3856 04ca 75696E74 		.ascii	"uint16_t\000"
 3856      31365F74 
 3856      00
 3857              	.LASF65:
 3858 04d3 74686973 		.ascii	"this\000"
 3858      00
 3859              	.LASF48:
 3860 04d8 50617261 		.ascii	"Params\000"
 3860      6D7300
 3861              	.LASF107:
 3862 04df 5F5F7374 		.ascii	"__static_initialization_and_destruction_0\000"
 3862      61746963 
 3862      5F696E69 
 3862      7469616C 
 3862      697A6174 
 3863              	.LASF42:
 3864 0509 6B5F7573 		.ascii	"k_user_osc_param_shiftshape\000"
 3864      65725F6F 
 3864      73635F70 
 3864      6172616D 
 3864      5F736869 
 3865              	.LASF75:
 3866 0525 5F686F6F 		.ascii	"_hook_init\000"
 3866      6B5F696E 
 3866      697400
 3867              	.LASF4:
 3868 0530 73686F72 		.ascii	"short int\000"
 3868      7420696E 
 3868      7400
 3869              	.LASF94:
 3870 053a 73717274 		.ascii	"sqrtm2log_lut_f\000"
 3870      6D326C6F 
 3870      675F6C75 
 3870      745F6600 
 3871              	.LASF95:
 3872 054a 63756269 		.ascii	"cubicsat_lut_f\000"
 3872      63736174 
 3872      5F6C7574 
 3872      5F6600
 3873              	.LASF90:
 3874 0559 77745F73 		.ascii	"wt_sqr_lut_f\000"
 3874      71725F6C 
 3874      75745F66 
 3874      00
 3875              	.LASF9:
ARM GAS  C:\msys64\tmp\cctsVYwx.s 			page 73


 3876 0566 6C6F6E67 		.ascii	"long int\000"
 3876      20696E74 
 3876      00
 3877              	.LASF24:
 3878 056f 6B5F7573 		.ascii	"k_user_module_modfx\000"
 3878      65725F6D 
 3878      6F64756C 
 3878      655F6D6F 
 3878      64667800 
 3879              	.LASF41:
 3880 0583 6B5F7573 		.ascii	"k_user_osc_param_shape\000"
 3880      65725F6F 
 3880      73635F70 
 3880      6172616D 
 3880      5F736861 
 3881              	.LASF102:
 3882 059a 31397573 		.ascii	"19user_osc_param_id_t\000"
 3882      65725F6F 
 3882      73635F70 
 3882      6172616D 
 3882      5F69645F 
 3883              	.LASF104:
 3884 05b0 72657365 		.ascii	"reset\000"
 3884      7400
 3885              	.LASF33:
 3886 05b6 72657365 		.ascii	"reserved0\000"
 3886      72766564 
 3886      3000
 3887              	.LASF69:
 3888 05c0 64656E6F 		.ascii	"denominator\000"
 3888      6D696E61 
 3888      746F7200 
 3889              	.LASF5:
 3890 05cc 5F5F7569 		.ascii	"__uint8_t\000"
 3890      6E74385F 
 3890      7400
 3891              	.LASF86:
 3892 05d6 6B5F6F73 		.ascii	"k_osc_api_version\000"
 3892      635F6170 
 3892      695F7665 
 3892      7273696F 
 3892      6E00
 3893              	.LASF55:
 3894 05e8 6673656C 		.ascii	"fsel\000"
 3894      00
 3895              	.LASF62:
 3896 05ed 6E6F7465 		.ascii	"note\000"
 3896      00
 3897              	.LASF22:
 3898 05f2 7133315F 		.ascii	"q31_t\000"
 3898      7400
 3899              	.LASF54:
 3900 05f8 5F5A4E32 		.ascii	"_ZN2PD15PhaseDistortionEf\000"
 3900      50443135 
 3900      50686173 
 3900      65446973 
 3900      746F7274 
ARM GAS  C:\msys64\tmp\cctsVYwx.s 			page 74


 3901              	.LASF19:
 3902 0612 73697A65 		.ascii	"sizetype\000"
 3902      74797065 
 3902      00
 3903              	.LASF11:
 3904 061b 6C6F6E67 		.ascii	"long unsigned int\000"
 3904      20756E73 
 3904      69676E65 
 3904      6420696E 
 3904      7400
 3905              	.LASF88:
 3906 062d 77745F73 		.ascii	"wt_sine_lut_f\000"
 3906      696E655F 
 3906      6C75745F 
 3906      6600
 3907              	.LASF16:
 3908 063b 696E7433 		.ascii	"int32_t\000"
 3908      325F7400 
 3909              	.LASF60:
 3910 0643 6C696E69 		.ascii	"linintf\000"
 3910      6E746600 
 3911              	.LASF3:
 3912 064b 756E7369 		.ascii	"unsigned char\000"
 3912      676E6564 
 3912      20636861 
 3912      7200
 3913              	.LASF10:
 3914 0659 5F5F7569 		.ascii	"__uint32_t\000"
 3914      6E743332 
 3914      5F7400
 3915              	.LASF66:
 3916 0664 6F73635F 		.ascii	"osc_cosf\000"
 3916      636F7366 
 3916      00
 3917              	.LASF23:
 3918 066d 6B5F7573 		.ascii	"k_user_module_global\000"
 3918      65725F6D 
 3918      6F64756C 
 3918      655F676C 
 3918      6F62616C 
 3919              	.LASF101:
 3920 0682 6465636C 		.ascii	"decltype(nullptr)\000"
 3920      74797065 
 3920      286E756C 
 3920      6C707472 
 3920      2900
 3921              	.LASF50:
 3922 0694 73746174 		.ascii	"state\000"
 3922      6500
 3923              	.LASF2:
 3924 069a 7369676E 		.ascii	"signed char\000"
 3924      65642063 
 3924      68617200 
 3925              	.LASF7:
 3926 06a6 73686F72 		.ascii	"short unsigned int\000"
 3926      7420756E 
 3926      7369676E 
ARM GAS  C:\msys64\tmp\cctsVYwx.s 			page 75


 3926      65642069 
 3926      6E7400
 3927              	.LASF70:
 3928 06b9 6F73635F 		.ascii	"osc_w0f_for_note\000"
 3928      7730665F 
 3928      666F725F 
 3928      6E6F7465 
 3928      00
 3929              	.LASF34:
 3930 06ca 75736572 		.ascii	"user_osc_param_t\000"
 3930      5F6F7363 
 3930      5F706172 
 3930      616D5F74 
 3930      00
 3931              	.LASF21:
 3932 06db 646F7562 		.ascii	"double\000"
 3932      6C6500
 3933              	.LASF29:
 3934 06e2 73686170 		.ascii	"shape_lfo\000"
 3934      655F6C66 
 3934      6F00
 3935              	.LASF64:
 3936 06ec 636C6970 		.ascii	"clip1m1f\000"
 3936      316D3166 
 3936      00
 3937              	.LASF56:
 3938 06f5 636C616D 		.ascii	"clampmaxfsel\000"
 3938      706D6178 
 3938      6673656C 
 3938      00
 3939              	.LASF85:
 3940 0702 6B5F6F73 		.ascii	"k_osc_api_platform\000"
 3940      635F6170 
 3940      695F706C 
 3940      6174666F 
 3940      726D00
 3941              		.ident	"GCC: (GNU Tools for ARM Embedded Processors) 5.4.1 20160919 (release) [ARM/embedded-5-bran
ARM GAS  C:\msys64\tmp\cctsVYwx.s 			page 76


DEFINED SYMBOLS
                            *ABS*:00000000 pd_1.cpp
C:\msys64\tmp\cctsVYwx.s:21     .text:00000000 $t
C:\msys64\tmp\cctsVYwx.s:26     .text:00000000 _hook_init
C:\msys64\tmp\cctsVYwx.s:44     .text:00000002 _hook_cycle
C:\msys64\tmp\cctsVYwx.s:470    .text:00000174 $d
C:\msys64\tmp\cctsVYwx.s:482    .text:00000198 $t
C:\msys64\tmp\cctsVYwx.s:487    .text:00000198 _hook_on
C:\msys64\tmp\cctsVYwx.s:504    .text:000001a4 $d
C:\msys64\tmp\cctsVYwx.s:508    .text:000001a8 $t
C:\msys64\tmp\cctsVYwx.s:513    .text:000001a8 _hook_off
C:\msys64\tmp\cctsVYwx.s:530    .text:000001aa _hook_param
C:\msys64\tmp\cctsVYwx.s:588    .text:000001e8 $d
C:\msys64\tmp\cctsVYwx.s:595    .text.startup:00000000 $t
C:\msys64\tmp\cctsVYwx.s:599    .text.startup:00000000 _GLOBAL__sub_I__hook_init
C:\msys64\tmp\cctsVYwx.s:633    .text.startup:00000018 $d
C:\msys64\tmp\cctsVYwx.s:643    .init_array:00000000 $d
C:\msys64\tmp\cctsVYwx.s:646    .bss:00000000 $d
C:\msys64\tmp\cctsVYwx.s:650    .bss:00000000 _ZL2pd
                     .debug_frame:00000010 $d

UNDEFINED SYMBOLS
midi_to_hz_lut_f
wt_sine_lut_f
