ARM GAS  C:\msys64\tmp\cctsVYwx.s 			page 1


   1              		.syntax unified
   2              		.cpu cortex-m4
   3              		.eabi_attribute 27, 1
   4              		.eabi_attribute 28, 1
   5              		.fpu fpv4-sp-d16
   6              		.eabi_attribute 20, 1
   7              		.eabi_attribute 21, 1
   8              		.eabi_attribute 23, 3
   9              		.eabi_attribute 24, 1
  10              		.eabi_attribute 25, 1
  11              		.eabi_attribute 26, 1
  12              		.eabi_attribute 30, 4
  13              		.eabi_attribute 34, 1
  14              		.eabi_attribute 18, 4
  15              		.thumb
  16              		.syntax unified
  17              		.file	"pd_1.cpp"
  18              		.text
  19              	.Ltext0:
  20              		.cfi_sections	.debug_frame
  21              		.align	1
  22              		.global	_hook_init
  23              		.thumb
  24              		.thumb_func
  25              		.type	_hook_init, %function
  26              	_hook_init:
  27              	.LFB250:
  28              		.file 1 "pd_1.cpp"
  29              		.loc 1 14 0
  30              		.cfi_startproc
  31              		@ args = 0, pretend = 0, frame = 0
  32              		@ frame_needed = 0, uses_anonymous_args = 0
  33              		@ link register save eliminated.
  34              	.LVL0:
  35 0000 7047     		bx	lr
  36              		.cfi_endproc
  37              	.LFE250:
  38              		.size	_hook_init, .-_hook_init
  39              		.align	1
  40              		.global	_hook_cycle
  41              		.thumb
  42              		.thumb_func
  43              		.type	_hook_cycle, %function
  44              	_hook_cycle:
  45              	.LFB251:
  46              		.loc 1 19 0
  47              		.cfi_startproc
  48              		@ args = 0, pretend = 0, frame = 0
  49              		@ frame_needed = 0, uses_anonymous_args = 0
  50              	.LVL1:
  51              		.loc 1 19 0
  52 0002 70B5     		push	{r4, r5, r6, lr}
  53              		.cfi_def_cfa_offset 16
  54              		.cfi_offset 4, -16
  55              		.cfi_offset 5, -12
  56              		.cfi_offset 6, -8
  57              		.cfi_offset 14, -4
ARM GAS  C:\msys64\tmp\cctsVYwx.s 			page 2


  58              		.loc 1 25 0
  59 0004 5B4C     		ldr	r4, .L29
  60              		.loc 1 36 0
  61 0006 8088     		ldrh	r0, [r0, #4]
  62              	.LVL2:
  63              		.loc 1 25 0
  64 0008 237A     		ldrb	r3, [r4, #8]	@ zero_extendqisi2
  65              	.LVL3:
  66              	.LBB205:
  67              	.LBB206:
  68              	.LBB207:
  69              	.LBB208:
  70              		.file 2 "C:/msys64/home/logue-sdk/platform/nutekt-digital/inc/utils/float_math.h"
  71              		.loc 2 826 0
  72 000a 9FED5B7A 		vldr.32	s14, .L29+4
  73 000e D4ED035A 		vldr.32	s11, [r4, #12]
  74              	.LBE208:
  75              	.LBE207:
  76              	.LBE206:
  77              	.LBE205:
  78              	.LBB239:
  79              	.LBB240:
  80              	.LBB241:
  81              	.LBB242:
  82              	.LBB243:
  83              	.LBB244:
  84              	.LBB245:
  85              	.LBB246:
  86              		.file 3 "C:/msys64/home/logue-sdk/platform/nutekt-digital/inc/osc_api.h"
  87              		.loc 3 154 0
  88 0012 9FED5A2A 		vldr.32	s4, .L29+8
  89              	.LBE246:
  90              	.LBE245:
  91              	.LBE244:
  92              	.LBE243:
  93              	.LBE242:
  94              	.LBE241:
  95              		.loc 1 60 0
  96 0016 9FED5A3A 		vldr.32	s6, .L29+12
  97 001a DFED5A3A 		vldr.32	s7, .L29+16
  98              	.LBE240:
  99              	.LBE239:
 100              		.loc 1 28 0
 101 001e 1D46     		mov	r5, r3
 102              		.loc 1 31 0
 103 0020 DB07     		lsls	r3, r3, #31
 104              	.LVL4:
 105              	.LBB292:
 106              	.LBB293:
 107              		.file 4 "pd_1.hpp"
 108              		.loc 4 44 0
 109 0022 44BF     		itt	mi
 110 0024 0023     		movmi	r3, #0
 111 0026 2360     		strmi	r3, [r4]	@ float
 112              	.LBE293:
 113              	.LBE292:
 114              		.loc 1 36 0
ARM GAS  C:\msys64\tmp\cctsVYwx.s 			page 3


 115 0028 0312     		asrs	r3, r0, #8
 116              	.LVL5:
 117              		.loc 1 28 0
 118 002a 6FF30005 		bfc	r5, #0, #1
 119              	.LBB294:
 120              	.LBB233:
 121              	.LBB212:
 122              	.LBB213:
 123              		.loc 3 109 0
 124 002e 962B     		cmp	r3, #150
 125              	.LBE213:
 126              	.LBE212:
 127              	.LBE233:
 128              	.LBE294:
 129              		.loc 1 28 0
 130 0030 2572     		strb	r5, [r4, #8]
 131              		.loc 1 39 0
 132 0032 C0B2     		uxtb	r0, r0
 133              	.LBB295:
 134              	.LBB234:
 135              	.LBB218:
 136              	.LBB214:
 137              		.loc 3 109 0
 138 0034 D8BF     		it	le
 139 0036 1D46     		movle	r5, r3
 140              	.LBE214:
 141              	.LBE218:
 142              		.loc 3 120 0
 143 0038 03F10103 		add	r3, r3, #1
 144              	.LVL6:
 145 003c DBB2     		uxtb	r3, r3
 146              	.LVL7:
 147              	.LBE234:
 148              	.LBE295:
 149              		.loc 1 39 0
 150 003e 07EE900A 		vmov	s15, r0	@ int
 151              	.LVL8:
 152              	.LBB296:
 153              	.LBB235:
 154              	.LBB219:
 155              	.LBB215:
 156              		.loc 3 109 0
 157 0042 C8BF     		it	gt
 158 0044 9725     		movgt	r5, #151
 159              	.LVL9:
 160 0046 5048     		ldr	r0, .L29+20
 161              	.LVL10:
 162              	.LBE215:
 163              	.LBE219:
 164              	.LBE235:
 165              	.LBE296:
 166              		.loc 1 42 0
 167 0048 D4ED006A 		vldr.32	s13, [r4]
 168              	.LBB297:
 169              	.LBB236:
 170              	.LBB220:
 171              	.LBB221:
ARM GAS  C:\msys64\tmp\cctsVYwx.s 			page 4


 172              		.loc 3 109 0
 173 004c 962B     		cmp	r3, #150
 174 004e 88BF     		it	hi
 175 0050 9723     		movhi	r3, #151
 176              	.LBE221:
 177              	.LBE220:
 178              	.LBB223:
 179              	.LBB209:
 180              		.loc 2 826 0
 181 0052 F8EEE77A 		vcvt.f32.s32	s15, s15
 182              	.LVL11:
 183              	.LBE209:
 184              	.LBE223:
 185              	.LBB224:
 186              	.LBB216:
 187              		.loc 3 109 0
 188 0056 00EB8505 		add	r5, r0, r5, lsl #2
 189              	.LBE216:
 190              	.LBE224:
 191              	.LBB225:
 192              	.LBB222:
 193 005a 00EB8303 		add	r3, r0, r3, lsl #2
 194              	.LBE222:
 195              	.LBE225:
 196              	.LBB226:
 197              	.LBB217:
 198 005e 95ED006A 		vldr.32	s12, [r5]
 199              	.LVL12:
 200              	.LBE217:
 201              	.LBE226:
 202              	.LBE236:
 203              	.LBE297:
 204              	.LBB298:
 205              	.LBB289:
 206              	.LBB274:
 207              	.LBB271:
 208              	.LBB262:
 209              	.LBB259:
 210              	.LBB257:
 211              	.LBB255:
 212              		.loc 3 160 0
 213 0062 4A4D     		ldr	r5, .L29+24
 214              	.LBE255:
 215              	.LBE257:
 216              	.LBE259:
 217              	.LBE262:
 218              	.LBE271:
 219              	.LBE274:
 220              	.LBE289:
 221              	.LBE298:
 222              	.LBB299:
 223              	.LBB237:
 224              	.LBB227:
 225              	.LBB210:
 226              		.loc 2 826 0
 227 0064 67EE877A 		vmul.f32	s15, s15, s14
 228 0068 93ED007A 		vldr.32	s14, [r3]
ARM GAS  C:\msys64\tmp\cctsVYwx.s 			page 5


 229 006c 37EE467A 		vsub.f32	s14, s14, s12
 230              	.LBE210:
 231              	.LBE227:
 232              	.LBE237:
 233              	.LBE299:
 234              		.loc 1 48 0
 235 0070 01EB8202 		add	r2, r1, r2, lsl #2
 236              	.LVL13:
 237              	.LBB300:
 238              	.LBB238:
 239              	.LBB228:
 240              	.LBB211:
 241              		.loc 2 826 0
 242 0074 A7EE876A 		vfma.f32	s12, s15, s14
 243              	.LVL14:
 244              	.LBE211:
 245              	.LBE228:
 246              	.LBB229:
 247              	.LBB230:
 248              	.LBB231:
 249              	.LBB232:
 250              		.loc 2 193 0
 251 0078 DFED457A 		vldr.32	s15, .L29+28
 252 007c B4EEE76A 		vcmpe.f32	s12, s15
 253 0080 F1EE10FA 		vmrs	APSR_nzcv, FPSCR
 254 0084 A8BF     		it	ge
 255 0086 B0EE676A 		vmovge.f32	s12, s15
 256              	.LVL15:
 257              	.LBE232:
 258              	.LBE231:
 259              	.LBE230:
 260              	.LBE229:
 261              		.loc 3 124 0
 262 008a DFED427A 		vldr.32	s15, .L29+32
 263 008e 26EE276A 		vmul.f32	s12, s12, s15
 264              	.LVL16:
 265 0092 B6EE004A 		vmov.f32	s8, #5.0e-1
 266              	.LBE238:
 267              	.LBE300:
 268              		.loc 1 39 0
 269 0096 84ED016A 		vstr.32	s12, [r4, #4]
 270              	.LVL17:
 271              	.LBB301:
 272              	.LBB290:
 273              	.LBB275:
 274              	.LBB272:
 275              	.LBB263:
 276              	.LBB264:
 277              		.loc 4 64 0
 278 009a B7EE005A 		vmov.f32	s10, #1.0e+0
 279              	.LBE264:
 280              	.LBE263:
 281              	.LBB268:
 282              	.LBB260:
 283              		.loc 3 171 0
 284 009e F5EE002A 		vmov.f32	s5, #2.5e-1
 285              	.LBE260:
ARM GAS  C:\msys64\tmp\cctsVYwx.s 			page 6


 286              	.LBE268:
 287              	.LBE272:
 288              	.LBE275:
 289              	.LBB276:
 290              	.LBB277:
 291              	.LBB278:
 292              	.LBB279:
 293              	.LBB280:
 294              	.LBB281:
 295              		.loc 2 193 0
 296 00a2 FFEE001A 		vmov.f32	s3, #-1.0e+0
 297              	.LVL18:
 298              	.L14:
 299              	.LBE281:
 300              	.LBE280:
 301              	.LBE279:
 302              	.LBE278:
 303              	.LBE277:
 304              	.LBE276:
 305              	.LBE290:
 306              		.loc 1 51 0
 307 00a6 9142     		cmp	r1, r2
 308 00a8 60D0     		beq	.L7
 309              	.LVL19:
 310              	.LBB291:
 311              	.LBB287:
 312              	.LBB273:
 313              	.LBB269:
 314              		.loc 4 57 0
 315 00aa F4EEE56A 		vcmpe.f32	s13, s11
 316 00ae F1EE10FA 		vmrs	APSR_nzcv, FPSCR
 317              	.LVL20:
 318              	.LBB265:
 319              		.loc 4 64 0
 320 00b2 5BBF     		ittet	pl
 321 00b4 36EEE57A 		vsubpl.f32	s14, s13, s11
 322 00b8 75EE654A 		vsubpl.f32	s9, s10, s11
 323              	.LBE265:
 324              	.LBB266:
 325              		.loc 4 59 0
 326 00bc C6EEA57A 		vdivmi.f32	s15, s13, s11
 327              	.LVL21:
 328              	.LBE266:
 329              	.LBB267:
 330              		.loc 4 64 0
 331 00c0 C7EE247A 		vdivpl.f32	s15, s14, s9
 332 00c4 58BF     		it	pl
 333 00c6 77EE857A 		vaddpl.f32	s15, s15, s10
 334 00ca 67EE847A 		vmul.f32	s15, s15, s8
 335              	.LVL22:
 336              	.LBE267:
 337              	.LBE269:
 338              	.LBB270:
 339              	.LBB261:
 340              		.loc 3 171 0
 341 00ce 77EEA27A 		vadd.f32	s15, s15, s5
 342              	.LVL23:
ARM GAS  C:\msys64\tmp\cctsVYwx.s 			page 7


 343              	.LBB258:
 344              	.LBB256:
 345              		.loc 3 154 0
 346 00d2 BCEEE77A 		vcvt.u32.f32	s14, s15
 347 00d6 B8EE477A 		vcvt.f32.u32	s14, s14
 348 00da 37EEC77A 		vsub.f32	s14, s15, s14
 349 00de 27EE027A 		vmul.f32	s14, s14, s4
 350              	.LVL24:
 351              		.loc 3 155 0
 352 00e2 FCEEC77A 		vcvt.u32.f32	s15, s14
 353              	.LVL25:
 354 00e6 17EE900A 		vmov	r0, s15	@ int
 355              	.LVL26:
 356              		.loc 3 157 0
 357 00ea 00F07F03 		and	r3, r0, #127
 358              	.LVL27:
 359              	.LBB247:
 360              	.LBB248:
 361              		.loc 2 826 0
 362 00ee 04EE900A 		vmov	s9, r0	@ int
 363              	.LBE248:
 364              	.LBE247:
 365              		.loc 3 160 0
 366 00f2 05EB8306 		add	r6, r5, r3, lsl #2
 367 00f6 0133     		adds	r3, r3, #1
 368              	.LVL28:
 369              	.LBB252:
 370              	.LBB249:
 371              		.loc 2 826 0
 372 00f8 F8EE644A 		vcvt.f32.u32	s9, s9
 373              	.LBE249:
 374              	.LBE252:
 375              		.loc 3 160 0
 376 00fc 03F07F03 		and	r3, r3, #127
 377              	.LVL29:
 378 0100 05EB8303 		add	r3, r5, r3, lsl #2
 379              	.LVL30:
 380 0104 D6ED007A 		vldr.32	s15, [r6]
 381              	.LVL31:
 382              	.LBB253:
 383              	.LBB250:
 384              		.loc 2 826 0
 385 0108 37EE647A 		vsub.f32	s14, s14, s9
 386              	.LVL32:
 387 010c D3ED004A 		vldr.32	s9, [r3]
 388 0110 74EEE74A 		vsub.f32	s9, s9, s15
 389              	.LBE250:
 390              	.LBE253:
 391              		.loc 3 161 0
 392 0114 7F28     		cmp	r0, #127
 393              	.LBB254:
 394              	.LBB251:
 395              		.loc 2 826 0
 396 0116 E7EE247A 		vfma.f32	s15, s14, s9
 397              	.LVL33:
 398              	.LBE251:
 399              	.LBE254:
ARM GAS  C:\msys64\tmp\cctsVYwx.s 			page 8


 400              		.loc 3 161 0
 401 011a 88BF     		it	hi
 402 011c F1EE677A 		vneghi.f32	s15, s15
 403              	.LVL34:
 404              	.LBE256:
 405              	.LBE258:
 406              	.LBE261:
 407              	.LBE270:
 408              		.loc 4 67 0
 409 0120 F1EE677A 		vneg.f32	s15, s15
 410              	.LVL35:
 411              	.LBE273:
 412              	.LBE287:
 413              	.LBB288:
 414              	.LBB286:
 415              	.LBB285:
 416              	.LBB284:
 417              	.LBB283:
 418              	.LBB282:
 419              		.loc 2 193 0
 420 0124 F4EEE17A 		vcmpe.f32	s15, s3
 421 0128 F1EE10FA 		vmrs	APSR_nzcv, FPSCR
 422 012c 07DB     		blt	.L27
 423              	.LVL36:
 424 012e F4EEC57A 		vcmpe.f32	s15, s10
 425 0132 F1EE10FA 		vmrs	APSR_nzcv, FPSCR
 426 0136 A8BF     		it	ge
 427 0138 F0EE457A 		vmovge.f32	s15, s10
 428              	.LVL37:
 429 013c 01E0     		b	.L12
 430              	.LVL38:
 431              	.L27:
 432 013e FFEE007A 		vmov.f32	s15, #-1.0e+0
 433              	.LVL39:
 434              	.L12:
 435              	.LBE282:
 436              	.LBE283:
 437              	.LBE284:
 438              	.LBE285:
 439              	.LBE286:
 440              	.LBE288:
 441              		.loc 1 60 0
 442 0142 27EEA77A 		vmul.f32	s14, s15, s15
 443              		.loc 1 63 0
 444 0146 76EE866A 		vadd.f32	s13, s13, s12
 445              	.LVL40:
 446              		.loc 1 60 0
 447 014a 27EEC77A 		vnmul.f32	s14, s15, s14
 448 014e E7EE037A 		vfma.f32	s15, s14, s6
 449 0152 67EEA37A 		vmul.f32	s15, s15, s7
 450 0156 FDEEE77A 		vcvt.s32.f32	s15, s15
 451 015a E1EC017A 		vstmia.32	r1!, {s15}	@ int
 452              	.LVL41:
 453              		.loc 1 64 0
 454 015e FCEEE67A 		vcvt.u32.f32	s15, s13
 455 0162 F8EE677A 		vcvt.f32.u32	s15, s15
 456 0166 76EEE76A 		vsub.f32	s13, s13, s15
ARM GAS  C:\msys64\tmp\cctsVYwx.s 			page 9


 457              	.LVL42:
 458              	.LBE291:
 459              		.loc 1 51 0
 460 016a 9CE7     		b	.L14
 461              	.LVL43:
 462              	.L7:
 463              	.LBE301:
 464              		.loc 1 68 0
 465 016c C4ED006A 		vstr.32	s13, [r4]
 466 0170 70BD     		pop	{r4, r5, r6, pc}
 467              	.L30:
 468 0172 00BF     		.align	2
 469              	.L29:
 470 0174 00000000 		.word	.LANCHOR0
 471 0178 8180803B 		.word	998277249
 472 017c 00008043 		.word	1132462080
 473 0180 CDCC4C3D 		.word	1028443341
 474 0184 0000004F 		.word	1325400064
 475 0188 00000000 		.word	midi_to_hz_lut_f
 476 018c 00000000 		.word	wt_sine_lut_f
 477 0190 49FFB846 		.word	1186529097
 478 0194 3EC3AE37 		.word	934200126
 479              		.cfi_endproc
 480              	.LFE251:
 481              		.size	_hook_cycle, .-_hook_cycle
 482              		.align	1
 483              		.global	_hook_on
 484              		.thumb
 485              		.thumb_func
 486              		.type	_hook_on, %function
 487              	_hook_on:
 488              	.LFB252:
 489              		.loc 1 71 0
 490              		.cfi_startproc
 491              		@ args = 0, pretend = 0, frame = 0
 492              		@ frame_needed = 0, uses_anonymous_args = 0
 493              		@ link register save eliminated.
 494              	.LVL44:
 495              		.loc 1 73 0
 496 0198 024A     		ldr	r2, .L32
 497 019a 137A     		ldrb	r3, [r2, #8]	@ zero_extendqisi2
 498 019c 43F00103 		orr	r3, r3, #1
 499 01a0 1372     		strb	r3, [r2, #8]
 500 01a2 7047     		bx	lr
 501              	.L33:
 502              		.align	2
 503              	.L32:
 504 01a4 00000000 		.word	.LANCHOR0
 505              		.cfi_endproc
 506              	.LFE252:
 507              		.size	_hook_on, .-_hook_on
 508              		.align	1
 509              		.global	_hook_off
 510              		.thumb
 511              		.thumb_func
 512              		.type	_hook_off, %function
 513              	_hook_off:
ARM GAS  C:\msys64\tmp\cctsVYwx.s 			page 10


 514              	.LFB253:
 515              		.loc 1 76 0
 516              		.cfi_startproc
 517              		@ args = 0, pretend = 0, frame = 0
 518              		@ frame_needed = 0, uses_anonymous_args = 0
 519              		@ link register save eliminated.
 520              	.LVL45:
 521 01a8 7047     		bx	lr
 522              		.cfi_endproc
 523              	.LFE253:
 524              		.size	_hook_off, .-_hook_off
 525              		.align	1
 526              		.global	_hook_param
 527              		.thumb
 528              		.thumb_func
 529              		.type	_hook_param, %function
 530              	_hook_param:
 531              	.LFB254:
 532              		.loc 1 81 0
 533              		.cfi_startproc
 534              		@ args = 0, pretend = 0, frame = 0
 535              		@ frame_needed = 0, uses_anonymous_args = 0
 536              		@ link register save eliminated.
 537              	.LVL46:
 538              		.loc 1 81 0
 539 01aa 07EE901A 		vmov	s15, r1	@ int
 540              		.loc 1 86 0
 541 01ae C8B9     		cbnz	r0, .L35
 542              		.loc 1 90 0
 543 01b0 F8EEE77A 		vcvt.f32.s32	s15, s15
 544 01b4 9FED0C7A 		vldr.32	s14, .L44
 545 01b8 67EE877A 		vmul.f32	s15, s15, s14
 546              	.LVL47:
 547              	.LBB302:
 548              	.LBB303:
 549              	.LBB304:
 550              	.LBB305:
 551              		.loc 2 193 0
 552 01bc F5EEC07A 		vcmpe.f32	s15, #0
 553 01c0 F1EE10FA 		vmrs	APSR_nzcv, FPSCR
 554 01c4 09DB     		blt	.L43
 555              	.LVL48:
 556              	.LBE305:
 557              	.LBE304:
 558              	.LBB307:
 559              	.LBB308:
 560 01c6 B7EE007A 		vmov.f32	s14, #1.0e+0
 561              	.LBE308:
 562              	.LBE307:
 563              	.LBB309:
 564              	.LBB306:
 565 01ca F4EEC77A 		vcmpe.f32	s15, s14
 566 01ce F1EE10FA 		vmrs	APSR_nzcv, FPSCR
 567 01d2 A8BF     		it	ge
 568 01d4 F0EE477A 		vmovge.f32	s15, s14
 569              	.LVL49:
 570 01d8 01E0     		b	.L38
ARM GAS  C:\msys64\tmp\cctsVYwx.s 			page 11


 571              	.LVL50:
 572              	.L43:
 573 01da DFED047A 		vldr.32	s15, .L44+4
 574              	.LVL51:
 575              	.L38:
 576              	.LBE306:
 577              	.LBE309:
 578              	.LBE303:
 579              	.LBE302:
 580              		.loc 1 90 0
 581 01de 044B     		ldr	r3, .L44+8
 582 01e0 C3ED037A 		vstr.32	s15, [r3, #12]
 583              	.L35:
 584 01e4 7047     		bx	lr
 585              	.L45:
 586 01e6 00BF     		.align	2
 587              	.L44:
 588 01e8 0AD7233C 		.word	1008981770
 589 01ec 00000000 		.word	0
 590 01f0 00000000 		.word	.LANCHOR0
 591              		.cfi_endproc
 592              	.LFE254:
 593              		.size	_hook_param, .-_hook_param
 594              		.section	.text.startup,"ax",%progbits
 595              		.align	1
 596              		.thumb
 597              		.thumb_func
 598              		.type	_GLOBAL__sub_I__hook_init, %function
 599              	_GLOBAL__sub_I__hook_init:
 600              	.LFB256:
 601              		.loc 1 116 0
 602              		.cfi_startproc
 603              		@ args = 0, pretend = 0, frame = 0
 604              		@ frame_needed = 0, uses_anonymous_args = 0
 605              		@ link register save eliminated.
 606              	.LVL52:
 607              	.LBB319:
 608              	.LBB320:
 609              	.LBB321:
 610              	.LBB322:
 611              	.LBB323:
 612              		.loc 4 38 0
 613 0000 054B     		ldr	r3, .L47
 614 0002 0022     		movs	r2, #0
 615 0004 1A60     		str	r2, [r3]	@ float
 616 0006 5A60     		str	r2, [r3, #4]	@ float
 617 0008 1A7A     		ldrb	r2, [r3, #8]	@ zero_extendqisi2
 618 000a 6FF30002 		bfc	r2, #0, #1
 619 000e 1A72     		strb	r2, [r3, #8]
 620              	.LVL53:
 621              	.LBE323:
 622              	.LBE322:
 623              	.LBB324:
 624              	.LBB325:
 625              		.loc 4 27 0
 626 0010 4FF07C52 		mov	r2, #1056964608
 627 0014 DA60     		str	r2, [r3, #12]	@ float
ARM GAS  C:\msys64\tmp\cctsVYwx.s 			page 12


 628              	.LVL54:
 629 0016 7047     		bx	lr
 630              	.L48:
 631              		.align	2
 632              	.L47:
 633 0018 00000000 		.word	.LANCHOR0
 634              	.LBE325:
 635              	.LBE324:
 636              	.LBE321:
 637              	.LBE320:
 638              	.LBE319:
 639              		.cfi_endproc
 640              	.LFE256:
 641              		.size	_GLOBAL__sub_I__hook_init, .-_GLOBAL__sub_I__hook_init
 642              		.section	.init_array,"aw",%init_array
 643              		.align	2
 644 0000 00000000 		.word	_GLOBAL__sub_I__hook_init(target1)
 645              		.bss
 646              		.align	2
 647              		.set	.LANCHOR0,. + 0
 648              		.type	_ZL2pd, %object
 649              		.size	_ZL2pd, 16
 650              	_ZL2pd:
 651 0000 00000000 		.space	16
 651      00000000 
 651      00000000 
 651      00000000 
 652              		.text
 653              	.Letext0:
 654              		.file 5 "c:\\msys64\\home\\logue-sdk\\tools\\gcc\\gcc-arm-none-eabi-5_4-2016q3\\arm-none-eabi\\inc
 655              		.file 6 "c:\\msys64\\home\\logue-sdk\\tools\\gcc\\gcc-arm-none-eabi-5_4-2016q3\\arm-none-eabi\\inc
 656              		.file 7 "c:\\msys64\\home\\logue-sdk\\platform\\ext\\cmsis\\cmsis\\include\\arm_math.h"
 657              		.file 8 "C:/msys64/home/logue-sdk/platform/nutekt-digital/inc/userosc.h"
 658              		.file 9 "C:/msys64/home/logue-sdk/platform/nutekt-digital/inc/userprg.h"
 659              		.file 10 "C:/msys64/home/logue-sdk/platform/nutekt-digital/inc/utils/int_math.h"