ARM GAS  C:\msys64\tmp\ccCWv11D.s 			page 1


   1              		.syntax unified
   2              		.cpu cortex-m4
   3              		.eabi_attribute 27, 1
   4              		.eabi_attribute 28, 1
   5              		.fpu fpv4-sp-d16
   6              		.eabi_attribute 20, 1
   7              		.eabi_attribute 21, 1
   8              		.eabi_attribute 23, 3
   9              		.eabi_attribute 24, 1
  10              		.eabi_attribute 25, 1
  11              		.eabi_attribute 26, 1
  12              		.eabi_attribute 30, 4
  13              		.eabi_attribute 34, 1
  14              		.eabi_attribute 18, 4
  15              		.thumb
  16              		.syntax unified
  17              		.file	"mvps2D.cpp"
  18              		.text
  19              	.Ltext0:
  20              		.cfi_sections	.debug_frame
  21              		.section	.text._ZN6MVPS2DC2Ev,"axG",%progbits,_ZN6MVPS2DC5Ev,comdat
  22              		.align	1
  23              		.weak	_ZN6MVPS2DC2Ev
  24              		.thumb
  25              		.thumb_func
  26              		.type	_ZN6MVPS2DC2Ev, %function
  27              	_ZN6MVPS2DC2Ev:
  28              	.LFB289:
  29              		.file 1 "mvps2D.hpp"
  30              		.loc 1 73 0
  31              		.cfi_startproc
  32              		@ args = 0, pretend = 0, frame = 0
  33              		@ frame_needed = 0, uses_anonymous_args = 0
  34              	.LVL0:
  35              	.LBB256:
  36              	.LBB257:
  37              	.LBB258:
  38              	.LBB259:
  39              	.LBB260:
  40              		.file 2 "c:\\msys64\\home\\logue-sdk\\platform\\nutekt-digital\\inc\\dsp\\biquad.hpp"
  41              		.loc 2 77 0
  42 0000 0022     		movs	r2, #0
  43              	.LBE260:
  44              	.LBE259:
  45              	.LBE258:
  46              	.LBE257:
  47              		.loc 1 74 0
  48 0002 1146     		mov	r1, r2	@ float
  49              	.LBB264:
  50              	.LBB263:
  51              	.LBB262:
  52              	.LBB261:
  53              		.loc 2 77 0
  54 0004 C263     		str	r2, [r0, #60]	@ float
  55 0006 0264     		str	r2, [r0, #64]	@ float
  56 0008 4264     		str	r2, [r0, #68]	@ float
  57 000a 8264     		str	r2, [r0, #72]	@ float
ARM GAS  C:\msys64\tmp\ccCWv11D.s 			page 2


  58 000c C264     		str	r2, [r0, #76]	@ float
  59              	.LVL1:
  60              	.LBE261:
  61              	.LBE262:
  62              		.loc 2 344 0
  63 000e 0265     		str	r2, [r0, #80]	@ float
  64 0010 4265     		str	r2, [r0, #84]	@ float
  65              	.LVL2:
  66              	.LBE263:
  67              	.LBE264:
  68              	.LBB265:
  69              	.LBB266:
  70              	.LBB267:
  71              	.LBB268:
  72              		.loc 2 77 0
  73 0012 8265     		str	r2, [r0, #88]	@ float
  74 0014 C265     		str	r2, [r0, #92]	@ float
  75 0016 0266     		str	r2, [r0, #96]	@ float
  76 0018 4266     		str	r2, [r0, #100]	@ float
  77 001a 8266     		str	r2, [r0, #104]	@ float
  78              	.LVL3:
  79              	.LBE268:
  80              	.LBE267:
  81              		.loc 2 344 0
  82 001c C266     		str	r2, [r0, #108]	@ float
  83 001e 0267     		str	r2, [r0, #112]	@ float
  84              	.LVL4:
  85              	.LBE266:
  86              	.LBE265:
  87              		.loc 1 74 0
  88 0020 0260     		str	r2, [r0]	@ unaligned
  89 0022 4260     		str	r2, [r0, #4]	@ unaligned
  90 0024 8260     		str	r2, [r0, #8]	@ unaligned
  91 0026 C260     		str	r2, [r0, #12]	@ unaligned
  92 0028 0261     		str	r2, [r0, #16]	@ unaligned
  93 002a 4261     		str	r2, [r0, #20]	@ unaligned
  94 002c 8261     		str	r2, [r0, #24]	@ unaligned
  95              	.LBE256:
  96              		.loc 1 73 0
  97 002e 10B5     		push	{r4, lr}
  98              		.cfi_def_cfa_offset 8
  99              		.cfi_offset 4, -8
 100              		.cfi_offset 14, -4
 101              	.LBB269:
 102              		.loc 1 74 0
 103 0030 027F     		ldrb	r2, [r0, #28]	@ zero_extendqisi2
 104 0032 61F30002 		bfi	r2, r1, #0, #1
 105 0036 0277     		strb	r2, [r0, #28]
 106              		.loc 1 75 0
 107 0038 4FF07C52 		mov	r2, #1056964608
 108 003c 0262     		str	r2, [r0, #32]	@ float
 109 003e 4262     		str	r2, [r0, #36]	@ float
 110 0040 8262     		str	r2, [r0, #40]	@ float
 111 0042 C262     		str	r2, [r0, #44]	@ float
 112 0044 0263     		str	r2, [r0, #48]	@ float
 113 0046 4263     		str	r2, [r0, #52]	@ float
 114 0048 4FF07E52 		mov	r2, #1065353216
ARM GAS  C:\msys64\tmp\ccCWv11D.s 			page 3


 115 004c 8263     		str	r2, [r0, #56]	@ float
 116              	.LBE269:
 117              		.loc 1 76 0
 118 004e 10BD     		pop	{r4, pc}
 119              		.cfi_endproc
 120              	.LFE289:
 121              		.size	_ZN6MVPS2DC2Ev, .-_ZN6MVPS2DC2Ev
 122              		.weak	_ZN6MVPS2DC1Ev
 123              		.thumb_set _ZN6MVPS2DC1Ev,_ZN6MVPS2DC2Ev
 124              		.text
 125              		.align	1
 126              		.global	_hook_init
 127              		.thumb
 128              		.thumb_func
 129              		.type	_hook_init, %function
 130              	_hook_init:
 131              	.LFB295:
 132              		.file 3 "mvps2D.cpp"
 133              		.loc 3 14 0
 134              		.cfi_startproc
 135              		@ args = 0, pretend = 0, frame = 0
 136              		@ frame_needed = 0, uses_anonymous_args = 0
 137              		@ link register save eliminated.
 138              	.LVL5:
 139 0000 7047     		bx	lr
 140              		.cfi_endproc
 141              	.LFE295:
 142              		.size	_hook_init, .-_hook_init
 143              		.align	1
 144              		.global	_hook_cycle
 145              		.thumb
 146              		.thumb_func
 147              		.type	_hook_cycle, %function
 148              	_hook_cycle:
 149              	.LFB296:
 150              		.loc 3 19 0
 151              		.cfi_startproc
 152              		@ args = 0, pretend = 0, frame = 0
 153              		@ frame_needed = 0, uses_anonymous_args = 0
 154              	.LVL6:
 155              		.loc 3 25 0
 156 0002 F34B     		ldr	r3, .L43
 157 0004 9FEDF35A 		vldr.32	s10, .L43+4
 158              	.LBB352:
 159              	.LBB353:
 160              	.LBB354:
 161              	.LBB355:
 162              		.file 4 "C:/msys64/home/logue-sdk/platform/nutekt-digital/inc/utils/float_math.h"
 163              		.loc 4 826 0
 164 0008 9FEDF37A 		vldr.32	s14, .L43+8
 165              	.LBE355:
 166              	.LBE354:
 167              	.LBE353:
 168              	.LBE352:
 169              	.LBB387:
 170              	.LBB388:
 171              		.loc 1 85 0
ARM GAS  C:\msys64\tmp\ccCWv11D.s 			page 4


 172 000c D3ED0E6A 		vldr.32	s13, [r3, #56]
 173              	.LBB389:
 174              	.LBB390:
 175              		.file 5 "C:/msys64/home/logue-sdk/platform/nutekt-digital/inc/osc_api.h"
 176              		.loc 5 615 0
 177 0010 9FEDF24A 		vldr.32	s8, .L43+12
 178              	.LBE390:
 179              	.LBE389:
 180              	.LBE388:
 181              	.LBE387:
 182              		.loc 3 19 0
 183 0014 F0B5     		push	{r4, r5, r6, r7, lr}
 184              		.cfi_def_cfa_offset 20
 185              		.cfi_offset 4, -20
 186              		.cfi_offset 5, -16
 187              		.cfi_offset 6, -12
 188              		.cfi_offset 7, -8
 189              		.cfi_offset 14, -4
 190              		.loc 3 25 0
 191 0016 1C7F     		ldrb	r4, [r3, #28]	@ zero_extendqisi2
 192              	.LVL7:
 193              		.loc 3 28 0
 194 0018 2546     		mov	r5, r4
 195 001a 6FF30005 		bfc	r5, #0, #1
 196              		.loc 3 19 0
 197 001e 2DED108B 		vpush.64	{d8, d9, d10, d11, d12, d13, d14, d15}
 198              		.cfi_def_cfa_offset 84
 199              		.cfi_offset 80, -84
 200              		.cfi_offset 81, -80
 201              		.cfi_offset 82, -76
 202              		.cfi_offset 83, -72
 203              		.cfi_offset 84, -68
 204              		.cfi_offset 85, -64
 205              		.cfi_offset 86, -60
 206              		.cfi_offset 87, -56
 207              		.cfi_offset 88, -52
 208              		.cfi_offset 89, -48
 209              		.cfi_offset 90, -44
 210              		.cfi_offset 91, -40
 211              		.cfi_offset 92, -36
 212              		.cfi_offset 93, -32
 213              		.cfi_offset 94, -28
 214              		.cfi_offset 95, -24
 215              		.loc 3 28 0
 216 0022 1D77     		strb	r5, [r3, #28]
 217              		.loc 3 36 0
 218 0024 8588     		ldrh	r5, [r0, #4]
 219              	.LBB478:
 220              	.LBB479:
 221              	.LBB480:
 222              	.LBB481:
 223              	.LBB482:
 224              	.LBB483:
 225              		.loc 5 154 0
 226 0026 DFEDEE9A 		vldr.32	s19, .L43+16
 227              	.LBE483:
 228              	.LBE482:
ARM GAS  C:\msys64\tmp\ccCWv11D.s 			page 5


 229              	.LBE481:
 230              	.LBE480:
 231              	.LBE479:
 232              	.LBE478:
 233              	.LBB590:
 234              	.LBB464:
 235              	.LBB398:
 236              	.LBB399:
 237              		.loc 2 143 0
 238 002a 83ED115A 		vstr.32	s10, [r3, #68]
 239              	.LBE399:
 240              	.LBE398:
 241              	.LBE464:
 242              	.LBE590:
 243              		.loc 3 31 0
 244 002e 14F0010F 		tst	r4, #1
 245              		.loc 3 36 0
 246 0032 4FEA2524 		asr	r4, r5, #8
 247              	.LVL8:
 248              	.LBB591:
 249              	.LBB592:
 250              		.loc 1 69 0
 251 0036 18BF     		it	ne
 252 0038 83ED005A 		vstrne.32	s10, [r3]
 253              	.LBE592:
 254              	.LBE591:
 255              	.LBB593:
 256              	.LBB380:
 257              	.LBB360:
 258              	.LBB361:
 259              		.loc 5 109 0
 260 003c 962C     		cmp	r4, #150
 261 003e D8BF     		it	le
 262 0040 2646     		movle	r6, r4
 263              	.LBE361:
 264              	.LBE360:
 265              	.LBE380:
 266              	.LBE593:
 267              		.loc 3 39 0
 268 0042 EDB2     		uxtb	r5, r5
 269              	.LBB594:
 270              	.LBB381:
 271              		.loc 5 120 0
 272 0044 04F10104 		add	r4, r4, #1
 273              	.LVL9:
 274 0048 E4B2     		uxtb	r4, r4
 275              	.LVL10:
 276              	.LBE381:
 277              	.LBE594:
 278              		.loc 3 39 0
 279 004a 07EE905A 		vmov	s15, r5	@ int
 280              	.LVL11:
 281              	.LBB595:
 282              	.LBB382:
 283              	.LBB365:
 284              	.LBB362:
 285              		.loc 5 109 0
ARM GAS  C:\msys64\tmp\ccCWv11D.s 			page 6


 286 004e C8BF     		it	gt
 287 0050 9726     		movgt	r6, #151
 288              	.LVL12:
 289 0052 E44D     		ldr	r5, .L43+20
 290              	.LVL13:
 291              	.LBE362:
 292              	.LBE365:
 293              	.LBE382:
 294              	.LBE595:
 295              	.LBB596:
 296              	.LBB465:
 297              	.LBB404:
 298              	.LBB400:
 299              		.loc 2 143 0
 300 0054 83ED135A 		vstr.32	s10, [r3, #76]
 301              	.LBE400:
 302              	.LBE404:
 303              	.LBE465:
 304              	.LBE596:
 305              	.LBB597:
 306              	.LBB383:
 307              	.LBB366:
 308              	.LBB367:
 309              		.loc 5 109 0
 310 0058 962C     		cmp	r4, #150
 311 005a 88BF     		it	hi
 312 005c 9724     		movhi	r4, #151
 313              	.LBE367:
 314              	.LBE366:
 315              	.LBB369:
 316              	.LBB356:
 317              		.loc 4 826 0
 318 005e F8EEE77A 		vcvt.f32.s32	s15, s15
 319              	.LVL14:
 320              	.LBE356:
 321              	.LBE369:
 322              	.LBB370:
 323              	.LBB363:
 324              		.loc 5 109 0
 325 0062 05EB8606 		add	r6, r5, r6, lsl #2
 326              	.LBE363:
 327              	.LBE370:
 328              	.LBB371:
 329              	.LBB368:
 330 0066 05EB8404 		add	r4, r5, r4, lsl #2
 331              	.LBE368:
 332              	.LBE371:
 333              	.LBB372:
 334              	.LBB364:
 335 006a D6ED005A 		vldr.32	s11, [r6]
 336              	.LVL15:
 337              	.LBE364:
 338              	.LBE372:
 339              	.LBE383:
 340              	.LBE597:
 341              	.LBB598:
 342              	.LBB466:
ARM GAS  C:\msys64\tmp\ccCWv11D.s 			page 7


 343              	.LBB405:
 344              	.LBB406:
 345              		.loc 2 159 0
 346 006e 83ED185A 		vstr.32	s10, [r3, #96]
 347              	.LBE406:
 348              	.LBE405:
 349              	.LBE466:
 350              	.LBE598:
 351              	.LBB599:
 352              	.LBB384:
 353              	.LBB373:
 354              	.LBB357:
 355              		.loc 4 826 0
 356 0072 67EE877A 		vmul.f32	s15, s15, s14
 357 0076 94ED007A 		vldr.32	s14, [r4]
 358              	.LBE357:
 359              	.LBE373:
 360              	.LBE384:
 361              	.LBE599:
 362              	.LBB600:
 363              	.LBB467:
 364              	.LBB412:
 365              	.LBB395:
 366              		.loc 5 617 0
 367 007a DB4C     		ldr	r4, .L43+24
 368              	.LBE395:
 369              	.LBE412:
 370              	.LBB413:
 371              	.LBB407:
 372              		.loc 2 159 0
 373 007c 83ED1A5A 		vstr.32	s10, [r3, #104]
 374              	.LBE407:
 375              	.LBE413:
 376              	.LBE467:
 377              	.LBE600:
 378              	.LBB601:
 379              	.LBB385:
 380              	.LBB374:
 381              	.LBB358:
 382              		.loc 4 826 0
 383 0080 37EE657A 		vsub.f32	s14, s14, s11
 384              	.LBE358:
 385              	.LBE374:
 386              	.LBE385:
 387              	.LBE601:
 388              		.loc 3 54 0
 389 0084 93ED05BA 		vldr.32	s22, [r3, #20]
 390              	.LBB602:
 391              	.LBB584:
 392              	.LBB501:
 393              	.LBB502:
 394              		.loc 1 106 0
 395 0088 D3ED08BA 		vldr.32	s23, [r3, #32]
 396              		.loc 1 107 0
 397 008c 93ED0BCA 		vldr.32	s24, [r3, #44]
 398              	.LBE502:
 399              	.LBE501:
ARM GAS  C:\msys64\tmp\ccCWv11D.s 			page 8


 400              		.loc 3 83 0
 401 0090 9FEDD6AA 		vldr.32	s20, .L43+28
 402              	.LBE584:
 403              	.LBE602:
 404              	.LBB603:
 405              	.LBB386:
 406              	.LBB375:
 407              	.LBB359:
 408              		.loc 4 826 0
 409 0094 E7EE875A 		vfma.f32	s11, s15, s14
 410              	.LVL16:
 411              	.LBE359:
 412              	.LBE375:
 413              	.LBB376:
 414              	.LBB377:
 415              	.LBB378:
 416              	.LBB379:
 417              		.loc 4 193 0
 418 0098 DFEDD57A 		vldr.32	s15, .L43+32
 419 009c F4EEE75A 		vcmpe.f32	s11, s15
 420 00a0 F1EE10FA 		vmrs	APSR_nzcv, FPSCR
 421 00a4 A8BF     		it	ge
 422 00a6 F0EE675A 		vmovge.f32	s11, s15
 423              	.LVL17:
 424              	.LBE379:
 425              	.LBE378:
 426              	.LBE377:
 427              	.LBE376:
 428              		.loc 5 124 0
 429 00aa DFEDD27A 		vldr.32	s15, .L43+36
 430 00ae 65EEA75A 		vmul.f32	s11, s11, s15
 431              	.LVL18:
 432              	.LBE386:
 433              	.LBE603:
 434              	.LBB604:
 435              	.LBB468:
 436              	.LBB414:
 437              	.LBB415:
 438              	.LBB416:
 439              	.LBB417:
 440              	.LBB418:
 441              		.loc 4 193 0
 442 00b2 DFEDD17A 		vldr.32	s15, .L43+40
 443              	.LBE418:
 444              	.LBE417:
 445              	.LBE416:
 446              	.LBE415:
 447              	.LBE414:
 448              	.LBE468:
 449              	.LBE604:
 450              		.loc 3 39 0
 451 00b6 C3ED015A 		vstr.32	s11, [r3, #4]
 452              	.LVL19:
 453              	.LBB605:
 454              	.LBB469:
 455              		.loc 1 86 0
 456 00ba 25EEA67A 		vmul.f32	s14, s11, s13
ARM GAS  C:\msys64\tmp\ccCWv11D.s 			page 9


 457              	.LVL20:
 458              	.LBE469:
 459              	.LBE605:
 460              	.LBB606:
 461              	.LBB585:
 462              	.LBB543:
 463              	.LBB498:
 464              		.loc 5 171 0
 465 00be B5EE009A 		vmov.f32	s18, #2.5e-1
 466              	.LBE498:
 467              	.LBE543:
 468              	.LBE585:
 469              	.LBE606:
 470              	.LBB607:
 471              	.LBB470:
 472              	.LBB427:
 473              	.LBB425:
 474              	.LBB423:
 475              	.LBB421:
 476              	.LBB419:
 477              		.loc 4 193 0
 478 00c2 37EE676A 		vsub.f32	s12, s14, s15
 479              	.LVL21:
 480 00c6 F0EE49EA 		vmov.f32	s29, s18
 481 00ca B5EEC06A 		vcmpe.f32	s12, #0
 482 00ce F1EE10FA 		vmrs	APSR_nzcv, FPSCR
 483              	.LBE419:
 484              	.LBE421:
 485              	.LBE423:
 486              	.LBE425:
 487              	.LBE427:
 488              		.loc 1 87 0
 489 00d2 B7EE006A 		vmov.f32	s12, #1.0e+0
 490              	.LVL22:
 491              	.LBB428:
 492              	.LBB426:
 493              	.LBB424:
 494              	.LBB422:
 495              	.LBB420:
 496              		.loc 4 193 0
 497 00d6 B8BF     		it	lt
 498 00d8 F0EE477A 		vmovlt.f32	s15, s14
 499              	.LVL23:
 500              	.LBE420:
 501              	.LBE422:
 502              	.LBE424:
 503              	.LBE426:
 504              	.LBE428:
 505              		.loc 1 87 0
 506 00dc 86EE267A 		vdiv.f32	s14, s12, s13
 507              	.LBB429:
 508              	.LBB396:
 509              		.loc 5 615 0
 510 00e0 67EE847A 		vmul.f32	s15, s15, s8
 511              	.LBE396:
 512              	.LBE429:
 513              		.loc 1 87 0
ARM GAS  C:\msys64\tmp\ccCWv11D.s 			page 10


 514 00e4 67EE256A 		vmul.f32	s13, s14, s11
 515              	.LVL24:
 516 00e8 B0EE69FA 		vmov.f32	s30, s19
 517              	.LBB430:
 518              	.LBB431:
 519              	.LBB432:
 520              	.LBB433:
 521              	.LBB434:
 522              		.loc 4 193 0
 523 00ec 35EE667A 		vsub.f32	s14, s10, s13
 524              	.LVL25:
 525              	.LBE434:
 526              	.LBE433:
 527              	.LBE432:
 528              	.LBE431:
 529              	.LBE430:
 530              	.LBE470:
 531              	.LBE607:
 532              	.LBB608:
 533              	.LBB586:
 534              	.LBB544:
 535              	.LBB545:
 536              	.LBB546:
 537              	.LBB547:
 538              	.LBB548:
 539              	.LBB549:
 540 00f0 FFEE00FA 		vmov.f32	s31, #-1.0e+0
 541              	.LBE549:
 542              	.LBE548:
 543              	.LBE547:
 544              	.LBE546:
 545              	.LBE545:
 546              	.LBE544:
 547              	.LBE586:
 548              	.LBE608:
 549              	.LBB609:
 550              	.LBB471:
 551              	.LBB439:
 552              	.LBB438:
 553              	.LBB437:
 554              	.LBB436:
 555              	.LBB435:
 556 00f4 B5EEC07A 		vcmpe.f32	s14, #0
 557 00f8 9FEDB67A 		vldr.32	s14, .L43+4
 558              	.LVL26:
 559 00fc F1EE10FA 		vmrs	APSR_nzcv, FPSCR
 560 0100 B8BF     		it	lt
 561 0102 B0EE667A 		vmovlt.f32	s14, s13
 562              	.LVL27:
 563              	.LBE435:
 564              	.LBE436:
 565              	.LBE437:
 566              	.LBE438:
 567              	.LBE439:
 568              	.LBB440:
 569              	.LBB397:
 570              		.loc 5 616 0
ARM GAS  C:\msys64\tmp\ccCWv11D.s 			page 11


 571 0106 FCEEE76A 		vcvt.u32.f32	s13, s15
 572 010a 16EE905A 		vmov	r5, s13	@ int
 573              	.LVL28:
 574              	.LBB391:
 575              	.LBB392:
 576              		.loc 4 826 0
 577 010e 04EE905A 		vmov	s9, r5	@ int
 578 0112 F8EE644A 		vcvt.f32.u32	s9, s9
 579              	.LBE392:
 580              	.LBE391:
 581              		.loc 5 617 0
 582 0116 04EB8506 		add	r6, r4, r5, lsl #2
 583 011a D6ED006A 		vldr.32	s13, [r6]
 584              	.LVL29:
 585              	.LBB394:
 586              	.LBB393:
 587              		.loc 4 826 0
 588 011e 77EEE47A 		vsub.f32	s15, s15, s9
 589              	.LVL30:
 590 0122 D6ED014A 		vldr.32	s9, [r6, #4]
 591 0126 74EEE64A 		vsub.f32	s9, s9, s13
 592 012a E7EEA46A 		vfma.f32	s13, s15, s9
 593              	.LVL31:
 594              	.LBE393:
 595              	.LBE394:
 596              	.LBE397:
 597              	.LBE440:
 598              	.LBE471:
 599              	.LBE609:
 600              		.loc 3 50 0
 601 012e D3ED044A 		vldr.32	s9, [r3, #16]
 602              	.LBB610:
 603              	.LBB472:
 604              	.LBB441:
 605              	.LBB401:
 606              		.loc 2 139 0
 607 0132 76EE867A 		vadd.f32	s15, s13, s12
 608              	.LVL32:
 609              		.loc 2 141 0
 610 0136 86EEA71A 		vdiv.f32	s2, s13, s15
 611              		.loc 2 142 0
 612 013a 76EEC66A 		vsub.f32	s13, s13, s12
 613              		.loc 2 141 0
 614 013e 83ED101A 		vstr.32	s2, [r3, #64]
 615              		.loc 2 142 0
 616 0142 86EEA70A 		vdiv.f32	s0, s13, s15
 617              	.LBE401:
 618              	.LBE441:
 619              	.LBB442:
 620              	.LBB443:
 621              		.loc 5 615 0
 622 0146 67EE047A 		vmul.f32	s15, s14, s8
 623              	.LVL33:
 624              	.LBE443:
 625              	.LBE442:
 626              	.LBB454:
 627              	.LBB402:
ARM GAS  C:\msys64\tmp\ccCWv11D.s 			page 12


 628              		.loc 2 141 0
 629 014a 83ED0F1A 		vstr.32	s2, [r3, #60]
 630              	.LBE402:
 631              	.LBE454:
 632              	.LBB455:
 633              	.LBB450:
 634              		.loc 5 616 0
 635 014e BCEEE77A 		vcvt.u32.f32	s14, s15
 636              	.LBE450:
 637              	.LBE455:
 638              	.LBB456:
 639              	.LBB403:
 640              		.loc 2 142 0
 641 0152 83ED120A 		vstr.32	s0, [r3, #72]
 642              	.LBE403:
 643              	.LBE456:
 644              	.LBB457:
 645              	.LBB451:
 646              		.loc 5 616 0
 647 0156 17EE105A 		vmov	r5, s14	@ int
 648              	.LVL34:
 649              	.LBB444:
 650              	.LBB445:
 651              		.loc 4 826 0
 652 015a 06EE905A 		vmov	s13, r5	@ int
 653 015e F8EE666A 		vcvt.f32.u32	s13, s13
 654              	.LBE445:
 655              	.LBE444:
 656              		.loc 5 617 0
 657 0162 04EB8506 		add	r6, r4, r5, lsl #2
 658 0166 96ED007A 		vldr.32	s14, [r6]
 659              	.LVL35:
 660              	.LBE451:
 661              	.LBE457:
 662              	.LBE472:
 663              	.LBE610:
 664              	.LBB611:
 665              	.LBB587:
 666              	.LBB565:
 667              	.LBB499:
 668              	.LBB496:
 669              	.LBB494:
 670              		.loc 5 160 0
 671 016a A44C     		ldr	r4, .L43+44
 672              	.LBE494:
 673              	.LBE496:
 674              	.LBE499:
 675              	.LBE565:
 676              	.LBE587:
 677              	.LBE611:
 678              		.loc 3 55 0
 679 016c 93ED064A 		vldr.32	s8, [r3, #24]
 680              	.LBB612:
 681              	.LBB473:
 682              	.LBB458:
 683              	.LBB452:
 684              	.LBB448:
ARM GAS  C:\msys64\tmp\ccCWv11D.s 			page 13


 685              	.LBB446:
 686              		.loc 4 826 0
 687 0170 77EEE67A 		vsub.f32	s15, s15, s13
 688              	.LVL36:
 689 0174 D6ED016A 		vldr.32	s13, [r6, #4]
 690 0178 76EEC76A 		vsub.f32	s13, s13, s14
 691 017c 2546     		mov	r5, r4
 692              	.LVL37:
 693 017e A7EEA67A 		vfma.f32	s14, s15, s13
 694              	.LVL38:
 695              	.LBE446:
 696              	.LBE448:
 697              	.LBE452:
 698              	.LBE458:
 699              	.LBE473:
 700              	.LBE612:
 701              		.loc 3 45 0
 702 0182 D3ED006A 		vldr.32	s13, [r3]
 703              	.LBB613:
 704              	.LBB474:
 705              	.LBB459:
 706              	.LBB453:
 707              	.LBB449:
 708              	.LBB447:
 709              		.loc 4 826 0
 710 0186 F0EE477A 		vmov.f32	s15, s14
 711              	.LVL39:
 712              	.LBE447:
 713              	.LBE449:
 714              	.LBE453:
 715              	.LBE459:
 716              	.LBB460:
 717              	.LBB408:
 718              		.loc 2 158 0
 719 018a 77EEC67A 		vsub.f32	s15, s15, s12
 720              		.loc 2 154 0
 721 018e 37EE067A 		vadd.f32	s14, s14, s12
 722              	.LVL40:
 723              		.loc 2 158 0
 724 0192 C7EE878A 		vdiv.f32	s17, s15, s14
 725              	.LBE408:
 726              	.LBE460:
 727              	.LBE474:
 728              	.LBE613:
 729              		.loc 3 49 0
 730 0196 D0ED007A 		vldr.32	s15, [r0]	@ int
 731              	.LBB614:
 732              	.LBB475:
 733              	.LBB461:
 734              	.LBB409:
 735              		.loc 2 158 0
 736 019a C3ED198A 		vstr.32	s17, [r3, #100]
 737              		.loc 2 156 0
 738 019e C6EE070A 		vdiv.f32	s1, s12, s14
 739              	.LBE409:
 740              	.LBE461:
 741              	.LBE475:
ARM GAS  C:\msys64\tmp\ccCWv11D.s 			page 14


 742              	.LBE614:
 743              		.loc 3 49 0
 744 01a2 FAEEE07A 		vcvt.f32.s32	s15, s15, #31
 745              		.loc 3 51 0
 746 01a6 07EE102A 		vmov	s14, r2	@ int
 747              		.loc 3 49 0
 748 01aa C3ED037A 		vstr.32	s15, [r3, #12]
 749              	.LVL41:
 750              		.loc 3 51 0
 751 01ae B8EE477A 		vcvt.f32.u32	s14, s14
 752 01b2 77EEE47A 		vsub.f32	s15, s15, s9
 753              	.LVL42:
 754              	.LBB615:
 755              	.LBB476:
 756              	.LBB462:
 757              	.LBB410:
 758              		.loc 2 157 0
 759 01b6 B1EE608A 		vneg.f32	s16, s1
 760              	.LBE410:
 761              	.LBE462:
 762              	.LBE476:
 763              	.LBE615:
 764              		.loc 3 51 0
 765 01ba C7EE87AA 		vdiv.f32	s21, s15, s14
 766              	.LVL43:
 767              		.loc 3 62 0
 768 01be 01EB8202 		add	r2, r1, r2, lsl #2
 769              	.LVL44:
 770              	.LBB616:
 771              	.LBB477:
 772              	.LBB463:
 773              	.LBB411:
 774              		.loc 2 156 0
 775 01c2 C3ED160A 		vstr.32	s1, [r3, #88]
 776              		.loc 2 157 0
 777 01c6 83ED178A 		vstr.32	s16, [r3, #92]
 778              	.LBE411:
 779              	.LBE463:
 780              	.LBE477:
 781              	.LBE616:
 782              	.LBB617:
 783              	.LBB588:
 784              	.LBB566:
 785              	.LBB539:
 786              		.loc 1 108 0
 787 01ca D3ED09CA 		vldr.32	s25, [r3, #36]
 788              		.loc 1 109 0
 789 01ce 93ED0CDA 		vldr.32	s26, [r3, #48]
 790              		.loc 1 110 0
 791 01d2 D3ED0ADA 		vldr.32	s27, [r3, #40]
 792              		.loc 1 111 0
 793 01d6 93ED0DEA 		vldr.32	s28, [r3, #52]
 794 01da 93ED142A 		vldr.32	s4, [r3, #80]
 795 01de D3ED1B2A 		vldr.32	s5, [r3, #108]
 796 01e2 D3ED023A 		vldr.32	s7, [r3, #8]
 797              	.LVL45:
 798              	.L22:
ARM GAS  C:\msys64\tmp\ccCWv11D.s 			page 15


 799              	.LBE539:
 800              	.LBE566:
 801              	.LBE588:
 802              		.loc 3 65 0
 803 01e6 9142     		cmp	r1, r2
 804 01e8 00F0E280 		beq	.L10
 805              	.LVL46:
 806              	.LBB589:
 807              	.LBB567:
 808              	.LBB500:
 809              		.loc 5 171 0
 810 01ec 74EE097A 		vadd.f32	s15, s8, s18
 811              	.LVL47:
 812              	.LBB497:
 813              	.LBB495:
 814              		.loc 5 154 0
 815 01f0 BCEEE77A 		vcvt.u32.f32	s14, s15
 816 01f4 B8EE477A 		vcvt.f32.u32	s14, s14
 817 01f8 37EEC77A 		vsub.f32	s14, s15, s14
 818 01fc 27EE297A 		vmul.f32	s14, s14, s19
 819              	.LVL48:
 820              		.loc 5 155 0
 821 0200 FCEEC77A 		vcvt.u32.f32	s15, s14
 822              	.LVL49:
 823 0204 17EE906A 		vmov	r6, s15	@ int
 824              	.LVL50:
 825              		.loc 5 157 0
 826 0208 06F07F00 		and	r0, r6, #127
 827              	.LVL51:
 828              	.LBB484:
 829              	.LBB485:
 830              		.loc 4 826 0
 831 020c 05EE106A 		vmov	s10, r6	@ int
 832              	.LBE485:
 833              	.LBE484:
 834              		.loc 5 160 0
 835 0210 04EB8007 		add	r7, r4, r0, lsl #2
 836 0214 0130     		adds	r0, r0, #1
 837              	.LVL52:
 838              	.LBB490:
 839              	.LBB486:
 840              		.loc 4 826 0
 841 0216 B8EE455A 		vcvt.f32.u32	s10, s10
 842              	.LBE486:
 843              	.LBE490:
 844              		.loc 5 160 0
 845 021a 00F07F00 		and	r0, r0, #127
 846              	.LVL53:
 847 021e 04EB8000 		add	r0, r4, r0, lsl #2
 848              	.LVL54:
 849              	.LBB491:
 850              	.LBB487:
 851              		.loc 4 826 0
 852 0222 37EE457A 		vsub.f32	s14, s14, s10
 853              	.LVL55:
 854              	.LBE487:
 855              	.LBE491:
ARM GAS  C:\msys64\tmp\ccCWv11D.s 			page 16


 856              		.loc 5 160 0
 857 0226 D7ED007A 		vldr.32	s15, [r7]
 858              	.LVL56:
 859              	.LBB492:
 860              	.LBB488:
 861              		.loc 4 826 0
 862 022a 90ED005A 		vldr.32	s10, [r0]
 863 022e 35EE675A 		vsub.f32	s10, s10, s15
 864              	.LBE488:
 865              	.LBE492:
 866              		.loc 5 161 0
 867 0232 7F2E     		cmp	r6, #127
 868              	.LBB493:
 869              	.LBB489:
 870              		.loc 4 826 0
 871 0234 E7EE057A 		vfma.f32	s15, s14, s10
 872              	.LVL57:
 873 0238 B0EE675A 		vmov.f32	s10, s15
 874              	.LVL58:
 875              	.LBE489:
 876              	.LBE493:
 877              		.loc 5 161 0
 878 023c 88BF     		it	hi
 879 023e B1EE675A 		vneghi.f32	s10, s15
 880              	.LVL59:
 881              	.LBE495:
 882              	.LBE497:
 883              	.LBE500:
 884              	.LBE567:
 885              	.LBB568:
 886              	.LBB540:
 887              		.loc 1 106 0
 888 0242 74EEAB7A 		vadd.f32	s15, s9, s23
 889              	.LVL60:
 890              		.loc 1 107 0
 891 0246 35EE0C7A 		vadd.f32	s14, s10, s24
 892              	.LVL61:
 893              		.loc 1 114 0
 894 024a F4EEE76A 		vcmpe.f32	s13, s15
 895 024e F1EE10FA 		vmrs	APSR_nzcv, FPSCR
 896 0252 04D5     		bpl	.L38
 897              		.loc 1 115 0
 898 0254 C6EEA71A 		vdiv.f32	s3, s13, s15
 899 0258 61EE877A 		vmul.f32	s15, s3, s14
 900              	.LVL62:
 901 025c 35E0     		b	.L14
 902              	.LVL63:
 903              	.L38:
 904              		.loc 1 108 0
 905 025e 34EEAC3A 		vadd.f32	s6, s9, s25
 906              		.loc 1 109 0
 907 0262 75EE0D1A 		vadd.f32	s3, s10, s26
 908              		.loc 1 116 0
 909 0266 F4EEC36A 		vcmpe.f32	s13, s6
 910 026a F1EE10FA 		vmrs	APSR_nzcv, FPSCR
 911 026e 0CD5     		bpl	.L39
 912              	.LVL64:
ARM GAS  C:\msys64\tmp\ccCWv11D.s 			page 17


 913              	.LBB503:
 914              	.LBB504:
 915              		.loc 1 99 0
 916 0270 36EEE75A 		vsub.f32	s10, s13, s15
 917              	.LVL65:
 918              		.loc 1 102 0
 919 0274 33EE673A 		vsub.f32	s6, s6, s15
 920              	.LVL66:
 921 0278 71EEC71A 		vsub.f32	s3, s3, s14
 922              	.LVL67:
 923 027c C5EE037A 		vdiv.f32	s15, s10, s6
 924              	.LVL68:
 925 0280 A7EEA17A 		vfma.f32	s14, s15, s3
 926              	.LVL69:
 927 0284 F0EE477A 		vmov.f32	s15, s14
 928              	.LVL70:
 929 0288 1FE0     		b	.L14
 930              	.LVL71:
 931              	.L39:
 932              	.LBE504:
 933              	.LBE503:
 934              		.loc 1 110 0
 935 028a 34EEAD7A 		vadd.f32	s14, s9, s27
 936              	.LVL72:
 937              		.loc 1 111 0
 938 028e 75EE0E7A 		vadd.f32	s15, s10, s28
 939              	.LVL73:
 940              		.loc 1 118 0
 941 0292 F4EEC76A 		vcmpe.f32	s13, s14
 942 0296 F1EE10FA 		vmrs	APSR_nzcv, FPSCR
 943 029a 0CD5     		bpl	.L40
 944              	.LVL74:
 945              	.LBB505:
 946              	.LBB506:
 947              		.loc 1 99 0
 948 029c 36EEC35A 		vsub.f32	s10, s13, s6
 949              	.LVL75:
 950              		.loc 1 102 0
 951 02a0 37EE433A 		vsub.f32	s6, s14, s6
 952              	.LVL76:
 953 02a4 77EEE17A 		vsub.f32	s15, s15, s3
 954              	.LVL77:
 955 02a8 85EE037A 		vdiv.f32	s14, s10, s6
 956              	.LVL78:
 957 02ac E7EE271A 		vfma.f32	s3, s14, s15
 958              	.LVL79:
 959 02b0 F0EE617A 		vmov.f32	s15, s3
 960              	.LVL80:
 961 02b4 09E0     		b	.L14
 962              	.LVL81:
 963              	.L40:
 964              	.LBE506:
 965              	.LBE505:
 966              	.LBB507:
 967              	.LBB508:
 968              		.loc 1 99 0
 969 02b6 36EEC75A 		vsub.f32	s10, s13, s14
ARM GAS  C:\msys64\tmp\ccCWv11D.s 			page 18


 970              	.LVL82:
 971              		.loc 1 102 0
 972 02ba 36EE477A 		vsub.f32	s14, s12, s14
 973              	.LVL83:
 974 02be 85EE073A 		vdiv.f32	s6, s10, s14
 975 02c2 36EE677A 		vsub.f32	s14, s12, s15
 976 02c6 E3EE077A 		vfma.f32	s15, s6, s14
 977              	.LVL84:
 978              	.L14:
 979              	.LBE508:
 980              	.LBE507:
 981              	.LBB509:
 982              	.LBB510:
 983              		.loc 5 171 0
 984 02ca 77EEAE7A 		vadd.f32	s15, s15, s29
 985              	.LVL85:
 986              	.LBE510:
 987              	.LBE509:
 988              	.LBE540:
 989              	.LBE568:
 990              	.LBB569:
 991              	.LBB570:
 992              		.loc 1 94 0
 993 02ce 3BEE044A 		vadd.f32	s8, s22, s8
 994              	.LVL86:
 995              	.LBE570:
 996              	.LBE569:
 997              	.LBB572:
 998              	.LBB541:
 999              	.LBB527:
 1000              	.LBB525:
 1001              	.LBB511:
 1002              	.LBB512:
 1003              		.loc 5 154 0
 1004 02d2 FCEEE71A 		vcvt.u32.f32	s3, s15
 1005              	.LBE512:
 1006              	.LBE511:
 1007              	.LBE525:
 1008              	.LBE527:
 1009              	.LBE541:
 1010              	.LBE572:
 1011              		.loc 3 77 0
 1012 02d6 74EEAA4A 		vadd.f32	s9, s9, s21
 1013              	.LVL87:
 1014              	.LBB573:
 1015              	.LBB542:
 1016              	.LBB528:
 1017              	.LBB526:
 1018              	.LBB524:
 1019              	.LBB523:
 1020              		.loc 5 154 0
 1021 02da F8EE611A 		vcvt.f32.u32	s3, s3
 1022 02de 77EEE17A 		vsub.f32	s15, s15, s3
 1023              	.LVL88:
 1024 02e2 67EE8F7A 		vmul.f32	s15, s15, s30
 1025              	.LVL89:
 1026              		.loc 5 155 0
ARM GAS  C:\msys64\tmp\ccCWv11D.s 			page 19


 1027 02e6 BCEEE77A 		vcvt.u32.f32	s14, s15
 1028 02ea 17EE106A 		vmov	r6, s14	@ int
 1029              	.LVL90:
 1030              		.loc 5 157 0
 1031 02ee 06F07F00 		and	r0, r6, #127
 1032              	.LVL91:
 1033              	.LBB513:
 1034              	.LBB514:
 1035              		.loc 4 826 0
 1036 02f2 05EE106A 		vmov	s10, r6	@ int
 1037              	.LBE514:
 1038              	.LBE513:
 1039              		.loc 5 160 0
 1040 02f6 05EB8007 		add	r7, r5, r0, lsl #2
 1041 02fa 0130     		adds	r0, r0, #1
 1042              	.LVL92:
 1043              	.LBB519:
 1044              	.LBB515:
 1045              		.loc 4 826 0
 1046 02fc B8EE455A 		vcvt.f32.u32	s10, s10
 1047              	.LBE515:
 1048              	.LBE519:
 1049              		.loc 5 160 0
 1050 0300 00F07F00 		and	r0, r0, #127
 1051              	.LVL93:
 1052 0304 05EB8000 		add	r0, r5, r0, lsl #2
 1053              	.LVL94:
 1054              	.LBB520:
 1055              	.LBB516:
 1056              		.loc 4 826 0
 1057 0308 77EEC57A 		vsub.f32	s15, s15, s10
 1058              	.LVL95:
 1059              	.LBE516:
 1060              	.LBE520:
 1061              		.loc 5 160 0
 1062 030c 97ED007A 		vldr.32	s14, [r7]
 1063              	.LVL96:
 1064              	.LBB521:
 1065              	.LBB517:
 1066              		.loc 4 826 0
 1067 0310 90ED005A 		vldr.32	s10, [r0]
 1068 0314 35EE475A 		vsub.f32	s10, s10, s14
 1069              	.LBE517:
 1070              	.LBE521:
 1071              		.loc 5 161 0
 1072 0318 7F2E     		cmp	r6, #127
 1073              	.LBB522:
 1074              	.LBB518:
 1075              		.loc 4 826 0
 1076 031a A7EE857A 		vfma.f32	s14, s15, s10
 1077              	.LVL97:
 1078 031e F0EE477A 		vmov.f32	s15, s14
 1079              	.LVL98:
 1080              	.LBE518:
 1081              	.LBE522:
 1082              		.loc 5 161 0
 1083 0322 88BF     		it	hi
ARM GAS  C:\msys64\tmp\ccCWv11D.s 			page 20


 1084 0324 F1EE477A 		vneghi.f32	s15, s14
 1085              	.LVL99:
 1086              	.LBE523:
 1087              	.LBE524:
 1088              	.LBE526:
 1089              	.LBE528:
 1090              		.loc 1 124 0
 1091 0328 F1EE677A 		vneg.f32	s15, s15
 1092              	.LVL100:
 1093              	.LBB529:
 1094              	.LBB530:
 1095              		.loc 2 385 0
 1096 032c B0EE427A 		vmov.f32	s14, s4
 1097 0330 A1EE277A 		vfma.f32	s14, s2, s15
 1098              	.LVL101:
 1099              		.loc 2 387 0
 1100 0334 27EE402A 		vnmul.f32	s4, s14, s0
 1101 0338 A1EE272A 		vfma.f32	s4, s2, s15
 1102              	.LVL102:
 1103              	.LBE530:
 1104              	.LBE529:
 1105              	.LBB531:
 1106              	.LBB532:
 1107              		.loc 2 385 0
 1108 033c F0EE627A 		vmov.f32	s15, s5
 1109 0340 E0EE877A 		vfma.f32	s15, s1, s14
 1110              	.LVL103:
 1111              		.loc 2 387 0
 1112 0344 67EEE82A 		vnmul.f32	s5, s15, s17
 1113              	.LBE532:
 1114              	.LBE531:
 1115              	.LBB534:
 1116              	.LBB535:
 1117              		.loc 4 826 0
 1118 0348 77EEE37A 		vsub.f32	s15, s15, s7
 1119              	.LVL104:
 1120              	.LBE535:
 1121              	.LBE534:
 1122              	.LBB537:
 1123              	.LBB533:
 1124              		.loc 2 387 0
 1125 034c E8EE072A 		vfma.f32	s5, s16, s14
 1126              	.LVL105:
 1127              	.LBE533:
 1128              	.LBE537:
 1129              	.LBB538:
 1130              	.LBB536:
 1131              		.loc 4 826 0
 1132 0350 E6EEA73A 		vfma.f32	s7, s13, s15
 1133              	.LVL106:
 1134              	.LBE536:
 1135              	.LBE538:
 1136              	.LBE542:
 1137              	.LBE573:
 1138              	.LBB574:
 1139              	.LBB575:
 1140              		.loc 1 94 0
ARM GAS  C:\msys64\tmp\ccCWv11D.s 			page 21


 1141 0354 76EEA56A 		vadd.f32	s13, s13, s11
 1142              	.LVL107:
 1143              	.LBE575:
 1144              	.LBE574:
 1145              	.LBB578:
 1146              	.LBB562:
 1147              	.LBB559:
 1148              	.LBB556:
 1149              	.LBB553:
 1150              	.LBB550:
 1151              		.loc 4 193 0
 1152 0358 F4EEEF3A 		vcmpe.f32	s7, s31
 1153              	.LBE550:
 1154              	.LBE553:
 1155              	.LBE556:
 1156              	.LBE559:
 1157              	.LBE562:
 1158              	.LBE578:
 1159              	.LBB579:
 1160              	.LBB576:
 1161              		.loc 1 95 0
 1162 035c FCEEE67A 		vcvt.u32.f32	s15, s13
 1163              	.LBE576:
 1164              	.LBE579:
 1165              	.LBB580:
 1166              	.LBB563:
 1167              	.LBB560:
 1168              	.LBB557:
 1169              	.LBB554:
 1170              	.LBB551:
 1171              		.loc 4 193 0
 1172 0360 F1EE10FA 		vmrs	APSR_nzcv, FPSCR
 1173              	.LBE551:
 1174              	.LBE554:
 1175              	.LBE557:
 1176              	.LBE560:
 1177              	.LBE563:
 1178              	.LBE580:
 1179              	.LBB581:
 1180              	.LBB577:
 1181              		.loc 1 95 0
 1182 0364 F8EE677A 		vcvt.f32.u32	s15, s15
 1183 0368 76EEE76A 		vsub.f32	s13, s13, s15
 1184              	.LVL108:
 1185              	.LBE577:
 1186              	.LBE581:
 1187              	.LBB582:
 1188              	.LBB571:
 1189 036c FCEEC47A 		vcvt.u32.f32	s15, s8
 1190 0370 F8EE677A 		vcvt.f32.u32	s15, s15
 1191 0374 34EE674A 		vsub.f32	s8, s8, s15
 1192              	.LVL109:
 1193              	.LBE571:
 1194              	.LBE582:
 1195              	.LBB583:
 1196              	.LBB564:
 1197              	.LBB561:
ARM GAS  C:\msys64\tmp\ccCWv11D.s 			page 22


 1198              	.LBB558:
 1199              	.LBB555:
 1200              	.LBB552:
 1201              		.loc 4 193 0
 1202 0378 09DB     		blt	.L41
 1203              	.LVL110:
 1204 037a F4EEC63A 		vcmpe.f32	s7, s12
 1205 037e F1EE10FA 		vmrs	APSR_nzcv, FPSCR
 1206 0382 F7EE007A 		vmov.f32	s15, #1.0e+0
 1207 0386 B8BF     		it	lt
 1208 0388 F0EE637A 		vmovlt.f32	s15, s7
 1209 038c 01E0     		b	.L20
 1210              	.LVL111:
 1211              	.L41:
 1212 038e FFEE007A 		vmov.f32	s15, #-1.0e+0
 1213              	.LVL112:
 1214              	.L20:
 1215              	.LBE552:
 1216              	.LBE555:
 1217              	.LBE558:
 1218              	.LBE561:
 1219              	.LBE564:
 1220              	.LBE583:
 1221              		.loc 3 83 0
 1222 0392 27EEA77A 		vmul.f32	s14, s15, s15
 1223 0396 27EEC77A 		vnmul.f32	s14, s15, s14
 1224 039a E7EE0A7A 		vfma.f32	s15, s14, s20
 1225 039e 9FED187A 		vldr.32	s14, .L43+48
 1226 03a2 67EE877A 		vmul.f32	s15, s15, s14
 1227 03a6 FDEEE77A 		vcvt.s32.f32	s15, s15
 1228 03aa E1EC017A 		vstmia.32	r1!, {s15}	@ int
 1229              	.LVL113:
 1230              	.LBE589:
 1231              		.loc 3 65 0
 1232 03ae 1AE7     		b	.L22
 1233              	.LVL114:
 1234              	.L10:
 1235              	.LBE617:
 1236              		.loc 3 91 0
 1237 03b0 BDEC108B 		vldm	sp!, {d8-d15}
 1238              		.cfi_restore 94
 1239              		.cfi_restore 95
 1240              		.cfi_restore 92
 1241              		.cfi_restore 93
 1242              		.cfi_restore 90
 1243              		.cfi_restore 91
 1244              		.cfi_restore 88
 1245              		.cfi_restore 89
 1246              		.cfi_restore 86
 1247              		.cfi_restore 87
 1248              		.cfi_restore 84
 1249              		.cfi_restore 85
 1250              		.cfi_restore 82
 1251              		.cfi_restore 83
 1252              		.cfi_restore 80
 1253              		.cfi_restore 81
 1254              		.cfi_def_cfa_offset 20
ARM GAS  C:\msys64\tmp\ccCWv11D.s 			page 23


 1255              	.LVL115:
 1256 03b4 83ED142A 		vstr.32	s4, [r3, #80]
 1257 03b8 C3ED1B2A 		vstr.32	s5, [r3, #108]
 1258 03bc C3ED023A 		vstr.32	s7, [r3, #8]
 1259              		.loc 3 88 0
 1260 03c0 C3ED006A 		vstr.32	s13, [r3]
 1261              		.loc 3 89 0
 1262 03c4 83ED064A 		vstr.32	s8, [r3, #24]
 1263              		.loc 3 90 0
 1264 03c8 C3ED044A 		vstr.32	s9, [r3, #16]
 1265              	.LVL116:
 1266              		.loc 3 91 0
 1267 03cc F0BD     		pop	{r4, r5, r6, r7, pc}
 1268              	.L44:
 1269 03ce 00BF     		.align	2
 1270              	.L43:
 1271 03d0 00000000 		.word	.LANCHOR0
 1272 03d4 00000000 		.word	0
 1273 03d8 8180803B 		.word	998277249
 1274 03dc BC9C0244 		.word	1141021884
 1275 03e0 00008043 		.word	1132462080
 1276 03e4 00000000 		.word	midi_to_hz_lut_f
 1277 03e8 00000000 		.word	tanpi_lut_f
 1278 03ec CDCC4C3D 		.word	1028443341
 1279 03f0 49FFB846 		.word	1186529097
 1280 03f4 3EC3AE37 		.word	934200126
 1281 03f8 48E1FA3E 		.word	1056629064
 1282 03fc 00000000 		.word	wt_sine_lut_f
 1283 0400 0000004F 		.word	1325400064
 1284              		.cfi_endproc
 1285              	.LFE296:
 1286              		.size	_hook_cycle, .-_hook_cycle
 1287              		.align	1
 1288              		.global	_hook_on
 1289              		.thumb
 1290              		.thumb_func
 1291              		.type	_hook_on, %function
 1292              	_hook_on:
 1293              	.LFB297:
 1294              		.loc 3 93 0
 1295              		.cfi_startproc
 1296              		@ args = 0, pretend = 0, frame = 0
 1297              		@ frame_needed = 0, uses_anonymous_args = 0
 1298              		@ link register save eliminated.
 1299              	.LVL117:
 1300              		.loc 3 96 0
 1301 0404 024A     		ldr	r2, .L46
 1302 0406 137F     		ldrb	r3, [r2, #28]	@ zero_extendqisi2
 1303 0408 43F00103 		orr	r3, r3, #1
 1304 040c 1377     		strb	r3, [r2, #28]
 1305 040e 7047     		bx	lr
 1306              	.L47:
 1307              		.align	2
 1308              	.L46:
 1309 0410 00000000 		.word	.LANCHOR0
 1310              		.cfi_endproc
 1311              	.LFE297:
ARM GAS  C:\msys64\tmp\ccCWv11D.s 			page 24


 1312              		.size	_hook_on, .-_hook_on
 1313              		.align	1
 1314              		.global	_hook_off
 1315              		.thumb
 1316              		.thumb_func
 1317              		.type	_hook_off, %function
 1318              	_hook_off:
 1319              	.LFB298:
 1320              		.loc 3 99 0
 1321              		.cfi_startproc
 1322              		@ args = 0, pretend = 0, frame = 0
 1323              		@ frame_needed = 0, uses_anonymous_args = 0
 1324              		@ link register save eliminated.
 1325              	.LVL118:
 1326 0414 7047     		bx	lr
 1327              		.cfi_endproc
 1328              	.LFE298:
 1329              		.size	_hook_off, .-_hook_off
 1330              		.align	1
 1331              		.global	_hook_param
 1332              		.thumb
 1333              		.thumb_func
 1334              		.type	_hook_param, %function
 1335              	_hook_param:
 1336              	.LFB299:
 1337              		.loc 3 104 0
 1338              		.cfi_startproc
 1339              		@ args = 0, pretend = 0, frame = 0
 1340              		@ frame_needed = 0, uses_anonymous_args = 0
 1341              		@ link register save eliminated.
 1342              	.LVL119:
 1343              		.loc 3 109 0
 1344 0416 07EE901A 		vmov	s15, r1	@ int
 1345 041a 9FED5D7A 		vldr.32	s14, .L96
 1346 041e F8EEE77A 		vcvt.f32.s32	s15, s15
 1347 0422 27EE877A 		vmul.f32	s14, s15, s14
 1348              	.LVL120:
 1349              		.loc 3 111 0
 1350 0426 0728     		cmp	r0, #7
 1351 0428 00F2B180 		bhi	.L49
 1352 042c DFE800F0 		tbb	[pc, r0]
 1353              	.L52:
 1354 0430 04       		.byte	(.L51-.L52)/2
 1355 0431 1D       		.byte	(.L53-.L52)/2
 1356 0432 36       		.byte	(.L54-.L52)/2
 1357 0433 4F       		.byte	(.L55-.L52)/2
 1358 0434 68       		.byte	(.L56-.L52)/2
 1359 0435 81       		.byte	(.L57-.L52)/2
 1360 0436 9A       		.byte	(.L58-.L52)/2
 1361 0437 A4       		.byte	(.L59-.L52)/2
 1362              		.p2align 1
 1363              	.L51:
 1364              		.loc 3 114 0
 1365 0438 9FED567A 		vldr.32	s14, .L96+4
 1366              	.LVL121:
 1367 043c 67EE877A 		vmul.f32	s15, s15, s14
 1368              	.LVL122:
ARM GAS  C:\msys64\tmp\ccCWv11D.s 			page 25


 1369              	.LBB618:
 1370              	.LBB619:
 1371              	.LBB620:
 1372              	.LBB621:
 1373              		.loc 4 193 0
 1374 0440 F5EEC07A 		vcmpe.f32	s15, #0
 1375 0444 F1EE10FA 		vmrs	APSR_nzcv, FPSCR
 1376 0448 09DB     		blt	.L90
 1377              	.LVL123:
 1378              	.LBE621:
 1379              	.LBE620:
 1380              	.LBB623:
 1381              	.LBB624:
 1382 044a B7EE007A 		vmov.f32	s14, #1.0e+0
 1383              	.LBE624:
 1384              	.LBE623:
 1385              	.LBB625:
 1386              	.LBB622:
 1387 044e F4EEC77A 		vcmpe.f32	s15, s14
 1388 0452 F1EE10FA 		vmrs	APSR_nzcv, FPSCR
 1389 0456 A8BF     		it	ge
 1390 0458 F0EE477A 		vmovge.f32	s15, s14
 1391              	.LVL124:
 1392 045c 01E0     		b	.L60
 1393              	.LVL125:
 1394              	.L90:
 1395 045e DFED4E7A 		vldr.32	s15, .L96+8
 1396              	.LVL126:
 1397              	.L60:
 1398              	.LBE622:
 1399              	.LBE625:
 1400              	.LBE619:
 1401              	.LBE618:
 1402              		.loc 3 114 0
 1403 0462 4E4B     		ldr	r3, .L96+12
 1404 0464 C3ED087A 		vstr.32	s15, [r3, #32]
 1405              		.loc 3 115 0
 1406 0468 7047     		bx	lr
 1407              	.LVL127:
 1408              	.L53:
 1409              		.loc 3 119 0
 1410 046a 9FED4A7A 		vldr.32	s14, .L96+4
 1411              	.LVL128:
 1412 046e 67EE877A 		vmul.f32	s15, s15, s14
 1413              	.LVL129:
 1414              	.LBB626:
 1415              	.LBB627:
 1416              	.LBB628:
 1417              	.LBB629:
 1418              		.loc 4 193 0
 1419 0472 F5EEC07A 		vcmpe.f32	s15, #0
 1420 0476 F1EE10FA 		vmrs	APSR_nzcv, FPSCR
 1421 047a 09DB     		blt	.L91
 1422              	.LVL130:
 1423              	.LBE629:
 1424              	.LBE628:
 1425              	.LBB631:
ARM GAS  C:\msys64\tmp\ccCWv11D.s 			page 26


 1426              	.LBB632:
 1427 047c B7EE007A 		vmov.f32	s14, #1.0e+0
 1428              	.LBE632:
 1429              	.LBE631:
 1430              	.LBB633:
 1431              	.LBB630:
 1432 0480 F4EEC77A 		vcmpe.f32	s15, s14
 1433 0484 F1EE10FA 		vmrs	APSR_nzcv, FPSCR
 1434 0488 A8BF     		it	ge
 1435 048a F0EE477A 		vmovge.f32	s15, s14
 1436              	.LVL131:
 1437 048e 01E0     		b	.L62
 1438              	.LVL132:
 1439              	.L91:
 1440 0490 DFED417A 		vldr.32	s15, .L96+8
 1441              	.LVL133:
 1442              	.L62:
 1443              	.LBE630:
 1444              	.LBE633:
 1445              	.LBE627:
 1446              	.LBE626:
 1447              		.loc 3 119 0
 1448 0494 414B     		ldr	r3, .L96+12
 1449 0496 C3ED0B7A 		vstr.32	s15, [r3, #44]
 1450              		.loc 3 120 0
 1451 049a 7047     		bx	lr
 1452              	.LVL134:
 1453              	.L54:
 1454              		.loc 3 124 0
 1455 049c 9FED3D7A 		vldr.32	s14, .L96+4
 1456              	.LVL135:
 1457 04a0 67EE877A 		vmul.f32	s15, s15, s14
 1458              	.LVL136:
 1459              	.LBB634:
 1460              	.LBB635:
 1461              	.LBB636:
 1462              	.LBB637:
 1463              		.loc 4 193 0
 1464 04a4 F5EEC07A 		vcmpe.f32	s15, #0
 1465 04a8 F1EE10FA 		vmrs	APSR_nzcv, FPSCR
 1466 04ac 09DB     		blt	.L92
 1467              	.LVL137:
 1468              	.LBE637:
 1469              	.LBE636:
 1470              	.LBB639:
 1471              	.LBB640:
 1472 04ae B7EE007A 		vmov.f32	s14, #1.0e+0
 1473              	.LBE640:
 1474              	.LBE639:
 1475              	.LBB641:
 1476              	.LBB638:
 1477 04b2 F4EEC77A 		vcmpe.f32	s15, s14
 1478 04b6 F1EE10FA 		vmrs	APSR_nzcv, FPSCR
 1479 04ba A8BF     		it	ge
 1480 04bc F0EE477A 		vmovge.f32	s15, s14
 1481              	.LVL138:
 1482 04c0 01E0     		b	.L64
ARM GAS  C:\msys64\tmp\ccCWv11D.s 			page 27


 1483              	.LVL139:
 1484              	.L92:
 1485 04c2 DFED357A 		vldr.32	s15, .L96+8
 1486              	.LVL140:
 1487              	.L64:
 1488              	.LBE638:
 1489              	.LBE641:
 1490              	.LBE635:
 1491              	.LBE634:
 1492              		.loc 3 124 0
 1493 04c6 354B     		ldr	r3, .L96+12
 1494 04c8 C3ED097A 		vstr.32	s15, [r3, #36]
 1495              		.loc 3 125 0
 1496 04cc 7047     		bx	lr
 1497              	.LVL141:
 1498              	.L55:
 1499              		.loc 3 129 0
 1500 04ce 9FED317A 		vldr.32	s14, .L96+4
 1501              	.LVL142:
 1502 04d2 67EE877A 		vmul.f32	s15, s15, s14
 1503              	.LVL143:
 1504              	.LBB642:
 1505              	.LBB643:
 1506              	.LBB644:
 1507              	.LBB645:
 1508              		.loc 4 193 0
 1509 04d6 F5EEC07A 		vcmpe.f32	s15, #0
 1510 04da F1EE10FA 		vmrs	APSR_nzcv, FPSCR
 1511 04de 09DB     		blt	.L93
 1512              	.LVL144:
 1513              	.LBE645:
 1514              	.LBE644:
 1515              	.LBB647:
 1516              	.LBB648:
 1517 04e0 B7EE007A 		vmov.f32	s14, #1.0e+0
 1518              	.LBE648:
 1519              	.LBE647:
 1520              	.LBB649:
 1521              	.LBB646:
 1522 04e4 F4EEC77A 		vcmpe.f32	s15, s14
 1523 04e8 F1EE10FA 		vmrs	APSR_nzcv, FPSCR
 1524 04ec A8BF     		it	ge
 1525 04ee F0EE477A 		vmovge.f32	s15, s14
 1526              	.LVL145:
 1527 04f2 01E0     		b	.L66
 1528              	.LVL146:
 1529              	.L93:
 1530 04f4 DFED287A 		vldr.32	s15, .L96+8
 1531              	.LVL147:
 1532              	.L66:
 1533              	.LBE646:
 1534              	.LBE649:
 1535              	.LBE643:
 1536              	.LBE642:
 1537              		.loc 3 129 0
 1538 04f8 284B     		ldr	r3, .L96+12
 1539 04fa C3ED0C7A 		vstr.32	s15, [r3, #48]
ARM GAS  C:\msys64\tmp\ccCWv11D.s 			page 28


 1540              		.loc 3 130 0
 1541 04fe 7047     		bx	lr
 1542              	.LVL148:
 1543              	.L56:
 1544              		.loc 3 134 0
 1545 0500 9FED247A 		vldr.32	s14, .L96+4
 1546              	.LVL149:
 1547 0504 67EE877A 		vmul.f32	s15, s15, s14
 1548              	.LVL150:
 1549              	.LBB650:
 1550              	.LBB651:
 1551              	.LBB652:
 1552              	.LBB653:
 1553              		.loc 4 193 0
 1554 0508 F5EEC07A 		vcmpe.f32	s15, #0
 1555 050c F1EE10FA 		vmrs	APSR_nzcv, FPSCR
 1556 0510 09DB     		blt	.L94
 1557              	.LVL151:
 1558              	.LBE653:
 1559              	.LBE652:
 1560              	.LBB655:
 1561              	.LBB656:
 1562 0512 B7EE007A 		vmov.f32	s14, #1.0e+0
 1563              	.LBE656:
 1564              	.LBE655:
 1565              	.LBB657:
 1566              	.LBB654:
 1567 0516 F4EEC77A 		vcmpe.f32	s15, s14
 1568 051a F1EE10FA 		vmrs	APSR_nzcv, FPSCR
 1569 051e A8BF     		it	ge
 1570 0520 F0EE477A 		vmovge.f32	s15, s14
 1571              	.LVL152:
 1572 0524 01E0     		b	.L68
 1573              	.LVL153:
 1574              	.L94:
 1575 0526 DFED1C7A 		vldr.32	s15, .L96+8
 1576              	.LVL154:
 1577              	.L68:
 1578              	.LBE654:
 1579              	.LBE657:
 1580              	.LBE651:
 1581              	.LBE650:
 1582              		.loc 3 134 0
 1583 052a 1C4B     		ldr	r3, .L96+12
 1584 052c C3ED0A7A 		vstr.32	s15, [r3, #40]
 1585              		.loc 3 135 0
 1586 0530 7047     		bx	lr
 1587              	.LVL155:
 1588              	.L57:
 1589              		.loc 3 139 0
 1590 0532 9FED187A 		vldr.32	s14, .L96+4
 1591              	.LVL156:
 1592 0536 67EE877A 		vmul.f32	s15, s15, s14
 1593              	.LVL157:
 1594              	.LBB658:
 1595              	.LBB659:
 1596              	.LBB660:
ARM GAS  C:\msys64\tmp\ccCWv11D.s 			page 29


 1597              	.LBB661:
 1598              		.loc 4 193 0
 1599 053a F5EEC07A 		vcmpe.f32	s15, #0
 1600 053e F1EE10FA 		vmrs	APSR_nzcv, FPSCR
 1601 0542 09DB     		blt	.L95
 1602              	.LVL158:
 1603              	.LBE661:
 1604              	.LBE660:
 1605              	.LBB663:
 1606              	.LBB664:
 1607 0544 B7EE007A 		vmov.f32	s14, #1.0e+0
 1608              	.LBE664:
 1609              	.LBE663:
 1610              	.LBB665:
 1611              	.LBB662:
 1612 0548 F4EEC77A 		vcmpe.f32	s15, s14
 1613 054c F1EE10FA 		vmrs	APSR_nzcv, FPSCR
 1614 0550 A8BF     		it	ge
 1615 0552 F0EE477A 		vmovge.f32	s15, s14
 1616              	.LVL159:
 1617 0556 01E0     		b	.L70
 1618              	.LVL160:
 1619              	.L95:
 1620 0558 DFED0F7A 		vldr.32	s15, .L96+8
 1621              	.LVL161:
 1622              	.L70:
 1623              	.LBE662:
 1624              	.LBE665:
 1625              	.LBE659:
 1626              	.LBE658:
 1627              		.loc 3 139 0
 1628 055c 0F4B     		ldr	r3, .L96+12
 1629 055e C3ED0D7A 		vstr.32	s15, [r3, #52]
 1630              		.loc 3 140 0
 1631 0562 7047     		bx	lr
 1632              	.LVL162:
 1633              	.L58:
 1634              		.loc 3 144 0
 1635 0564 DFED0E6A 		vldr.32	s13, .L96+16
 1636 0568 0C4B     		ldr	r3, .L96+12
 1637 056a F7EE007A 		vmov.f32	s15, #1.0e+0
 1638 056e E7EE267A 		vfma.f32	s15, s14, s13
 1639 0572 C3ED0E7A 		vstr.32	s15, [r3, #56]
 1640              		.loc 3 145 0
 1641 0576 7047     		bx	lr
 1642              	.L59:
 1643              		.loc 3 149 0
 1644 0578 F3EE0E7A 		vmov.f32	s15, #3.0e+1
 1645 057c 27EE277A 		vmul.f32	s14, s14, s15
 1646              	.LVL163:
 1647 0580 DFED087A 		vldr.32	s15, .L96+20
 1648 0584 054B     		ldr	r3, .L96+12
 1649 0586 27EE277A 		vmul.f32	s14, s14, s15
 1650 058a 83ED057A 		vstr.32	s14, [r3, #20]
 1651              	.L49:
 1652 058e 7047     		bx	lr
 1653              	.L97:
ARM GAS  C:\msys64\tmp\ccCWv11D.s 			page 30


 1654              		.align	2
 1655              	.L96:
 1656 0590 0820803A 		.word	981475336
 1657 0594 0AD7233C 		.word	1008981770
 1658 0598 00000000 		.word	0
 1659 059c 00000000 		.word	.LANCHOR0
 1660 05a0 0000C842 		.word	1120403456
 1661 05a4 3EC3AE37 		.word	934200126
 1662              		.cfi_endproc
 1663              	.LFE299:
 1664              		.size	_hook_param, .-_hook_param
 1665              		.section	.text.startup,"ax",%progbits
 1666              		.align	1
 1667              		.thumb
 1668              		.thumb_func
 1669              		.type	_GLOBAL__sub_I__hook_init, %function
 1670              	_GLOBAL__sub_I__hook_init:
 1671              	.LFB301:
 1672              		.loc 3 154 0
 1673              		.cfi_startproc
 1674              		@ args = 0, pretend = 0, frame = 0
 1675              		@ frame_needed = 0, uses_anonymous_args = 0
 1676              	.LVL164:
 1677 0000 08B5     		push	{r3, lr}
 1678              		.cfi_def_cfa_offset 8
 1679              		.cfi_offset 3, -8
 1680              		.cfi_offset 14, -4
 1681              	.LBB666:
 1682              	.LBB667:
 1683              		.loc 3 12 0
 1684 0002 0248     		ldr	r0, .L99
 1685 0004 FFF7FEFF 		bl	_ZN6MVPS2DC1Ev
 1686              	.LVL165:
 1687 0008 08BD     		pop	{r3, pc}
 1688              	.L100:
 1689 000a 00BF     		.align	2
 1690              	.L99:
 1691 000c 00000000 		.word	.LANCHOR0
 1692              	.LBE667:
 1693              	.LBE666:
 1694              		.cfi_endproc
 1695              	.LFE301:
 1696              		.size	_GLOBAL__sub_I__hook_init, .-_GLOBAL__sub_I__hook_init
 1697              		.section	.init_array,"aw",%init_array
 1698              		.align	2
 1699 0000 00000000 		.word	_GLOBAL__sub_I__hook_init(target1)
 1700              		.bss
 1701              		.align	2
 1702              		.set	.LANCHOR0,. + 0
 1703              		.type	_ZL6mvps2D, %object
 1704              		.size	_ZL6mvps2D, 116
 1705              	_ZL6mvps2D:
 1706 0000 00000000 		.space	116
 1706      00000000 
 1706      00000000 
 1706      00000000 
 1706      00000000 
ARM GAS  C:\msys64\tmp\ccCWv11D.s 			page 31


 1707              		.text
 1708              	.Letext0:
 1709              		.file 6 "c:\\msys64\\home\\logue-sdk\\tools\\gcc\\gcc-arm-none-eabi-5_4-2016q3\\arm-none-eabi\\inc
 1710              		.file 7 "c:\\msys64\\home\\logue-sdk\\tools\\gcc\\gcc-arm-none-eabi-5_4-2016q3\\arm-none-eabi\\inc
 1711              		.file 8 "c:\\msys64\\home\\logue-sdk\\platform\\ext\\cmsis\\cmsis\\include\\arm_math.h"
 1712              		.file 9 "C:/msys64/home/logue-sdk/platform/nutekt-digital/inc/userosc.h"
 1713              		.file 10 "C:/msys64/home/logue-sdk/platform/nutekt-digital/inc/userprg.h"
 1714              		.file 11 "C:/msys64/home/logue-sdk/platform/nutekt-digital/inc/utils/int_math.h"