ARM GAS  C:\msys64\tmp\ccHb7GrS.s 			page 1


   1              		.syntax unified
   2              		.cpu cortex-m4
   3              		.eabi_attribute 27, 1
   4              		.eabi_attribute 28, 1
   5              		.fpu fpv4-sp-d16
   6              		.eabi_attribute 20, 1
   7              		.eabi_attribute 21, 1
   8              		.eabi_attribute 23, 3
   9              		.eabi_attribute 24, 1
  10              		.eabi_attribute 25, 1
  11              		.eabi_attribute 26, 1
  12              		.eabi_attribute 30, 4
  13              		.eabi_attribute 34, 1
  14              		.eabi_attribute 18, 4
  15              		.thumb
  16              		.syntax unified
  17              		.file	"pd.cpp"
  18              		.text
  19              	.Ltext0:
  20              		.cfi_sections	.debug_frame
  21              		.align	1
  22              		.global	_hook_init
  23              		.thumb
  24              		.thumb_func
  25              		.type	_hook_init, %function
  26              	_hook_init:
  27              	.LFB250:
  28              		.file 1 "pd.cpp"
  29              		.loc 1 15 0
  30              		.cfi_startproc
  31              		@ args = 0, pretend = 0, frame = 0
  32              		@ frame_needed = 0, uses_anonymous_args = 0
  33              		@ link register save eliminated.
  34              	.LVL0:
  35 0000 7047     		bx	lr
  36              		.cfi_endproc
  37              	.LFE250:
  38              		.size	_hook_init, .-_hook_init
  39              		.align	1
  40              		.global	_hook_cycle
  41              		.thumb
  42              		.thumb_func
  43              		.type	_hook_cycle, %function
  44              	_hook_cycle:
  45              	.LFB251:
  46              		.loc 1 20 0
  47              		.cfi_startproc
  48              		@ args = 0, pretend = 0, frame = 0
  49              		@ frame_needed = 0, uses_anonymous_args = 0
  50              	.LVL1:
  51              		.loc 1 20 0
  52 0002 70B5     		push	{r4, r5, r6, lr}
  53              		.cfi_def_cfa_offset 16
  54              		.cfi_offset 4, -16
  55              		.cfi_offset 5, -12
  56              		.cfi_offset 6, -8
  57              		.cfi_offset 14, -4
ARM GAS  C:\msys64\tmp\ccHb7GrS.s 			page 2


  58              		.loc 1 27 0
  59 0004 5B4C     		ldr	r4, .L29
  60              		.loc 1 37 0
  61 0006 8088     		ldrh	r0, [r0, #4]
  62              	.LVL2:
  63              		.loc 1 27 0
  64 0008 237A     		ldrb	r3, [r4, #8]	@ zero_extendqisi2
  65              	.LVL3:
  66              	.LBB192:
  67              	.LBB193:
  68              	.LBB194:
  69              	.LBB195:
  70              		.file 2 "C:/msys64/home/logue-sdk/platform/nutekt-digital/inc/utils/float_math.h"
  71              		.loc 2 826 0
  72 000a 9FED5B7A 		vldr.32	s14, .L29+4
  73 000e D4ED035A 		vldr.32	s11, [r4, #12]
  74              	.LBE195:
  75              	.LBE194:
  76              	.LBE193:
  77              	.LBE192:
  78              	.LBB226:
  79              	.LBB227:
  80              	.LBB228:
  81              	.LBB229:
  82              	.LBB230:
  83              	.LBB231:
  84              	.LBB232:
  85              	.LBB233:
  86              		.file 3 "C:/msys64/home/logue-sdk/platform/nutekt-digital/inc/osc_api.h"
  87              		.loc 3 154 0
  88 0012 9FED5A2A 		vldr.32	s4, .L29+8
  89              	.LBE233:
  90              	.LBE232:
  91              	.LBE231:
  92              	.LBE230:
  93              	.LBE229:
  94              	.LBE228:
  95              		.loc 1 58 0
  96 0016 9FED5A3A 		vldr.32	s6, .L29+12
  97 001a DFED5A3A 		vldr.32	s7, .L29+16
  98              	.LBE227:
  99              	.LBE226:
 100              		.loc 1 29 0
 101 001e 1D46     		mov	r5, r3
 102              		.loc 1 32 0
 103 0020 DB07     		lsls	r3, r3, #31
 104              	.LVL4:
 105              	.LBB279:
 106              	.LBB280:
 107              		.file 4 "pd.hpp"
 108              		.loc 4 43 0
 109 0022 44BF     		itt	mi
 110 0024 0023     		movmi	r3, #0
 111 0026 2360     		strmi	r3, [r4]	@ float
 112              	.LBE280:
 113              	.LBE279:
 114              		.loc 1 37 0
ARM GAS  C:\msys64\tmp\ccHb7GrS.s 			page 3


 115 0028 0312     		asrs	r3, r0, #8
 116              	.LVL5:
 117              		.loc 1 29 0
 118 002a 6FF30005 		bfc	r5, #0, #1
 119              	.LBB281:
 120              	.LBB220:
 121              	.LBB199:
 122              	.LBB200:
 123              		.loc 3 109 0
 124 002e 962B     		cmp	r3, #150
 125              	.LBE200:
 126              	.LBE199:
 127              	.LBE220:
 128              	.LBE281:
 129              		.loc 1 29 0
 130 0030 2572     		strb	r5, [r4, #8]
 131              		.loc 1 40 0
 132 0032 C0B2     		uxtb	r0, r0
 133              	.LBB282:
 134              	.LBB221:
 135              	.LBB205:
 136              	.LBB201:
 137              		.loc 3 109 0
 138 0034 D8BF     		it	le
 139 0036 1D46     		movle	r5, r3
 140              	.LBE201:
 141              	.LBE205:
 142              		.loc 3 120 0
 143 0038 03F10103 		add	r3, r3, #1
 144              	.LVL6:
 145 003c DBB2     		uxtb	r3, r3
 146              	.LVL7:
 147              	.LBE221:
 148              	.LBE282:
 149              		.loc 1 40 0
 150 003e 07EE900A 		vmov	s15, r0	@ int
 151              	.LVL8:
 152              	.LBB283:
 153              	.LBB222:
 154              	.LBB206:
 155              	.LBB202:
 156              		.loc 3 109 0
 157 0042 C8BF     		it	gt
 158 0044 9725     		movgt	r5, #151
 159              	.LVL9:
 160 0046 5048     		ldr	r0, .L29+20
 161              	.LVL10:
 162              	.LBE202:
 163              	.LBE206:
 164              	.LBE222:
 165              	.LBE283:
 166              		.loc 1 43 0
 167 0048 D4ED006A 		vldr.32	s13, [r4]
 168              	.LBB284:
 169              	.LBB223:
 170              	.LBB207:
 171              	.LBB208:
ARM GAS  C:\msys64\tmp\ccHb7GrS.s 			page 4


 172              		.loc 3 109 0
 173 004c 962B     		cmp	r3, #150
 174 004e 88BF     		it	hi
 175 0050 9723     		movhi	r3, #151
 176              	.LBE208:
 177              	.LBE207:
 178              	.LBB210:
 179              	.LBB196:
 180              		.loc 2 826 0
 181 0052 F8EEE77A 		vcvt.f32.s32	s15, s15
 182              	.LVL11:
 183              	.LBE196:
 184              	.LBE210:
 185              	.LBB211:
 186              	.LBB203:
 187              		.loc 3 109 0
 188 0056 00EB8505 		add	r5, r0, r5, lsl #2
 189              	.LBE203:
 190              	.LBE211:
 191              	.LBB212:
 192              	.LBB209:
 193 005a 00EB8303 		add	r3, r0, r3, lsl #2
 194              	.LBE209:
 195              	.LBE212:
 196              	.LBB213:
 197              	.LBB204:
 198 005e 95ED006A 		vldr.32	s12, [r5]
 199              	.LVL12:
 200              	.LBE204:
 201              	.LBE213:
 202              	.LBE223:
 203              	.LBE284:
 204              	.LBB285:
 205              	.LBB276:
 206              	.LBB261:
 207              	.LBB258:
 208              	.LBB249:
 209              	.LBB246:
 210              	.LBB244:
 211              	.LBB242:
 212              		.loc 3 160 0
 213 0062 4A4D     		ldr	r5, .L29+24
 214              	.LBE242:
 215              	.LBE244:
 216              	.LBE246:
 217              	.LBE249:
 218              	.LBE258:
 219              	.LBE261:
 220              	.LBE276:
 221              	.LBE285:
 222              	.LBB286:
 223              	.LBB224:
 224              	.LBB214:
 225              	.LBB197:
 226              		.loc 2 826 0
 227 0064 67EE877A 		vmul.f32	s15, s15, s14
 228 0068 93ED007A 		vldr.32	s14, [r3]
ARM GAS  C:\msys64\tmp\ccHb7GrS.s 			page 5


 229 006c 37EE467A 		vsub.f32	s14, s14, s12
 230              	.LBE197:
 231              	.LBE214:
 232              	.LBE224:
 233              	.LBE286:
 234              		.loc 1 47 0
 235 0070 01EB8202 		add	r2, r1, r2, lsl #2
 236              	.LVL13:
 237              	.LBB287:
 238              	.LBB225:
 239              	.LBB215:
 240              	.LBB198:
 241              		.loc 2 826 0
 242 0074 A7EE876A 		vfma.f32	s12, s15, s14
 243              	.LVL14:
 244              	.LBE198:
 245              	.LBE215:
 246              	.LBB216:
 247              	.LBB217:
 248              	.LBB218:
 249              	.LBB219:
 250              		.loc 2 193 0
 251 0078 DFED457A 		vldr.32	s15, .L29+28
 252 007c B4EEE76A 		vcmpe.f32	s12, s15
 253 0080 F1EE10FA 		vmrs	APSR_nzcv, FPSCR
 254 0084 A8BF     		it	ge
 255 0086 B0EE676A 		vmovge.f32	s12, s15
 256              	.LVL15:
 257              	.LBE219:
 258              	.LBE218:
 259              	.LBE217:
 260              	.LBE216:
 261              		.loc 3 124 0
 262 008a DFED427A 		vldr.32	s15, .L29+32
 263 008e 26EE276A 		vmul.f32	s12, s12, s15
 264              	.LVL16:
 265 0092 B6EE004A 		vmov.f32	s8, #5.0e-1
 266              	.LBE225:
 267              	.LBE287:
 268              		.loc 1 40 0
 269 0096 84ED016A 		vstr.32	s12, [r4, #4]
 270              	.LVL17:
 271              	.LBB288:
 272              	.LBB277:
 273              	.LBB262:
 274              	.LBB259:
 275              	.LBB250:
 276              	.LBB251:
 277              		.loc 4 63 0
 278 009a B7EE005A 		vmov.f32	s10, #1.0e+0
 279              	.LBE251:
 280              	.LBE250:
 281              	.LBB255:
 282              	.LBB247:
 283              		.loc 3 171 0
 284 009e F5EE002A 		vmov.f32	s5, #2.5e-1
 285              	.LBE247:
ARM GAS  C:\msys64\tmp\ccHb7GrS.s 			page 6


 286              	.LBE255:
 287              	.LBE259:
 288              	.LBE262:
 289              	.LBB263:
 290              	.LBB264:
 291              	.LBB265:
 292              	.LBB266:
 293              	.LBB267:
 294              	.LBB268:
 295              		.loc 2 193 0
 296 00a2 FFEE001A 		vmov.f32	s3, #-1.0e+0
 297              	.LVL18:
 298              	.L14:
 299              	.LBE268:
 300              	.LBE267:
 301              	.LBE266:
 302              	.LBE265:
 303              	.LBE264:
 304              	.LBE263:
 305              	.LBE277:
 306              		.loc 1 50 0
 307 00a6 9142     		cmp	r1, r2
 308 00a8 60D0     		beq	.L7
 309              	.LVL19:
 310              	.LBB278:
 311              	.LBB274:
 312              	.LBB260:
 313              	.LBB256:
 314              		.loc 4 56 0
 315 00aa F4EEE56A 		vcmpe.f32	s13, s11
 316 00ae F1EE10FA 		vmrs	APSR_nzcv, FPSCR
 317              	.LVL20:
 318              	.LBB252:
 319              		.loc 4 63 0
 320 00b2 5BBF     		ittet	pl
 321 00b4 36EEE57A 		vsubpl.f32	s14, s13, s11
 322 00b8 75EE654A 		vsubpl.f32	s9, s10, s11
 323              	.LBE252:
 324              	.LBB253:
 325              		.loc 4 58 0
 326 00bc C6EEA57A 		vdivmi.f32	s15, s13, s11
 327              	.LVL21:
 328              	.LBE253:
 329              	.LBB254:
 330              		.loc 4 63 0
 331 00c0 C7EE247A 		vdivpl.f32	s15, s14, s9
 332 00c4 58BF     		it	pl
 333 00c6 77EE857A 		vaddpl.f32	s15, s15, s10
 334 00ca 67EE847A 		vmul.f32	s15, s15, s8
 335              	.LVL22:
 336              	.LBE254:
 337              	.LBE256:
 338              	.LBB257:
 339              	.LBB248:
 340              		.loc 3 171 0
 341 00ce 77EEA27A 		vadd.f32	s15, s15, s5
 342              	.LVL23:
ARM GAS  C:\msys64\tmp\ccHb7GrS.s 			page 7


 343              	.LBB245:
 344              	.LBB243:
 345              		.loc 3 154 0
 346 00d2 BCEEE77A 		vcvt.u32.f32	s14, s15
 347 00d6 B8EE477A 		vcvt.f32.u32	s14, s14
 348 00da 37EEC77A 		vsub.f32	s14, s15, s14
 349 00de 27EE027A 		vmul.f32	s14, s14, s4
 350              	.LVL24:
 351              		.loc 3 155 0
 352 00e2 FCEEC77A 		vcvt.u32.f32	s15, s14
 353              	.LVL25:
 354 00e6 17EE900A 		vmov	r0, s15	@ int
 355              	.LVL26:
 356              		.loc 3 157 0
 357 00ea 00F07F03 		and	r3, r0, #127
 358              	.LVL27:
 359              	.LBB234:
 360              	.LBB235:
 361              		.loc 2 826 0
 362 00ee 04EE900A 		vmov	s9, r0	@ int
 363              	.LBE235:
 364              	.LBE234:
 365              		.loc 3 160 0
 366 00f2 05EB8306 		add	r6, r5, r3, lsl #2
 367 00f6 0133     		adds	r3, r3, #1
 368              	.LVL28:
 369              	.LBB239:
 370              	.LBB236:
 371              		.loc 2 826 0
 372 00f8 F8EE644A 		vcvt.f32.u32	s9, s9
 373              	.LBE236:
 374              	.LBE239:
 375              		.loc 3 160 0
 376 00fc 03F07F03 		and	r3, r3, #127
 377              	.LVL29:
 378 0100 05EB8303 		add	r3, r5, r3, lsl #2
 379              	.LVL30:
 380 0104 D6ED007A 		vldr.32	s15, [r6]
 381              	.LVL31:
 382              	.LBB240:
 383              	.LBB237:
 384              		.loc 2 826 0
 385 0108 37EE647A 		vsub.f32	s14, s14, s9
 386              	.LVL32:
 387 010c D3ED004A 		vldr.32	s9, [r3]
 388 0110 74EEE74A 		vsub.f32	s9, s9, s15
 389              	.LBE237:
 390              	.LBE240:
 391              		.loc 3 161 0
 392 0114 7F28     		cmp	r0, #127
 393              	.LBB241:
 394              	.LBB238:
 395              		.loc 2 826 0
 396 0116 E7EE247A 		vfma.f32	s15, s14, s9
 397              	.LVL33:
 398              	.LBE238:
 399              	.LBE241:
ARM GAS  C:\msys64\tmp\ccHb7GrS.s 			page 8


 400              		.loc 3 161 0
 401 011a 88BF     		it	hi
 402 011c F1EE677A 		vneghi.f32	s15, s15
 403              	.LVL34:
 404              	.LBE243:
 405              	.LBE245:
 406              	.LBE248:
 407              	.LBE257:
 408              		.loc 4 66 0
 409 0120 F1EE677A 		vneg.f32	s15, s15
 410              	.LVL35:
 411              	.LBE260:
 412              	.LBE274:
 413              	.LBB275:
 414              	.LBB273:
 415              	.LBB272:
 416              	.LBB271:
 417              	.LBB270:
 418              	.LBB269:
 419              		.loc 2 193 0
 420 0124 F4EEE17A 		vcmpe.f32	s15, s3
 421 0128 F1EE10FA 		vmrs	APSR_nzcv, FPSCR
 422 012c 07DB     		blt	.L27
 423              	.LVL36:
 424 012e F4EEC57A 		vcmpe.f32	s15, s10
 425 0132 F1EE10FA 		vmrs	APSR_nzcv, FPSCR
 426 0136 A8BF     		it	ge
 427 0138 F0EE457A 		vmovge.f32	s15, s10
 428              	.LVL37:
 429 013c 01E0     		b	.L12
 430              	.LVL38:
 431              	.L27:
 432 013e FFEE007A 		vmov.f32	s15, #-1.0e+0
 433              	.LVL39:
 434              	.L12:
 435              	.LBE269:
 436              	.LBE270:
 437              	.LBE271:
 438              	.LBE272:
 439              	.LBE273:
 440              	.LBE275:
 441              		.loc 1 58 0
 442 0142 27EEA77A 		vmul.f32	s14, s15, s15
 443              		.loc 1 61 0
 444 0146 76EE866A 		vadd.f32	s13, s13, s12
 445              	.LVL40:
 446              		.loc 1 58 0
 447 014a 27EEC77A 		vnmul.f32	s14, s15, s14
 448 014e E7EE037A 		vfma.f32	s15, s14, s6
 449 0152 67EEA37A 		vmul.f32	s15, s15, s7
 450 0156 FDEEE77A 		vcvt.s32.f32	s15, s15
 451 015a E1EC017A 		vstmia.32	r1!, {s15}	@ int
 452              	.LVL41:
 453              		.loc 1 62 0
 454 015e FCEEE67A 		vcvt.u32.f32	s15, s13
 455 0162 F8EE677A 		vcvt.f32.u32	s15, s15
 456 0166 76EEE76A 		vsub.f32	s13, s13, s15
ARM GAS  C:\msys64\tmp\ccHb7GrS.s 			page 9


 457              	.LVL42:
 458              	.LBE278:
 459              		.loc 1 50 0
 460 016a 9CE7     		b	.L14
 461              	.LVL43:
 462              	.L7:
 463              	.LBE288:
 464              		.loc 1 66 0
 465 016c C4ED006A 		vstr.32	s13, [r4]
 466 0170 70BD     		pop	{r4, r5, r6, pc}
 467              	.L30:
 468 0172 00BF     		.align	2
 469              	.L29:
 470 0174 00000000 		.word	.LANCHOR0
 471 0178 8180803B 		.word	998277249
 472 017c 00008043 		.word	1132462080
 473 0180 CDCC4C3D 		.word	1028443341
 474 0184 0000004F 		.word	1325400064
 475 0188 00000000 		.word	midi_to_hz_lut_f
 476 018c 00000000 		.word	wt_sine_lut_f
 477 0190 49FFB846 		.word	1186529097
 478 0194 3EC3AE37 		.word	934200126
 479              		.cfi_endproc
 480              	.LFE251:
 481              		.size	_hook_cycle, .-_hook_cycle
 482              		.align	1
 483              		.global	_hook_on
 484              		.thumb
 485              		.thumb_func
 486              		.type	_hook_on, %function
 487              	_hook_on:
 488              	.LFB252:
 489              		.loc 1 69 0
 490              		.cfi_startproc
 491              		@ args = 0, pretend = 0, frame = 0
 492              		@ frame_needed = 0, uses_anonymous_args = 0
 493              		@ link register save eliminated.
 494              	.LVL44:
 495              		.loc 1 71 0
 496 0198 024A     		ldr	r2, .L32
 497 019a 137A     		ldrb	r3, [r2, #8]	@ zero_extendqisi2
 498 019c 43F00103 		orr	r3, r3, #1
 499 01a0 1372     		strb	r3, [r2, #8]
 500 01a2 7047     		bx	lr
 501              	.L33:
 502              		.align	2
 503              	.L32:
 504 01a4 00000000 		.word	.LANCHOR0
 505              		.cfi_endproc
 506              	.LFE252:
 507              		.size	_hook_on, .-_hook_on
 508              		.align	1
 509              		.global	_hook_off
 510              		.thumb
 511              		.thumb_func
 512              		.type	_hook_off, %function
 513              	_hook_off:
ARM GAS  C:\msys64\tmp\ccHb7GrS.s 			page 10


 514              	.LFB253:
 515              		.loc 1 74 0
 516              		.cfi_startproc
 517              		@ args = 0, pretend = 0, frame = 0
 518              		@ frame_needed = 0, uses_anonymous_args = 0
 519              		@ link register save eliminated.
 520              	.LVL45:
 521 01a8 7047     		bx	lr
 522              		.cfi_endproc
 523              	.LFE253:
 524              		.size	_hook_off, .-_hook_off
 525              		.align	1
 526              		.global	_hook_param
 527              		.thumb
 528              		.thumb_func
 529              		.type	_hook_param, %function
 530              	_hook_param:
 531              	.LFB254:
 532              		.loc 1 79 0
 533              		.cfi_startproc
 534              		@ args = 0, pretend = 0, frame = 0
 535              		@ frame_needed = 0, uses_anonymous_args = 0
 536              		@ link register save eliminated.
 537              	.LVL46:
 538              		.loc 1 83 0
 539 01aa 0628     		cmp	r0, #6
 540              		.loc 1 79 0
 541 01ac 07EE901A 		vmov	s15, r1	@ int
 542              		.loc 1 83 0
 543 01b0 08D1     		bne	.L35
 544              		.loc 1 98 0
 545 01b2 F8EEE77A 		vcvt.f32.s32	s15, s15
 546 01b6 9FED047A 		vldr.32	s14, .L38
 547 01ba 044B     		ldr	r3, .L38+4
 548 01bc 67EE877A 		vmul.f32	s15, s15, s14
 549 01c0 C3ED037A 		vstr.32	s15, [r3, #12]
 550              	.L35:
 551 01c4 7047     		bx	lr
 552              	.L39:
 553 01c6 00BF     		.align	2
 554              	.L38:
 555 01c8 0820803A 		.word	981475336
 556 01cc 00000000 		.word	.LANCHOR0
 557              		.cfi_endproc
 558              	.LFE254:
 559              		.size	_hook_param, .-_hook_param
 560              		.section	.text.startup,"ax",%progbits
 561              		.align	1
 562              		.thumb
 563              		.thumb_func
 564              		.type	_GLOBAL__sub_I__hook_init, %function
 565              	_GLOBAL__sub_I__hook_init:
 566              	.LFB256:
 567              		.loc 1 105 0
 568              		.cfi_startproc
 569              		@ args = 0, pretend = 0, frame = 0
 570              		@ frame_needed = 0, uses_anonymous_args = 0
ARM GAS  C:\msys64\tmp\ccHb7GrS.s 			page 11


 571              		@ link register save eliminated.
 572              	.LVL47:
 573              	.LBB298:
 574              	.LBB299:
 575              	.LBB300:
 576              	.LBB301:
 577              	.LBB302:
 578              		.loc 4 37 0
 579 0000 044B     		ldr	r3, .L41
 580 0002 197A     		ldrb	r1, [r3, #8]	@ zero_extendqisi2
 581 0004 0022     		movs	r2, #0
 582 0006 6FF30001 		bfc	r1, #0, #1
 583 000a 1A60     		str	r2, [r3]	@ float
 584 000c 5A60     		str	r2, [r3, #4]	@ float
 585 000e 1972     		strb	r1, [r3, #8]
 586              	.LVL48:
 587              	.LBE302:
 588              	.LBE301:
 589              	.LBB303:
 590              	.LBB304:
 591              		.loc 4 26 0
 592 0010 DA60     		str	r2, [r3, #12]	@ float
 593              	.LVL49:
 594 0012 7047     		bx	lr
 595              	.L42:
 596              		.align	2
 597              	.L41:
 598 0014 00000000 		.word	.LANCHOR0
 599              	.LBE304:
 600              	.LBE303:
 601              	.LBE300:
 602              	.LBE299:
 603              	.LBE298:
 604              		.cfi_endproc
 605              	.LFE256:
 606              		.size	_GLOBAL__sub_I__hook_init, .-_GLOBAL__sub_I__hook_init
 607              		.section	.init_array,"aw",%init_array
 608              		.align	2
 609 0000 00000000 		.word	_GLOBAL__sub_I__hook_init(target1)
 610              		.bss
 611              		.align	2
 612              		.set	.LANCHOR0,. + 0
 613              		.type	_ZL2pd, %object
 614              		.size	_ZL2pd, 16
 615              	_ZL2pd:
 616 0000 00000000 		.space	16
 616      00000000 
 616      00000000 
 616      00000000 
 617              		.text
 618              	.Letext0:
 619              		.file 5 "c:\\msys64\\home\\logue-sdk\\tools\\gcc\\gcc-arm-none-eabi-5_4-2016q3\\arm-none-eabi\\inc
 620              		.file 6 "c:\\msys64\\home\\logue-sdk\\tools\\gcc\\gcc-arm-none-eabi-5_4-2016q3\\arm-none-eabi\\inc
 621              		.file 7 "c:\\msys64\\home\\logue-sdk\\platform\\ext\\cmsis\\cmsis\\include\\arm_math.h"
 622              		.file 8 "C:/msys64/home/logue-sdk/platform/nutekt-digital/inc/userosc.h"
 623              		.file 9 "C:/msys64/home/logue-sdk/platform/nutekt-digital/inc/userprg.h"
 624              		.file 10 "C:/msys64/home/logue-sdk/platform/nutekt-digital/inc/utils/int_math.h"
ARM GAS  C:\msys64\tmp\ccHb7GrS.s 			page 12


 625              		.section	.debug_info,"",%progbits
 626              	.Ldebug_info0:
 627 0000 3C0C0000 		.4byte	0xc3c
 628 0004 0400     		.2byte	0x4
 629 0006 00000000 		.4byte	.Ldebug_abbrev0
 630 000a 04       		.byte	0x4
 631 000b 01       		.uleb128 0x1
 632 000c 26000000 		.4byte	.LASF98
 633 0010 04       		.byte	0x4
 634 0011 9A050000 		.4byte	.LASF99
 635 0015 4B020000 		.4byte	.LASF100
 636 0019 F0010000 		.4byte	.Ldebug_ranges0+0x1f0
 637 001d 00000000 		.4byte	0
 638 0021 00000000 		.4byte	.Ldebug_line0
 639 0025 02       		.uleb128 0x2
 640 0026 04       		.byte	0x4
 641 0027 04       		.byte	0x4
 642 0028 EB020000 		.4byte	.LASF0
 643 002c 02       		.uleb128 0x2
 644 002d 04       		.byte	0x4
 645 002e 07       		.byte	0x7
 646 002f 3E010000 		.4byte	.LASF1
 647 0033 02       		.uleb128 0x2
 648 0034 01       		.byte	0x1
 649 0035 06       		.byte	0x6
 650 0036 8B060000 		.4byte	.LASF2
 651 003a 03       		.uleb128 0x3
 652 003b BD050000 		.4byte	.LASF5
 653 003f 05       		.byte	0x5
 654 0040 1D       		.byte	0x1d
 655 0041 45000000 		.4byte	0x45
 656 0045 02       		.uleb128 0x2
 657 0046 01       		.byte	0x1
 658 0047 08       		.byte	0x8
 659 0048 3C060000 		.4byte	.LASF3
 660 004c 02       		.uleb128 0x2
 661 004d 02       		.byte	0x2
 662 004e 05       		.byte	0x5
 663 004f 14050000 		.4byte	.LASF4
 664 0053 03       		.uleb128 0x3
 665 0054 3B030000 		.4byte	.LASF6
 666 0058 05       		.byte	0x5
 667 0059 2B       		.byte	0x2b
 668 005a 5E000000 		.4byte	0x5e
 669 005e 02       		.uleb128 0x2
 670 005f 02       		.byte	0x2
 671 0060 07       		.byte	0x7
 672 0061 97060000 		.4byte	.LASF7
 673 0065 03       		.uleb128 0x3
 674 0066 61010000 		.4byte	.LASF8
 675 006a 05       		.byte	0x5
 676 006b 3F       		.byte	0x3f
 677 006c 70000000 		.4byte	0x70
 678 0070 02       		.uleb128 0x2
 679 0071 04       		.byte	0x4
 680 0072 05       		.byte	0x5
 681 0073 4A050000 		.4byte	.LASF9
ARM GAS  C:\msys64\tmp\ccHb7GrS.s 			page 13


 682 0077 03       		.uleb128 0x3
 683 0078 4A060000 		.4byte	.LASF10
 684 007c 05       		.byte	0x5
 685 007d 41       		.byte	0x41
 686 007e 82000000 		.4byte	0x82
 687 0082 02       		.uleb128 0x2
 688 0083 04       		.byte	0x4
 689 0084 07       		.byte	0x7
 690 0085 0C060000 		.4byte	.LASF11
 691 0089 02       		.uleb128 0x2
 692 008a 08       		.byte	0x8
 693 008b 05       		.byte	0x5
 694 008c 0D040000 		.4byte	.LASF12
 695 0090 02       		.uleb128 0x2
 696 0091 08       		.byte	0x8
 697 0092 07       		.byte	0x7
 698 0093 0B030000 		.4byte	.LASF13
 699 0097 04       		.uleb128 0x4
 700 0098 04       		.byte	0x4
 701 0099 05       		.byte	0x5
 702 009a 696E7400 		.ascii	"int\000"
 703 009e 03       		.uleb128 0x3
 704 009f BE030000 		.4byte	.LASF14
 705 00a3 06       		.byte	0x6
 706 00a4 18       		.byte	0x18
 707 00a5 3A000000 		.4byte	0x3a
 708 00a9 03       		.uleb128 0x3
 709 00aa AE040000 		.4byte	.LASF15
 710 00ae 06       		.byte	0x6
 711 00af 24       		.byte	0x24
 712 00b0 53000000 		.4byte	0x53
 713 00b4 03       		.uleb128 0x3
 714 00b5 2C060000 		.4byte	.LASF16
 715 00b9 06       		.byte	0x6
 716 00ba 2C       		.byte	0x2c
 717 00bb 65000000 		.4byte	0x65
 718 00bf 03       		.uleb128 0x3
 719 00c0 D1020000 		.4byte	.LASF17
 720 00c4 06       		.byte	0x6
 721 00c5 30       		.byte	0x30
 722 00c6 77000000 		.4byte	0x77
 723 00ca 02       		.uleb128 0x2
 724 00cb 08       		.byte	0x8
 725 00cc 04       		.byte	0x4
 726 00cd A2040000 		.4byte	.LASF18
 727 00d1 05       		.uleb128 0x5
 728 00d2 73060000 		.4byte	.LASF101
 729 00d6 02       		.uleb128 0x2
 730 00d7 04       		.byte	0x4
 731 00d8 07       		.byte	0x7
 732 00d9 03060000 		.4byte	.LASF19
 733 00dd 02       		.uleb128 0x2
 734 00de 01       		.byte	0x1
 735 00df 08       		.byte	0x8
 736 00e0 99030000 		.4byte	.LASF20
 737 00e4 02       		.uleb128 0x2
 738 00e5 08       		.byte	0x8
ARM GAS  C:\msys64\tmp\ccHb7GrS.s 			page 14


 739 00e6 04       		.byte	0x4
 740 00e7 CC060000 		.4byte	.LASF21
 741 00eb 06       		.uleb128 0x6
 742 00ec E3050000 		.4byte	.LASF22
 743 00f0 07       		.byte	0x7
 744 00f1 8D01     		.2byte	0x18d
 745 00f3 B4000000 		.4byte	0xb4
 746 00f7 07       		.uleb128 0x7
 747 00f8 04       		.byte	0x4
 748 00f9 EB000000 		.4byte	0xeb
 749 00fd 07       		.uleb128 0x7
 750 00fe 04       		.byte	0x4
 751 00ff 03010000 		.4byte	0x103
 752 0103 08       		.uleb128 0x8
 753 0104 EB000000 		.4byte	0xeb
 754 0108 07       		.uleb128 0x7
 755 0109 04       		.byte	0x4
 756 010a B4000000 		.4byte	0xb4
 757 010e 09       		.uleb128 0x9
 758 010f 01       		.byte	0x1
 759 0110 45000000 		.4byte	0x45
 760 0114 09       		.byte	0x9
 761 0115 35       		.byte	0x35
 762 0116 3F010000 		.4byte	0x13f
 763 011a 0A       		.uleb128 0xa
 764 011b 5E060000 		.4byte	.LASF23
 765 011f 00       		.byte	0
 766 0120 0A       		.uleb128 0xa
 767 0121 59050000 		.4byte	.LASF24
 768 0125 01       		.byte	0x1
 769 0126 0A       		.uleb128 0xa
 770 0127 F7020000 		.4byte	.LASF25
 771 012b 02       		.byte	0x2
 772 012c 0A       		.uleb128 0xa
 773 012d 73030000 		.4byte	.LASF26
 774 0131 03       		.byte	0x3
 775 0132 0A       		.uleb128 0xa
 776 0133 86040000 		.4byte	.LASF27
 777 0137 04       		.byte	0x4
 778 0138 0A       		.uleb128 0xa
 779 0139 41040000 		.4byte	.LASF28
 780 013d 05       		.byte	0x5
 781 013e 00       		.byte	0
 782 013f 0B       		.uleb128 0xb
 783 0140 4F030000 		.4byte	.LASF45
 784 0144 10       		.byte	0x10
 785 0145 08       		.byte	0x8
 786 0146 3C       		.byte	0x3c
 787 0147 88010000 		.4byte	0x188
 788 014b 0C       		.uleb128 0xc
 789 014c D3060000 		.4byte	.LASF29
 790 0150 08       		.byte	0x8
 791 0151 3E       		.byte	0x3e
 792 0152 B4000000 		.4byte	0xb4
 793 0156 00       		.byte	0
 794 0157 0C       		.uleb128 0xc
 795 0158 74010000 		.4byte	.LASF30
ARM GAS  C:\msys64\tmp\ccHb7GrS.s 			page 15


 796 015c 08       		.byte	0x8
 797 015d 40       		.byte	0x40
 798 015e A9000000 		.4byte	0xa9
 799 0162 04       		.byte	0x4
 800 0163 0C       		.uleb128 0xc
 801 0164 92030000 		.4byte	.LASF31
 802 0168 08       		.byte	0x8
 803 0169 42       		.byte	0x42
 804 016a A9000000 		.4byte	0xa9
 805 016e 06       		.byte	0x6
 806 016f 0C       		.uleb128 0xc
 807 0170 37040000 		.4byte	.LASF32
 808 0174 08       		.byte	0x8
 809 0175 44       		.byte	0x44
 810 0176 A9000000 		.4byte	0xa9
 811 017a 08       		.byte	0x8
 812 017b 0C       		.uleb128 0xc
 813 017c A7050000 		.4byte	.LASF33
 814 0180 08       		.byte	0x8
 815 0181 45       		.byte	0x45
 816 0182 88010000 		.4byte	0x188
 817 0186 0A       		.byte	0xa
 818 0187 00       		.byte	0
 819 0188 0D       		.uleb128 0xd
 820 0189 A9000000 		.4byte	0xa9
 821 018d 98010000 		.4byte	0x198
 822 0191 0E       		.uleb128 0xe
 823 0192 D6000000 		.4byte	0xd6
 824 0196 02       		.byte	0x2
 825 0197 00       		.byte	0
 826 0198 03       		.uleb128 0x3
 827 0199 BB060000 		.4byte	.LASF34
 828 019d 08       		.byte	0x8
 829 019e 46       		.byte	0x46
 830 019f 3F010000 		.4byte	0x13f
 831 01a3 0F       		.uleb128 0xf
 832 01a4 01       		.byte	0x1
 833 01a5 45000000 		.4byte	0x45
 834 01a9 08       		.byte	0x8
 835 01aa 4B       		.byte	0x4b
 836 01ab 84050000 		.4byte	.LASF102
 837 01af EA010000 		.4byte	0x1ea
 838 01b3 0A       		.uleb128 0xa
 839 01b4 94010000 		.4byte	.LASF35
 840 01b8 00       		.byte	0
 841 01b9 0A       		.uleb128 0xa
 842 01ba A9010000 		.4byte	.LASF36
 843 01be 01       		.byte	0x1
 844 01bf 0A       		.uleb128 0xa
 845 01c0 BE010000 		.4byte	.LASF37
 846 01c4 02       		.byte	0x2
 847 01c5 0A       		.uleb128 0xa
 848 01c6 D3010000 		.4byte	.LASF38
 849 01ca 03       		.byte	0x3
 850 01cb 0A       		.uleb128 0xa
 851 01cc E8010000 		.4byte	.LASF39
 852 01d0 04       		.byte	0x4
ARM GAS  C:\msys64\tmp\ccHb7GrS.s 			page 16


 853 01d1 0A       		.uleb128 0xa
 854 01d2 FD010000 		.4byte	.LASF40
 855 01d6 05       		.byte	0x5
 856 01d7 0A       		.uleb128 0xa
 857 01d8 6D050000 		.4byte	.LASF41
 858 01dc 06       		.byte	0x6
 859 01dd 0A       		.uleb128 0xa
 860 01de ED040000 		.4byte	.LASF42
 861 01e2 07       		.byte	0x7
 862 01e3 0A       		.uleb128 0xa
 863 01e4 27020000 		.4byte	.LASF43
 864 01e8 08       		.byte	0x8
 865 01e9 00       		.byte	0
 866 01ea 03       		.uleb128 0x3
 867 01eb 7A010000 		.4byte	.LASF44
 868 01ef 08       		.byte	0x8
 869 01f0 5D       		.byte	0x5d
 870 01f1 A3010000 		.4byte	0x1a3
 871 01f5 07       		.uleb128 0x7
 872 01f6 04       		.byte	0x4
 873 01f7 FB010000 		.4byte	0x1fb
 874 01fb 08       		.uleb128 0x8
 875 01fc 98010000 		.4byte	0x198
 876 0200 10       		.uleb128 0x10
 877 0201 504400   		.ascii	"PD\000"
 878 0204 10       		.byte	0x10
 879 0205 04       		.byte	0x4
 880 0206 0F       		.byte	0xf
 881 0207 17030000 		.4byte	0x317
 882 020b 09       		.uleb128 0x9
 883 020c 01       		.byte	0x1
 884 020d 45000000 		.4byte	0x45
 885 0211 04       		.byte	0x4
 886 0212 11       		.byte	0x11
 887 0213 24020000 		.4byte	0x224
 888 0217 0A       		.uleb128 0xa
 889 0218 C6030000 		.4byte	.LASF46
 890 021c 00       		.byte	0
 891 021d 0A       		.uleb128 0xa
 892 021e 2C040000 		.4byte	.LASF47
 893 0222 01       		.byte	0x1
 894 0223 00       		.byte	0
 895 0224 0B       		.uleb128 0xb
 896 0225 BC040000 		.4byte	.LASF48
 897 0229 04       		.byte	0x4
 898 022a 04       		.byte	0x4
 899 022b 16       		.byte	0x16
 900 022c 56020000 		.4byte	0x256
 901 0230 0C       		.uleb128 0xc
 902 0231 53050000 		.4byte	.LASF49
 903 0235 04       		.byte	0x4
 904 0236 17       		.byte	0x17
 905 0237 25000000 		.4byte	0x25
 906 023b 00       		.byte	0
 907 023c 11       		.uleb128 0x11
 908 023d BC040000 		.4byte	.LASF48
 909 0241 04       		.byte	0x4
ARM GAS  C:\msys64\tmp\ccHb7GrS.s 			page 17


 910 0242 19       		.byte	0x19
 911 0243 E7030000 		.4byte	.LASF103
 912 0247 17030000 		.4byte	0x317
 913 024b 4F020000 		.4byte	0x24f
 914 024f 12       		.uleb128 0x12
 915 0250 17030000 		.4byte	0x317
 916 0254 00       		.byte	0
 917 0255 00       		.byte	0
 918 0256 0B       		.uleb128 0xb
 919 0257 8E010000 		.4byte	.LASF50
 920 025b 0C       		.byte	0xc
 921 025c 04       		.byte	0x4
 922 025d 1E       		.byte	0x1e
 923 025e BB020000 		.4byte	0x2bb
 924 0262 13       		.uleb128 0x13
 925 0263 70686900 		.ascii	"phi\000"
 926 0267 04       		.byte	0x4
 927 0268 1F       		.byte	0x1f
 928 0269 25000000 		.4byte	0x25
 929 026d 00       		.byte	0
 930 026e 13       		.uleb128 0x13
 931 026f 773000   		.ascii	"w0\000"
 932 0272 04       		.byte	0x4
 933 0273 20       		.byte	0x20
 934 0274 25000000 		.4byte	0x25
 935 0278 04       		.byte	0x4
 936 0279 14       		.uleb128 0x14
 937 027a 20000000 		.4byte	.LASF79
 938 027e 04       		.byte	0x4
 939 027f 21       		.byte	0x21
 940 0280 BF000000 		.4byte	0xbf
 941 0284 04       		.byte	0x4
 942 0285 01       		.byte	0x1
 943 0286 1F       		.byte	0x1f
 944 0287 08       		.byte	0x8
 945 0288 15       		.uleb128 0x15
 946 0289 8E010000 		.4byte	.LASF50
 947 028d 04       		.byte	0x4
 948 028e 22       		.byte	0x22
 949 028f 1B040000 		.4byte	.LASF54
 950 0293 1D030000 		.4byte	0x31d
 951 0297 9F020000 		.4byte	0x29f
 952 029b A5020000 		.4byte	0x2a5
 953 029f 12       		.uleb128 0x12
 954 02a0 1D030000 		.4byte	0x31d
 955 02a4 00       		.byte	0
 956 02a5 16       		.uleb128 0x16
 957 02a6 A1050000 		.4byte	.LASF104
 958 02aa 04       		.byte	0x4
 959 02ab 2A       		.byte	0x2a
 960 02ac 12020000 		.4byte	.LASF105
 961 02b0 B4020000 		.4byte	0x2b4
 962 02b4 12       		.uleb128 0x12
 963 02b5 1D030000 		.4byte	0x31d
 964 02b9 00       		.byte	0
 965 02ba 00       		.byte	0
 966 02bb 0C       		.uleb128 0xc
ARM GAS  C:\msys64\tmp\ccHb7GrS.s 			page 18


 967 02bc 85060000 		.4byte	.LASF51
 968 02c0 04       		.byte	0x4
 969 02c1 45       		.byte	0x45
 970 02c2 56020000 		.4byte	0x256
 971 02c6 00       		.byte	0
 972 02c7 0C       		.uleb128 0xc
 973 02c8 00000000 		.4byte	.LASF52
 974 02cc 04       		.byte	0x4
 975 02cd 46       		.byte	0x46
 976 02ce 24020000 		.4byte	0x224
 977 02d2 0C       		.byte	0xc
 978 02d3 17       		.uleb128 0x17
 979 02d4 504400   		.ascii	"PD\000"
 980 02d7 04       		.byte	0x4
 981 02d8 2F       		.byte	0x2f
 982 02d9 F9030000 		.4byte	.LASF106
 983 02dd 23030000 		.4byte	0x323
 984 02e1 E9020000 		.4byte	0x2e9
 985 02e5 EF020000 		.4byte	0x2ef
 986 02e9 12       		.uleb128 0x12
 987 02ea 23030000 		.4byte	0x323
 988 02ee 00       		.byte	0
 989 02ef 15       		.uleb128 0x15
 990 02f0 22030000 		.4byte	.LASF53
 991 02f4 04       		.byte	0x4
 992 02f5 34       		.byte	0x34
 993 02f6 E9050000 		.4byte	.LASF55
 994 02fa 25000000 		.4byte	0x25
 995 02fe 06030000 		.4byte	0x306
 996 0302 11030000 		.4byte	0x311
 997 0306 12       		.uleb128 0x12
 998 0307 23030000 		.4byte	0x323
 999 030b 18       		.uleb128 0x18
 1000 030c 25000000 		.4byte	0x25
 1001 0310 00       		.byte	0
 1002 0311 08       		.uleb128 0x8
 1003 0312 24020000 		.4byte	0x224
 1004 0316 00       		.byte	0
 1005 0317 07       		.uleb128 0x7
 1006 0318 04       		.byte	0x4
 1007 0319 24020000 		.4byte	0x224
 1008 031d 07       		.uleb128 0x7
 1009 031e 04       		.byte	0x4
 1010 031f 56020000 		.4byte	0x256
 1011 0323 07       		.uleb128 0x7
 1012 0324 04       		.byte	0x4
 1013 0325 00020000 		.4byte	0x200
 1014 0329 19       		.uleb128 0x19
 1015 032a D9050000 		.4byte	.LASF56
 1016 032e 02       		.byte	0x2
 1017 032f C0       		.byte	0xc0
 1018 0330 25000000 		.4byte	0x25
 1019 0334 03       		.byte	0x3
 1020 0335 55030000 		.4byte	0x355
 1021 0339 1A       		.uleb128 0x1a
 1022 033a 6100     		.ascii	"a\000"
 1023 033c 02       		.byte	0x2
ARM GAS  C:\msys64\tmp\ccHb7GrS.s 			page 19


 1024 033d C0       		.byte	0xc0
 1025 033e 55030000 		.4byte	0x355
 1026 0342 1A       		.uleb128 0x1a
 1027 0343 6200     		.ascii	"b\000"
 1028 0345 02       		.byte	0x2
 1029 0346 C0       		.byte	0xc0
 1030 0347 55030000 		.4byte	0x355
 1031 034b 1A       		.uleb128 0x1a
 1032 034c 6300     		.ascii	"c\000"
 1033 034e 02       		.byte	0x2
 1034 034f C0       		.byte	0xc0
 1035 0350 55030000 		.4byte	0x355
 1036 0354 00       		.byte	0
 1037 0355 08       		.uleb128 0x8
 1038 0356 25000000 		.4byte	0x25
 1039 035a 1B       		.uleb128 0x1b
 1040 035b E6060000 		.4byte	.LASF57
 1041 035f 02       		.byte	0x2
 1042 0360 4901     		.2byte	0x149
 1043 0362 25000000 		.4byte	0x25
 1044 0366 03       		.byte	0x3
 1045 0367 82030000 		.4byte	0x382
 1046 036b 1C       		.uleb128 0x1c
 1047 036c 7800     		.ascii	"x\000"
 1048 036e 02       		.byte	0x2
 1049 036f 4901     		.2byte	0x149
 1050 0371 55030000 		.4byte	0x355
 1051 0375 1C       		.uleb128 0x1c
 1052 0376 6D617800 		.ascii	"max\000"
 1053 037a 02       		.byte	0x2
 1054 037b 4901     		.2byte	0x149
 1055 037d 55030000 		.4byte	0x355
 1056 0381 00       		.byte	0
 1057 0382 1B       		.uleb128 0x1b
 1058 0383 C7020000 		.4byte	.LASF58
 1059 0387 02       		.byte	0x2
 1060 0388 3C01     		.2byte	0x13c
 1061 038a 25000000 		.4byte	0x25
 1062 038e 03       		.byte	0x3
 1063 038f B6030000 		.4byte	0x3b6
 1064 0393 1C       		.uleb128 0x1c
 1065 0394 6D696E00 		.ascii	"min\000"
 1066 0398 02       		.byte	0x2
 1067 0399 3C01     		.2byte	0x13c
 1068 039b 55030000 		.4byte	0x355
 1069 039f 1C       		.uleb128 0x1c
 1070 03a0 7800     		.ascii	"x\000"
 1071 03a2 02       		.byte	0x2
 1072 03a3 3C01     		.2byte	0x13c
 1073 03a5 25000000 		.4byte	0x25
 1074 03a9 1C       		.uleb128 0x1c
 1075 03aa 6D617800 		.ascii	"max\000"
 1076 03ae 02       		.byte	0x2
 1077 03af 3C01     		.2byte	0x13c
 1078 03b1 55030000 		.4byte	0x355
 1079 03b5 00       		.byte	0
 1080 03b6 19       		.uleb128 0x19
ARM GAS  C:\msys64\tmp\ccHb7GrS.s 			page 20


 1081 03b7 54040000 		.4byte	.LASF59
 1082 03bb 0A       		.byte	0xa
 1083 03bc 54       		.byte	0x54
 1084 03bd BF000000 		.4byte	0xbf
 1085 03c1 03       		.byte	0x3
 1086 03c2 D9030000 		.4byte	0x3d9
 1087 03c6 1A       		.uleb128 0x1a
 1088 03c7 7800     		.ascii	"x\000"
 1089 03c9 0A       		.byte	0xa
 1090 03ca 54       		.byte	0x54
 1091 03cb D9030000 		.4byte	0x3d9
 1092 03cf 1A       		.uleb128 0x1a
 1093 03d0 6D00     		.ascii	"m\000"
 1094 03d2 0A       		.byte	0xa
 1095 03d3 54       		.byte	0x54
 1096 03d4 D9030000 		.4byte	0x3d9
 1097 03d8 00       		.byte	0
 1098 03d9 08       		.uleb128 0x8
 1099 03da BF000000 		.4byte	0xbf
 1100 03de 1B       		.uleb128 0x1b
 1101 03df 04040000 		.4byte	.LASF60
 1102 03e3 02       		.byte	0x2
 1103 03e4 8501     		.2byte	0x185
 1104 03e6 25000000 		.4byte	0x25
 1105 03ea 03       		.byte	0x3
 1106 03eb 04040000 		.4byte	0x404
 1107 03ef 1C       		.uleb128 0x1c
 1108 03f0 7800     		.ascii	"x\000"
 1109 03f2 02       		.byte	0x2
 1110 03f3 8501     		.2byte	0x185
 1111 03f5 55030000 		.4byte	0x355
 1112 03f9 1C       		.uleb128 0x1c
 1113 03fa 6D00     		.ascii	"m\000"
 1114 03fc 02       		.byte	0x2
 1115 03fd 8501     		.2byte	0x185
 1116 03ff 55030000 		.4byte	0x355
 1117 0403 00       		.byte	0
 1118 0404 1B       		.uleb128 0x1b
 1119 0405 34060000 		.4byte	.LASF61
 1120 0409 02       		.byte	0x2
 1121 040a 3903     		.2byte	0x339
 1122 040c 25000000 		.4byte	0x25
 1123 0410 03       		.byte	0x3
 1124 0411 37040000 		.4byte	0x437
 1125 0415 1C       		.uleb128 0x1c
 1126 0416 667200   		.ascii	"fr\000"
 1127 0419 02       		.byte	0x2
 1128 041a 3903     		.2byte	0x339
 1129 041c 55030000 		.4byte	0x355
 1130 0420 1C       		.uleb128 0x1c
 1131 0421 783000   		.ascii	"x0\000"
 1132 0424 02       		.byte	0x2
 1133 0425 3903     		.2byte	0x339
 1134 0427 55030000 		.4byte	0x355
 1135 042b 1C       		.uleb128 0x1c
 1136 042c 783100   		.ascii	"x1\000"
 1137 042f 02       		.byte	0x2
ARM GAS  C:\msys64\tmp\ccHb7GrS.s 			page 21


 1138 0430 3903     		.2byte	0x339
 1139 0432 55030000 		.4byte	0x355
 1140 0436 00       		.byte	0
 1141 0437 19       		.uleb128 0x19
 1142 0438 D1030000 		.4byte	.LASF62
 1143 043c 03       		.byte	0x3
 1144 043d 6C       		.byte	0x6c
 1145 043e 25000000 		.4byte	0x25
 1146 0442 03       		.byte	0x3
 1147 0443 53040000 		.4byte	0x453
 1148 0447 1D       		.uleb128 0x1d
 1149 0448 DE050000 		.4byte	.LASF63
 1150 044c 03       		.byte	0x3
 1151 044d 6C       		.byte	0x6c
 1152 044e 9E000000 		.4byte	0x9e
 1153 0452 00       		.byte	0
 1154 0453 19       		.uleb128 0x19
 1155 0454 58010000 		.4byte	.LASF64
 1156 0458 03       		.byte	0x3
 1157 0459 96       		.byte	0x96
 1158 045a 25000000 		.4byte	0x25
 1159 045e 03       		.byte	0x3
 1160 045f AA040000 		.4byte	0x4aa
 1161 0463 1A       		.uleb128 0x1a
 1162 0464 7800     		.ascii	"x\000"
 1163 0466 03       		.byte	0x3
 1164 0467 96       		.byte	0x96
 1165 0468 25000000 		.4byte	0x25
 1166 046c 1E       		.uleb128 0x1e
 1167 046d 7000     		.ascii	"p\000"
 1168 046f 03       		.byte	0x3
 1169 0470 97       		.byte	0x97
 1170 0471 55030000 		.4byte	0x355
 1171 0475 1E       		.uleb128 0x1e
 1172 0476 78306600 		.ascii	"x0f\000"
 1173 047a 03       		.byte	0x3
 1174 047b 9A       		.byte	0x9a
 1175 047c 55030000 		.4byte	0x355
 1176 0480 1E       		.uleb128 0x1e
 1177 0481 78307000 		.ascii	"x0p\000"
 1178 0485 03       		.byte	0x3
 1179 0486 9B       		.byte	0x9b
 1180 0487 D9030000 		.4byte	0x3d9
 1181 048b 1E       		.uleb128 0x1e
 1182 048c 783000   		.ascii	"x0\000"
 1183 048f 03       		.byte	0x3
 1184 0490 9D       		.byte	0x9d
 1185 0491 D9030000 		.4byte	0x3d9
 1186 0495 1E       		.uleb128 0x1e
 1187 0496 783100   		.ascii	"x1\000"
 1188 0499 03       		.byte	0x3
 1189 049a 9E       		.byte	0x9e
 1190 049b D9030000 		.4byte	0x3d9
 1191 049f 1E       		.uleb128 0x1e
 1192 04a0 793000   		.ascii	"y0\000"
 1193 04a3 03       		.byte	0x3
 1194 04a4 A0       		.byte	0xa0
ARM GAS  C:\msys64\tmp\ccHb7GrS.s 			page 22


 1195 04a5 55030000 		.4byte	0x355
 1196 04a9 00       		.byte	0
 1197 04aa 1B       		.uleb128 0x1b
 1198 04ab DD060000 		.4byte	.LASF65
 1199 04af 02       		.byte	0x2
 1200 04b0 AF01     		.2byte	0x1af
 1201 04b2 25000000 		.4byte	0x25
 1202 04b6 03       		.byte	0x3
 1203 04b7 C6040000 		.4byte	0x4c6
 1204 04bb 1C       		.uleb128 0x1c
 1205 04bc 7800     		.ascii	"x\000"
 1206 04be 02       		.byte	0x2
 1207 04bf AF01     		.2byte	0x1af
 1208 04c1 55030000 		.4byte	0x355
 1209 04c5 00       		.byte	0
 1210 04c6 1F       		.uleb128 0x1f
 1211 04c7 A5020000 		.4byte	0x2a5
 1212 04cb 03       		.byte	0x3
 1213 04cc D4040000 		.4byte	0x4d4
 1214 04d0 DE040000 		.4byte	0x4de
 1215 04d4 20       		.uleb128 0x20
 1216 04d5 B7040000 		.4byte	.LASF66
 1217 04d9 DE040000 		.4byte	0x4de
 1218 04dd 00       		.byte	0
 1219 04de 08       		.uleb128 0x8
 1220 04df 1D030000 		.4byte	0x31d
 1221 04e3 1F       		.uleb128 0x1f
 1222 04e4 3C020000 		.4byte	0x23c
 1223 04e8 03       		.byte	0x3
 1224 04e9 F1040000 		.4byte	0x4f1
 1225 04ed FB040000 		.4byte	0x4fb
 1226 04f1 20       		.uleb128 0x20
 1227 04f2 B7040000 		.4byte	.LASF66
 1228 04f6 FB040000 		.4byte	0x4fb
 1229 04fa 00       		.byte	0
 1230 04fb 08       		.uleb128 0x8
 1231 04fc 17030000 		.4byte	0x317
 1232 0500 1F       		.uleb128 0x1f
 1233 0501 88020000 		.4byte	0x288
 1234 0505 03       		.byte	0x3
 1235 0506 0E050000 		.4byte	0x50e
 1236 050a 18050000 		.4byte	0x518
 1237 050e 20       		.uleb128 0x20
 1238 050f B7040000 		.4byte	.LASF66
 1239 0513 DE040000 		.4byte	0x4de
 1240 0517 00       		.byte	0
 1241 0518 1F       		.uleb128 0x1f
 1242 0519 D3020000 		.4byte	0x2d3
 1243 051d 03       		.byte	0x3
 1244 051e 26050000 		.4byte	0x526
 1245 0522 30050000 		.4byte	0x530
 1246 0526 20       		.uleb128 0x20
 1247 0527 B7040000 		.4byte	.LASF66
 1248 052b 30050000 		.4byte	0x530
 1249 052f 00       		.byte	0
 1250 0530 08       		.uleb128 0x8
 1251 0531 23030000 		.4byte	0x323
ARM GAS  C:\msys64\tmp\ccHb7GrS.s 			page 23


 1252 0535 19       		.uleb128 0x19
 1253 0536 55060000 		.4byte	.LASF67
 1254 053a 03       		.byte	0x3
 1255 053b AA       		.byte	0xaa
 1256 053c 25000000 		.4byte	0x25
 1257 0540 03       		.byte	0x3
 1258 0541 4F050000 		.4byte	0x54f
 1259 0545 1A       		.uleb128 0x1a
 1260 0546 7800     		.ascii	"x\000"
 1261 0548 03       		.byte	0x3
 1262 0549 AA       		.byte	0xaa
 1263 054a 25000000 		.4byte	0x25
 1264 054e 00       		.byte	0
 1265 054f 1F       		.uleb128 0x1f
 1266 0550 EF020000 		.4byte	0x2ef
 1267 0554 03       		.byte	0x3
 1268 0555 5D050000 		.4byte	0x55d
 1269 0559 B9050000 		.4byte	0x5b9
 1270 055d 20       		.uleb128 0x20
 1271 055e B7040000 		.4byte	.LASF66
 1272 0562 30050000 		.4byte	0x530
 1273 0566 1A       		.uleb128 0x1a
 1274 0567 70686900 		.ascii	"phi\000"
 1275 056b 04       		.byte	0x4
 1276 056c 34       		.byte	0x34
 1277 056d 25000000 		.4byte	0x25
 1278 0571 1E       		.uleb128 0x1e
 1279 0572 6400     		.ascii	"d\000"
 1280 0574 04       		.byte	0x4
 1281 0575 35       		.byte	0x35
 1282 0576 25000000 		.4byte	0x25
 1283 057a 1E       		.uleb128 0x1e
 1284 057b 706400   		.ascii	"pd\000"
 1285 057e 04       		.byte	0x4
 1286 057f 37       		.byte	0x37
 1287 0580 25000000 		.4byte	0x25
 1288 0584 21       		.uleb128 0x21
 1289 0585 95050000 		.4byte	0x595
 1290 0589 22       		.uleb128 0x22
 1291 058a 32030000 		.4byte	.LASF68
 1292 058e 04       		.byte	0x4
 1293 058f 39       		.byte	0x39
 1294 0590 25000000 		.4byte	0x25
 1295 0594 00       		.byte	0
 1296 0595 23       		.uleb128 0x23
 1297 0596 22       		.uleb128 0x22
 1298 0597 98040000 		.4byte	.LASF69
 1299 059b 04       		.byte	0x4
 1300 059c 3C       		.byte	0x3c
 1301 059d 25000000 		.4byte	0x25
 1302 05a1 22       		.uleb128 0x22
 1303 05a2 B1050000 		.4byte	.LASF70
 1304 05a6 04       		.byte	0x4
 1305 05a7 3D       		.byte	0x3d
 1306 05a8 25000000 		.4byte	0x25
 1307 05ac 22       		.uleb128 0x22
 1308 05ad 32030000 		.4byte	.LASF68
ARM GAS  C:\msys64\tmp\ccHb7GrS.s 			page 24


 1309 05b1 04       		.byte	0x4
 1310 05b2 3E       		.byte	0x3e
 1311 05b3 25000000 		.4byte	0x25
 1312 05b7 00       		.byte	0
 1313 05b8 00       		.byte	0
 1314 05b9 19       		.uleb128 0x19
 1315 05ba AA060000 		.4byte	.LASF71
 1316 05be 03       		.byte	0x3
 1317 05bf 76       		.byte	0x76
 1318 05c0 25000000 		.4byte	0x25
 1319 05c4 03       		.byte	0x3
 1320 05c5 FD050000 		.4byte	0x5fd
 1321 05c9 1D       		.uleb128 0x1d
 1322 05ca DE050000 		.4byte	.LASF63
 1323 05ce 03       		.byte	0x3
 1324 05cf 76       		.byte	0x76
 1325 05d0 9E000000 		.4byte	0x9e
 1326 05d4 1A       		.uleb128 0x1a
 1327 05d5 6D6F6400 		.ascii	"mod\000"
 1328 05d9 03       		.byte	0x3
 1329 05da 76       		.byte	0x76
 1330 05db 9E000000 		.4byte	0x9e
 1331 05df 1E       		.uleb128 0x1e
 1332 05e0 663000   		.ascii	"f0\000"
 1333 05e3 03       		.byte	0x3
 1334 05e4 77       		.byte	0x77
 1335 05e5 55030000 		.4byte	0x355
 1336 05e9 1E       		.uleb128 0x1e
 1337 05ea 663100   		.ascii	"f1\000"
 1338 05ed 03       		.byte	0x3
 1339 05ee 78       		.byte	0x78
 1340 05ef 55030000 		.4byte	0x355
 1341 05f3 1E       		.uleb128 0x1e
 1342 05f4 6600     		.ascii	"f\000"
 1343 05f6 03       		.byte	0x3
 1344 05f7 7A       		.byte	0x7a
 1345 05f8 55030000 		.4byte	0x355
 1346 05fc 00       		.byte	0
 1347 05fd 1B       		.uleb128 0x1b
 1348 05fe B9020000 		.4byte	.LASF72
 1349 0602 03       		.byte	0x3
 1350 0603 9902     		.2byte	0x299
 1351 0605 25000000 		.4byte	0x25
 1352 0609 03       		.byte	0x3
 1353 060a 23060000 		.4byte	0x623
 1354 060e 1C       		.uleb128 0x1c
 1355 060f 6300     		.ascii	"c\000"
 1356 0611 03       		.byte	0x3
 1357 0612 9902     		.2byte	0x299
 1358 0614 55030000 		.4byte	0x355
 1359 0618 1C       		.uleb128 0x1c
 1360 0619 7800     		.ascii	"x\000"
 1361 061b 03       		.byte	0x3
 1362 061c 9902     		.2byte	0x299
 1363 061e 25000000 		.4byte	0x25
 1364 0622 00       		.byte	0
 1365 0623 24       		.uleb128 0x24
ARM GAS  C:\msys64\tmp\ccHb7GrS.s 			page 25


 1366 0624 C3040000 		.4byte	.LASF107
 1367 0628 01       		.byte	0x1
 1368 0629 44060000 		.4byte	0x644
 1369 062d 1D       		.uleb128 0x1d
 1370 062e 64030000 		.4byte	.LASF73
 1371 0632 01       		.byte	0x1
 1372 0633 69       		.byte	0x69
 1373 0634 97000000 		.4byte	0x97
 1374 0638 1D       		.uleb128 0x1d
 1375 0639 87030000 		.4byte	.LASF74
 1376 063d 01       		.byte	0x1
 1377 063e 69       		.byte	0x69
 1378 063f 97000000 		.4byte	0x97
 1379 0643 00       		.byte	0
 1380 0644 25       		.uleb128 0x25
 1381 0645 09050000 		.4byte	.LASF75
 1382 0649 01       		.byte	0x1
 1383 064a 0F       		.byte	0xf
 1384 064b 00000000 		.4byte	.LFB250
 1385 064f 02000000 		.4byte	.LFE250-.LFB250
 1386 0653 01       		.uleb128 0x1
 1387 0654 9C       		.byte	0x9c
 1388 0655 74060000 		.4byte	0x674
 1389 0659 26       		.uleb128 0x26
 1390 065a 6B010000 		.4byte	.LASF76
 1391 065e 01       		.byte	0x1
 1392 065f 0F       		.byte	0xf
 1393 0660 BF000000 		.4byte	0xbf
 1394 0664 01       		.uleb128 0x1
 1395 0665 50       		.byte	0x50
 1396 0666 27       		.uleb128 0x27
 1397 0667 61706900 		.ascii	"api\000"
 1398 066b 01       		.byte	0x1
 1399 066c 0F       		.byte	0xf
 1400 066d BF000000 		.4byte	0xbf
 1401 0671 01       		.uleb128 0x1
 1402 0672 51       		.byte	0x51
 1403 0673 00       		.byte	0
 1404 0674 25       		.uleb128 0x25
 1405 0675 3F020000 		.4byte	.LASF77
 1406 0679 01       		.byte	0x1
 1407 067a 14       		.byte	0x14
 1408 067b 02000000 		.4byte	.LFB251
 1409 067f 96010000 		.4byte	.LFE251-.LFB251
 1410 0683 01       		.uleb128 0x1
 1411 0684 9C       		.byte	0x9c
 1412 0685 D6090000 		.4byte	0x9d6
 1413 0689 28       		.uleb128 0x28
 1414 068a 00000000 		.4byte	.LASF52
 1415 068e 01       		.byte	0x1
 1416 068f 14       		.byte	0x14
 1417 0690 D6090000 		.4byte	0x9d6
 1418 0694 00000000 		.4byte	.LLST0
 1419 0698 29       		.uleb128 0x29
 1420 0699 796E00   		.ascii	"yn\000"
 1421 069c 01       		.byte	0x1
 1422 069d 14       		.byte	0x14
ARM GAS  C:\msys64\tmp\ccHb7GrS.s 			page 26


 1423 069e 08010000 		.4byte	0x108
 1424 06a2 21000000 		.4byte	.LLST1
 1425 06a6 28       		.uleb128 0x28
 1426 06a7 A8030000 		.4byte	.LASF78
 1427 06ab 01       		.byte	0x1
 1428 06ac 14       		.byte	0x14
 1429 06ad D9030000 		.4byte	0x3d9
 1430 06b1 42000000 		.4byte	.LLST2
 1431 06b5 2A       		.uleb128 0x2a
 1432 06b6 7300     		.ascii	"s\000"
 1433 06b8 01       		.byte	0x1
 1434 06b9 17       		.byte	0x17
 1435 06ba E1090000 		.4byte	0x9e1
 1436 06be 06       		.uleb128 0x6
 1437 06bf 03       		.byte	0x3
 1438 06c0 00000000 		.4byte	_ZL2pd
 1439 06c4 9F       		.byte	0x9f
 1440 06c5 2A       		.uleb128 0x2a
 1441 06c6 7000     		.ascii	"p\000"
 1442 06c8 01       		.byte	0x1
 1443 06c9 18       		.byte	0x18
 1444 06ca EC090000 		.4byte	0x9ec
 1445 06ce 06       		.uleb128 0x6
 1446 06cf 03       		.byte	0x3
 1447 06d0 0C000000 		.4byte	_ZL2pd+12
 1448 06d4 9F       		.byte	0x9f
 1449 06d5 2B       		.uleb128 0x2b
 1450 06d6 20000000 		.4byte	.LASF79
 1451 06da 01       		.byte	0x1
 1452 06db 1B       		.byte	0x1b
 1453 06dc D9030000 		.4byte	0x3d9
 1454 06e0 63000000 		.4byte	.LLST3
 1455 06e4 2B       		.uleb128 0x2b
 1456 06e5 DE050000 		.4byte	.LASF63
 1457 06e9 01       		.byte	0x1
 1458 06ea 25       		.byte	0x25
 1459 06eb 9E000000 		.4byte	0x9e
 1460 06ef 91000000 		.4byte	.LLST4
 1461 06f3 2A       		.uleb128 0x2a
 1462 06f4 773000   		.ascii	"w0\000"
 1463 06f7 01       		.byte	0x1
 1464 06f8 28       		.byte	0x28
 1465 06f9 25000000 		.4byte	0x25
 1466 06fd 02       		.uleb128 0x2
 1467 06fe 90       		.byte	0x90
 1468 06ff 4C       		.uleb128 0x4c
 1469 0700 2A       		.uleb128 0x2a
 1470 0701 70686900 		.ascii	"phi\000"
 1471 0705 01       		.byte	0x1
 1472 0706 2B       		.byte	0x2b
 1473 0707 25000000 		.4byte	0x25
 1474 070b 02       		.uleb128 0x2
 1475 070c 90       		.byte	0x90
 1476 070d 4D       		.uleb128 0x4d
 1477 070e 2C       		.uleb128 0x2c
 1478 070f 7900     		.ascii	"y\000"
 1479 0711 01       		.byte	0x1
ARM GAS  C:\msys64\tmp\ccHb7GrS.s 			page 27


 1480 0712 2E       		.byte	0x2e
 1481 0713 F7000000 		.4byte	0xf7
 1482 0717 C9000000 		.4byte	.LLST5
 1483 071b 2A       		.uleb128 0x2a
 1484 071c 795F6500 		.ascii	"y_e\000"
 1485 0720 01       		.byte	0x1
 1486 0721 2F       		.byte	0x2f
 1487 0722 FD000000 		.4byte	0xfd
 1488 0726 01       		.uleb128 0x1
 1489 0727 52       		.byte	0x52
 1490 0728 2D       		.uleb128 0x2d
 1491 0729 B9050000 		.4byte	0x5b9
 1492 072d 0A000000 		.4byte	.LBB192
 1493 0731 00000000 		.4byte	.Ldebug_ranges0+0
 1494 0735 01       		.byte	0x1
 1495 0736 28       		.byte	0x28
 1496 0737 19080000 		.4byte	0x819
 1497 073b 2E       		.uleb128 0x2e
 1498 073c D4050000 		.4byte	0x5d4
 1499 0740 F4000000 		.4byte	.LLST6
 1500 0744 2F       		.uleb128 0x2f
 1501 0745 C9050000 		.4byte	0x5c9
 1502 0749 30       		.uleb128 0x30
 1503 074a 00000000 		.4byte	.Ldebug_ranges0+0
 1504 074e 31       		.uleb128 0x31
 1505 074f DF050000 		.4byte	0x5df
 1506 0753 31       		.uleb128 0x31
 1507 0754 E9050000 		.4byte	0x5e9
 1508 0758 31       		.uleb128 0x31
 1509 0759 F3050000 		.4byte	0x5f3
 1510 075d 2D       		.uleb128 0x2d
 1511 075e 04040000 		.4byte	0x404
 1512 0762 0A000000 		.4byte	.LBB194
 1513 0766 40000000 		.4byte	.Ldebug_ranges0+0x40
 1514 076a 03       		.byte	0x3
 1515 076b 7A       		.byte	0x7a
 1516 076c 80070000 		.4byte	0x780
 1517 0770 2F       		.uleb128 0x2f
 1518 0771 2B040000 		.4byte	0x42b
 1519 0775 2F       		.uleb128 0x2f
 1520 0776 20040000 		.4byte	0x420
 1521 077a 2F       		.uleb128 0x2f
 1522 077b 15040000 		.4byte	0x415
 1523 077f 00       		.byte	0
 1524 0780 2D       		.uleb128 0x2d
 1525 0781 37040000 		.4byte	0x437
 1526 0785 2E000000 		.4byte	.LBB199
 1527 0789 68000000 		.4byte	.Ldebug_ranges0+0x68
 1528 078d 03       		.byte	0x3
 1529 078e 77       		.byte	0x77
 1530 078f 99070000 		.4byte	0x799
 1531 0793 2F       		.uleb128 0x2f
 1532 0794 47040000 		.4byte	0x447
 1533 0798 00       		.byte	0
 1534 0799 2D       		.uleb128 0x2d
 1535 079a 37040000 		.4byte	0x437
 1536 079e 4C000000 		.4byte	.LBB207
ARM GAS  C:\msys64\tmp\ccHb7GrS.s 			page 28


 1537 07a2 98000000 		.4byte	.Ldebug_ranges0+0x98
 1538 07a6 03       		.byte	0x3
 1539 07a7 78       		.byte	0x78
 1540 07a8 B2070000 		.4byte	0x7b2
 1541 07ac 2F       		.uleb128 0x2f
 1542 07ad 47040000 		.4byte	0x447
 1543 07b1 00       		.byte	0
 1544 07b2 32       		.uleb128 0x32
 1545 07b3 DE030000 		.4byte	0x3de
 1546 07b7 78000000 		.4byte	.LBB216
 1547 07bb 12000000 		.4byte	.LBE216-.LBB216
 1548 07bf 03       		.byte	0x3
 1549 07c0 7A       		.byte	0x7a
 1550 07c1 2E       		.uleb128 0x2e
 1551 07c2 F9030000 		.4byte	0x3f9
 1552 07c6 25010000 		.4byte	.LLST7
 1553 07ca 2F       		.uleb128 0x2f
 1554 07cb EF030000 		.4byte	0x3ef
 1555 07cf 33       		.uleb128 0x33
 1556 07d0 5A030000 		.4byte	0x35a
 1557 07d4 78000000 		.4byte	.LBB217
 1558 07d8 12000000 		.4byte	.LBE217-.LBB217
 1559 07dc 02       		.byte	0x2
 1560 07dd 8601     		.2byte	0x186
 1561 07df 2E       		.uleb128 0x2e
 1562 07e0 75030000 		.4byte	0x375
 1563 07e4 25010000 		.4byte	.LLST7
 1564 07e8 2F       		.uleb128 0x2f
 1565 07e9 6B030000 		.4byte	0x36b
 1566 07ed 33       		.uleb128 0x33
 1567 07ee 29030000 		.4byte	0x329
 1568 07f2 78000000 		.4byte	.LBB218
 1569 07f6 12000000 		.4byte	.LBE218-.LBB218
 1570 07fa 02       		.byte	0x2
 1571 07fb 4B01     		.2byte	0x14b
 1572 07fd 2F       		.uleb128 0x2f
 1573 07fe 4B030000 		.4byte	0x34b
 1574 0802 2E       		.uleb128 0x2e
 1575 0803 42030000 		.4byte	0x342
 1576 0807 25010000 		.4byte	.LLST7
 1577 080b 2E       		.uleb128 0x2e
 1578 080c 39030000 		.4byte	0x339
 1579 0810 3D010000 		.4byte	.LLST10
 1580 0814 00       		.byte	0
 1581 0815 00       		.byte	0
 1582 0816 00       		.byte	0
 1583 0817 00       		.byte	0
 1584 0818 00       		.byte	0
 1585 0819 34       		.uleb128 0x34
 1586 081a B0000000 		.4byte	.Ldebug_ranges0+0xb0
 1587 081e B9090000 		.4byte	0x9b9
 1588 0822 1E       		.uleb128 0x1e
 1589 0823 73696700 		.ascii	"sig\000"
 1590 0827 01       		.byte	0x1
 1591 0828 34       		.byte	0x34
 1592 0829 25000000 		.4byte	0x25
 1593 082d 2D       		.uleb128 0x2d
ARM GAS  C:\msys64\tmp\ccHb7GrS.s 			page 29


 1594 082e 4F050000 		.4byte	0x54f
 1595 0832 12000000 		.4byte	.LBB228
 1596 0836 D8000000 		.4byte	.Ldebug_ranges0+0xd8
 1597 083a 01       		.byte	0x1
 1598 083b 34       		.byte	0x34
 1599 083c 38090000 		.4byte	0x938
 1600 0840 2E       		.uleb128 0x2e
 1601 0841 5D050000 		.4byte	0x55d
 1602 0845 5B010000 		.4byte	.LLST11
 1603 0849 2E       		.uleb128 0x2e
 1604 084a 66050000 		.4byte	0x566
 1605 084e 73010000 		.4byte	.LLST12
 1606 0852 30       		.uleb128 0x30
 1607 0853 D8000000 		.4byte	.Ldebug_ranges0+0xd8
 1608 0857 35       		.uleb128 0x35
 1609 0858 71050000 		.4byte	0x571
 1610 085c 87010000 		.4byte	.LLST13
 1611 0860 35       		.uleb128 0x35
 1612 0861 7A050000 		.4byte	0x57a
 1613 0865 9E010000 		.4byte	.LLST14
 1614 0869 2D       		.uleb128 0x2d
 1615 086a 35050000 		.4byte	0x535
 1616 086e 12000000 		.4byte	.LBB230
 1617 0872 00010000 		.4byte	.Ldebug_ranges0+0x100
 1618 0876 04       		.byte	0x4
 1619 0877 42       		.byte	0x42
 1620 0878 FE080000 		.4byte	0x8fe
 1621 087c 2E       		.uleb128 0x2e
 1622 087d 45050000 		.4byte	0x545
 1623 0881 9E010000 		.4byte	.LLST14
 1624 0885 36       		.uleb128 0x36
 1625 0886 53040000 		.4byte	0x453
 1626 088a 12000000 		.4byte	.LBB232
 1627 088e 28010000 		.4byte	.Ldebug_ranges0+0x128
 1628 0892 03       		.byte	0x3
 1629 0893 AB       		.byte	0xab
 1630 0894 2E       		.uleb128 0x2e
 1631 0895 63040000 		.4byte	0x463
 1632 0899 B2010000 		.4byte	.LLST16
 1633 089d 30       		.uleb128 0x30
 1634 089e 28010000 		.4byte	.Ldebug_ranges0+0x128
 1635 08a2 35       		.uleb128 0x35
 1636 08a3 6C040000 		.4byte	0x46c
 1637 08a7 C6010000 		.4byte	.LLST17
 1638 08ab 35       		.uleb128 0x35
 1639 08ac 75040000 		.4byte	0x475
 1640 08b0 E4010000 		.4byte	.LLST18
 1641 08b4 35       		.uleb128 0x35
 1642 08b5 80040000 		.4byte	0x480
 1643 08b9 F8010000 		.4byte	.LLST19
 1644 08bd 35       		.uleb128 0x35
 1645 08be 8B040000 		.4byte	0x48b
 1646 08c2 0B020000 		.4byte	.LLST20
 1647 08c6 35       		.uleb128 0x35
 1648 08c7 95040000 		.4byte	0x495
 1649 08cb 3B020000 		.4byte	.LLST21
 1650 08cf 31       		.uleb128 0x31
ARM GAS  C:\msys64\tmp\ccHb7GrS.s 			page 30


 1651 08d0 9F040000 		.4byte	0x49f
 1652 08d4 36       		.uleb128 0x36
 1653 08d5 04040000 		.4byte	0x404
 1654 08d9 EE000000 		.4byte	.LBB234
 1655 08dd 48010000 		.4byte	.Ldebug_ranges0+0x148
 1656 08e1 03       		.byte	0x3
 1657 08e2 A0       		.byte	0xa0
 1658 08e3 2F       		.uleb128 0x2f
 1659 08e4 2B040000 		.4byte	0x42b
 1660 08e8 2E       		.uleb128 0x2e
 1661 08e9 20040000 		.4byte	0x420
 1662 08ed 7E020000 		.4byte	.LLST22
 1663 08f1 2E       		.uleb128 0x2e
 1664 08f2 15040000 		.4byte	0x415
 1665 08f6 92020000 		.4byte	.LLST23
 1666 08fa 00       		.byte	0
 1667 08fb 00       		.byte	0
 1668 08fc 00       		.byte	0
 1669 08fd 00       		.byte	0
 1670 08fe 34       		.uleb128 0x34
 1671 08ff 70010000 		.4byte	.Ldebug_ranges0+0x170
 1672 0903 23090000 		.4byte	0x923
 1673 0907 35       		.uleb128 0x35
 1674 0908 96050000 		.4byte	0x596
 1675 090c BB020000 		.4byte	.LLST24
 1676 0910 35       		.uleb128 0x35
 1677 0911 A1050000 		.4byte	0x5a1
 1678 0915 D5020000 		.4byte	.LLST25
 1679 0919 35       		.uleb128 0x35
 1680 091a AC050000 		.4byte	0x5ac
 1681 091e F3020000 		.4byte	.LLST26
 1682 0922 00       		.byte	0
 1683 0923 37       		.uleb128 0x37
 1684 0924 BC000000 		.4byte	.LBB253
 1685 0928 04000000 		.4byte	.LBE253-.LBB253
 1686 092c 35       		.uleb128 0x35
 1687 092d 89050000 		.4byte	0x589
 1688 0931 19030000 		.4byte	.LLST27
 1689 0935 00       		.byte	0
 1690 0936 00       		.byte	0
 1691 0937 00       		.byte	0
 1692 0938 36       		.uleb128 0x36
 1693 0939 FD050000 		.4byte	0x5fd
 1694 093d A2000000 		.4byte	.LBB263
 1695 0941 90010000 		.4byte	.Ldebug_ranges0+0x190
 1696 0945 01       		.byte	0x1
 1697 0946 37       		.byte	0x37
 1698 0947 2F       		.uleb128 0x2f
 1699 0948 18060000 		.4byte	0x618
 1700 094c 2E       		.uleb128 0x2e
 1701 094d 0E060000 		.4byte	0x60e
 1702 0951 33030000 		.4byte	.LLST28
 1703 0955 38       		.uleb128 0x38
 1704 0956 AA040000 		.4byte	0x4aa
 1705 095a A2000000 		.4byte	.LBB265
 1706 095e A8010000 		.4byte	.Ldebug_ranges0+0x1a8
 1707 0962 03       		.byte	0x3
ARM GAS  C:\msys64\tmp\ccHb7GrS.s 			page 31


 1708 0963 9B02     		.2byte	0x29b
 1709 0965 2F       		.uleb128 0x2f
 1710 0966 BB040000 		.4byte	0x4bb
 1711 096a 38       		.uleb128 0x38
 1712 096b 82030000 		.4byte	0x382
 1713 096f A2000000 		.4byte	.LBB266
 1714 0973 C0010000 		.4byte	.Ldebug_ranges0+0x1c0
 1715 0977 02       		.byte	0x2
 1716 0978 B001     		.2byte	0x1b0
 1717 097a 2E       		.uleb128 0x2e
 1718 097b A9030000 		.4byte	0x3a9
 1719 097f 4B030000 		.4byte	.LLST29
 1720 0983 2F       		.uleb128 0x2f
 1721 0984 9F030000 		.4byte	0x39f
 1722 0988 2E       		.uleb128 0x2e
 1723 0989 93030000 		.4byte	0x393
 1724 098d 63030000 		.4byte	.LLST30
 1725 0991 38       		.uleb128 0x38
 1726 0992 29030000 		.4byte	0x329
 1727 0996 A2000000 		.4byte	.LBB267
 1728 099a D8010000 		.4byte	.Ldebug_ranges0+0x1d8
 1729 099e 02       		.byte	0x2
 1730 099f 3E01     		.2byte	0x13e
 1731 09a1 2E       		.uleb128 0x2e
 1732 09a2 4B030000 		.4byte	0x34b
 1733 09a6 7B030000 		.4byte	.LLST31
 1734 09aa 2F       		.uleb128 0x2f
 1735 09ab 42030000 		.4byte	0x342
 1736 09af 2F       		.uleb128 0x2f
 1737 09b0 39030000 		.4byte	0x339
 1738 09b4 00       		.byte	0
 1739 09b5 00       		.byte	0
 1740 09b6 00       		.byte	0
 1741 09b7 00       		.byte	0
 1742 09b8 00       		.byte	0
 1743 09b9 32       		.uleb128 0x32
 1744 09ba C6040000 		.4byte	0x4c6
 1745 09be 22000000 		.4byte	.LBB279
 1746 09c2 06000000 		.4byte	.LBE279-.LBB279
 1747 09c6 01       		.byte	0x1
 1748 09c7 21       		.byte	0x21
 1749 09c8 39       		.uleb128 0x39
 1750 09c9 D4040000 		.4byte	0x4d4
 1751 09cd 06       		.uleb128 0x6
 1752 09ce 03       		.byte	0x3
 1753 09cf 00000000 		.4byte	_ZL2pd
 1754 09d3 9F       		.byte	0x9f
 1755 09d4 00       		.byte	0
 1756 09d5 00       		.byte	0
 1757 09d6 08       		.uleb128 0x8
 1758 09d7 F5010000 		.4byte	0x1f5
 1759 09db 3A       		.uleb128 0x3a
 1760 09dc 04       		.byte	0x4
 1761 09dd 56020000 		.4byte	0x256
 1762 09e1 08       		.uleb128 0x8
 1763 09e2 DB090000 		.4byte	0x9db
 1764 09e6 3A       		.uleb128 0x3a
ARM GAS  C:\msys64\tmp\ccHb7GrS.s 			page 32


 1765 09e7 04       		.byte	0x4
 1766 09e8 11030000 		.4byte	0x311
 1767 09ec 08       		.uleb128 0x8
 1768 09ed E6090000 		.4byte	0x9e6
 1769 09f1 25       		.uleb128 0x25
 1770 09f2 46030000 		.4byte	.LASF80
 1771 09f6 01       		.byte	0x1
 1772 09f7 45       		.byte	0x45
 1773 09f8 98010000 		.4byte	.LFB252
 1774 09fc 10000000 		.4byte	.LFE252-.LFB252
 1775 0a00 01       		.uleb128 0x1
 1776 0a01 9C       		.byte	0x9c
 1777 0a02 240A0000 		.4byte	0xa24
 1778 0a06 26       		.uleb128 0x26
 1779 0a07 00000000 		.4byte	.LASF52
 1780 0a0b 01       		.byte	0x1
 1781 0a0c 45       		.byte	0x45
 1782 0a0d D6090000 		.4byte	0x9d6
 1783 0a11 01       		.uleb128 0x1
 1784 0a12 50       		.byte	0x50
 1785 0a13 2A       		.uleb128 0x2a
 1786 0a14 7300     		.ascii	"s\000"
 1787 0a16 01       		.byte	0x1
 1788 0a17 46       		.byte	0x46
 1789 0a18 240A0000 		.4byte	0xa24
 1790 0a1c 06       		.uleb128 0x6
 1791 0a1d 03       		.byte	0x3
 1792 0a1e 00000000 		.4byte	_ZL2pd
 1793 0a22 9F       		.byte	0x9f
 1794 0a23 00       		.byte	0
 1795 0a24 08       		.uleb128 0x8
 1796 0a25 DB090000 		.4byte	0x9db
 1797 0a29 25       		.uleb128 0x25
 1798 0a2a 9E030000 		.4byte	.LASF81
 1799 0a2e 01       		.byte	0x1
 1800 0a2f 4A       		.byte	0x4a
 1801 0a30 A8010000 		.4byte	.LFB253
 1802 0a34 02000000 		.4byte	.LFE253-.LFB253
 1803 0a38 01       		.uleb128 0x1
 1804 0a39 9C       		.byte	0x9c
 1805 0a3a 4C0A0000 		.4byte	0xa4c
 1806 0a3e 26       		.uleb128 0x26
 1807 0a3f 00000000 		.4byte	.LASF52
 1808 0a43 01       		.byte	0x1
 1809 0a44 4A       		.byte	0x4a
 1810 0a45 D6090000 		.4byte	0x9d6
 1811 0a49 01       		.uleb128 0x1
 1812 0a4a 50       		.byte	0x50
 1813 0a4b 00       		.byte	0
 1814 0a4c 25       		.uleb128 0x25
 1815 0a4d 07000000 		.4byte	.LASF82
 1816 0a51 01       		.byte	0x1
 1817 0a52 4F       		.byte	0x4f
 1818 0a53 AA010000 		.4byte	.LFB254
 1819 0a57 26000000 		.4byte	.LFE254-.LFB254
 1820 0a5b 01       		.uleb128 0x1
 1821 0a5c 9C       		.byte	0x9c
ARM GAS  C:\msys64\tmp\ccHb7GrS.s 			page 33


 1822 0a5d 8C0A0000 		.4byte	0xa8c
 1823 0a61 26       		.uleb128 0x26
 1824 0a62 F1020000 		.4byte	.LASF83
 1825 0a66 01       		.byte	0x1
 1826 0a67 4F       		.byte	0x4f
 1827 0a68 A9000000 		.4byte	0xa9
 1828 0a6c 01       		.uleb128 0x1
 1829 0a6d 50       		.byte	0x50
 1830 0a6e 26       		.uleb128 0x26
 1831 0a6f 5E030000 		.4byte	.LASF84
 1832 0a73 01       		.byte	0x1
 1833 0a74 4F       		.byte	0x4f
 1834 0a75 A9000000 		.4byte	0xa9
 1835 0a79 01       		.uleb128 0x1
 1836 0a7a 51       		.byte	0x51
 1837 0a7b 2A       		.uleb128 0x2a
 1838 0a7c 7000     		.ascii	"p\000"
 1839 0a7e 01       		.byte	0x1
 1840 0a7f 51       		.byte	0x51
 1841 0a80 920A0000 		.4byte	0xa92
 1842 0a84 06       		.uleb128 0x6
 1843 0a85 03       		.byte	0x3
 1844 0a86 0C000000 		.4byte	_ZL2pd+12
 1845 0a8a 9F       		.byte	0x9f
 1846 0a8b 00       		.byte	0
 1847 0a8c 3A       		.uleb128 0x3a
 1848 0a8d 04       		.byte	0x4
 1849 0a8e 24020000 		.4byte	0x224
 1850 0a92 08       		.uleb128 0x8
 1851 0a93 8C0A0000 		.4byte	0xa8c
 1852 0a97 3B       		.uleb128 0x3b
 1853 0a98 5F040000 		.4byte	.LASF108
 1854 0a9c 00000000 		.4byte	.LFB256
 1855 0aa0 18000000 		.4byte	.LFE256-.LFB256
 1856 0aa4 01       		.uleb128 0x1
 1857 0aa5 9C       		.byte	0x9c
 1858 0aa6 1F0B0000 		.4byte	0xb1f
 1859 0aaa 32       		.uleb128 0x32
 1860 0aab 23060000 		.4byte	0x623
 1861 0aaf 00000000 		.4byte	.LBB298
 1862 0ab3 18000000 		.4byte	.LBE298-.LBB298
 1863 0ab7 01       		.byte	0x1
 1864 0ab8 69       		.byte	0x69
 1865 0ab9 2E       		.uleb128 0x2e
 1866 0aba 2D060000 		.4byte	0x62d
 1867 0abe A3030000 		.4byte	.LLST32
 1868 0ac2 2E       		.uleb128 0x2e
 1869 0ac3 38060000 		.4byte	0x638
 1870 0ac7 B7030000 		.4byte	.LLST33
 1871 0acb 32       		.uleb128 0x32
 1872 0acc 18050000 		.4byte	0x518
 1873 0ad0 00000000 		.4byte	.LBB300
 1874 0ad4 18000000 		.4byte	.LBE300-.LBB300
 1875 0ad8 01       		.byte	0x1
 1876 0ad9 0D       		.byte	0xd
 1877 0ada 39       		.uleb128 0x39
 1878 0adb 26050000 		.4byte	0x526
ARM GAS  C:\msys64\tmp\ccHb7GrS.s 			page 34


 1879 0adf 06       		.uleb128 0x6
 1880 0ae0 03       		.byte	0x3
 1881 0ae1 00000000 		.4byte	_ZL2pd
 1882 0ae5 9F       		.byte	0x9f
 1883 0ae6 3C       		.uleb128 0x3c
 1884 0ae7 00050000 		.4byte	0x500
 1885 0aeb 00000000 		.4byte	.LBB301
 1886 0aef 10000000 		.4byte	.LBE301-.LBB301
 1887 0af3 04       		.byte	0x4
 1888 0af4 2F       		.byte	0x2f
 1889 0af5 030B0000 		.4byte	0xb03
 1890 0af9 2E       		.uleb128 0x2e
 1891 0afa 0E050000 		.4byte	0x50e
 1892 0afe CD030000 		.4byte	.LLST34
 1893 0b02 00       		.byte	0
 1894 0b03 32       		.uleb128 0x32
 1895 0b04 E3040000 		.4byte	0x4e3
 1896 0b08 10000000 		.4byte	.LBB303
 1897 0b0c 08000000 		.4byte	.LBE303-.LBB303
 1898 0b10 04       		.byte	0x4
 1899 0b11 2F       		.byte	0x2f
 1900 0b12 2E       		.uleb128 0x2e
 1901 0b13 F1040000 		.4byte	0x4f1
 1902 0b17 E5030000 		.4byte	.LLST35
 1903 0b1b 00       		.byte	0
 1904 0b1c 00       		.byte	0
 1905 0b1d 00       		.byte	0
 1906 0b1e 00       		.byte	0
 1907 0b1f 3D       		.uleb128 0x3d
 1908 0b20 F3060000 		.4byte	.LASF85
 1909 0b24 03       		.byte	0x3
 1910 0b25 3F       		.byte	0x3f
 1911 0b26 D9030000 		.4byte	0x3d9
 1912 0b2a 3D       		.uleb128 0x3d
 1913 0b2b C7050000 		.4byte	.LASF86
 1914 0b2f 03       		.byte	0x3
 1915 0b30 44       		.byte	0x44
 1916 0b31 D9030000 		.4byte	0x3d9
 1917 0b35 0D       		.uleb128 0xd
 1918 0b36 55030000 		.4byte	0x355
 1919 0b3a 450B0000 		.4byte	0xb45
 1920 0b3e 0E       		.uleb128 0xe
 1921 0b3f D6000000 		.4byte	0xd6
 1922 0b43 97       		.byte	0x97
 1923 0b44 00       		.byte	0
 1924 0b45 3D       		.uleb128 0x3d
 1925 0b46 DA020000 		.4byte	.LASF87
 1926 0b4a 03       		.byte	0x3
 1927 0b4b 61       		.byte	0x61
 1928 0b4c 500B0000 		.4byte	0xb50
 1929 0b50 08       		.uleb128 0x8
 1930 0b51 350B0000 		.4byte	0xb35
 1931 0b55 0D       		.uleb128 0xd
 1932 0b56 55030000 		.4byte	0x355
 1933 0b5a 650B0000 		.4byte	0xb65
 1934 0b5e 0E       		.uleb128 0xe
 1935 0b5f D6000000 		.4byte	0xd6
ARM GAS  C:\msys64\tmp\ccHb7GrS.s 			page 35


 1936 0b63 80       		.byte	0x80
 1937 0b64 00       		.byte	0
 1938 0b65 3D       		.uleb128 0x3d
 1939 0b66 1E060000 		.4byte	.LASF88
 1940 0b6a 03       		.byte	0x3
 1941 0b6b 8E       		.byte	0x8e
 1942 0b6c 700B0000 		.4byte	0xb70
 1943 0b70 08       		.uleb128 0x8
 1944 0b71 550B0000 		.4byte	0xb55
 1945 0b75 0D       		.uleb128 0xd
 1946 0b76 55030000 		.4byte	0x355
 1947 0b7a 860B0000 		.4byte	0xb86
 1948 0b7e 3E       		.uleb128 0x3e
 1949 0b7f D6000000 		.4byte	0xd6
 1950 0b83 8603     		.2byte	0x386
 1951 0b85 00       		.byte	0
 1952 0b86 3D       		.uleb128 0x3d
 1953 0b87 79040000 		.4byte	.LASF89
 1954 0b8b 03       		.byte	0x3
 1955 0b8c C0       		.byte	0xc0
 1956 0b8d 910B0000 		.4byte	0xb91
 1957 0b91 08       		.uleb128 0x8
 1958 0b92 750B0000 		.4byte	0xb75
 1959 0b96 3F       		.uleb128 0x3f
 1960 0b97 3D050000 		.4byte	.LASF90
 1961 0b9b 03       		.byte	0x3
 1962 0b9c 3201     		.2byte	0x132
 1963 0b9e A20B0000 		.4byte	0xba2
 1964 0ba2 08       		.uleb128 0x8
 1965 0ba3 750B0000 		.4byte	0xb75
 1966 0ba7 3F       		.uleb128 0x3f
 1967 0ba8 13000000 		.4byte	.LASF91
 1968 0bac 03       		.byte	0x3
 1969 0bad A501     		.2byte	0x1a5
 1970 0baf B30B0000 		.4byte	0xbb3
 1971 0bb3 08       		.uleb128 0x8
 1972 0bb4 750B0000 		.4byte	0xb75
 1973 0bb8 0D       		.uleb128 0xd
 1974 0bb9 55030000 		.4byte	0x355
 1975 0bbd C90B0000 		.4byte	0xbc9
 1976 0bc1 3E       		.uleb128 0x3e
 1977 0bc2 D6000000 		.4byte	0xd6
 1978 0bc6 0001     		.2byte	0x100
 1979 0bc8 00       		.byte	0
 1980 0bc9 3F       		.uleb128 0x3f
 1981 0bca DD030000 		.4byte	.LASF92
 1982 0bce 03       		.byte	0x3
 1983 0bcf 4602     		.2byte	0x246
 1984 0bd1 D50B0000 		.4byte	0xbd5
 1985 0bd5 08       		.uleb128 0x8
 1986 0bd6 B80B0000 		.4byte	0xbb8
 1987 0bda 3F       		.uleb128 0x3f
 1988 0bdb AD020000 		.4byte	.LASF93
 1989 0bdf 03       		.byte	0x3
 1990 0be0 5D02     		.2byte	0x25d
 1991 0be2 E60B0000 		.4byte	0xbe6
 1992 0be6 08       		.uleb128 0x8
ARM GAS  C:\msys64\tmp\ccHb7GrS.s 			page 36


 1993 0be7 B80B0000 		.4byte	0xbb8
 1994 0beb 3F       		.uleb128 0x3f
 1995 0bec 1E050000 		.4byte	.LASF94
 1996 0bf0 03       		.byte	0x3
 1997 0bf1 7502     		.2byte	0x275
 1998 0bf3 F70B0000 		.4byte	0xbf7
 1999 0bf7 08       		.uleb128 0x8
 2000 0bf8 B80B0000 		.4byte	0xbb8
 2001 0bfc 3F       		.uleb128 0x3f
 2002 0bfd 2E050000 		.4byte	.LASF95
 2003 0c01 03       		.byte	0x3
 2004 0c02 A402     		.2byte	0x2a4
 2005 0c04 080C0000 		.4byte	0xc08
 2006 0c08 08       		.uleb128 0x8
 2007 0c09 550B0000 		.4byte	0xb55
 2008 0c0d 3F       		.uleb128 0x3f
 2009 0c0e AF030000 		.4byte	.LASF96
 2010 0c12 03       		.byte	0x3
 2011 0c13 B902     		.2byte	0x2b9
 2012 0c15 190C0000 		.4byte	0xc19
 2013 0c19 08       		.uleb128 0x8
 2014 0c1a 550B0000 		.4byte	0xb55
 2015 0c1e 3F       		.uleb128 0x3f
 2016 0c1f 4B010000 		.4byte	.LASF97
 2017 0c23 03       		.byte	0x3
 2018 0c24 D602     		.2byte	0x2d6
 2019 0c26 2A0C0000 		.4byte	0xc2a
 2020 0c2a 08       		.uleb128 0x8
 2021 0c2b 550B0000 		.4byte	0xb55
 2022 0c2f 2A       		.uleb128 0x2a
 2023 0c30 706400   		.ascii	"pd\000"
 2024 0c33 01       		.byte	0x1
 2025 0c34 0D       		.byte	0xd
 2026 0c35 00020000 		.4byte	0x200
 2027 0c39 05       		.uleb128 0x5
 2028 0c3a 03       		.byte	0x3
 2029 0c3b 00000000 		.4byte	_ZL2pd
 2030 0c3f 00       		.byte	0
 2031              		.section	.debug_abbrev,"",%progbits
 2032              	.Ldebug_abbrev0:
 2033 0000 01       		.uleb128 0x1
 2034 0001 11       		.uleb128 0x11
 2035 0002 01       		.byte	0x1
 2036 0003 25       		.uleb128 0x25
 2037 0004 0E       		.uleb128 0xe
 2038 0005 13       		.uleb128 0x13
 2039 0006 0B       		.uleb128 0xb
 2040 0007 03       		.uleb128 0x3
 2041 0008 0E       		.uleb128 0xe
 2042 0009 1B       		.uleb128 0x1b
 2043 000a 0E       		.uleb128 0xe
 2044 000b 55       		.uleb128 0x55
 2045 000c 17       		.uleb128 0x17
 2046 000d 11       		.uleb128 0x11
 2047 000e 01       		.uleb128 0x1
 2048 000f 10       		.uleb128 0x10
 2049 0010 17       		.uleb128 0x17
ARM GAS  C:\msys64\tmp\ccHb7GrS.s 			page 37


 2050 0011 00       		.byte	0
 2051 0012 00       		.byte	0
 2052 0013 02       		.uleb128 0x2
 2053 0014 24       		.uleb128 0x24
 2054 0015 00       		.byte	0
 2055 0016 0B       		.uleb128 0xb
 2056 0017 0B       		.uleb128 0xb
 2057 0018 3E       		.uleb128 0x3e
 2058 0019 0B       		.uleb128 0xb
 2059 001a 03       		.uleb128 0x3
 2060 001b 0E       		.uleb128 0xe
 2061 001c 00       		.byte	0
 2062 001d 00       		.byte	0
 2063 001e 03       		.uleb128 0x3
 2064 001f 16       		.uleb128 0x16
 2065 0020 00       		.byte	0
 2066 0021 03       		.uleb128 0x3
 2067 0022 0E       		.uleb128 0xe
 2068 0023 3A       		.uleb128 0x3a
 2069 0024 0B       		.uleb128 0xb
 2070 0025 3B       		.uleb128 0x3b
 2071 0026 0B       		.uleb128 0xb
 2072 0027 49       		.uleb128 0x49
 2073 0028 13       		.uleb128 0x13
 2074 0029 00       		.byte	0
 2075 002a 00       		.byte	0
 2076 002b 04       		.uleb128 0x4
 2077 002c 24       		.uleb128 0x24
 2078 002d 00       		.byte	0
 2079 002e 0B       		.uleb128 0xb
 2080 002f 0B       		.uleb128 0xb
 2081 0030 3E       		.uleb128 0x3e
 2082 0031 0B       		.uleb128 0xb
 2083 0032 03       		.uleb128 0x3
 2084 0033 08       		.uleb128 0x8
 2085 0034 00       		.byte	0
 2086 0035 00       		.byte	0
 2087 0036 05       		.uleb128 0x5
 2088 0037 3B       		.uleb128 0x3b
 2089 0038 00       		.byte	0
 2090 0039 03       		.uleb128 0x3
 2091 003a 0E       		.uleb128 0xe
 2092 003b 00       		.byte	0
 2093 003c 00       		.byte	0
 2094 003d 06       		.uleb128 0x6
 2095 003e 16       		.uleb128 0x16
 2096 003f 00       		.byte	0
 2097 0040 03       		.uleb128 0x3
 2098 0041 0E       		.uleb128 0xe
 2099 0042 3A       		.uleb128 0x3a
 2100 0043 0B       		.uleb128 0xb
 2101 0044 3B       		.uleb128 0x3b
 2102 0045 05       		.uleb128 0x5
 2103 0046 49       		.uleb128 0x49
 2104 0047 13       		.uleb128 0x13
 2105 0048 00       		.byte	0
 2106 0049 00       		.byte	0
ARM GAS  C:\msys64\tmp\ccHb7GrS.s 			page 38


 2107 004a 07       		.uleb128 0x7
 2108 004b 0F       		.uleb128 0xf
 2109 004c 00       		.byte	0
 2110 004d 0B       		.uleb128 0xb
 2111 004e 0B       		.uleb128 0xb
 2112 004f 49       		.uleb128 0x49
 2113 0050 13       		.uleb128 0x13
 2114 0051 00       		.byte	0
 2115 0052 00       		.byte	0
 2116 0053 08       		.uleb128 0x8
 2117 0054 26       		.uleb128 0x26
 2118 0055 00       		.byte	0
 2119 0056 49       		.uleb128 0x49
 2120 0057 13       		.uleb128 0x13
 2121 0058 00       		.byte	0
 2122 0059 00       		.byte	0
 2123 005a 09       		.uleb128 0x9
 2124 005b 04       		.uleb128 0x4
 2125 005c 01       		.byte	0x1
 2126 005d 0B       		.uleb128 0xb
 2127 005e 0B       		.uleb128 0xb
 2128 005f 49       		.uleb128 0x49
 2129 0060 13       		.uleb128 0x13
 2130 0061 3A       		.uleb128 0x3a
 2131 0062 0B       		.uleb128 0xb
 2132 0063 3B       		.uleb128 0x3b
 2133 0064 0B       		.uleb128 0xb
 2134 0065 01       		.uleb128 0x1
 2135 0066 13       		.uleb128 0x13
 2136 0067 00       		.byte	0
 2137 0068 00       		.byte	0
 2138 0069 0A       		.uleb128 0xa
 2139 006a 28       		.uleb128 0x28
 2140 006b 00       		.byte	0
 2141 006c 03       		.uleb128 0x3
 2142 006d 0E       		.uleb128 0xe
 2143 006e 1C       		.uleb128 0x1c
 2144 006f 0B       		.uleb128 0xb
 2145 0070 00       		.byte	0
 2146 0071 00       		.byte	0
 2147 0072 0B       		.uleb128 0xb
 2148 0073 13       		.uleb128 0x13
 2149 0074 01       		.byte	0x1
 2150 0075 03       		.uleb128 0x3
 2151 0076 0E       		.uleb128 0xe
 2152 0077 0B       		.uleb128 0xb
 2153 0078 0B       		.uleb128 0xb
 2154 0079 3A       		.uleb128 0x3a
 2155 007a 0B       		.uleb128 0xb
 2156 007b 3B       		.uleb128 0x3b
 2157 007c 0B       		.uleb128 0xb
 2158 007d 01       		.uleb128 0x1
 2159 007e 13       		.uleb128 0x13
 2160 007f 00       		.byte	0
 2161 0080 00       		.byte	0
 2162 0081 0C       		.uleb128 0xc
 2163 0082 0D       		.uleb128 0xd
ARM GAS  C:\msys64\tmp\ccHb7GrS.s 			page 39


 2164 0083 00       		.byte	0
 2165 0084 03       		.uleb128 0x3
 2166 0085 0E       		.uleb128 0xe
 2167 0086 3A       		.uleb128 0x3a
 2168 0087 0B       		.uleb128 0xb
 2169 0088 3B       		.uleb128 0x3b
 2170 0089 0B       		.uleb128 0xb
 2171 008a 49       		.uleb128 0x49
 2172 008b 13       		.uleb128 0x13
 2173 008c 38       		.uleb128 0x38
 2174 008d 0B       		.uleb128 0xb
 2175 008e 00       		.byte	0
 2176 008f 00       		.byte	0
 2177 0090 0D       		.uleb128 0xd
 2178 0091 01       		.uleb128 0x1
 2179 0092 01       		.byte	0x1
 2180 0093 49       		.uleb128 0x49
 2181 0094 13       		.uleb128 0x13
 2182 0095 01       		.uleb128 0x1
 2183 0096 13       		.uleb128 0x13
 2184 0097 00       		.byte	0
 2185 0098 00       		.byte	0
 2186 0099 0E       		.uleb128 0xe
 2187 009a 21       		.uleb128 0x21
 2188 009b 00       		.byte	0
 2189 009c 49       		.uleb128 0x49
 2190 009d 13       		.uleb128 0x13
 2191 009e 2F       		.uleb128 0x2f
 2192 009f 0B       		.uleb128 0xb
 2193 00a0 00       		.byte	0
 2194 00a1 00       		.byte	0
 2195 00a2 0F       		.uleb128 0xf
 2196 00a3 04       		.uleb128 0x4
 2197 00a4 01       		.byte	0x1
 2198 00a5 0B       		.uleb128 0xb
 2199 00a6 0B       		.uleb128 0xb
 2200 00a7 49       		.uleb128 0x49
 2201 00a8 13       		.uleb128 0x13
 2202 00a9 3A       		.uleb128 0x3a
 2203 00aa 0B       		.uleb128 0xb
 2204 00ab 3B       		.uleb128 0x3b
 2205 00ac 0B       		.uleb128 0xb
 2206 00ad 6E       		.uleb128 0x6e
 2207 00ae 0E       		.uleb128 0xe
 2208 00af 01       		.uleb128 0x1
 2209 00b0 13       		.uleb128 0x13
 2210 00b1 00       		.byte	0
 2211 00b2 00       		.byte	0
 2212 00b3 10       		.uleb128 0x10
 2213 00b4 13       		.uleb128 0x13
 2214 00b5 01       		.byte	0x1
 2215 00b6 03       		.uleb128 0x3
 2216 00b7 08       		.uleb128 0x8
 2217 00b8 0B       		.uleb128 0xb
 2218 00b9 0B       		.uleb128 0xb
 2219 00ba 3A       		.uleb128 0x3a
 2220 00bb 0B       		.uleb128 0xb
ARM GAS  C:\msys64\tmp\ccHb7GrS.s 			page 40


 2221 00bc 3B       		.uleb128 0x3b
 2222 00bd 0B       		.uleb128 0xb
 2223 00be 01       		.uleb128 0x1
 2224 00bf 13       		.uleb128 0x13
 2225 00c0 00       		.byte	0
 2226 00c1 00       		.byte	0
 2227 00c2 11       		.uleb128 0x11
 2228 00c3 2E       		.uleb128 0x2e
 2229 00c4 01       		.byte	0x1
 2230 00c5 3F       		.uleb128 0x3f
 2231 00c6 19       		.uleb128 0x19
 2232 00c7 03       		.uleb128 0x3
 2233 00c8 0E       		.uleb128 0xe
 2234 00c9 3A       		.uleb128 0x3a
 2235 00ca 0B       		.uleb128 0xb
 2236 00cb 3B       		.uleb128 0x3b
 2237 00cc 0B       		.uleb128 0xb
 2238 00cd 6E       		.uleb128 0x6e
 2239 00ce 0E       		.uleb128 0xe
 2240 00cf 49       		.uleb128 0x49
 2241 00d0 13       		.uleb128 0x13
 2242 00d1 3C       		.uleb128 0x3c
 2243 00d2 19       		.uleb128 0x19
 2244 00d3 64       		.uleb128 0x64
 2245 00d4 13       		.uleb128 0x13
 2246 00d5 00       		.byte	0
 2247 00d6 00       		.byte	0
 2248 00d7 12       		.uleb128 0x12
 2249 00d8 05       		.uleb128 0x5
 2250 00d9 00       		.byte	0
 2251 00da 49       		.uleb128 0x49
 2252 00db 13       		.uleb128 0x13
 2253 00dc 34       		.uleb128 0x34
 2254 00dd 19       		.uleb128 0x19
 2255 00de 00       		.byte	0
 2256 00df 00       		.byte	0
 2257 00e0 13       		.uleb128 0x13
 2258 00e1 0D       		.uleb128 0xd
 2259 00e2 00       		.byte	0
 2260 00e3 03       		.uleb128 0x3
 2261 00e4 08       		.uleb128 0x8
 2262 00e5 3A       		.uleb128 0x3a
 2263 00e6 0B       		.uleb128 0xb
 2264 00e7 3B       		.uleb128 0x3b
 2265 00e8 0B       		.uleb128 0xb
 2266 00e9 49       		.uleb128 0x49
 2267 00ea 13       		.uleb128 0x13
 2268 00eb 38       		.uleb128 0x38
 2269 00ec 0B       		.uleb128 0xb
 2270 00ed 00       		.byte	0
 2271 00ee 00       		.byte	0
 2272 00ef 14       		.uleb128 0x14
 2273 00f0 0D       		.uleb128 0xd
 2274 00f1 00       		.byte	0
 2275 00f2 03       		.uleb128 0x3
 2276 00f3 0E       		.uleb128 0xe
 2277 00f4 3A       		.uleb128 0x3a
ARM GAS  C:\msys64\tmp\ccHb7GrS.s 			page 41


 2278 00f5 0B       		.uleb128 0xb
 2279 00f6 3B       		.uleb128 0x3b
 2280 00f7 0B       		.uleb128 0xb
 2281 00f8 49       		.uleb128 0x49
 2282 00f9 13       		.uleb128 0x13
 2283 00fa 0B       		.uleb128 0xb
 2284 00fb 0B       		.uleb128 0xb
 2285 00fc 0D       		.uleb128 0xd
 2286 00fd 0B       		.uleb128 0xb
 2287 00fe 0C       		.uleb128 0xc
 2288 00ff 0B       		.uleb128 0xb
 2289 0100 38       		.uleb128 0x38
 2290 0101 0B       		.uleb128 0xb
 2291 0102 00       		.byte	0
 2292 0103 00       		.byte	0
 2293 0104 15       		.uleb128 0x15
 2294 0105 2E       		.uleb128 0x2e
 2295 0106 01       		.byte	0x1
 2296 0107 3F       		.uleb128 0x3f
 2297 0108 19       		.uleb128 0x19
 2298 0109 03       		.uleb128 0x3
 2299 010a 0E       		.uleb128 0xe
 2300 010b 3A       		.uleb128 0x3a
 2301 010c 0B       		.uleb128 0xb
 2302 010d 3B       		.uleb128 0x3b
 2303 010e 0B       		.uleb128 0xb
 2304 010f 6E       		.uleb128 0x6e
 2305 0110 0E       		.uleb128 0xe
 2306 0111 49       		.uleb128 0x49
 2307 0112 13       		.uleb128 0x13
 2308 0113 3C       		.uleb128 0x3c
 2309 0114 19       		.uleb128 0x19
 2310 0115 64       		.uleb128 0x64
 2311 0116 13       		.uleb128 0x13
 2312 0117 01       		.uleb128 0x1
 2313 0118 13       		.uleb128 0x13
 2314 0119 00       		.byte	0
 2315 011a 00       		.byte	0
 2316 011b 16       		.uleb128 0x16
 2317 011c 2E       		.uleb128 0x2e
 2318 011d 01       		.byte	0x1
 2319 011e 3F       		.uleb128 0x3f
 2320 011f 19       		.uleb128 0x19
 2321 0120 03       		.uleb128 0x3
 2322 0121 0E       		.uleb128 0xe
 2323 0122 3A       		.uleb128 0x3a
 2324 0123 0B       		.uleb128 0xb
 2325 0124 3B       		.uleb128 0x3b
 2326 0125 0B       		.uleb128 0xb
 2327 0126 6E       		.uleb128 0x6e
 2328 0127 0E       		.uleb128 0xe
 2329 0128 3C       		.uleb128 0x3c
 2330 0129 19       		.uleb128 0x19
 2331 012a 64       		.uleb128 0x64
 2332 012b 13       		.uleb128 0x13
 2333 012c 00       		.byte	0
 2334 012d 00       		.byte	0
ARM GAS  C:\msys64\tmp\ccHb7GrS.s 			page 42


 2335 012e 17       		.uleb128 0x17
 2336 012f 2E       		.uleb128 0x2e
 2337 0130 01       		.byte	0x1
 2338 0131 3F       		.uleb128 0x3f
 2339 0132 19       		.uleb128 0x19
 2340 0133 03       		.uleb128 0x3
 2341 0134 08       		.uleb128 0x8
 2342 0135 3A       		.uleb128 0x3a
 2343 0136 0B       		.uleb128 0xb
 2344 0137 3B       		.uleb128 0x3b
 2345 0138 0B       		.uleb128 0xb
 2346 0139 6E       		.uleb128 0x6e
 2347 013a 0E       		.uleb128 0xe
 2348 013b 49       		.uleb128 0x49
 2349 013c 13       		.uleb128 0x13
 2350 013d 3C       		.uleb128 0x3c
 2351 013e 19       		.uleb128 0x19
 2352 013f 64       		.uleb128 0x64
 2353 0140 13       		.uleb128 0x13
 2354 0141 01       		.uleb128 0x1
 2355 0142 13       		.uleb128 0x13
 2356 0143 00       		.byte	0
 2357 0144 00       		.byte	0
 2358 0145 18       		.uleb128 0x18
 2359 0146 05       		.uleb128 0x5
 2360 0147 00       		.byte	0
 2361 0148 49       		.uleb128 0x49
 2362 0149 13       		.uleb128 0x13
 2363 014a 00       		.byte	0
 2364 014b 00       		.byte	0
 2365 014c 19       		.uleb128 0x19
 2366 014d 2E       		.uleb128 0x2e
 2367 014e 01       		.byte	0x1
 2368 014f 03       		.uleb128 0x3
 2369 0150 0E       		.uleb128 0xe
 2370 0151 3A       		.uleb128 0x3a
 2371 0152 0B       		.uleb128 0xb
 2372 0153 3B       		.uleb128 0x3b
 2373 0154 0B       		.uleb128 0xb
 2374 0155 49       		.uleb128 0x49
 2375 0156 13       		.uleb128 0x13
 2376 0157 20       		.uleb128 0x20
 2377 0158 0B       		.uleb128 0xb
 2378 0159 01       		.uleb128 0x1
 2379 015a 13       		.uleb128 0x13
 2380 015b 00       		.byte	0
 2381 015c 00       		.byte	0
 2382 015d 1A       		.uleb128 0x1a
 2383 015e 05       		.uleb128 0x5
 2384 015f 00       		.byte	0
 2385 0160 03       		.uleb128 0x3
 2386 0161 08       		.uleb128 0x8
 2387 0162 3A       		.uleb128 0x3a
 2388 0163 0B       		.uleb128 0xb
 2389 0164 3B       		.uleb128 0x3b
 2390 0165 0B       		.uleb128 0xb
 2391 0166 49       		.uleb128 0x49
ARM GAS  C:\msys64\tmp\ccHb7GrS.s 			page 43


 2392 0167 13       		.uleb128 0x13
 2393 0168 00       		.byte	0
 2394 0169 00       		.byte	0
 2395 016a 1B       		.uleb128 0x1b
 2396 016b 2E       		.uleb128 0x2e
 2397 016c 01       		.byte	0x1
 2398 016d 03       		.uleb128 0x3
 2399 016e 0E       		.uleb128 0xe
 2400 016f 3A       		.uleb128 0x3a
 2401 0170 0B       		.uleb128 0xb
 2402 0171 3B       		.uleb128 0x3b
 2403 0172 05       		.uleb128 0x5
 2404 0173 49       		.uleb128 0x49
 2405 0174 13       		.uleb128 0x13
 2406 0175 20       		.uleb128 0x20
 2407 0176 0B       		.uleb128 0xb
 2408 0177 01       		.uleb128 0x1
 2409 0178 13       		.uleb128 0x13
 2410 0179 00       		.byte	0
 2411 017a 00       		.byte	0
 2412 017b 1C       		.uleb128 0x1c
 2413 017c 05       		.uleb128 0x5
 2414 017d 00       		.byte	0
 2415 017e 03       		.uleb128 0x3
 2416 017f 08       		.uleb128 0x8
 2417 0180 3A       		.uleb128 0x3a
 2418 0181 0B       		.uleb128 0xb
 2419 0182 3B       		.uleb128 0x3b
 2420 0183 05       		.uleb128 0x5
 2421 0184 49       		.uleb128 0x49
 2422 0185 13       		.uleb128 0x13
 2423 0186 00       		.byte	0
 2424 0187 00       		.byte	0
 2425 0188 1D       		.uleb128 0x1d
 2426 0189 05       		.uleb128 0x5
 2427 018a 00       		.byte	0
 2428 018b 03       		.uleb128 0x3
 2429 018c 0E       		.uleb128 0xe
 2430 018d 3A       		.uleb128 0x3a
 2431 018e 0B       		.uleb128 0xb
 2432 018f 3B       		.uleb128 0x3b
 2433 0190 0B       		.uleb128 0xb
 2434 0191 49       		.uleb128 0x49
 2435 0192 13       		.uleb128 0x13
 2436 0193 00       		.byte	0
 2437 0194 00       		.byte	0
 2438 0195 1E       		.uleb128 0x1e
 2439 0196 34       		.uleb128 0x34
 2440 0197 00       		.byte	0
 2441 0198 03       		.uleb128 0x3
 2442 0199 08       		.uleb128 0x8
 2443 019a 3A       		.uleb128 0x3a
 2444 019b 0B       		.uleb128 0xb
 2445 019c 3B       		.uleb128 0x3b
 2446 019d 0B       		.uleb128 0xb
 2447 019e 49       		.uleb128 0x49
 2448 019f 13       		.uleb128 0x13
ARM GAS  C:\msys64\tmp\ccHb7GrS.s 			page 44


 2449 01a0 00       		.byte	0
 2450 01a1 00       		.byte	0
 2451 01a2 1F       		.uleb128 0x1f
 2452 01a3 2E       		.uleb128 0x2e
 2453 01a4 01       		.byte	0x1
 2454 01a5 47       		.uleb128 0x47
 2455 01a6 13       		.uleb128 0x13
 2456 01a7 20       		.uleb128 0x20
 2457 01a8 0B       		.uleb128 0xb
 2458 01a9 64       		.uleb128 0x64
 2459 01aa 13       		.uleb128 0x13
 2460 01ab 01       		.uleb128 0x1
 2461 01ac 13       		.uleb128 0x13
 2462 01ad 00       		.byte	0
 2463 01ae 00       		.byte	0
 2464 01af 20       		.uleb128 0x20
 2465 01b0 05       		.uleb128 0x5
 2466 01b1 00       		.byte	0
 2467 01b2 03       		.uleb128 0x3
 2468 01b3 0E       		.uleb128 0xe
 2469 01b4 49       		.uleb128 0x49
 2470 01b5 13       		.uleb128 0x13
 2471 01b6 34       		.uleb128 0x34
 2472 01b7 19       		.uleb128 0x19
 2473 01b8 00       		.byte	0
 2474 01b9 00       		.byte	0
 2475 01ba 21       		.uleb128 0x21
 2476 01bb 0B       		.uleb128 0xb
 2477 01bc 01       		.byte	0x1
 2478 01bd 01       		.uleb128 0x1
 2479 01be 13       		.uleb128 0x13
 2480 01bf 00       		.byte	0
 2481 01c0 00       		.byte	0
 2482 01c1 22       		.uleb128 0x22
 2483 01c2 34       		.uleb128 0x34
 2484 01c3 00       		.byte	0
 2485 01c4 03       		.uleb128 0x3
 2486 01c5 0E       		.uleb128 0xe
 2487 01c6 3A       		.uleb128 0x3a
 2488 01c7 0B       		.uleb128 0xb
 2489 01c8 3B       		.uleb128 0x3b
 2490 01c9 0B       		.uleb128 0xb
 2491 01ca 49       		.uleb128 0x49
 2492 01cb 13       		.uleb128 0x13
 2493 01cc 00       		.byte	0
 2494 01cd 00       		.byte	0
 2495 01ce 23       		.uleb128 0x23
 2496 01cf 0B       		.uleb128 0xb
 2497 01d0 01       		.byte	0x1
 2498 01d1 00       		.byte	0
 2499 01d2 00       		.byte	0
 2500 01d3 24       		.uleb128 0x24
 2501 01d4 2E       		.uleb128 0x2e
 2502 01d5 01       		.byte	0x1
 2503 01d6 03       		.uleb128 0x3
 2504 01d7 0E       		.uleb128 0xe
 2505 01d8 34       		.uleb128 0x34
ARM GAS  C:\msys64\tmp\ccHb7GrS.s 			page 45


 2506 01d9 19       		.uleb128 0x19
 2507 01da 20       		.uleb128 0x20
 2508 01db 0B       		.uleb128 0xb
 2509 01dc 01       		.uleb128 0x1
 2510 01dd 13       		.uleb128 0x13
 2511 01de 00       		.byte	0
 2512 01df 00       		.byte	0
 2513 01e0 25       		.uleb128 0x25
 2514 01e1 2E       		.uleb128 0x2e
 2515 01e2 01       		.byte	0x1
 2516 01e3 3F       		.uleb128 0x3f
 2517 01e4 19       		.uleb128 0x19
 2518 01e5 03       		.uleb128 0x3
 2519 01e6 0E       		.uleb128 0xe
 2520 01e7 3A       		.uleb128 0x3a
 2521 01e8 0B       		.uleb128 0xb
 2522 01e9 3B       		.uleb128 0x3b
 2523 01ea 0B       		.uleb128 0xb
 2524 01eb 11       		.uleb128 0x11
 2525 01ec 01       		.uleb128 0x1
 2526 01ed 12       		.uleb128 0x12
 2527 01ee 06       		.uleb128 0x6
 2528 01ef 40       		.uleb128 0x40
 2529 01f0 18       		.uleb128 0x18
 2530 01f1 9742     		.uleb128 0x2117
 2531 01f3 19       		.uleb128 0x19
 2532 01f4 01       		.uleb128 0x1
 2533 01f5 13       		.uleb128 0x13
 2534 01f6 00       		.byte	0
 2535 01f7 00       		.byte	0
 2536 01f8 26       		.uleb128 0x26
 2537 01f9 05       		.uleb128 0x5
 2538 01fa 00       		.byte	0
 2539 01fb 03       		.uleb128 0x3
 2540 01fc 0E       		.uleb128 0xe
 2541 01fd 3A       		.uleb128 0x3a
 2542 01fe 0B       		.uleb128 0xb
 2543 01ff 3B       		.uleb128 0x3b
 2544 0200 0B       		.uleb128 0xb
 2545 0201 49       		.uleb128 0x49
 2546 0202 13       		.uleb128 0x13
 2547 0203 02       		.uleb128 0x2
 2548 0204 18       		.uleb128 0x18
 2549 0205 00       		.byte	0
 2550 0206 00       		.byte	0
 2551 0207 27       		.uleb128 0x27
 2552 0208 05       		.uleb128 0x5
 2553 0209 00       		.byte	0
 2554 020a 03       		.uleb128 0x3
 2555 020b 08       		.uleb128 0x8
 2556 020c 3A       		.uleb128 0x3a
 2557 020d 0B       		.uleb128 0xb
 2558 020e 3B       		.uleb128 0x3b
 2559 020f 0B       		.uleb128 0xb
 2560 0210 49       		.uleb128 0x49
 2561 0211 13       		.uleb128 0x13
 2562 0212 02       		.uleb128 0x2
ARM GAS  C:\msys64\tmp\ccHb7GrS.s 			page 46


 2563 0213 18       		.uleb128 0x18
 2564 0214 00       		.byte	0
 2565 0215 00       		.byte	0
 2566 0216 28       		.uleb128 0x28
 2567 0217 05       		.uleb128 0x5
 2568 0218 00       		.byte	0
 2569 0219 03       		.uleb128 0x3
 2570 021a 0E       		.uleb128 0xe
 2571 021b 3A       		.uleb128 0x3a
 2572 021c 0B       		.uleb128 0xb
 2573 021d 3B       		.uleb128 0x3b
 2574 021e 0B       		.uleb128 0xb
 2575 021f 49       		.uleb128 0x49
 2576 0220 13       		.uleb128 0x13
 2577 0221 02       		.uleb128 0x2
 2578 0222 17       		.uleb128 0x17
 2579 0223 00       		.byte	0
 2580 0224 00       		.byte	0
 2581 0225 29       		.uleb128 0x29
 2582 0226 05       		.uleb128 0x5
 2583 0227 00       		.byte	0
 2584 0228 03       		.uleb128 0x3
 2585 0229 08       		.uleb128 0x8
 2586 022a 3A       		.uleb128 0x3a
 2587 022b 0B       		.uleb128 0xb
 2588 022c 3B       		.uleb128 0x3b
 2589 022d 0B       		.uleb128 0xb
 2590 022e 49       		.uleb128 0x49
 2591 022f 13       		.uleb128 0x13
 2592 0230 02       		.uleb128 0x2
 2593 0231 17       		.uleb128 0x17
 2594 0232 00       		.byte	0
 2595 0233 00       		.byte	0
 2596 0234 2A       		.uleb128 0x2a
 2597 0235 34       		.uleb128 0x34
 2598 0236 00       		.byte	0
 2599 0237 03       		.uleb128 0x3
 2600 0238 08       		.uleb128 0x8
 2601 0239 3A       		.uleb128 0x3a
 2602 023a 0B       		.uleb128 0xb
 2603 023b 3B       		.uleb128 0x3b
 2604 023c 0B       		.uleb128 0xb
 2605 023d 49       		.uleb128 0x49
 2606 023e 13       		.uleb128 0x13
 2607 023f 02       		.uleb128 0x2
 2608 0240 18       		.uleb128 0x18
 2609 0241 00       		.byte	0
 2610 0242 00       		.byte	0
 2611 0243 2B       		.uleb128 0x2b
 2612 0244 34       		.uleb128 0x34
 2613 0245 00       		.byte	0
 2614 0246 03       		.uleb128 0x3
 2615 0247 0E       		.uleb128 0xe
 2616 0248 3A       		.uleb128 0x3a
 2617 0249 0B       		.uleb128 0xb
 2618 024a 3B       		.uleb128 0x3b
 2619 024b 0B       		.uleb128 0xb
ARM GAS  C:\msys64\tmp\ccHb7GrS.s 			page 47


 2620 024c 49       		.uleb128 0x49
 2621 024d 13       		.uleb128 0x13
 2622 024e 02       		.uleb128 0x2
 2623 024f 17       		.uleb128 0x17
 2624 0250 00       		.byte	0
 2625 0251 00       		.byte	0
 2626 0252 2C       		.uleb128 0x2c
 2627 0253 34       		.uleb128 0x34
 2628 0254 00       		.byte	0
 2629 0255 03       		.uleb128 0x3
 2630 0256 08       		.uleb128 0x8
 2631 0257 3A       		.uleb128 0x3a
 2632 0258 0B       		.uleb128 0xb
 2633 0259 3B       		.uleb128 0x3b
 2634 025a 0B       		.uleb128 0xb
 2635 025b 49       		.uleb128 0x49
 2636 025c 13       		.uleb128 0x13
 2637 025d 02       		.uleb128 0x2
 2638 025e 17       		.uleb128 0x17
 2639 025f 00       		.byte	0
 2640 0260 00       		.byte	0
 2641 0261 2D       		.uleb128 0x2d
 2642 0262 1D       		.uleb128 0x1d
 2643 0263 01       		.byte	0x1
 2644 0264 31       		.uleb128 0x31
 2645 0265 13       		.uleb128 0x13
 2646 0266 52       		.uleb128 0x52
 2647 0267 01       		.uleb128 0x1
 2648 0268 55       		.uleb128 0x55
 2649 0269 17       		.uleb128 0x17
 2650 026a 58       		.uleb128 0x58
 2651 026b 0B       		.uleb128 0xb
 2652 026c 59       		.uleb128 0x59
 2653 026d 0B       		.uleb128 0xb
 2654 026e 01       		.uleb128 0x1
 2655 026f 13       		.uleb128 0x13
 2656 0270 00       		.byte	0
 2657 0271 00       		.byte	0
 2658 0272 2E       		.uleb128 0x2e
 2659 0273 05       		.uleb128 0x5
 2660 0274 00       		.byte	0
 2661 0275 31       		.uleb128 0x31
 2662 0276 13       		.uleb128 0x13
 2663 0277 02       		.uleb128 0x2
 2664 0278 17       		.uleb128 0x17
 2665 0279 00       		.byte	0
 2666 027a 00       		.byte	0
 2667 027b 2F       		.uleb128 0x2f
 2668 027c 05       		.uleb128 0x5
 2669 027d 00       		.byte	0
 2670 027e 31       		.uleb128 0x31
 2671 027f 13       		.uleb128 0x13
 2672 0280 00       		.byte	0
 2673 0281 00       		.byte	0
 2674 0282 30       		.uleb128 0x30
 2675 0283 0B       		.uleb128 0xb
 2676 0284 01       		.byte	0x1
ARM GAS  C:\msys64\tmp\ccHb7GrS.s 			page 48


 2677 0285 55       		.uleb128 0x55
 2678 0286 17       		.uleb128 0x17
 2679 0287 00       		.byte	0
 2680 0288 00       		.byte	0
 2681 0289 31       		.uleb128 0x31
 2682 028a 34       		.uleb128 0x34
 2683 028b 00       		.byte	0
 2684 028c 31       		.uleb128 0x31
 2685 028d 13       		.uleb128 0x13
 2686 028e 00       		.byte	0
 2687 028f 00       		.byte	0
 2688 0290 32       		.uleb128 0x32
 2689 0291 1D       		.uleb128 0x1d
 2690 0292 01       		.byte	0x1
 2691 0293 31       		.uleb128 0x31
 2692 0294 13       		.uleb128 0x13
 2693 0295 11       		.uleb128 0x11
 2694 0296 01       		.uleb128 0x1
 2695 0297 12       		.uleb128 0x12
 2696 0298 06       		.uleb128 0x6
 2697 0299 58       		.uleb128 0x58
 2698 029a 0B       		.uleb128 0xb
 2699 029b 59       		.uleb128 0x59
 2700 029c 0B       		.uleb128 0xb
 2701 029d 00       		.byte	0
 2702 029e 00       		.byte	0
 2703 029f 33       		.uleb128 0x33
 2704 02a0 1D       		.uleb128 0x1d
 2705 02a1 01       		.byte	0x1
 2706 02a2 31       		.uleb128 0x31
 2707 02a3 13       		.uleb128 0x13
 2708 02a4 11       		.uleb128 0x11
 2709 02a5 01       		.uleb128 0x1
 2710 02a6 12       		.uleb128 0x12
 2711 02a7 06       		.uleb128 0x6
 2712 02a8 58       		.uleb128 0x58
 2713 02a9 0B       		.uleb128 0xb
 2714 02aa 59       		.uleb128 0x59
 2715 02ab 05       		.uleb128 0x5
 2716 02ac 00       		.byte	0
 2717 02ad 00       		.byte	0
 2718 02ae 34       		.uleb128 0x34
 2719 02af 0B       		.uleb128 0xb
 2720 02b0 01       		.byte	0x1
 2721 02b1 55       		.uleb128 0x55
 2722 02b2 17       		.uleb128 0x17
 2723 02b3 01       		.uleb128 0x1
 2724 02b4 13       		.uleb128 0x13
 2725 02b5 00       		.byte	0
 2726 02b6 00       		.byte	0
 2727 02b7 35       		.uleb128 0x35
 2728 02b8 34       		.uleb128 0x34
 2729 02b9 00       		.byte	0
 2730 02ba 31       		.uleb128 0x31
 2731 02bb 13       		.uleb128 0x13
 2732 02bc 02       		.uleb128 0x2
 2733 02bd 17       		.uleb128 0x17
ARM GAS  C:\msys64\tmp\ccHb7GrS.s 			page 49


 2734 02be 00       		.byte	0
 2735 02bf 00       		.byte	0
 2736 02c0 36       		.uleb128 0x36
 2737 02c1 1D       		.uleb128 0x1d
 2738 02c2 01       		.byte	0x1
 2739 02c3 31       		.uleb128 0x31
 2740 02c4 13       		.uleb128 0x13
 2741 02c5 52       		.uleb128 0x52
 2742 02c6 01       		.uleb128 0x1
 2743 02c7 55       		.uleb128 0x55
 2744 02c8 17       		.uleb128 0x17
 2745 02c9 58       		.uleb128 0x58
 2746 02ca 0B       		.uleb128 0xb
 2747 02cb 59       		.uleb128 0x59
 2748 02cc 0B       		.uleb128 0xb
 2749 02cd 00       		.byte	0
 2750 02ce 00       		.byte	0
 2751 02cf 37       		.uleb128 0x37
 2752 02d0 0B       		.uleb128 0xb
 2753 02d1 01       		.byte	0x1
 2754 02d2 11       		.uleb128 0x11
 2755 02d3 01       		.uleb128 0x1
 2756 02d4 12       		.uleb128 0x12
 2757 02d5 06       		.uleb128 0x6
 2758 02d6 00       		.byte	0
 2759 02d7 00       		.byte	0
 2760 02d8 38       		.uleb128 0x38
 2761 02d9 1D       		.uleb128 0x1d
 2762 02da 01       		.byte	0x1
 2763 02db 31       		.uleb128 0x31
 2764 02dc 13       		.uleb128 0x13
 2765 02dd 52       		.uleb128 0x52
 2766 02de 01       		.uleb128 0x1
 2767 02df 55       		.uleb128 0x55
 2768 02e0 17       		.uleb128 0x17
 2769 02e1 58       		.uleb128 0x58
 2770 02e2 0B       		.uleb128 0xb
 2771 02e3 59       		.uleb128 0x59
 2772 02e4 05       		.uleb128 0x5
 2773 02e5 00       		.byte	0
 2774 02e6 00       		.byte	0
 2775 02e7 39       		.uleb128 0x39
 2776 02e8 05       		.uleb128 0x5
 2777 02e9 00       		.byte	0
 2778 02ea 31       		.uleb128 0x31
 2779 02eb 13       		.uleb128 0x13
 2780 02ec 02       		.uleb128 0x2
 2781 02ed 18       		.uleb128 0x18
 2782 02ee 00       		.byte	0
 2783 02ef 00       		.byte	0
 2784 02f0 3A       		.uleb128 0x3a
 2785 02f1 10       		.uleb128 0x10
 2786 02f2 00       		.byte	0
 2787 02f3 0B       		.uleb128 0xb
 2788 02f4 0B       		.uleb128 0xb
 2789 02f5 49       		.uleb128 0x49
 2790 02f6 13       		.uleb128 0x13
ARM GAS  C:\msys64\tmp\ccHb7GrS.s 			page 50


 2791 02f7 00       		.byte	0
 2792 02f8 00       		.byte	0
 2793 02f9 3B       		.uleb128 0x3b
 2794 02fa 2E       		.uleb128 0x2e
 2795 02fb 01       		.byte	0x1
 2796 02fc 03       		.uleb128 0x3
 2797 02fd 0E       		.uleb128 0xe
 2798 02fe 34       		.uleb128 0x34
 2799 02ff 19       		.uleb128 0x19
 2800 0300 11       		.uleb128 0x11
 2801 0301 01       		.uleb128 0x1
 2802 0302 12       		.uleb128 0x12
 2803 0303 06       		.uleb128 0x6
 2804 0304 40       		.uleb128 0x40
 2805 0305 18       		.uleb128 0x18
 2806 0306 9742     		.uleb128 0x2117
 2807 0308 19       		.uleb128 0x19
 2808 0309 01       		.uleb128 0x1
 2809 030a 13       		.uleb128 0x13
 2810 030b 00       		.byte	0
 2811 030c 00       		.byte	0
 2812 030d 3C       		.uleb128 0x3c
 2813 030e 1D       		.uleb128 0x1d
 2814 030f 01       		.byte	0x1
 2815 0310 31       		.uleb128 0x31
 2816 0311 13       		.uleb128 0x13
 2817 0312 11       		.uleb128 0x11
 2818 0313 01       		.uleb128 0x1
 2819 0314 12       		.uleb128 0x12
 2820 0315 06       		.uleb128 0x6
 2821 0316 58       		.uleb128 0x58
 2822 0317 0B       		.uleb128 0xb
 2823 0318 59       		.uleb128 0x59
 2824 0319 0B       		.uleb128 0xb
 2825 031a 01       		.uleb128 0x1
 2826 031b 13       		.uleb128 0x13
 2827 031c 00       		.byte	0
 2828 031d 00       		.byte	0
 2829 031e 3D       		.uleb128 0x3d
 2830 031f 34       		.uleb128 0x34
 2831 0320 00       		.byte	0
 2832 0321 03       		.uleb128 0x3
 2833 0322 0E       		.uleb128 0xe
 2834 0323 3A       		.uleb128 0x3a
 2835 0324 0B       		.uleb128 0xb
 2836 0325 3B       		.uleb128 0x3b
 2837 0326 0B       		.uleb128 0xb
 2838 0327 49       		.uleb128 0x49
 2839 0328 13       		.uleb128 0x13
 2840 0329 3F       		.uleb128 0x3f
 2841 032a 19       		.uleb128 0x19
 2842 032b 3C       		.uleb128 0x3c
 2843 032c 19       		.uleb128 0x19
 2844 032d 00       		.byte	0
 2845 032e 00       		.byte	0
 2846 032f 3E       		.uleb128 0x3e
 2847 0330 21       		.uleb128 0x21
ARM GAS  C:\msys64\tmp\ccHb7GrS.s 			page 51


 2848 0331 00       		.byte	0
 2849 0332 49       		.uleb128 0x49
 2850 0333 13       		.uleb128 0x13
 2851 0334 2F       		.uleb128 0x2f
 2852 0335 05       		.uleb128 0x5
 2853 0336 00       		.byte	0
 2854 0337 00       		.byte	0
 2855 0338 3F       		.uleb128 0x3f
 2856 0339 34       		.uleb128 0x34
 2857 033a 00       		.byte	0
 2858 033b 03       		.uleb128 0x3
 2859 033c 0E       		.uleb128 0xe
 2860 033d 3A       		.uleb128 0x3a
 2861 033e 0B       		.uleb128 0xb
 2862 033f 3B       		.uleb128 0x3b
 2863 0340 05       		.uleb128 0x5
 2864 0341 49       		.uleb128 0x49
 2865 0342 13       		.uleb128 0x13
 2866 0343 3F       		.uleb128 0x3f
 2867 0344 19       		.uleb128 0x19
 2868 0345 3C       		.uleb128 0x3c
 2869 0346 19       		.uleb128 0x19
 2870 0347 00       		.byte	0
 2871 0348 00       		.byte	0
 2872 0349 00       		.byte	0
 2873              		.section	.debug_loc,"",%progbits
 2874              	.Ldebug_loc0:
 2875              	.LLST0:
 2876 0000 02000000 		.4byte	.LVL1
 2877 0004 08000000 		.4byte	.LVL2
 2878 0008 0100     		.2byte	0x1
 2879 000a 50       		.byte	0x50
 2880 000b 08000000 		.4byte	.LVL2
 2881 000f 98010000 		.4byte	.LFE251
 2882 0013 0400     		.2byte	0x4
 2883 0015 F3       		.byte	0xf3
 2884 0016 01       		.uleb128 0x1
 2885 0017 50       		.byte	0x50
 2886 0018 9F       		.byte	0x9f
 2887 0019 00000000 		.4byte	0
 2888 001d 00000000 		.4byte	0
 2889              	.LLST1:
 2890 0021 02000000 		.4byte	.LVL1
 2891 0025 A6000000 		.4byte	.LVL18
 2892 0029 0100     		.2byte	0x1
 2893 002b 51       		.byte	0x51
 2894 002c A6000000 		.4byte	.LVL18
 2895 0030 98010000 		.4byte	.LFE251
 2896 0034 0400     		.2byte	0x4
 2897 0036 F3       		.byte	0xf3
 2898 0037 01       		.uleb128 0x1
 2899 0038 51       		.byte	0x51
 2900 0039 9F       		.byte	0x9f
 2901 003a 00000000 		.4byte	0
 2902 003e 00000000 		.4byte	0
 2903              	.LLST2:
 2904 0042 02000000 		.4byte	.LVL1
ARM GAS  C:\msys64\tmp\ccHb7GrS.s 			page 52


 2905 0046 74000000 		.4byte	.LVL13
 2906 004a 0100     		.2byte	0x1
 2907 004c 52       		.byte	0x52
 2908 004d 74000000 		.4byte	.LVL13
 2909 0051 98010000 		.4byte	.LFE251
 2910 0055 0400     		.2byte	0x4
 2911 0057 F3       		.byte	0xf3
 2912 0058 01       		.uleb128 0x1
 2913 0059 52       		.byte	0x52
 2914 005a 9F       		.byte	0x9f
 2915 005b 00000000 		.4byte	0
 2916 005f 00000000 		.4byte	0
 2917              	.LLST3:
 2918 0063 0A000000 		.4byte	.LVL3
 2919 0067 22000000 		.4byte	.LVL4
 2920 006b 0500     		.2byte	0x5
 2921 006d 73       		.byte	0x73
 2922 006e 00       		.sleb128 0
 2923 006f 31       		.byte	0x31
 2924 0070 1A       		.byte	0x1a
 2925 0071 9F       		.byte	0x9f
 2926 0072 22000000 		.4byte	.LVL4
 2927 0076 98010000 		.4byte	.LFE251
 2928 007a 0D00     		.2byte	0xd
 2929 007c 03       		.byte	0x3
 2930 007d 08000000 		.4byte	_ZL2pd+8
 2931 0081 94       		.byte	0x94
 2932 0082 01       		.byte	0x1
 2933 0083 31       		.byte	0x31
 2934 0084 1A       		.byte	0x1a
 2935 0085 08       		.byte	0x8
 2936 0086 FF       		.byte	0xff
 2937 0087 1A       		.byte	0x1a
 2938 0088 9F       		.byte	0x9f
 2939 0089 00000000 		.4byte	0
 2940 008d 00000000 		.4byte	0
 2941              	.LLST4:
 2942 0091 2A000000 		.4byte	.LVL5
 2943 0095 3C000000 		.4byte	.LVL6
 2944 0099 0100     		.2byte	0x1
 2945 009b 53       		.byte	0x53
 2946 009c 3C000000 		.4byte	.LVL6
 2947 00a0 3E000000 		.4byte	.LVL7
 2948 00a4 0300     		.2byte	0x3
 2949 00a6 73       		.byte	0x73
 2950 00a7 7F       		.sleb128 -1
 2951 00a8 9F       		.byte	0x9f
 2952 00a9 3E000000 		.4byte	.LVL7
 2953 00ad 98010000 		.4byte	.LFE251
 2954 00b1 0E00     		.2byte	0xe
 2955 00b3 F3       		.byte	0xf3
 2956 00b4 01       		.uleb128 0x1
 2957 00b5 50       		.byte	0x50
 2958 00b6 23       		.byte	0x23
 2959 00b7 04       		.uleb128 0x4
 2960 00b8 94       		.byte	0x94
 2961 00b9 02       		.byte	0x2
ARM GAS  C:\msys64\tmp\ccHb7GrS.s 			page 53


 2962 00ba 0A       		.byte	0xa
 2963 00bb FFFF     		.2byte	0xffff
 2964 00bd 1A       		.byte	0x1a
 2965 00be 38       		.byte	0x38
 2966 00bf 26       		.byte	0x26
 2967 00c0 9F       		.byte	0x9f
 2968 00c1 00000000 		.4byte	0
 2969 00c5 00000000 		.4byte	0
 2970              	.LLST5:
 2971 00c9 9A000000 		.4byte	.LVL17
 2972 00cd 5E010000 		.4byte	.LVL41
 2973 00d1 0100     		.2byte	0x1
 2974 00d3 51       		.byte	0x51
 2975 00d4 5E010000 		.4byte	.LVL41
 2976 00d8 6C010000 		.4byte	.LVL43
 2977 00dc 0300     		.2byte	0x3
 2978 00de 71       		.byte	0x71
 2979 00df 7C       		.sleb128 -4
 2980 00e0 9F       		.byte	0x9f
 2981 00e1 6C010000 		.4byte	.LVL43
 2982 00e5 98010000 		.4byte	.LFE251
 2983 00e9 0100     		.2byte	0x1
 2984 00eb 51       		.byte	0x51
 2985 00ec 00000000 		.4byte	0
 2986 00f0 00000000 		.4byte	0
 2987              	.LLST6:
 2988 00f4 42000000 		.4byte	.LVL8
 2989 00f8 48000000 		.4byte	.LVL10
 2990 00fc 0100     		.2byte	0x1
 2991 00fe 50       		.byte	0x50
 2992 00ff 48000000 		.4byte	.LVL10
 2993 0103 56000000 		.4byte	.LVL11
 2994 0107 0200     		.2byte	0x2
 2995 0109 90       		.byte	0x90
 2996 010a 4F       		.uleb128 0x4f
 2997 010b 56000000 		.4byte	.LVL11
 2998 010f 92000000 		.4byte	.LVL16
 2999 0113 0800     		.2byte	0x8
 3000 0115 F3       		.byte	0xf3
 3001 0116 01       		.uleb128 0x1
 3002 0117 50       		.byte	0x50
 3003 0118 23       		.byte	0x23
 3004 0119 04       		.uleb128 0x4
 3005 011a 94       		.byte	0x94
 3006 011b 02       		.byte	0x2
 3007 011c 9F       		.byte	0x9f
 3008 011d 00000000 		.4byte	0
 3009 0121 00000000 		.4byte	0
 3010              	.LLST7:
 3011 0125 78000000 		.4byte	.LVL14
 3012 0129 8A000000 		.4byte	.LVL15
 3013 012d 0600     		.2byte	0x6
 3014 012f 9E       		.byte	0x9e
 3015 0130 04       		.uleb128 0x4
 3016 0131 49FFB846 		.4byte	0x46b8ff49
 3017 0135 00000000 		.4byte	0
 3018 0139 00000000 		.4byte	0
ARM GAS  C:\msys64\tmp\ccHb7GrS.s 			page 54


 3019              	.LLST10:
 3020 013d 78000000 		.4byte	.LVL14
 3021 0141 8A000000 		.4byte	.LVL15
 3022 0145 0C00     		.2byte	0xc
 3023 0147 F5       		.byte	0xf5
 3024 0148 4C       		.uleb128 0x4c
 3025 0149 25       		.uleb128 0x25
 3026 014a F4       		.byte	0xf4
 3027 014b 25       		.uleb128 0x25
 3028 014c 04       		.byte	0x4
 3029 014d 49FFB846 		.4byte	0x46b8ff49
 3030 0151 1C       		.byte	0x1c
 3031 0152 9F       		.byte	0x9f
 3032 0153 00000000 		.4byte	0
 3033 0157 00000000 		.4byte	0
 3034              	.LLST11:
 3035 015b AA000000 		.4byte	.LVL19
 3036 015f 6C010000 		.4byte	.LVL43
 3037 0163 0600     		.2byte	0x6
 3038 0165 03       		.byte	0x3
 3039 0166 00000000 		.4byte	_ZL2pd
 3040 016a 9F       		.byte	0x9f
 3041 016b 00000000 		.4byte	0
 3042 016f 00000000 		.4byte	0
 3043              	.LLST12:
 3044 0173 AA000000 		.4byte	.LVL19
 3045 0177 24010000 		.4byte	.LVL35
 3046 017b 0200     		.2byte	0x2
 3047 017d 90       		.byte	0x90
 3048 017e 4D       		.uleb128 0x4d
 3049 017f 00000000 		.4byte	0
 3050 0183 00000000 		.4byte	0
 3051              	.LLST13:
 3052 0187 AA000000 		.4byte	.LVL19
 3053 018b 24010000 		.4byte	.LVL35
 3054 018f 0500     		.2byte	0x5
 3055 0191 03       		.byte	0x3
 3056 0192 0C000000 		.4byte	_ZL2pd+12
 3057 0196 00000000 		.4byte	0
 3058 019a 00000000 		.4byte	0
 3059              	.LLST14:
 3060 019e CE000000 		.4byte	.LVL22
 3061 01a2 D2000000 		.4byte	.LVL23
 3062 01a6 0200     		.2byte	0x2
 3063 01a8 90       		.byte	0x90
 3064 01a9 4F       		.uleb128 0x4f
 3065 01aa 00000000 		.4byte	0
 3066 01ae 00000000 		.4byte	0
 3067              	.LLST16:
 3068 01b2 D2000000 		.4byte	.LVL23
 3069 01b6 E6000000 		.4byte	.LVL25
 3070 01ba 0200     		.2byte	0x2
 3071 01bc 90       		.byte	0x90
 3072 01bd 4F       		.uleb128 0x4f
 3073 01be 00000000 		.4byte	0
 3074 01c2 00000000 		.4byte	0
 3075              	.LLST17:
ARM GAS  C:\msys64\tmp\ccHb7GrS.s 			page 55


 3076 01c6 D2000000 		.4byte	.LVL23
 3077 01ca E6000000 		.4byte	.LVL25
 3078 01ce 0C00     		.2byte	0xc
 3079 01d0 F5       		.byte	0xf5
 3080 01d1 4F       		.uleb128 0x4f
 3081 01d2 25       		.uleb128 0x25
 3082 01d3 F5       		.byte	0xf5
 3083 01d4 4F       		.uleb128 0x4f
 3084 01d5 25       		.uleb128 0x25
 3085 01d6 F7       		.byte	0xf7
 3086 01d7 2C       		.uleb128 0x2c
 3087 01d8 F7       		.byte	0xf7
 3088 01d9 25       		.uleb128 0x25
 3089 01da 1C       		.byte	0x1c
 3090 01db 9F       		.byte	0x9f
 3091 01dc 00000000 		.4byte	0
 3092 01e0 00000000 		.4byte	0
 3093              	.LLST18:
 3094 01e4 E2000000 		.4byte	.LVL24
 3095 01e8 0C010000 		.4byte	.LVL32
 3096 01ec 0200     		.2byte	0x2
 3097 01ee 90       		.byte	0x90
 3098 01ef 4E       		.uleb128 0x4e
 3099 01f0 00000000 		.4byte	0
 3100 01f4 00000000 		.4byte	0
 3101              	.LLST19:
 3102 01f8 EA000000 		.4byte	.LVL26
 3103 01fc 20010000 		.4byte	.LVL34
 3104 0200 0100     		.2byte	0x1
 3105 0202 50       		.byte	0x50
 3106 0203 00000000 		.4byte	0
 3107 0207 00000000 		.4byte	0
 3108              	.LLST20:
 3109 020b EE000000 		.4byte	.LVL27
 3110 020f F8000000 		.4byte	.LVL28
 3111 0213 0100     		.2byte	0x1
 3112 0215 53       		.byte	0x53
 3113 0216 F8000000 		.4byte	.LVL28
 3114 021a 00010000 		.4byte	.LVL29
 3115 021e 0300     		.2byte	0x3
 3116 0220 73       		.byte	0x73
 3117 0221 7F       		.sleb128 -1
 3118 0222 9F       		.byte	0x9f
 3119 0223 00010000 		.4byte	.LVL29
 3120 0227 20010000 		.4byte	.LVL34
 3121 022b 0600     		.2byte	0x6
 3122 022d 70       		.byte	0x70
 3123 022e 00       		.sleb128 0
 3124 022f 08       		.byte	0x8
 3125 0230 7F       		.byte	0x7f
 3126 0231 1A       		.byte	0x1a
 3127 0232 9F       		.byte	0x9f
 3128 0233 00000000 		.4byte	0
 3129 0237 00000000 		.4byte	0
 3130              	.LLST21:
 3131 023b EE000000 		.4byte	.LVL27
 3132 023f F8000000 		.4byte	.LVL28
ARM GAS  C:\msys64\tmp\ccHb7GrS.s 			page 56


 3133 0243 0600     		.2byte	0x6
 3134 0245 73       		.byte	0x73
 3135 0246 01       		.sleb128 1
 3136 0247 08       		.byte	0x8
 3137 0248 7F       		.byte	0x7f
 3138 0249 1A       		.byte	0x1a
 3139 024a 9F       		.byte	0x9f
 3140 024b F8000000 		.4byte	.LVL28
 3141 024f 00010000 		.4byte	.LVL29
 3142 0253 0600     		.2byte	0x6
 3143 0255 73       		.byte	0x73
 3144 0256 00       		.sleb128 0
 3145 0257 08       		.byte	0x8
 3146 0258 7F       		.byte	0x7f
 3147 0259 1A       		.byte	0x1a
 3148 025a 9F       		.byte	0x9f
 3149 025b 00010000 		.4byte	.LVL29
 3150 025f 04010000 		.4byte	.LVL30
 3151 0263 0100     		.2byte	0x1
 3152 0265 53       		.byte	0x53
 3153 0266 04010000 		.4byte	.LVL30
 3154 026a 20010000 		.4byte	.LVL34
 3155 026e 0600     		.2byte	0x6
 3156 0270 70       		.byte	0x70
 3157 0271 01       		.sleb128 1
 3158 0272 08       		.byte	0x8
 3159 0273 7F       		.byte	0x7f
 3160 0274 1A       		.byte	0x1a
 3161 0275 9F       		.byte	0x9f
 3162 0276 00000000 		.4byte	0
 3163 027a 00000000 		.4byte	0
 3164              	.LLST22:
 3165 027e 08010000 		.4byte	.LVL31
 3166 0282 1A010000 		.4byte	.LVL33
 3167 0286 0200     		.2byte	0x2
 3168 0288 90       		.byte	0x90
 3169 0289 4F       		.uleb128 0x4f
 3170 028a 00000000 		.4byte	0
 3171 028e 00000000 		.4byte	0
 3172              	.LLST23:
 3173 0292 08010000 		.4byte	.LVL31
 3174 0296 0C010000 		.4byte	.LVL32
 3175 029a 0B00     		.2byte	0xb
 3176 029c F5       		.byte	0xf5
 3177 029d 4E       		.uleb128 0x4e
 3178 029e 25       		.uleb128 0x25
 3179 029f 70       		.byte	0x70
 3180 02a0 00       		.sleb128 0
 3181 02a1 F7       		.byte	0xf7
 3182 02a2 2C       		.uleb128 0x2c
 3183 02a3 F7       		.byte	0xf7
 3184 02a4 25       		.uleb128 0x25
 3185 02a5 1C       		.byte	0x1c
 3186 02a6 9F       		.byte	0x9f
 3187 02a7 0C010000 		.4byte	.LVL32
 3188 02ab 1A010000 		.4byte	.LVL33
 3189 02af 0200     		.2byte	0x2
ARM GAS  C:\msys64\tmp\ccHb7GrS.s 			page 57


 3190 02b1 90       		.byte	0x90
 3191 02b2 4E       		.uleb128 0x4e
 3192 02b3 00000000 		.4byte	0
 3193 02b7 00000000 		.4byte	0
 3194              	.LLST24:
 3195 02bb C0000000 		.4byte	.LVL21
 3196 02bf 24010000 		.4byte	.LVL35
 3197 02c3 0800     		.2byte	0x8
 3198 02c5 F5       		.byte	0xf5
 3199 02c6 4D       		.uleb128 0x4d
 3200 02c7 25       		.uleb128 0x25
 3201 02c8 F5       		.byte	0xf5
 3202 02c9 4B       		.uleb128 0x4b
 3203 02ca 25       		.uleb128 0x25
 3204 02cb 1C       		.byte	0x1c
 3205 02cc 9F       		.byte	0x9f
 3206 02cd 00000000 		.4byte	0
 3207 02d1 00000000 		.4byte	0
 3208              	.LLST25:
 3209 02d5 C0000000 		.4byte	.LVL21
 3210 02d9 24010000 		.4byte	.LVL35
 3211 02dd 0C00     		.2byte	0xc
 3212 02df F4       		.byte	0xf4
 3213 02e0 25       		.uleb128 0x25
 3214 02e1 04       		.byte	0x4
 3215 02e2 0000803F 		.4byte	0x3f800000
 3216 02e6 F5       		.byte	0xf5
 3217 02e7 4B       		.uleb128 0x4b
 3218 02e8 25       		.uleb128 0x25
 3219 02e9 1C       		.byte	0x1c
 3220 02ea 9F       		.byte	0x9f
 3221 02eb 00000000 		.4byte	0
 3222 02ef 00000000 		.4byte	0
 3223              	.LLST26:
 3224 02f3 C0000000 		.4byte	.LVL21
 3225 02f7 24010000 		.4byte	.LVL35
 3226 02fb 1400     		.2byte	0x14
 3227 02fd F5       		.byte	0xf5
 3228 02fe 4D       		.uleb128 0x4d
 3229 02ff 25       		.uleb128 0x25
 3230 0300 F5       		.byte	0xf5
 3231 0301 4B       		.uleb128 0x4b
 3232 0302 25       		.uleb128 0x25
 3233 0303 1C       		.byte	0x1c
 3234 0304 F4       		.byte	0xf4
 3235 0305 25       		.uleb128 0x25
 3236 0306 04       		.byte	0x4
 3237 0307 0000803F 		.4byte	0x3f800000
 3238 030b F5       		.byte	0xf5
 3239 030c 4B       		.uleb128 0x4b
 3240 030d 25       		.uleb128 0x25
 3241 030e 1C       		.byte	0x1c
 3242 030f 1B       		.byte	0x1b
 3243 0310 9F       		.byte	0x9f
 3244 0311 00000000 		.4byte	0
 3245 0315 00000000 		.4byte	0
 3246              	.LLST27:
ARM GAS  C:\msys64\tmp\ccHb7GrS.s 			page 58


 3247 0319 B2000000 		.4byte	.LVL20
 3248 031d 24010000 		.4byte	.LVL35
 3249 0321 0800     		.2byte	0x8
 3250 0323 F5       		.byte	0xf5
 3251 0324 4D       		.uleb128 0x4d
 3252 0325 25       		.uleb128 0x25
 3253 0326 F5       		.byte	0xf5
 3254 0327 4B       		.uleb128 0x4b
 3255 0328 25       		.uleb128 0x25
 3256 0329 1B       		.byte	0x1b
 3257 032a 9F       		.byte	0x9f
 3258 032b 00000000 		.4byte	0
 3259 032f 00000000 		.4byte	0
 3260              	.LLST28:
 3261 0333 24010000 		.4byte	.LVL35
 3262 0337 42010000 		.4byte	.LVL39
 3263 033b 0600     		.2byte	0x6
 3264 033d 9E       		.byte	0x9e
 3265 033e 04       		.uleb128 0x4
 3266 033f CDCC4C3D 		.4byte	0x3d4ccccd
 3267 0343 00000000 		.4byte	0
 3268 0347 00000000 		.4byte	0
 3269              	.LLST29:
 3270 034b 24010000 		.4byte	.LVL35
 3271 034f 42010000 		.4byte	.LVL39
 3272 0353 0600     		.2byte	0x6
 3273 0355 9E       		.byte	0x9e
 3274 0356 04       		.uleb128 0x4
 3275 0357 0000803F 		.4byte	0x3f800000
 3276 035b 00000000 		.4byte	0
 3277 035f 00000000 		.4byte	0
 3278              	.LLST30:
 3279 0363 24010000 		.4byte	.LVL35
 3280 0367 42010000 		.4byte	.LVL39
 3281 036b 0600     		.2byte	0x6
 3282 036d 9E       		.byte	0x9e
 3283 036e 04       		.uleb128 0x4
 3284 036f 000080BF 		.4byte	0xbf800000
 3285 0373 00000000 		.4byte	0
 3286 0377 00000000 		.4byte	0
 3287              	.LLST31:
 3288 037b 24010000 		.4byte	.LVL35
 3289 037f 2E010000 		.4byte	.LVL36
 3290 0383 0600     		.2byte	0x6
 3291 0385 9E       		.byte	0x9e
 3292 0386 04       		.uleb128 0x4
 3293 0387 000080BF 		.4byte	0xbf800000
 3294 038b 3E010000 		.4byte	.LVL38
 3295 038f 42010000 		.4byte	.LVL39
 3296 0393 0600     		.2byte	0x6
 3297 0395 9E       		.byte	0x9e
 3298 0396 04       		.uleb128 0x4
 3299 0397 000080BF 		.4byte	0xbf800000
 3300 039b 00000000 		.4byte	0
 3301 039f 00000000 		.4byte	0
 3302              	.LLST32:
 3303 03a3 00000000 		.4byte	.LVL47
ARM GAS  C:\msys64\tmp\ccHb7GrS.s 			page 59


 3304 03a7 12000000 		.4byte	.LVL49
 3305 03ab 0200     		.2byte	0x2
 3306 03ad 31       		.byte	0x31
 3307 03ae 9F       		.byte	0x9f
 3308 03af 00000000 		.4byte	0
 3309 03b3 00000000 		.4byte	0
 3310              	.LLST33:
 3311 03b7 00000000 		.4byte	.LVL47
 3312 03bb 12000000 		.4byte	.LVL49
 3313 03bf 0400     		.2byte	0x4
 3314 03c1 0A       		.byte	0xa
 3315 03c2 FFFF     		.2byte	0xffff
 3316 03c4 9F       		.byte	0x9f
 3317 03c5 00000000 		.4byte	0
 3318 03c9 00000000 		.4byte	0
 3319              	.LLST34:
 3320 03cd 00000000 		.4byte	.LVL47
 3321 03d1 10000000 		.4byte	.LVL48
 3322 03d5 0600     		.2byte	0x6
 3323 03d7 03       		.byte	0x3
 3324 03d8 00000000 		.4byte	_ZL2pd
 3325 03dc 9F       		.byte	0x9f
 3326 03dd 00000000 		.4byte	0
 3327 03e1 00000000 		.4byte	0
 3328              	.LLST35:
 3329 03e5 10000000 		.4byte	.LVL48
 3330 03e9 12000000 		.4byte	.LVL49
 3331 03ed 0600     		.2byte	0x6
 3332 03ef 03       		.byte	0x3
 3333 03f0 0C000000 		.4byte	_ZL2pd+12
 3334 03f4 9F       		.byte	0x9f
 3335 03f5 00000000 		.4byte	0
 3336 03f9 00000000 		.4byte	0
 3337              		.section	.debug_aranges,"",%progbits
 3338 0000 24000000 		.4byte	0x24
 3339 0004 0200     		.2byte	0x2
 3340 0006 00000000 		.4byte	.Ldebug_info0
 3341 000a 04       		.byte	0x4
 3342 000b 00       		.byte	0
 3343 000c 0000     		.2byte	0
 3344 000e 0000     		.2byte	0
 3345 0010 00000000 		.4byte	.Ltext0
 3346 0014 D0010000 		.4byte	.Letext0-.Ltext0
 3347 0018 00000000 		.4byte	.LFB256
 3348 001c 18000000 		.4byte	.LFE256-.LFB256
 3349 0020 00000000 		.4byte	0
 3350 0024 00000000 		.4byte	0
 3351              		.section	.debug_ranges,"",%progbits
 3352              	.Ldebug_ranges0:
 3353 0000 0A000000 		.4byte	.LBB192
 3354 0004 12000000 		.4byte	.LBE192
 3355 0008 2E000000 		.4byte	.LBB281
 3356 000c 30000000 		.4byte	.LBE281
 3357 0010 34000000 		.4byte	.LBB282
 3358 0014 3E000000 		.4byte	.LBE282
 3359 0018 42000000 		.4byte	.LBB283
 3360 001c 48000000 		.4byte	.LBE283
ARM GAS  C:\msys64\tmp\ccHb7GrS.s 			page 60


 3361 0020 4C000000 		.4byte	.LBB284
 3362 0024 62000000 		.4byte	.LBE284
 3363 0028 64000000 		.4byte	.LBB286
 3364 002c 70000000 		.4byte	.LBE286
 3365 0030 74000000 		.4byte	.LBB287
 3366 0034 96000000 		.4byte	.LBE287
 3367 0038 00000000 		.4byte	0
 3368 003c 00000000 		.4byte	0
 3369 0040 0A000000 		.4byte	.LBB194
 3370 0044 12000000 		.4byte	.LBE194
 3371 0048 52000000 		.4byte	.LBB210
 3372 004c 56000000 		.4byte	.LBE210
 3373 0050 64000000 		.4byte	.LBB214
 3374 0054 70000000 		.4byte	.LBE214
 3375 0058 74000000 		.4byte	.LBB215
 3376 005c 78000000 		.4byte	.LBE215
 3377 0060 00000000 		.4byte	0
 3378 0064 00000000 		.4byte	0
 3379 0068 2E000000 		.4byte	.LBB199
 3380 006c 30000000 		.4byte	.LBE199
 3381 0070 34000000 		.4byte	.LBB205
 3382 0074 38000000 		.4byte	.LBE205
 3383 0078 42000000 		.4byte	.LBB206
 3384 007c 48000000 		.4byte	.LBE206
 3385 0080 56000000 		.4byte	.LBB211
 3386 0084 5A000000 		.4byte	.LBE211
 3387 0088 5E000000 		.4byte	.LBB213
 3388 008c 62000000 		.4byte	.LBE213
 3389 0090 00000000 		.4byte	0
 3390 0094 00000000 		.4byte	0
 3391 0098 4C000000 		.4byte	.LBB207
 3392 009c 52000000 		.4byte	.LBE207
 3393 00a0 5A000000 		.4byte	.LBB212
 3394 00a4 5E000000 		.4byte	.LBE212
 3395 00a8 00000000 		.4byte	0
 3396 00ac 00000000 		.4byte	0
 3397 00b0 12000000 		.4byte	.LBB227
 3398 00b4 1E000000 		.4byte	.LBE227
 3399 00b8 62000000 		.4byte	.LBB276
 3400 00bc 64000000 		.4byte	.LBE276
 3401 00c0 9A000000 		.4byte	.LBB277
 3402 00c4 A6000000 		.4byte	.LBE277
 3403 00c8 AA000000 		.4byte	.LBB278
 3404 00cc 6A010000 		.4byte	.LBE278
 3405 00d0 00000000 		.4byte	0
 3406 00d4 00000000 		.4byte	0
 3407 00d8 12000000 		.4byte	.LBB228
 3408 00dc 16000000 		.4byte	.LBE228
 3409 00e0 62000000 		.4byte	.LBB261
 3410 00e4 64000000 		.4byte	.LBE261
 3411 00e8 9A000000 		.4byte	.LBB262
 3412 00ec A2000000 		.4byte	.LBE262
 3413 00f0 AA000000 		.4byte	.LBB274
 3414 00f4 24010000 		.4byte	.LBE274
 3415 00f8 00000000 		.4byte	0
 3416 00fc 00000000 		.4byte	0
 3417 0100 12000000 		.4byte	.LBB230
ARM GAS  C:\msys64\tmp\ccHb7GrS.s 			page 61


 3418 0104 16000000 		.4byte	.LBE230
 3419 0108 62000000 		.4byte	.LBB249
 3420 010c 64000000 		.4byte	.LBE249
 3421 0110 9E000000 		.4byte	.LBB255
 3422 0114 A2000000 		.4byte	.LBE255
 3423 0118 CE000000 		.4byte	.LBB257
 3424 011c 20010000 		.4byte	.LBE257
 3425 0120 00000000 		.4byte	0
 3426 0124 00000000 		.4byte	0
 3427 0128 12000000 		.4byte	.LBB232
 3428 012c 16000000 		.4byte	.LBE232
 3429 0130 62000000 		.4byte	.LBB244
 3430 0134 64000000 		.4byte	.LBE244
 3431 0138 D2000000 		.4byte	.LBB245
 3432 013c 20010000 		.4byte	.LBE245
 3433 0140 00000000 		.4byte	0
 3434 0144 00000000 		.4byte	0
 3435 0148 EE000000 		.4byte	.LBB234
 3436 014c F2000000 		.4byte	.LBE234
 3437 0150 F8000000 		.4byte	.LBB239
 3438 0154 FC000000 		.4byte	.LBE239
 3439 0158 08010000 		.4byte	.LBB240
 3440 015c 14010000 		.4byte	.LBE240
 3441 0160 16010000 		.4byte	.LBB241
 3442 0164 1A010000 		.4byte	.LBE241
 3443 0168 00000000 		.4byte	0
 3444 016c 00000000 		.4byte	0
 3445 0170 9A000000 		.4byte	.LBB251
 3446 0174 9E000000 		.4byte	.LBE251
 3447 0178 B2000000 		.4byte	.LBB252
 3448 017c BC000000 		.4byte	.LBE252
 3449 0180 C0000000 		.4byte	.LBB254
 3450 0184 CE000000 		.4byte	.LBE254
 3451 0188 00000000 		.4byte	0
 3452 018c 00000000 		.4byte	0
 3453 0190 A2000000 		.4byte	.LBB263
 3454 0194 A6000000 		.4byte	.LBE263
 3455 0198 24010000 		.4byte	.LBB275
 3456 019c 42010000 		.4byte	.LBE275
 3457 01a0 00000000 		.4byte	0
 3458 01a4 00000000 		.4byte	0
 3459 01a8 A2000000 		.4byte	.LBB265
 3460 01ac A6000000 		.4byte	.LBE265
 3461 01b0 24010000 		.4byte	.LBB272
 3462 01b4 42010000 		.4byte	.LBE272
 3463 01b8 00000000 		.4byte	0
 3464 01bc 00000000 		.4byte	0
 3465 01c0 A2000000 		.4byte	.LBB266
 3466 01c4 A6000000 		.4byte	.LBE266
 3467 01c8 24010000 		.4byte	.LBB271
 3468 01cc 42010000 		.4byte	.LBE271
 3469 01d0 00000000 		.4byte	0
 3470 01d4 00000000 		.4byte	0
 3471 01d8 A2000000 		.4byte	.LBB267
 3472 01dc A6000000 		.4byte	.LBE267
 3473 01e0 24010000 		.4byte	.LBB270
 3474 01e4 42010000 		.4byte	.LBE270
ARM GAS  C:\msys64\tmp\ccHb7GrS.s 			page 62


 3475 01e8 00000000 		.4byte	0
 3476 01ec 00000000 		.4byte	0
 3477 01f0 00000000 		.4byte	.Ltext0
 3478 01f4 D0010000 		.4byte	.Letext0
 3479 01f8 00000000 		.4byte	.LFB256
 3480 01fc 18000000 		.4byte	.LFE256
 3481 0200 00000000 		.4byte	0
 3482 0204 00000000 		.4byte	0
 3483              		.section	.debug_line,"",%progbits
 3484              	.Ldebug_line0:
 3485 0000 35030000 		.section	.debug_str,"MS",%progbits,1
 3485      0200FD01 
 3485      00000201 
 3485      FB0E0D00 
 3485      01010101 
 3486              	.LASF52:
 3487 0000 70617261 		.ascii	"params\000"
 3487      6D7300
 3488              	.LASF82:
 3489 0007 5F686F6F 		.ascii	"_hook_param\000"
 3489      6B5F7061 
 3489      72616D00 
 3490              	.LASF91:
 3491 0013 77745F70 		.ascii	"wt_par_lut_f\000"
 3491      61725F6C 
 3491      75745F66 
 3491      00
 3492              	.LASF79:
 3493 0020 666C6167 		.ascii	"flags\000"
 3493      7300
 3494              	.LASF98:
 3495 0026 474E5520 		.ascii	"GNU C++11 5.4.1 20160919 (release) [ARM/embedded-5-"
 3495      432B2B31 
 3495      3120352E 
 3495      342E3120 
 3495      32303136 
 3496 0059 6272616E 		.ascii	"branch revision 240496] -mcpu=cortex-m4 -mthumb -mn"
 3496      63682072 
 3496      65766973 
 3496      696F6E20 
 3496      32343034 
 3497 008c 6F2D7468 		.ascii	"o-thumb-interwork -mlittle-endian -mfloat-abi=hard "
 3497      756D622D 
 3497      696E7465 
 3497      72776F72 
 3497      6B202D6D 
 3498 00bf 2D6D6670 		.ascii	"-mfpu=fpv4-sp-d16 -g -Os -std=c++11 -fsingle-precis"
 3498      753D6670 
 3498      76342D73 
 3498      702D6431 
 3498      36202D67 
 3499 00f2 696F6E2D 		.ascii	"ion-constant -fcheck-new -fno-rtti -fno-exceptions "
 3499      636F6E73 
 3499      74616E74 
 3499      202D6663 
 3499      6865636B 
 3500 0125 2D666E6F 		.ascii	"-fno-non-call-exceptions\000"
ARM GAS  C:\msys64\tmp\ccHb7GrS.s 			page 63


 3500      2D6E6F6E 
 3500      2D63616C 
 3500      6C2D6578 
 3500      63657074 
 3501              	.LASF1:
 3502 013e 756E7369 		.ascii	"unsigned int\000"
 3502      676E6564 
 3502      20696E74 
 3502      00
 3503              	.LASF97:
 3504 014b 62697472 		.ascii	"bitres_lut_f\000"
 3504      65735F6C 
 3504      75745F66 
 3504      00
 3505              	.LASF64:
 3506 0158 6F73635F 		.ascii	"osc_sinf\000"
 3506      73696E66 
 3506      00
 3507              	.LASF8:
 3508 0161 5F5F696E 		.ascii	"__int32_t\000"
 3508      7433325F 
 3508      7400
 3509              	.LASF76:
 3510 016b 706C6174 		.ascii	"platform\000"
 3510      666F726D 
 3510      00
 3511              	.LASF30:
 3512 0174 70697463 		.ascii	"pitch\000"
 3512      6800
 3513              	.LASF44:
 3514 017a 75736572 		.ascii	"user_osc_param_id_t\000"
 3514      5F6F7363 
 3514      5F706172 
 3514      616D5F69 
 3514      645F7400 
 3515              	.LASF50:
 3516 018e 53746174 		.ascii	"State\000"
 3516      6500
 3517              	.LASF35:
 3518 0194 6B5F7573 		.ascii	"k_user_osc_param_id1\000"
 3518      65725F6F 
 3518      73635F70 
 3518      6172616D 
 3518      5F696431 
 3519              	.LASF36:
 3520 01a9 6B5F7573 		.ascii	"k_user_osc_param_id2\000"
 3520      65725F6F 
 3520      73635F70 
 3520      6172616D 
 3520      5F696432 
 3521              	.LASF37:
 3522 01be 6B5F7573 		.ascii	"k_user_osc_param_id3\000"
 3522      65725F6F 
 3522      73635F70 
 3522      6172616D 
 3522      5F696433 
 3523              	.LASF38:
ARM GAS  C:\msys64\tmp\ccHb7GrS.s 			page 64


 3524 01d3 6B5F7573 		.ascii	"k_user_osc_param_id4\000"
 3524      65725F6F 
 3524      73635F70 
 3524      6172616D 
 3524      5F696434 
 3525              	.LASF39:
 3526 01e8 6B5F7573 		.ascii	"k_user_osc_param_id5\000"
 3526      65725F6F 
 3526      73635F70 
 3526      6172616D 
 3526      5F696435 
 3527              	.LASF40:
 3528 01fd 6B5F7573 		.ascii	"k_user_osc_param_id6\000"
 3528      65725F6F 
 3528      73635F70 
 3528      6172616D 
 3528      5F696436 
 3529              	.LASF105:
 3530 0212 5F5A4E32 		.ascii	"_ZN2PD5State5resetEv\000"
 3530      50443553 
 3530      74617465 
 3530      35726573 
 3530      65744576 
 3531              	.LASF43:
 3532 0227 6B5F6E75 		.ascii	"k_num_user_osc_param_id\000"
 3532      6D5F7573 
 3532      65725F6F 
 3532      73635F70 
 3532      6172616D 
 3533              	.LASF77:
 3534 023f 5F686F6F 		.ascii	"_hook_cycle\000"
 3534      6B5F6379 
 3534      636C6500 
 3535              	.LASF100:
 3536 024b 433A5C6D 		.ascii	"C:\\msys64\\home\\logue-sdk\\platform\\nutekt-digit"
 3536      73797336 
 3536      345C686F 
 3536      6D655C6C 
 3536      6F677565 
 3537 0279 616C5C43 		.ascii	"al\\Custom-Projects\\osc\\VPS_Project\\phase_distor"
 3537      7573746F 
 3537      6D2D5072 
 3537      6F6A6563 
 3537      74735C6F 
 3538 02a8 74696F6E 		.ascii	"tion\000"
 3538      00
 3539              	.LASF93:
 3540 02ad 74616E70 		.ascii	"tanpi_lut_f\000"
 3540      695F6C75 
 3540      745F6600 
 3541              	.LASF72:
 3542 02b9 6F73635F 		.ascii	"osc_softclipf\000"
 3542      736F6674 
 3542      636C6970 
 3542      6600
 3543              	.LASF58:
 3544 02c7 636C616D 		.ascii	"clampfsel\000"
ARM GAS  C:\msys64\tmp\ccHb7GrS.s 			page 65


 3544      70667365 
 3544      6C00
 3545              	.LASF17:
 3546 02d1 75696E74 		.ascii	"uint32_t\000"
 3546      33325F74 
 3546      00
 3547              	.LASF87:
 3548 02da 6D696469 		.ascii	"midi_to_hz_lut_f\000"
 3548      5F746F5F 
 3548      687A5F6C 
 3548      75745F66 
 3548      00
 3549              	.LASF0:
 3550 02eb 666C6F61 		.ascii	"float\000"
 3550      7400
 3551              	.LASF83:
 3552 02f1 696E6465 		.ascii	"index\000"
 3552      7800
 3553              	.LASF25:
 3554 02f7 6B5F7573 		.ascii	"k_user_module_delfx\000"
 3554      65725F6D 
 3554      6F64756C 
 3554      655F6465 
 3554      6C667800 
 3555              	.LASF13:
 3556 030b 6C6F6E67 		.ascii	"long long unsigned int\000"
 3556      206C6F6E 
 3556      6720756E 
 3556      7369676E 
 3556      65642069 
 3557              	.LASF53:
 3558 0322 50686173 		.ascii	"PhaseDistortion\000"
 3558      65446973 
 3558      746F7274 
 3558      696F6E00 
 3559              	.LASF68:
 3560 0332 66726163 		.ascii	"fraction\000"
 3560      74696F6E 
 3560      00
 3561              	.LASF6:
 3562 033b 5F5F7569 		.ascii	"__uint16_t\000"
 3562      6E743136 
 3562      5F7400
 3563              	.LASF80:
 3564 0346 5F686F6F 		.ascii	"_hook_on\000"
 3564      6B5F6F6E 
 3564      00
 3565              	.LASF45:
 3566 034f 75736572 		.ascii	"user_osc_param\000"
 3566      5F6F7363 
 3566      5F706172 
 3566      616D00
 3567              	.LASF84:
 3568 035e 76616C75 		.ascii	"value\000"
 3568      6500
 3569              	.LASF73:
 3570 0364 5F5F696E 		.ascii	"__initialize_p\000"
ARM GAS  C:\msys64\tmp\ccHb7GrS.s 			page 66


 3570      69746961 
 3570      6C697A65 
 3570      5F7000
 3571              	.LASF26:
 3572 0373 6B5F7573 		.ascii	"k_user_module_revfx\000"
 3572      65725F6D 
 3572      6F64756C 
 3572      655F7265 
 3572      76667800 
 3573              	.LASF74:
 3574 0387 5F5F7072 		.ascii	"__priority\000"
 3574      696F7269 
 3574      747900
 3575              	.LASF31:
 3576 0392 6375746F 		.ascii	"cutoff\000"
 3576      666600
 3577              	.LASF20:
 3578 0399 63686172 		.ascii	"char\000"
 3578      00
 3579              	.LASF81:
 3580 039e 5F686F6F 		.ascii	"_hook_off\000"
 3580      6B5F6F66 
 3580      6600
 3581              	.LASF78:
 3582 03a8 6672616D 		.ascii	"frames\000"
 3582      657300
 3583              	.LASF96:
 3584 03af 73636865 		.ascii	"schetzen_lut_f\000"
 3584      747A656E 
 3584      5F6C7574 
 3584      5F6600
 3585              	.LASF14:
 3586 03be 75696E74 		.ascii	"uint8_t\000"
 3586      385F7400 
 3587              	.LASF46:
 3588 03c6 666C6167 		.ascii	"flags_none\000"
 3588      735F6E6F 
 3588      6E6500
 3589              	.LASF62:
 3590 03d1 6F73635F 		.ascii	"osc_notehzf\000"
 3590      6E6F7465 
 3590      687A6600 
 3591              	.LASF92:
 3592 03dd 6C6F675F 		.ascii	"log_lut_f\000"
 3592      6C75745F 
 3592      6600
 3593              	.LASF103:
 3594 03e7 5F5A4E32 		.ascii	"_ZN2PD6ParamsC4Ev\000"
 3594      50443650 
 3594      6172616D 
 3594      73433445 
 3594      7600
 3595              	.LASF106:
 3596 03f9 5F5A4E32 		.ascii	"_ZN2PDC4Ev\000"
 3596      50444334 
 3596      457600
 3597              	.LASF60:
ARM GAS  C:\msys64\tmp\ccHb7GrS.s 			page 67


 3598 0404 636C6970 		.ascii	"clipmaxf\000"
 3598      6D617866 
 3598      00
 3599              	.LASF12:
 3600 040d 6C6F6E67 		.ascii	"long long int\000"
 3600      206C6F6E 
 3600      6720696E 
 3600      7400
 3601              	.LASF54:
 3602 041b 5F5A4E32 		.ascii	"_ZN2PD5StateC4Ev\000"
 3602      50443553 
 3602      74617465 
 3602      43344576 
 3602      00
 3603              	.LASF47:
 3604 042c 666C6167 		.ascii	"flag_reset\000"
 3604      5F726573 
 3604      657400
 3605              	.LASF32:
 3606 0437 7265736F 		.ascii	"resonance\000"
 3606      6E616E63 
 3606      6500
 3607              	.LASF28:
 3608 0441 6B5F6E75 		.ascii	"k_num_user_modules\000"
 3608      6D5F7573 
 3608      65725F6D 
 3608      6F64756C 
 3608      657300
 3609              	.LASF59:
 3610 0454 636C6970 		.ascii	"clipmaxu32\000"
 3610      6D617875 
 3610      333200
 3611              	.LASF108:
 3612 045f 5F474C4F 		.ascii	"_GLOBAL__sub_I__hook_init\000"
 3612      42414C5F 
 3612      5F737562 
 3612      5F495F5F 
 3612      686F6F6B 
 3613              	.LASF89:
 3614 0479 77745F73 		.ascii	"wt_saw_lut_f\000"
 3614      61775F6C 
 3614      75745F66 
 3614      00
 3615              	.LASF27:
 3616 0486 6B5F7573 		.ascii	"k_user_module_osc\000"
 3616      65725F6D 
 3616      6F64756C 
 3616      655F6F73 
 3616      6300
 3617              	.LASF69:
 3618 0498 6E756D65 		.ascii	"numerator\000"
 3618      7261746F 
 3618      7200
 3619              	.LASF18:
 3620 04a2 6C6F6E67 		.ascii	"long double\000"
 3620      20646F75 
 3620      626C6500 
ARM GAS  C:\msys64\tmp\ccHb7GrS.s 			page 68


 3621              	.LASF15:
 3622 04ae 75696E74 		.ascii	"uint16_t\000"
 3622      31365F74 
 3622      00
 3623              	.LASF66:
 3624 04b7 74686973 		.ascii	"this\000"
 3624      00
 3625              	.LASF48:
 3626 04bc 50617261 		.ascii	"Params\000"
 3626      6D7300
 3627              	.LASF107:
 3628 04c3 5F5F7374 		.ascii	"__static_initialization_and_destruction_0\000"
 3628      61746963 
 3628      5F696E69 
 3628      7469616C 
 3628      697A6174 
 3629              	.LASF42:
 3630 04ed 6B5F7573 		.ascii	"k_user_osc_param_shiftshape\000"
 3630      65725F6F 
 3630      73635F70 
 3630      6172616D 
 3630      5F736869 
 3631              	.LASF75:
 3632 0509 5F686F6F 		.ascii	"_hook_init\000"
 3632      6B5F696E 
 3632      697400
 3633              	.LASF4:
 3634 0514 73686F72 		.ascii	"short int\000"
 3634      7420696E 
 3634      7400
 3635              	.LASF94:
 3636 051e 73717274 		.ascii	"sqrtm2log_lut_f\000"
 3636      6D326C6F 
 3636      675F6C75 
 3636      745F6600 
 3637              	.LASF95:
 3638 052e 63756269 		.ascii	"cubicsat_lut_f\000"
 3638      63736174 
 3638      5F6C7574 
 3638      5F6600
 3639              	.LASF90:
 3640 053d 77745F73 		.ascii	"wt_sqr_lut_f\000"
 3640      71725F6C 
 3640      75745F66 
 3640      00
 3641              	.LASF9:
 3642 054a 6C6F6E67 		.ascii	"long int\000"
 3642      20696E74 
 3642      00
 3643              	.LASF49:
 3644 0553 73686170 		.ascii	"shape\000"
 3644      6500
 3645              	.LASF24:
 3646 0559 6B5F7573 		.ascii	"k_user_module_modfx\000"
 3646      65725F6D 
 3646      6F64756C 
 3646      655F6D6F 
ARM GAS  C:\msys64\tmp\ccHb7GrS.s 			page 69


 3646      64667800 
 3647              	.LASF41:
 3648 056d 6B5F7573 		.ascii	"k_user_osc_param_shape\000"
 3648      65725F6F 
 3648      73635F70 
 3648      6172616D 
 3648      5F736861 
 3649              	.LASF102:
 3650 0584 31397573 		.ascii	"19user_osc_param_id_t\000"
 3650      65725F6F 
 3650      73635F70 
 3650      6172616D 
 3650      5F69645F 
 3651              	.LASF99:
 3652 059a 70642E63 		.ascii	"pd.cpp\000"
 3652      707000
 3653              	.LASF104:
 3654 05a1 72657365 		.ascii	"reset\000"
 3654      7400
 3655              	.LASF33:
 3656 05a7 72657365 		.ascii	"reserved0\000"
 3656      72766564 
 3656      3000
 3657              	.LASF70:
 3658 05b1 64656E6F 		.ascii	"denominator\000"
 3658      6D696E61 
 3658      746F7200 
 3659              	.LASF5:
 3660 05bd 5F5F7569 		.ascii	"__uint8_t\000"
 3660      6E74385F 
 3660      7400
 3661              	.LASF86:
 3662 05c7 6B5F6F73 		.ascii	"k_osc_api_version\000"
 3662      635F6170 
 3662      695F7665 
 3662      7273696F 
 3662      6E00
 3663              	.LASF56:
 3664 05d9 6673656C 		.ascii	"fsel\000"
 3664      00
 3665              	.LASF63:
 3666 05de 6E6F7465 		.ascii	"note\000"
 3666      00
 3667              	.LASF22:
 3668 05e3 7133315F 		.ascii	"q31_t\000"
 3668      7400
 3669              	.LASF55:
 3670 05e9 5F5A4E32 		.ascii	"_ZN2PD15PhaseDistortionEf\000"
 3670      50443135 
 3670      50686173 
 3670      65446973 
 3670      746F7274 
 3671              	.LASF19:
 3672 0603 73697A65 		.ascii	"sizetype\000"
 3672      74797065 
 3672      00
 3673              	.LASF11:
ARM GAS  C:\msys64\tmp\ccHb7GrS.s 			page 70


 3674 060c 6C6F6E67 		.ascii	"long unsigned int\000"
 3674      20756E73 
 3674      69676E65 
 3674      6420696E 
 3674      7400
 3675              	.LASF88:
 3676 061e 77745F73 		.ascii	"wt_sine_lut_f\000"
 3676      696E655F 
 3676      6C75745F 
 3676      6600
 3677              	.LASF16:
 3678 062c 696E7433 		.ascii	"int32_t\000"
 3678      325F7400 
 3679              	.LASF61:
 3680 0634 6C696E69 		.ascii	"linintf\000"
 3680      6E746600 
 3681              	.LASF3:
 3682 063c 756E7369 		.ascii	"unsigned char\000"
 3682      676E6564 
 3682      20636861 
 3682      7200
 3683              	.LASF10:
 3684 064a 5F5F7569 		.ascii	"__uint32_t\000"
 3684      6E743332 
 3684      5F7400
 3685              	.LASF67:
 3686 0655 6F73635F 		.ascii	"osc_cosf\000"
 3686      636F7366 
 3686      00
 3687              	.LASF23:
 3688 065e 6B5F7573 		.ascii	"k_user_module_global\000"
 3688      65725F6D 
 3688      6F64756C 
 3688      655F676C 
 3688      6F62616C 
 3689              	.LASF101:
 3690 0673 6465636C 		.ascii	"decltype(nullptr)\000"
 3690      74797065 
 3690      286E756C 
 3690      6C707472 
 3690      2900
 3691              	.LASF51:
 3692 0685 73746174 		.ascii	"state\000"
 3692      6500
 3693              	.LASF2:
 3694 068b 7369676E 		.ascii	"signed char\000"
 3694      65642063 
 3694      68617200 
 3695              	.LASF7:
 3696 0697 73686F72 		.ascii	"short unsigned int\000"
 3696      7420756E 
 3696      7369676E 
 3696      65642069 
 3696      6E7400
 3697              	.LASF71:
 3698 06aa 6F73635F 		.ascii	"osc_w0f_for_note\000"
 3698      7730665F 
ARM GAS  C:\msys64\tmp\ccHb7GrS.s 			page 71


 3698      666F725F 
 3698      6E6F7465 
 3698      00
 3699              	.LASF34:
 3700 06bb 75736572 		.ascii	"user_osc_param_t\000"
 3700      5F6F7363 
 3700      5F706172 
 3700      616D5F74 
 3700      00
 3701              	.LASF21:
 3702 06cc 646F7562 		.ascii	"double\000"
 3702      6C6500
 3703              	.LASF29:
 3704 06d3 73686170 		.ascii	"shape_lfo\000"
 3704      655F6C66 
 3704      6F00
 3705              	.LASF65:
 3706 06dd 636C6970 		.ascii	"clip1m1f\000"
 3706      316D3166 
 3706      00
 3707              	.LASF57:
 3708 06e6 636C616D 		.ascii	"clampmaxfsel\000"
 3708      706D6178 
 3708      6673656C 
 3708      00
 3709              	.LASF85:
 3710 06f3 6B5F6F73 		.ascii	"k_osc_api_platform\000"
 3710      635F6170 
 3710      695F706C 
 3710      6174666F 
 3710      726D00
 3711              		.ident	"GCC: (GNU Tools for ARM Embedded Processors) 5.4.1 20160919 (release) [ARM/embedded-5-bran
ARM GAS  C:\msys64\tmp\ccHb7GrS.s 			page 72


DEFINED SYMBOLS
                            *ABS*:00000000 pd.cpp
C:\msys64\tmp\ccHb7GrS.s:21     .text:00000000 $t
C:\msys64\tmp\ccHb7GrS.s:26     .text:00000000 _hook_init
C:\msys64\tmp\ccHb7GrS.s:44     .text:00000002 _hook_cycle
C:\msys64\tmp\ccHb7GrS.s:470    .text:00000174 $d
C:\msys64\tmp\ccHb7GrS.s:482    .text:00000198 $t
C:\msys64\tmp\ccHb7GrS.s:487    .text:00000198 _hook_on
C:\msys64\tmp\ccHb7GrS.s:504    .text:000001a4 $d
C:\msys64\tmp\ccHb7GrS.s:508    .text:000001a8 $t
C:\msys64\tmp\ccHb7GrS.s:513    .text:000001a8 _hook_off
C:\msys64\tmp\ccHb7GrS.s:530    .text:000001aa _hook_param
C:\msys64\tmp\ccHb7GrS.s:555    .text:000001c8 $d
C:\msys64\tmp\ccHb7GrS.s:561    .text.startup:00000000 $t
C:\msys64\tmp\ccHb7GrS.s:565    .text.startup:00000000 _GLOBAL__sub_I__hook_init
C:\msys64\tmp\ccHb7GrS.s:598    .text.startup:00000014 $d
C:\msys64\tmp\ccHb7GrS.s:608    .init_array:00000000 $d
C:\msys64\tmp\ccHb7GrS.s:611    .bss:00000000 $d
C:\msys64\tmp\ccHb7GrS.s:615    .bss:00000000 _ZL2pd
                     .debug_frame:00000010 $d

UNDEFINED SYMBOLS
midi_to_hz_lut_f
wt_sine_lut_f
