ARM GAS  C:\msys64\tmp\ccopjPFb.s 			page 1


   1              		.syntax unified
   2              		.cpu cortex-m4
   3              		.eabi_attribute 27, 1
   4              		.eabi_attribute 28, 1
   5              		.fpu fpv4-sp-d16
   6              		.eabi_attribute 20, 1
   7              		.eabi_attribute 21, 1
   8              		.eabi_attribute 23, 3
   9              		.eabi_attribute 24, 1
  10              		.eabi_attribute 25, 1
  11              		.eabi_attribute 26, 1
  12              		.eabi_attribute 30, 4
  13              		.eabi_attribute 34, 1
  14              		.eabi_attribute 18, 4
  15              		.thumb
  16              		.syntax unified
  17              		.file	"pd.cpp"
  18              		.text
  19              	.Ltext0:
  20              		.cfi_sections	.debug_frame
  21              		.align	1
  22              		.global	_hook_init
  23              		.thumb
  24              		.thumb_func
  25              		.type	_hook_init, %function
  26              	_hook_init:
  27              	.LFB250:
  28              		.file 1 "pd.cpp"
  29              		.loc 1 15 0
  30              		.cfi_startproc
  31              		@ args = 0, pretend = 0, frame = 0
  32              		@ frame_needed = 0, uses_anonymous_args = 0
  33              		@ link register save eliminated.
  34              	.LVL0:
  35 0000 7047     		bx	lr
  36              		.cfi_endproc
  37              	.LFE250:
  38              		.size	_hook_init, .-_hook_init
  39              		.align	1
  40              		.global	_hook_cycle
  41              		.thumb
  42              		.thumb_func
  43              		.type	_hook_cycle, %function
  44              	_hook_cycle:
  45              	.LFB251:
  46              		.loc 1 20 0
  47              		.cfi_startproc
  48              		@ args = 0, pretend = 0, frame = 0
  49              		@ frame_needed = 0, uses_anonymous_args = 0
  50              	.LVL1:
  51              		.loc 1 20 0
  52 0002 70B5     		push	{r4, r5, r6, lr}
  53              		.cfi_def_cfa_offset 16
  54              		.cfi_offset 4, -16
  55              		.cfi_offset 5, -12
  56              		.cfi_offset 6, -8
  57              		.cfi_offset 14, -4
ARM GAS  C:\msys64\tmp\ccopjPFb.s 			page 2


  58              		.loc 1 28 0
  59 0004 594C     		ldr	r4, .L25
  60              		.loc 1 36 0
  61 0006 8088     		ldrh	r0, [r0, #4]
  62              	.LVL2:
  63              		.loc 1 28 0
  64 0008 237A     		ldrb	r3, [r4, #8]	@ zero_extendqisi2
  65              	.LBB162:
  66              	.LBB163:
  67              	.LBB164:
  68              	.LBB165:
  69              		.file 2 "C:/msys64/home/logue-sdk/platform/nutekt-digital/inc/utils/float_math.h"
  70              		.loc 2 826 0
  71 000a 9FED597A 		vldr.32	s14, .L25+4
  72              	.LBE165:
  73              	.LBE164:
  74              	.LBE163:
  75              	.LBE162:
  76              	.LBB198:
  77              	.LBB199:
  78              	.LBB200:
  79              	.LBB201:
  80              	.LBB202:
  81              	.LBB203:
  82              	.LBB204:
  83              	.LBB205:
  84              		.file 3 "C:/msys64/home/logue-sdk/platform/nutekt-digital/inc/osc_api.h"
  85              		.loc 3 154 0
  86 000e 9FED592A 		vldr.32	s4, .L25+8
  87              	.LBE205:
  88              	.LBE204:
  89              	.LBE203:
  90              	.LBE202:
  91              	.LBE201:
  92              	.LBE200:
  93              		.loc 1 57 0
  94 0012 9FED593A 		vldr.32	s6, .L25+12
  95 0016 DFED593A 		vldr.32	s7, .L25+16
  96              	.LBE199:
  97              	.LBE198:
  98              		.loc 1 28 0
  99 001a 6FF30003 		bfc	r3, #0, #1
 100 001e 2372     		strb	r3, [r4, #8]
 101              		.loc 1 36 0
 102 0020 0312     		asrs	r3, r0, #8
 103              	.LVL3:
 104              	.LBB251:
 105              	.LBB192:
 106              	.LBB169:
 107              	.LBB170:
 108              		.loc 3 109 0
 109 0022 962B     		cmp	r3, #150
 110 0024 D8BF     		it	le
 111 0026 1D46     		movle	r5, r3
 112              	.LBE170:
 113              	.LBE169:
 114              	.LBE192:
ARM GAS  C:\msys64\tmp\ccopjPFb.s 			page 3


 115              	.LBE251:
 116              		.loc 1 39 0
 117 0028 C0B2     		uxtb	r0, r0
 118              	.LBB252:
 119              	.LBB193:
 120              		.loc 3 120 0
 121 002a 03F10103 		add	r3, r3, #1
 122              	.LVL4:
 123 002e DBB2     		uxtb	r3, r3
 124              	.LVL5:
 125              	.LBE193:
 126              	.LBE252:
 127              		.loc 1 39 0
 128 0030 07EE900A 		vmov	s15, r0	@ int
 129              	.LVL6:
 130              	.LBB253:
 131              	.LBB194:
 132              	.LBB175:
 133              	.LBB171:
 134              		.loc 3 109 0
 135 0034 C8BF     		it	gt
 136 0036 9725     		movgt	r5, #151
 137              	.LVL7:
 138 0038 2046     		mov	r0, r4
 139              	.LVL8:
 140              	.LBE171:
 141              	.LBE175:
 142              	.LBB176:
 143              	.LBB177:
 144 003a 962B     		cmp	r3, #150
 145              	.LBE177:
 146              	.LBE176:
 147              	.LBB180:
 148              	.LBB172:
 149 003c 504C     		ldr	r4, .L25+20
 150              	.LBE172:
 151              	.LBE180:
 152              	.LBE194:
 153              	.LBE253:
 154              		.loc 1 42 0
 155 003e D0ED006A 		vldr.32	s13, [r0]
 156 0042 D0ED035A 		vldr.32	s11, [r0, #12]
 157              	.LBB254:
 158              	.LBB195:
 159              	.LBB181:
 160              	.LBB178:
 161              		.loc 3 109 0
 162 0046 88BF     		it	hi
 163 0048 9723     		movhi	r3, #151
 164              	.LBE178:
 165              	.LBE181:
 166              	.LBB182:
 167              	.LBB166:
 168              		.loc 2 826 0
 169 004a F8EEE77A 		vcvt.f32.s32	s15, s15
 170              	.LVL9:
 171              	.LBE166:
ARM GAS  C:\msys64\tmp\ccopjPFb.s 			page 4


 172              	.LBE182:
 173              	.LBB183:
 174              	.LBB173:
 175              		.loc 3 109 0
 176 004e 04EB8505 		add	r5, r4, r5, lsl #2
 177              	.LBE173:
 178              	.LBE183:
 179              	.LBB184:
 180              	.LBB179:
 181 0052 04EB8303 		add	r3, r4, r3, lsl #2
 182              	.LBE179:
 183              	.LBE184:
 184              	.LBB185:
 185              	.LBB174:
 186 0056 95ED006A 		vldr.32	s12, [r5]
 187              	.LVL10:
 188              	.LBE174:
 189              	.LBE185:
 190              	.LBE195:
 191              	.LBE254:
 192              	.LBB255:
 193              	.LBB248:
 194              	.LBB233:
 195              	.LBB230:
 196              	.LBB221:
 197              	.LBB218:
 198              	.LBB216:
 199              	.LBB214:
 200              		.loc 3 160 0
 201 005a 4A4D     		ldr	r5, .L25+24
 202              	.LBE214:
 203              	.LBE216:
 204              	.LBE218:
 205              	.LBE221:
 206              	.LBE230:
 207              	.LBE233:
 208              	.LBE248:
 209              	.LBE255:
 210              	.LBB256:
 211              	.LBB196:
 212              	.LBB186:
 213              	.LBB167:
 214              		.loc 2 826 0
 215 005c 67EE877A 		vmul.f32	s15, s15, s14
 216 0060 93ED007A 		vldr.32	s14, [r3]
 217 0064 37EE467A 		vsub.f32	s14, s14, s12
 218              	.LBE167:
 219              	.LBE186:
 220              	.LBE196:
 221              	.LBE256:
 222              		.loc 1 46 0
 223 0068 01EB8202 		add	r2, r1, r2, lsl #2
 224              	.LVL11:
 225              	.LBB257:
 226              	.LBB197:
 227              	.LBB187:
 228              	.LBB168:
ARM GAS  C:\msys64\tmp\ccopjPFb.s 			page 5


 229              		.loc 2 826 0
 230 006c A7EE876A 		vfma.f32	s12, s15, s14
 231              	.LVL12:
 232              	.LBE168:
 233              	.LBE187:
 234              	.LBB188:
 235              	.LBB189:
 236              	.LBB190:
 237              	.LBB191:
 238              		.loc 2 193 0
 239 0070 DFED457A 		vldr.32	s15, .L25+28
 240 0074 B4EEE76A 		vcmpe.f32	s12, s15
 241 0078 F1EE10FA 		vmrs	APSR_nzcv, FPSCR
 242 007c A8BF     		it	ge
 243 007e B0EE676A 		vmovge.f32	s12, s15
 244              	.LVL13:
 245              	.LBE191:
 246              	.LBE190:
 247              	.LBE189:
 248              	.LBE188:
 249              		.loc 3 124 0
 250 0082 DFED427A 		vldr.32	s15, .L25+32
 251 0086 26EE276A 		vmul.f32	s12, s12, s15
 252              	.LVL14:
 253 008a B6EE004A 		vmov.f32	s8, #5.0e-1
 254              	.LBE197:
 255              	.LBE257:
 256              		.loc 1 39 0
 257 008e 80ED016A 		vstr.32	s12, [r0, #4]
 258              	.LVL15:
 259              	.LBB258:
 260              	.LBB249:
 261              	.LBB234:
 262              	.LBB231:
 263              	.LBB222:
 264              	.LBB223:
 265              		.file 4 "pd.hpp"
 266              		.loc 4 63 0
 267 0092 B7EE005A 		vmov.f32	s10, #1.0e+0
 268              	.LBE223:
 269              	.LBE222:
 270              	.LBB227:
 271              	.LBB219:
 272              		.loc 3 171 0
 273 0096 F5EE002A 		vmov.f32	s5, #2.5e-1
 274              	.LBE219:
 275              	.LBE227:
 276              	.LBE231:
 277              	.LBE234:
 278              	.LBB235:
 279              	.LBB236:
 280              	.LBB237:
 281              	.LBB238:
 282              	.LBB239:
 283              	.LBB240:
 284              		.loc 2 193 0
 285 009a FFEE001A 		vmov.f32	s3, #-1.0e+0
ARM GAS  C:\msys64\tmp\ccopjPFb.s 			page 6


 286              	.LVL16:
 287              	.L13:
 288              	.LBE240:
 289              	.LBE239:
 290              	.LBE238:
 291              	.LBE237:
 292              	.LBE236:
 293              	.LBE235:
 294              	.LBE249:
 295              		.loc 1 49 0
 296 009e 9142     		cmp	r1, r2
 297 00a0 60D0     		beq	.L6
 298              	.LVL17:
 299              	.LBB250:
 300              	.LBB246:
 301              	.LBB232:
 302              	.LBB228:
 303              		.loc 4 56 0
 304 00a2 F4EEE56A 		vcmpe.f32	s13, s11
 305 00a6 F1EE10FA 		vmrs	APSR_nzcv, FPSCR
 306              	.LVL18:
 307              	.LBB224:
 308              		.loc 4 63 0
 309 00aa 5BBF     		ittet	pl
 310 00ac 36EEE57A 		vsubpl.f32	s14, s13, s11
 311 00b0 75EE654A 		vsubpl.f32	s9, s10, s11
 312              	.LBE224:
 313              	.LBB225:
 314              		.loc 4 58 0
 315 00b4 C6EEA57A 		vdivmi.f32	s15, s13, s11
 316              	.LVL19:
 317              	.LBE225:
 318              	.LBB226:
 319              		.loc 4 63 0
 320 00b8 C7EE247A 		vdivpl.f32	s15, s14, s9
 321 00bc 58BF     		it	pl
 322 00be 77EE857A 		vaddpl.f32	s15, s15, s10
 323 00c2 67EE847A 		vmul.f32	s15, s15, s8
 324              	.LVL20:
 325              	.LBE226:
 326              	.LBE228:
 327              	.LBB229:
 328              	.LBB220:
 329              		.loc 3 171 0
 330 00c6 77EEA27A 		vadd.f32	s15, s15, s5
 331              	.LVL21:
 332              	.LBB217:
 333              	.LBB215:
 334              		.loc 3 154 0
 335 00ca BCEEE77A 		vcvt.u32.f32	s14, s15
 336 00ce B8EE477A 		vcvt.f32.u32	s14, s14
 337 00d2 37EEC77A 		vsub.f32	s14, s15, s14
 338 00d6 27EE027A 		vmul.f32	s14, s14, s4
 339              	.LVL22:
 340              		.loc 3 155 0
 341 00da FCEEC77A 		vcvt.u32.f32	s15, s14
 342              	.LVL23:
ARM GAS  C:\msys64\tmp\ccopjPFb.s 			page 7


 343 00de 17EE904A 		vmov	r4, s15	@ int
 344              	.LVL24:
 345              		.loc 3 157 0
 346 00e2 04F07F03 		and	r3, r4, #127
 347              	.LVL25:
 348              	.LBB206:
 349              	.LBB207:
 350              		.loc 2 826 0
 351 00e6 04EE904A 		vmov	s9, r4	@ int
 352              	.LBE207:
 353              	.LBE206:
 354              		.loc 3 160 0
 355 00ea 05EB8306 		add	r6, r5, r3, lsl #2
 356 00ee 0133     		adds	r3, r3, #1
 357              	.LVL26:
 358              	.LBB211:
 359              	.LBB208:
 360              		.loc 2 826 0
 361 00f0 F8EE644A 		vcvt.f32.u32	s9, s9
 362              	.LBE208:
 363              	.LBE211:
 364              		.loc 3 160 0
 365 00f4 03F07F03 		and	r3, r3, #127
 366              	.LVL27:
 367 00f8 05EB8303 		add	r3, r5, r3, lsl #2
 368              	.LVL28:
 369 00fc D6ED007A 		vldr.32	s15, [r6]
 370              	.LVL29:
 371              	.LBB212:
 372              	.LBB209:
 373              		.loc 2 826 0
 374 0100 37EE647A 		vsub.f32	s14, s14, s9
 375              	.LVL30:
 376 0104 D3ED004A 		vldr.32	s9, [r3]
 377 0108 74EEE74A 		vsub.f32	s9, s9, s15
 378              	.LBE209:
 379              	.LBE212:
 380              		.loc 3 161 0
 381 010c 7F2C     		cmp	r4, #127
 382              	.LBB213:
 383              	.LBB210:
 384              		.loc 2 826 0
 385 010e E7EE247A 		vfma.f32	s15, s14, s9
 386              	.LVL31:
 387              	.LBE210:
 388              	.LBE213:
 389              		.loc 3 161 0
 390 0112 88BF     		it	hi
 391 0114 F1EE677A 		vneghi.f32	s15, s15
 392              	.LVL32:
 393              	.LBE215:
 394              	.LBE217:
 395              	.LBE220:
 396              	.LBE229:
 397              		.loc 4 66 0
 398 0118 F1EE677A 		vneg.f32	s15, s15
 399              	.LVL33:
ARM GAS  C:\msys64\tmp\ccopjPFb.s 			page 8


 400              	.LBE232:
 401              	.LBE246:
 402              	.LBB247:
 403              	.LBB245:
 404              	.LBB244:
 405              	.LBB243:
 406              	.LBB242:
 407              	.LBB241:
 408              		.loc 2 193 0
 409 011c F4EEE17A 		vcmpe.f32	s15, s3
 410 0120 F1EE10FA 		vmrs	APSR_nzcv, FPSCR
 411 0124 07DB     		blt	.L23
 412              	.LVL34:
 413 0126 F4EEC57A 		vcmpe.f32	s15, s10
 414 012a F1EE10FA 		vmrs	APSR_nzcv, FPSCR
 415 012e A8BF     		it	ge
 416 0130 F0EE457A 		vmovge.f32	s15, s10
 417              	.LVL35:
 418 0134 01E0     		b	.L11
 419              	.LVL36:
 420              	.L23:
 421 0136 FFEE007A 		vmov.f32	s15, #-1.0e+0
 422              	.LVL37:
 423              	.L11:
 424              	.LBE241:
 425              	.LBE242:
 426              	.LBE243:
 427              	.LBE244:
 428              	.LBE245:
 429              	.LBE247:
 430              		.loc 1 57 0
 431 013a 27EEA77A 		vmul.f32	s14, s15, s15
 432              		.loc 1 60 0
 433 013e 76EE866A 		vadd.f32	s13, s13, s12
 434              	.LVL38:
 435              		.loc 1 57 0
 436 0142 27EEC77A 		vnmul.f32	s14, s15, s14
 437 0146 E7EE037A 		vfma.f32	s15, s14, s6
 438 014a 67EEA37A 		vmul.f32	s15, s15, s7
 439 014e FDEEE77A 		vcvt.s32.f32	s15, s15
 440 0152 E1EC017A 		vstmia.32	r1!, {s15}	@ int
 441              	.LVL39:
 442              		.loc 1 61 0
 443 0156 FCEEE67A 		vcvt.u32.f32	s15, s13
 444 015a F8EE677A 		vcvt.f32.u32	s15, s15
 445 015e 76EEE76A 		vsub.f32	s13, s13, s15
 446              	.LVL40:
 447              	.LBE250:
 448              		.loc 1 49 0
 449 0162 9CE7     		b	.L13
 450              	.LVL41:
 451              	.L6:
 452              	.LBE258:
 453              		.loc 1 65 0
 454 0164 C0ED006A 		vstr.32	s13, [r0]
 455 0168 70BD     		pop	{r4, r5, r6, pc}
 456              	.L26:
ARM GAS  C:\msys64\tmp\ccopjPFb.s 			page 9


 457 016a 00BF     		.align	2
 458              	.L25:
 459 016c 00000000 		.word	.LANCHOR0
 460 0170 8180803B 		.word	998277249
 461 0174 00008043 		.word	1132462080
 462 0178 CDCC4C3D 		.word	1028443341
 463 017c 0000004F 		.word	1325400064
 464 0180 00000000 		.word	midi_to_hz_lut_f
 465 0184 00000000 		.word	wt_sine_lut_f
 466 0188 49FFB846 		.word	1186529097
 467 018c 3EC3AE37 		.word	934200126
 468              		.cfi_endproc
 469              	.LFE251:
 470              		.size	_hook_cycle, .-_hook_cycle
 471              		.align	1
 472              		.global	_hook_on
 473              		.thumb
 474              		.thumb_func
 475              		.type	_hook_on, %function
 476              	_hook_on:
 477              	.LFB252:
 478              		.loc 1 68 0
 479              		.cfi_startproc
 480              		@ args = 0, pretend = 0, frame = 0
 481              		@ frame_needed = 0, uses_anonymous_args = 0
 482              		@ link register save eliminated.
 483              	.LVL42:
 484              		.loc 1 70 0
 485 0190 024A     		ldr	r2, .L28
 486 0192 137A     		ldrb	r3, [r2, #8]	@ zero_extendqisi2
 487 0194 43F00103 		orr	r3, r3, #1
 488 0198 1372     		strb	r3, [r2, #8]
 489 019a 7047     		bx	lr
 490              	.L29:
 491              		.align	2
 492              	.L28:
 493 019c 00000000 		.word	.LANCHOR0
 494              		.cfi_endproc
 495              	.LFE252:
 496              		.size	_hook_on, .-_hook_on
 497              		.align	1
 498              		.global	_hook_off
 499              		.thumb
 500              		.thumb_func
 501              		.type	_hook_off, %function
 502              	_hook_off:
 503              	.LFB253:
 504              		.loc 1 73 0
 505              		.cfi_startproc
 506              		@ args = 0, pretend = 0, frame = 0
 507              		@ frame_needed = 0, uses_anonymous_args = 0
 508              		@ link register save eliminated.
 509              	.LVL43:
 510 01a0 7047     		bx	lr
 511              		.cfi_endproc
 512              	.LFE253:
 513              		.size	_hook_off, .-_hook_off
ARM GAS  C:\msys64\tmp\ccopjPFb.s 			page 10


 514              		.align	1
 515              		.global	_hook_param
 516              		.thumb
 517              		.thumb_func
 518              		.type	_hook_param, %function
 519              	_hook_param:
 520              	.LFB254:
 521              		.loc 1 78 0
 522              		.cfi_startproc
 523              		@ args = 0, pretend = 0, frame = 0
 524              		@ frame_needed = 0, uses_anonymous_args = 0
 525              		@ link register save eliminated.
 526              	.LVL44:
 527              		.loc 1 82 0
 528 01a2 0628     		cmp	r0, #6
 529              		.loc 1 78 0
 530 01a4 07EE901A 		vmov	s15, r1	@ int
 531              		.loc 1 82 0
 532 01a8 08D1     		bne	.L31
 533              		.loc 1 97 0
 534 01aa F8EEE77A 		vcvt.f32.s32	s15, s15
 535 01ae 9FED047A 		vldr.32	s14, .L34
 536 01b2 044B     		ldr	r3, .L34+4
 537 01b4 67EE877A 		vmul.f32	s15, s15, s14
 538 01b8 C3ED037A 		vstr.32	s15, [r3, #12]
 539              	.L31:
 540 01bc 7047     		bx	lr
 541              	.L35:
 542 01be 00BF     		.align	2
 543              	.L34:
 544 01c0 0820803A 		.word	981475336
 545 01c4 00000000 		.word	.LANCHOR0
 546              		.cfi_endproc
 547              	.LFE254:
 548              		.size	_hook_param, .-_hook_param
 549              		.section	.text.startup,"ax",%progbits
 550              		.align	1
 551              		.thumb
 552              		.thumb_func
 553              		.type	_GLOBAL__sub_I__hook_init, %function
 554              	_GLOBAL__sub_I__hook_init:
 555              	.LFB256:
 556              		.loc 1 104 0
 557              		.cfi_startproc
 558              		@ args = 0, pretend = 0, frame = 0
 559              		@ frame_needed = 0, uses_anonymous_args = 0
 560              		@ link register save eliminated.
 561              	.LVL45:
 562              	.LBB268:
 563              	.LBB269:
 564              	.LBB270:
 565              	.LBB271:
 566              	.LBB272:
 567              		.loc 4 37 0
 568 0000 044B     		ldr	r3, .L37
 569 0002 197A     		ldrb	r1, [r3, #8]	@ zero_extendqisi2
 570 0004 0022     		movs	r2, #0
ARM GAS  C:\msys64\tmp\ccopjPFb.s 			page 11


 571 0006 6FF30001 		bfc	r1, #0, #1
 572 000a 1A60     		str	r2, [r3]	@ float
 573 000c 5A60     		str	r2, [r3, #4]	@ float
 574 000e 1972     		strb	r1, [r3, #8]
 575              	.LVL46:
 576              	.LBE272:
 577              	.LBE271:
 578              	.LBB273:
 579              	.LBB274:
 580              		.loc 4 26 0
 581 0010 DA60     		str	r2, [r3, #12]	@ float
 582              	.LVL47:
 583 0012 7047     		bx	lr
 584              	.L38:
 585              		.align	2
 586              	.L37:
 587 0014 00000000 		.word	.LANCHOR0
 588              	.LBE274:
 589              	.LBE273:
 590              	.LBE270:
 591              	.LBE269:
 592              	.LBE268:
 593              		.cfi_endproc
 594              	.LFE256:
 595              		.size	_GLOBAL__sub_I__hook_init, .-_GLOBAL__sub_I__hook_init
 596              		.section	.init_array,"aw",%init_array
 597              		.align	2
 598 0000 00000000 		.word	_GLOBAL__sub_I__hook_init(target1)
 599              		.bss
 600              		.align	2
 601              		.set	.LANCHOR0,. + 0
 602              		.type	_ZL2pd, %object
 603              		.size	_ZL2pd, 16
 604              	_ZL2pd:
 605 0000 00000000 		.space	16
 605      00000000 
 605      00000000 
 605      00000000 
 606              		.text
 607              	.Letext0:
 608              		.file 5 "c:\\msys64\\home\\logue-sdk\\tools\\gcc\\gcc-arm-none-eabi-5_4-2016q3\\arm-none-eabi\\inc
 609              		.file 6 "c:\\msys64\\home\\logue-sdk\\tools\\gcc\\gcc-arm-none-eabi-5_4-2016q3\\arm-none-eabi\\inc
 610              		.file 7 "c:\\msys64\\home\\logue-sdk\\platform\\ext\\cmsis\\cmsis\\include\\arm_math.h"
 611              		.file 8 "C:/msys64/home/logue-sdk/platform/nutekt-digital/inc/userosc.h"
 612              		.file 9 "C:/msys64/home/logue-sdk/platform/nutekt-digital/inc/userprg.h"
 613              		.file 10 "C:/msys64/home/logue-sdk/platform/nutekt-digital/inc/utils/int_math.h"
 614              		.section	.debug_info,"",%progbits
 615              	.Ldebug_info0:
 616 0000 240C0000 		.4byte	0xc24
 617 0004 0400     		.2byte	0x4
 618 0006 00000000 		.4byte	.Ldebug_abbrev0
 619 000a 04       		.byte	0x4
 620 000b 01       		.uleb128 0x1
 621 000c 26000000 		.4byte	.LASF98
 622 0010 04       		.byte	0x4
 623 0011 9A050000 		.4byte	.LASF99
 624 0015 4B020000 		.4byte	.LASF100
ARM GAS  C:\msys64\tmp\ccopjPFb.s 			page 12


 625 0019 F8010000 		.4byte	.Ldebug_ranges0+0x1f8
 626 001d 00000000 		.4byte	0
 627 0021 00000000 		.4byte	.Ldebug_line0
 628 0025 02       		.uleb128 0x2
 629 0026 04       		.byte	0x4
 630 0027 04       		.byte	0x4
 631 0028 EB020000 		.4byte	.LASF0
 632 002c 02       		.uleb128 0x2
 633 002d 04       		.byte	0x4
 634 002e 07       		.byte	0x7
 635 002f 3E010000 		.4byte	.LASF1
 636 0033 02       		.uleb128 0x2
 637 0034 01       		.byte	0x1
 638 0035 06       		.byte	0x6
 639 0036 8B060000 		.4byte	.LASF2
 640 003a 03       		.uleb128 0x3
 641 003b BD050000 		.4byte	.LASF5
 642 003f 05       		.byte	0x5
 643 0040 1D       		.byte	0x1d
 644 0041 45000000 		.4byte	0x45
 645 0045 02       		.uleb128 0x2
 646 0046 01       		.byte	0x1
 647 0047 08       		.byte	0x8
 648 0048 3C060000 		.4byte	.LASF3
 649 004c 02       		.uleb128 0x2
 650 004d 02       		.byte	0x2
 651 004e 05       		.byte	0x5
 652 004f 14050000 		.4byte	.LASF4
 653 0053 03       		.uleb128 0x3
 654 0054 3B030000 		.4byte	.LASF6
 655 0058 05       		.byte	0x5
 656 0059 2B       		.byte	0x2b
 657 005a 5E000000 		.4byte	0x5e
 658 005e 02       		.uleb128 0x2
 659 005f 02       		.byte	0x2
 660 0060 07       		.byte	0x7
 661 0061 97060000 		.4byte	.LASF7
 662 0065 03       		.uleb128 0x3
 663 0066 61010000 		.4byte	.LASF8
 664 006a 05       		.byte	0x5
 665 006b 3F       		.byte	0x3f
 666 006c 70000000 		.4byte	0x70
 667 0070 02       		.uleb128 0x2
 668 0071 04       		.byte	0x4
 669 0072 05       		.byte	0x5
 670 0073 4A050000 		.4byte	.LASF9
 671 0077 03       		.uleb128 0x3
 672 0078 4A060000 		.4byte	.LASF10
 673 007c 05       		.byte	0x5
 674 007d 41       		.byte	0x41
 675 007e 82000000 		.4byte	0x82
 676 0082 02       		.uleb128 0x2
 677 0083 04       		.byte	0x4
 678 0084 07       		.byte	0x7
 679 0085 0C060000 		.4byte	.LASF11
 680 0089 02       		.uleb128 0x2
 681 008a 08       		.byte	0x8
ARM GAS  C:\msys64\tmp\ccopjPFb.s 			page 13


 682 008b 05       		.byte	0x5
 683 008c 0D040000 		.4byte	.LASF12
 684 0090 02       		.uleb128 0x2
 685 0091 08       		.byte	0x8
 686 0092 07       		.byte	0x7
 687 0093 0B030000 		.4byte	.LASF13
 688 0097 04       		.uleb128 0x4
 689 0098 04       		.byte	0x4
 690 0099 05       		.byte	0x5
 691 009a 696E7400 		.ascii	"int\000"
 692 009e 03       		.uleb128 0x3
 693 009f BE030000 		.4byte	.LASF14
 694 00a3 06       		.byte	0x6
 695 00a4 18       		.byte	0x18
 696 00a5 3A000000 		.4byte	0x3a
 697 00a9 03       		.uleb128 0x3
 698 00aa AE040000 		.4byte	.LASF15
 699 00ae 06       		.byte	0x6
 700 00af 24       		.byte	0x24
 701 00b0 53000000 		.4byte	0x53
 702 00b4 03       		.uleb128 0x3
 703 00b5 2C060000 		.4byte	.LASF16
 704 00b9 06       		.byte	0x6
 705 00ba 2C       		.byte	0x2c
 706 00bb 65000000 		.4byte	0x65
 707 00bf 03       		.uleb128 0x3
 708 00c0 D1020000 		.4byte	.LASF17
 709 00c4 06       		.byte	0x6
 710 00c5 30       		.byte	0x30
 711 00c6 77000000 		.4byte	0x77
 712 00ca 02       		.uleb128 0x2
 713 00cb 08       		.byte	0x8
 714 00cc 04       		.byte	0x4
 715 00cd A2040000 		.4byte	.LASF18
 716 00d1 05       		.uleb128 0x5
 717 00d2 73060000 		.4byte	.LASF101
 718 00d6 02       		.uleb128 0x2
 719 00d7 04       		.byte	0x4
 720 00d8 07       		.byte	0x7
 721 00d9 03060000 		.4byte	.LASF19
 722 00dd 02       		.uleb128 0x2
 723 00de 01       		.byte	0x1
 724 00df 08       		.byte	0x8
 725 00e0 99030000 		.4byte	.LASF20
 726 00e4 02       		.uleb128 0x2
 727 00e5 08       		.byte	0x8
 728 00e6 04       		.byte	0x4
 729 00e7 CC060000 		.4byte	.LASF21
 730 00eb 06       		.uleb128 0x6
 731 00ec E3050000 		.4byte	.LASF22
 732 00f0 07       		.byte	0x7
 733 00f1 8D01     		.2byte	0x18d
 734 00f3 B4000000 		.4byte	0xb4
 735 00f7 07       		.uleb128 0x7
 736 00f8 04       		.byte	0x4
 737 00f9 EB000000 		.4byte	0xeb
 738 00fd 07       		.uleb128 0x7
ARM GAS  C:\msys64\tmp\ccopjPFb.s 			page 14


 739 00fe 04       		.byte	0x4
 740 00ff 03010000 		.4byte	0x103
 741 0103 08       		.uleb128 0x8
 742 0104 EB000000 		.4byte	0xeb
 743 0108 07       		.uleb128 0x7
 744 0109 04       		.byte	0x4
 745 010a B4000000 		.4byte	0xb4
 746 010e 09       		.uleb128 0x9
 747 010f 01       		.byte	0x1
 748 0110 45000000 		.4byte	0x45
 749 0114 09       		.byte	0x9
 750 0115 35       		.byte	0x35
 751 0116 3F010000 		.4byte	0x13f
 752 011a 0A       		.uleb128 0xa
 753 011b 5E060000 		.4byte	.LASF23
 754 011f 00       		.byte	0
 755 0120 0A       		.uleb128 0xa
 756 0121 59050000 		.4byte	.LASF24
 757 0125 01       		.byte	0x1
 758 0126 0A       		.uleb128 0xa
 759 0127 F7020000 		.4byte	.LASF25
 760 012b 02       		.byte	0x2
 761 012c 0A       		.uleb128 0xa
 762 012d 73030000 		.4byte	.LASF26
 763 0131 03       		.byte	0x3
 764 0132 0A       		.uleb128 0xa
 765 0133 86040000 		.4byte	.LASF27
 766 0137 04       		.byte	0x4
 767 0138 0A       		.uleb128 0xa
 768 0139 41040000 		.4byte	.LASF28
 769 013d 05       		.byte	0x5
 770 013e 00       		.byte	0
 771 013f 0B       		.uleb128 0xb
 772 0140 4F030000 		.4byte	.LASF45
 773 0144 10       		.byte	0x10
 774 0145 08       		.byte	0x8
 775 0146 3C       		.byte	0x3c
 776 0147 88010000 		.4byte	0x188
 777 014b 0C       		.uleb128 0xc
 778 014c D3060000 		.4byte	.LASF29
 779 0150 08       		.byte	0x8
 780 0151 3E       		.byte	0x3e
 781 0152 B4000000 		.4byte	0xb4
 782 0156 00       		.byte	0
 783 0157 0C       		.uleb128 0xc
 784 0158 74010000 		.4byte	.LASF30
 785 015c 08       		.byte	0x8
 786 015d 40       		.byte	0x40
 787 015e A9000000 		.4byte	0xa9
 788 0162 04       		.byte	0x4
 789 0163 0C       		.uleb128 0xc
 790 0164 92030000 		.4byte	.LASF31
 791 0168 08       		.byte	0x8
 792 0169 42       		.byte	0x42
 793 016a A9000000 		.4byte	0xa9
 794 016e 06       		.byte	0x6
 795 016f 0C       		.uleb128 0xc
ARM GAS  C:\msys64\tmp\ccopjPFb.s 			page 15


 796 0170 37040000 		.4byte	.LASF32
 797 0174 08       		.byte	0x8
 798 0175 44       		.byte	0x44
 799 0176 A9000000 		.4byte	0xa9
 800 017a 08       		.byte	0x8
 801 017b 0C       		.uleb128 0xc
 802 017c A7050000 		.4byte	.LASF33
 803 0180 08       		.byte	0x8
 804 0181 45       		.byte	0x45
 805 0182 88010000 		.4byte	0x188
 806 0186 0A       		.byte	0xa
 807 0187 00       		.byte	0
 808 0188 0D       		.uleb128 0xd
 809 0189 A9000000 		.4byte	0xa9
 810 018d 98010000 		.4byte	0x198
 811 0191 0E       		.uleb128 0xe
 812 0192 D6000000 		.4byte	0xd6
 813 0196 02       		.byte	0x2
 814 0197 00       		.byte	0
 815 0198 03       		.uleb128 0x3
 816 0199 BB060000 		.4byte	.LASF34
 817 019d 08       		.byte	0x8
 818 019e 46       		.byte	0x46
 819 019f 3F010000 		.4byte	0x13f
 820 01a3 0F       		.uleb128 0xf
 821 01a4 01       		.byte	0x1
 822 01a5 45000000 		.4byte	0x45
 823 01a9 08       		.byte	0x8
 824 01aa 4B       		.byte	0x4b
 825 01ab 84050000 		.4byte	.LASF102
 826 01af EA010000 		.4byte	0x1ea
 827 01b3 0A       		.uleb128 0xa
 828 01b4 94010000 		.4byte	.LASF35
 829 01b8 00       		.byte	0
 830 01b9 0A       		.uleb128 0xa
 831 01ba A9010000 		.4byte	.LASF36
 832 01be 01       		.byte	0x1
 833 01bf 0A       		.uleb128 0xa
 834 01c0 BE010000 		.4byte	.LASF37
 835 01c4 02       		.byte	0x2
 836 01c5 0A       		.uleb128 0xa
 837 01c6 D3010000 		.4byte	.LASF38
 838 01ca 03       		.byte	0x3
 839 01cb 0A       		.uleb128 0xa
 840 01cc E8010000 		.4byte	.LASF39
 841 01d0 04       		.byte	0x4
 842 01d1 0A       		.uleb128 0xa
 843 01d2 FD010000 		.4byte	.LASF40
 844 01d6 05       		.byte	0x5
 845 01d7 0A       		.uleb128 0xa
 846 01d8 6D050000 		.4byte	.LASF41
 847 01dc 06       		.byte	0x6
 848 01dd 0A       		.uleb128 0xa
 849 01de ED040000 		.4byte	.LASF42
 850 01e2 07       		.byte	0x7
 851 01e3 0A       		.uleb128 0xa
 852 01e4 27020000 		.4byte	.LASF43
ARM GAS  C:\msys64\tmp\ccopjPFb.s 			page 16


 853 01e8 08       		.byte	0x8
 854 01e9 00       		.byte	0
 855 01ea 03       		.uleb128 0x3
 856 01eb 7A010000 		.4byte	.LASF44
 857 01ef 08       		.byte	0x8
 858 01f0 5D       		.byte	0x5d
 859 01f1 A3010000 		.4byte	0x1a3
 860 01f5 07       		.uleb128 0x7
 861 01f6 04       		.byte	0x4
 862 01f7 FB010000 		.4byte	0x1fb
 863 01fb 08       		.uleb128 0x8
 864 01fc 98010000 		.4byte	0x198
 865 0200 10       		.uleb128 0x10
 866 0201 504400   		.ascii	"PD\000"
 867 0204 10       		.byte	0x10
 868 0205 04       		.byte	0x4
 869 0206 0F       		.byte	0xf
 870 0207 17030000 		.4byte	0x317
 871 020b 09       		.uleb128 0x9
 872 020c 01       		.byte	0x1
 873 020d 45000000 		.4byte	0x45
 874 0211 04       		.byte	0x4
 875 0212 11       		.byte	0x11
 876 0213 24020000 		.4byte	0x224
 877 0217 0A       		.uleb128 0xa
 878 0218 C6030000 		.4byte	.LASF46
 879 021c 00       		.byte	0
 880 021d 0A       		.uleb128 0xa
 881 021e 2C040000 		.4byte	.LASF47
 882 0222 01       		.byte	0x1
 883 0223 00       		.byte	0
 884 0224 0B       		.uleb128 0xb
 885 0225 BC040000 		.4byte	.LASF48
 886 0229 04       		.byte	0x4
 887 022a 04       		.byte	0x4
 888 022b 16       		.byte	0x16
 889 022c 56020000 		.4byte	0x256
 890 0230 0C       		.uleb128 0xc
 891 0231 53050000 		.4byte	.LASF49
 892 0235 04       		.byte	0x4
 893 0236 17       		.byte	0x17
 894 0237 25000000 		.4byte	0x25
 895 023b 00       		.byte	0
 896 023c 11       		.uleb128 0x11
 897 023d BC040000 		.4byte	.LASF48
 898 0241 04       		.byte	0x4
 899 0242 19       		.byte	0x19
 900 0243 E7030000 		.4byte	.LASF103
 901 0247 17030000 		.4byte	0x317
 902 024b 4F020000 		.4byte	0x24f
 903 024f 12       		.uleb128 0x12
 904 0250 17030000 		.4byte	0x317
 905 0254 00       		.byte	0
 906 0255 00       		.byte	0
 907 0256 0B       		.uleb128 0xb
 908 0257 8E010000 		.4byte	.LASF50
 909 025b 0C       		.byte	0xc
ARM GAS  C:\msys64\tmp\ccopjPFb.s 			page 17


 910 025c 04       		.byte	0x4
 911 025d 1E       		.byte	0x1e
 912 025e BB020000 		.4byte	0x2bb
 913 0262 13       		.uleb128 0x13
 914 0263 70686900 		.ascii	"phi\000"
 915 0267 04       		.byte	0x4
 916 0268 1F       		.byte	0x1f
 917 0269 25000000 		.4byte	0x25
 918 026d 00       		.byte	0
 919 026e 13       		.uleb128 0x13
 920 026f 773000   		.ascii	"w0\000"
 921 0272 04       		.byte	0x4
 922 0273 20       		.byte	0x20
 923 0274 25000000 		.4byte	0x25
 924 0278 04       		.byte	0x4
 925 0279 14       		.uleb128 0x14
 926 027a 20000000 		.4byte	.LASF79
 927 027e 04       		.byte	0x4
 928 027f 21       		.byte	0x21
 929 0280 BF000000 		.4byte	0xbf
 930 0284 04       		.byte	0x4
 931 0285 01       		.byte	0x1
 932 0286 1F       		.byte	0x1f
 933 0287 08       		.byte	0x8
 934 0288 15       		.uleb128 0x15
 935 0289 8E010000 		.4byte	.LASF50
 936 028d 04       		.byte	0x4
 937 028e 22       		.byte	0x22
 938 028f 1B040000 		.4byte	.LASF54
 939 0293 1D030000 		.4byte	0x31d
 940 0297 9F020000 		.4byte	0x29f
 941 029b A5020000 		.4byte	0x2a5
 942 029f 12       		.uleb128 0x12
 943 02a0 1D030000 		.4byte	0x31d
 944 02a4 00       		.byte	0
 945 02a5 16       		.uleb128 0x16
 946 02a6 A1050000 		.4byte	.LASF104
 947 02aa 04       		.byte	0x4
 948 02ab 2A       		.byte	0x2a
 949 02ac 12020000 		.4byte	.LASF105
 950 02b0 B4020000 		.4byte	0x2b4
 951 02b4 12       		.uleb128 0x12
 952 02b5 1D030000 		.4byte	0x31d
 953 02b9 00       		.byte	0
 954 02ba 00       		.byte	0
 955 02bb 0C       		.uleb128 0xc
 956 02bc 85060000 		.4byte	.LASF51
 957 02c0 04       		.byte	0x4
 958 02c1 45       		.byte	0x45
 959 02c2 56020000 		.4byte	0x256
 960 02c6 00       		.byte	0
 961 02c7 0C       		.uleb128 0xc
 962 02c8 00000000 		.4byte	.LASF52
 963 02cc 04       		.byte	0x4
 964 02cd 46       		.byte	0x46
 965 02ce 24020000 		.4byte	0x224
 966 02d2 0C       		.byte	0xc
ARM GAS  C:\msys64\tmp\ccopjPFb.s 			page 18


 967 02d3 17       		.uleb128 0x17
 968 02d4 504400   		.ascii	"PD\000"
 969 02d7 04       		.byte	0x4
 970 02d8 2F       		.byte	0x2f
 971 02d9 F9030000 		.4byte	.LASF106
 972 02dd 23030000 		.4byte	0x323
 973 02e1 E9020000 		.4byte	0x2e9
 974 02e5 EF020000 		.4byte	0x2ef
 975 02e9 12       		.uleb128 0x12
 976 02ea 23030000 		.4byte	0x323
 977 02ee 00       		.byte	0
 978 02ef 15       		.uleb128 0x15
 979 02f0 22030000 		.4byte	.LASF53
 980 02f4 04       		.byte	0x4
 981 02f5 34       		.byte	0x34
 982 02f6 E9050000 		.4byte	.LASF55
 983 02fa 25000000 		.4byte	0x25
 984 02fe 06030000 		.4byte	0x306
 985 0302 11030000 		.4byte	0x311
 986 0306 12       		.uleb128 0x12
 987 0307 23030000 		.4byte	0x323
 988 030b 18       		.uleb128 0x18
 989 030c 25000000 		.4byte	0x25
 990 0310 00       		.byte	0
 991 0311 08       		.uleb128 0x8
 992 0312 24020000 		.4byte	0x224
 993 0316 00       		.byte	0
 994 0317 07       		.uleb128 0x7
 995 0318 04       		.byte	0x4
 996 0319 24020000 		.4byte	0x224
 997 031d 07       		.uleb128 0x7
 998 031e 04       		.byte	0x4
 999 031f 56020000 		.4byte	0x256
 1000 0323 07       		.uleb128 0x7
 1001 0324 04       		.byte	0x4
 1002 0325 00020000 		.4byte	0x200
 1003 0329 19       		.uleb128 0x19
 1004 032a D9050000 		.4byte	.LASF56
 1005 032e 02       		.byte	0x2
 1006 032f C0       		.byte	0xc0
 1007 0330 25000000 		.4byte	0x25
 1008 0334 03       		.byte	0x3
 1009 0335 55030000 		.4byte	0x355
 1010 0339 1A       		.uleb128 0x1a
 1011 033a 6100     		.ascii	"a\000"
 1012 033c 02       		.byte	0x2
 1013 033d C0       		.byte	0xc0
 1014 033e 55030000 		.4byte	0x355
 1015 0342 1A       		.uleb128 0x1a
 1016 0343 6200     		.ascii	"b\000"
 1017 0345 02       		.byte	0x2
 1018 0346 C0       		.byte	0xc0
 1019 0347 55030000 		.4byte	0x355
 1020 034b 1A       		.uleb128 0x1a
 1021 034c 6300     		.ascii	"c\000"
 1022 034e 02       		.byte	0x2
 1023 034f C0       		.byte	0xc0
ARM GAS  C:\msys64\tmp\ccopjPFb.s 			page 19


 1024 0350 55030000 		.4byte	0x355
 1025 0354 00       		.byte	0
 1026 0355 08       		.uleb128 0x8
 1027 0356 25000000 		.4byte	0x25
 1028 035a 1B       		.uleb128 0x1b
 1029 035b E6060000 		.4byte	.LASF57
 1030 035f 02       		.byte	0x2
 1031 0360 4901     		.2byte	0x149
 1032 0362 25000000 		.4byte	0x25
 1033 0366 03       		.byte	0x3
 1034 0367 82030000 		.4byte	0x382
 1035 036b 1C       		.uleb128 0x1c
 1036 036c 7800     		.ascii	"x\000"
 1037 036e 02       		.byte	0x2
 1038 036f 4901     		.2byte	0x149
 1039 0371 55030000 		.4byte	0x355
 1040 0375 1C       		.uleb128 0x1c
 1041 0376 6D617800 		.ascii	"max\000"
 1042 037a 02       		.byte	0x2
 1043 037b 4901     		.2byte	0x149
 1044 037d 55030000 		.4byte	0x355
 1045 0381 00       		.byte	0
 1046 0382 1B       		.uleb128 0x1b
 1047 0383 C7020000 		.4byte	.LASF58
 1048 0387 02       		.byte	0x2
 1049 0388 3C01     		.2byte	0x13c
 1050 038a 25000000 		.4byte	0x25
 1051 038e 03       		.byte	0x3
 1052 038f B6030000 		.4byte	0x3b6
 1053 0393 1C       		.uleb128 0x1c
 1054 0394 6D696E00 		.ascii	"min\000"
 1055 0398 02       		.byte	0x2
 1056 0399 3C01     		.2byte	0x13c
 1057 039b 55030000 		.4byte	0x355
 1058 039f 1C       		.uleb128 0x1c
 1059 03a0 7800     		.ascii	"x\000"
 1060 03a2 02       		.byte	0x2
 1061 03a3 3C01     		.2byte	0x13c
 1062 03a5 25000000 		.4byte	0x25
 1063 03a9 1C       		.uleb128 0x1c
 1064 03aa 6D617800 		.ascii	"max\000"
 1065 03ae 02       		.byte	0x2
 1066 03af 3C01     		.2byte	0x13c
 1067 03b1 55030000 		.4byte	0x355
 1068 03b5 00       		.byte	0
 1069 03b6 19       		.uleb128 0x19
 1070 03b7 54040000 		.4byte	.LASF59
 1071 03bb 0A       		.byte	0xa
 1072 03bc 54       		.byte	0x54
 1073 03bd BF000000 		.4byte	0xbf
 1074 03c1 03       		.byte	0x3
 1075 03c2 D9030000 		.4byte	0x3d9
 1076 03c6 1A       		.uleb128 0x1a
 1077 03c7 7800     		.ascii	"x\000"
 1078 03c9 0A       		.byte	0xa
 1079 03ca 54       		.byte	0x54
 1080 03cb D9030000 		.4byte	0x3d9
ARM GAS  C:\msys64\tmp\ccopjPFb.s 			page 20


 1081 03cf 1A       		.uleb128 0x1a
 1082 03d0 6D00     		.ascii	"m\000"
 1083 03d2 0A       		.byte	0xa
 1084 03d3 54       		.byte	0x54
 1085 03d4 D9030000 		.4byte	0x3d9
 1086 03d8 00       		.byte	0
 1087 03d9 08       		.uleb128 0x8
 1088 03da BF000000 		.4byte	0xbf
 1089 03de 1B       		.uleb128 0x1b
 1090 03df 04040000 		.4byte	.LASF60
 1091 03e3 02       		.byte	0x2
 1092 03e4 8501     		.2byte	0x185
 1093 03e6 25000000 		.4byte	0x25
 1094 03ea 03       		.byte	0x3
 1095 03eb 04040000 		.4byte	0x404
 1096 03ef 1C       		.uleb128 0x1c
 1097 03f0 7800     		.ascii	"x\000"
 1098 03f2 02       		.byte	0x2
 1099 03f3 8501     		.2byte	0x185
 1100 03f5 55030000 		.4byte	0x355
 1101 03f9 1C       		.uleb128 0x1c
 1102 03fa 6D00     		.ascii	"m\000"
 1103 03fc 02       		.byte	0x2
 1104 03fd 8501     		.2byte	0x185
 1105 03ff 55030000 		.4byte	0x355
 1106 0403 00       		.byte	0
 1107 0404 1B       		.uleb128 0x1b
 1108 0405 34060000 		.4byte	.LASF61
 1109 0409 02       		.byte	0x2
 1110 040a 3903     		.2byte	0x339
 1111 040c 25000000 		.4byte	0x25
 1112 0410 03       		.byte	0x3
 1113 0411 37040000 		.4byte	0x437
 1114 0415 1C       		.uleb128 0x1c
 1115 0416 667200   		.ascii	"fr\000"
 1116 0419 02       		.byte	0x2
 1117 041a 3903     		.2byte	0x339
 1118 041c 55030000 		.4byte	0x355
 1119 0420 1C       		.uleb128 0x1c
 1120 0421 783000   		.ascii	"x0\000"
 1121 0424 02       		.byte	0x2
 1122 0425 3903     		.2byte	0x339
 1123 0427 55030000 		.4byte	0x355
 1124 042b 1C       		.uleb128 0x1c
 1125 042c 783100   		.ascii	"x1\000"
 1126 042f 02       		.byte	0x2
 1127 0430 3903     		.2byte	0x339
 1128 0432 55030000 		.4byte	0x355
 1129 0436 00       		.byte	0
 1130 0437 19       		.uleb128 0x19
 1131 0438 D1030000 		.4byte	.LASF62
 1132 043c 03       		.byte	0x3
 1133 043d 6C       		.byte	0x6c
 1134 043e 25000000 		.4byte	0x25
 1135 0442 03       		.byte	0x3
 1136 0443 53040000 		.4byte	0x453
 1137 0447 1D       		.uleb128 0x1d
ARM GAS  C:\msys64\tmp\ccopjPFb.s 			page 21


 1138 0448 DE050000 		.4byte	.LASF63
 1139 044c 03       		.byte	0x3
 1140 044d 6C       		.byte	0x6c
 1141 044e 9E000000 		.4byte	0x9e
 1142 0452 00       		.byte	0
 1143 0453 19       		.uleb128 0x19
 1144 0454 58010000 		.4byte	.LASF64
 1145 0458 03       		.byte	0x3
 1146 0459 96       		.byte	0x96
 1147 045a 25000000 		.4byte	0x25
 1148 045e 03       		.byte	0x3
 1149 045f AA040000 		.4byte	0x4aa
 1150 0463 1A       		.uleb128 0x1a
 1151 0464 7800     		.ascii	"x\000"
 1152 0466 03       		.byte	0x3
 1153 0467 96       		.byte	0x96
 1154 0468 25000000 		.4byte	0x25
 1155 046c 1E       		.uleb128 0x1e
 1156 046d 7000     		.ascii	"p\000"
 1157 046f 03       		.byte	0x3
 1158 0470 97       		.byte	0x97
 1159 0471 55030000 		.4byte	0x355
 1160 0475 1E       		.uleb128 0x1e
 1161 0476 78306600 		.ascii	"x0f\000"
 1162 047a 03       		.byte	0x3
 1163 047b 9A       		.byte	0x9a
 1164 047c 55030000 		.4byte	0x355
 1165 0480 1E       		.uleb128 0x1e
 1166 0481 78307000 		.ascii	"x0p\000"
 1167 0485 03       		.byte	0x3
 1168 0486 9B       		.byte	0x9b
 1169 0487 D9030000 		.4byte	0x3d9
 1170 048b 1E       		.uleb128 0x1e
 1171 048c 783000   		.ascii	"x0\000"
 1172 048f 03       		.byte	0x3
 1173 0490 9D       		.byte	0x9d
 1174 0491 D9030000 		.4byte	0x3d9
 1175 0495 1E       		.uleb128 0x1e
 1176 0496 783100   		.ascii	"x1\000"
 1177 0499 03       		.byte	0x3
 1178 049a 9E       		.byte	0x9e
 1179 049b D9030000 		.4byte	0x3d9
 1180 049f 1E       		.uleb128 0x1e
 1181 04a0 793000   		.ascii	"y0\000"
 1182 04a3 03       		.byte	0x3
 1183 04a4 A0       		.byte	0xa0
 1184 04a5 55030000 		.4byte	0x355
 1185 04a9 00       		.byte	0
 1186 04aa 1B       		.uleb128 0x1b
 1187 04ab DD060000 		.4byte	.LASF65
 1188 04af 02       		.byte	0x2
 1189 04b0 AF01     		.2byte	0x1af
 1190 04b2 25000000 		.4byte	0x25
 1191 04b6 03       		.byte	0x3
 1192 04b7 C6040000 		.4byte	0x4c6
 1193 04bb 1C       		.uleb128 0x1c
 1194 04bc 7800     		.ascii	"x\000"
ARM GAS  C:\msys64\tmp\ccopjPFb.s 			page 22


 1195 04be 02       		.byte	0x2
 1196 04bf AF01     		.2byte	0x1af
 1197 04c1 55030000 		.4byte	0x355
 1198 04c5 00       		.byte	0
 1199 04c6 1F       		.uleb128 0x1f
 1200 04c7 A5020000 		.4byte	0x2a5
 1201 04cb 03       		.byte	0x3
 1202 04cc D4040000 		.4byte	0x4d4
 1203 04d0 DE040000 		.4byte	0x4de
 1204 04d4 20       		.uleb128 0x20
 1205 04d5 B7040000 		.4byte	.LASF66
 1206 04d9 DE040000 		.4byte	0x4de
 1207 04dd 00       		.byte	0
 1208 04de 08       		.uleb128 0x8
 1209 04df 1D030000 		.4byte	0x31d
 1210 04e3 1F       		.uleb128 0x1f
 1211 04e4 3C020000 		.4byte	0x23c
 1212 04e8 03       		.byte	0x3
 1213 04e9 F1040000 		.4byte	0x4f1
 1214 04ed FB040000 		.4byte	0x4fb
 1215 04f1 20       		.uleb128 0x20
 1216 04f2 B7040000 		.4byte	.LASF66
 1217 04f6 FB040000 		.4byte	0x4fb
 1218 04fa 00       		.byte	0
 1219 04fb 08       		.uleb128 0x8
 1220 04fc 17030000 		.4byte	0x317
 1221 0500 1F       		.uleb128 0x1f
 1222 0501 88020000 		.4byte	0x288
 1223 0505 03       		.byte	0x3
 1224 0506 0E050000 		.4byte	0x50e
 1225 050a 18050000 		.4byte	0x518
 1226 050e 20       		.uleb128 0x20
 1227 050f B7040000 		.4byte	.LASF66
 1228 0513 DE040000 		.4byte	0x4de
 1229 0517 00       		.byte	0
 1230 0518 1F       		.uleb128 0x1f
 1231 0519 D3020000 		.4byte	0x2d3
 1232 051d 03       		.byte	0x3
 1233 051e 26050000 		.4byte	0x526
 1234 0522 30050000 		.4byte	0x530
 1235 0526 20       		.uleb128 0x20
 1236 0527 B7040000 		.4byte	.LASF66
 1237 052b 30050000 		.4byte	0x530
 1238 052f 00       		.byte	0
 1239 0530 08       		.uleb128 0x8
 1240 0531 23030000 		.4byte	0x323
 1241 0535 19       		.uleb128 0x19
 1242 0536 55060000 		.4byte	.LASF67
 1243 053a 03       		.byte	0x3
 1244 053b AA       		.byte	0xaa
 1245 053c 25000000 		.4byte	0x25
 1246 0540 03       		.byte	0x3
 1247 0541 4F050000 		.4byte	0x54f
 1248 0545 1A       		.uleb128 0x1a
 1249 0546 7800     		.ascii	"x\000"
 1250 0548 03       		.byte	0x3
 1251 0549 AA       		.byte	0xaa
ARM GAS  C:\msys64\tmp\ccopjPFb.s 			page 23


 1252 054a 25000000 		.4byte	0x25
 1253 054e 00       		.byte	0
 1254 054f 1F       		.uleb128 0x1f
 1255 0550 EF020000 		.4byte	0x2ef
 1256 0554 03       		.byte	0x3
 1257 0555 5D050000 		.4byte	0x55d
 1258 0559 B9050000 		.4byte	0x5b9
 1259 055d 20       		.uleb128 0x20
 1260 055e B7040000 		.4byte	.LASF66
 1261 0562 30050000 		.4byte	0x530
 1262 0566 1A       		.uleb128 0x1a
 1263 0567 70686900 		.ascii	"phi\000"
 1264 056b 04       		.byte	0x4
 1265 056c 34       		.byte	0x34
 1266 056d 25000000 		.4byte	0x25
 1267 0571 1E       		.uleb128 0x1e
 1268 0572 6400     		.ascii	"d\000"
 1269 0574 04       		.byte	0x4
 1270 0575 35       		.byte	0x35
 1271 0576 25000000 		.4byte	0x25
 1272 057a 1E       		.uleb128 0x1e
 1273 057b 706400   		.ascii	"pd\000"
 1274 057e 04       		.byte	0x4
 1275 057f 37       		.byte	0x37
 1276 0580 25000000 		.4byte	0x25
 1277 0584 21       		.uleb128 0x21
 1278 0585 95050000 		.4byte	0x595
 1279 0589 22       		.uleb128 0x22
 1280 058a 32030000 		.4byte	.LASF68
 1281 058e 04       		.byte	0x4
 1282 058f 39       		.byte	0x39
 1283 0590 25000000 		.4byte	0x25
 1284 0594 00       		.byte	0
 1285 0595 23       		.uleb128 0x23
 1286 0596 22       		.uleb128 0x22
 1287 0597 98040000 		.4byte	.LASF69
 1288 059b 04       		.byte	0x4
 1289 059c 3C       		.byte	0x3c
 1290 059d 25000000 		.4byte	0x25
 1291 05a1 22       		.uleb128 0x22
 1292 05a2 B1050000 		.4byte	.LASF70
 1293 05a6 04       		.byte	0x4
 1294 05a7 3D       		.byte	0x3d
 1295 05a8 25000000 		.4byte	0x25
 1296 05ac 22       		.uleb128 0x22
 1297 05ad 32030000 		.4byte	.LASF68
 1298 05b1 04       		.byte	0x4
 1299 05b2 3E       		.byte	0x3e
 1300 05b3 25000000 		.4byte	0x25
 1301 05b7 00       		.byte	0
 1302 05b8 00       		.byte	0
 1303 05b9 19       		.uleb128 0x19
 1304 05ba AA060000 		.4byte	.LASF71
 1305 05be 03       		.byte	0x3
 1306 05bf 76       		.byte	0x76
 1307 05c0 25000000 		.4byte	0x25
 1308 05c4 03       		.byte	0x3
ARM GAS  C:\msys64\tmp\ccopjPFb.s 			page 24


 1309 05c5 FD050000 		.4byte	0x5fd
 1310 05c9 1D       		.uleb128 0x1d
 1311 05ca DE050000 		.4byte	.LASF63
 1312 05ce 03       		.byte	0x3
 1313 05cf 76       		.byte	0x76
 1314 05d0 9E000000 		.4byte	0x9e
 1315 05d4 1A       		.uleb128 0x1a
 1316 05d5 6D6F6400 		.ascii	"mod\000"
 1317 05d9 03       		.byte	0x3
 1318 05da 76       		.byte	0x76
 1319 05db 9E000000 		.4byte	0x9e
 1320 05df 1E       		.uleb128 0x1e
 1321 05e0 663000   		.ascii	"f0\000"
 1322 05e3 03       		.byte	0x3
 1323 05e4 77       		.byte	0x77
 1324 05e5 55030000 		.4byte	0x355
 1325 05e9 1E       		.uleb128 0x1e
 1326 05ea 663100   		.ascii	"f1\000"
 1327 05ed 03       		.byte	0x3
 1328 05ee 78       		.byte	0x78
 1329 05ef 55030000 		.4byte	0x355
 1330 05f3 1E       		.uleb128 0x1e
 1331 05f4 6600     		.ascii	"f\000"
 1332 05f6 03       		.byte	0x3
 1333 05f7 7A       		.byte	0x7a
 1334 05f8 55030000 		.4byte	0x355
 1335 05fc 00       		.byte	0
 1336 05fd 1B       		.uleb128 0x1b
 1337 05fe B9020000 		.4byte	.LASF72
 1338 0602 03       		.byte	0x3
 1339 0603 9902     		.2byte	0x299
 1340 0605 25000000 		.4byte	0x25
 1341 0609 03       		.byte	0x3
 1342 060a 23060000 		.4byte	0x623
 1343 060e 1C       		.uleb128 0x1c
 1344 060f 6300     		.ascii	"c\000"
 1345 0611 03       		.byte	0x3
 1346 0612 9902     		.2byte	0x299
 1347 0614 55030000 		.4byte	0x355
 1348 0618 1C       		.uleb128 0x1c
 1349 0619 7800     		.ascii	"x\000"
 1350 061b 03       		.byte	0x3
 1351 061c 9902     		.2byte	0x299
 1352 061e 25000000 		.4byte	0x25
 1353 0622 00       		.byte	0
 1354 0623 24       		.uleb128 0x24
 1355 0624 C3040000 		.4byte	.LASF107
 1356 0628 01       		.byte	0x1
 1357 0629 44060000 		.4byte	0x644
 1358 062d 1D       		.uleb128 0x1d
 1359 062e 64030000 		.4byte	.LASF73
 1360 0632 01       		.byte	0x1
 1361 0633 68       		.byte	0x68
 1362 0634 97000000 		.4byte	0x97
 1363 0638 1D       		.uleb128 0x1d
 1364 0639 87030000 		.4byte	.LASF74
 1365 063d 01       		.byte	0x1
ARM GAS  C:\msys64\tmp\ccopjPFb.s 			page 25


 1366 063e 68       		.byte	0x68
 1367 063f 97000000 		.4byte	0x97
 1368 0643 00       		.byte	0
 1369 0644 25       		.uleb128 0x25
 1370 0645 09050000 		.4byte	.LASF75
 1371 0649 01       		.byte	0x1
 1372 064a 0F       		.byte	0xf
 1373 064b 00000000 		.4byte	.LFB250
 1374 064f 02000000 		.4byte	.LFE250-.LFB250
 1375 0653 01       		.uleb128 0x1
 1376 0654 9C       		.byte	0x9c
 1377 0655 74060000 		.4byte	0x674
 1378 0659 26       		.uleb128 0x26
 1379 065a 6B010000 		.4byte	.LASF76
 1380 065e 01       		.byte	0x1
 1381 065f 0F       		.byte	0xf
 1382 0660 BF000000 		.4byte	0xbf
 1383 0664 01       		.uleb128 0x1
 1384 0665 50       		.byte	0x50
 1385 0666 27       		.uleb128 0x27
 1386 0667 61706900 		.ascii	"api\000"
 1387 066b 01       		.byte	0x1
 1388 066c 0F       		.byte	0xf
 1389 066d BF000000 		.4byte	0xbf
 1390 0671 01       		.uleb128 0x1
 1391 0672 51       		.byte	0x51
 1392 0673 00       		.byte	0
 1393 0674 25       		.uleb128 0x25
 1394 0675 3F020000 		.4byte	.LASF77
 1395 0679 01       		.byte	0x1
 1396 067a 14       		.byte	0x14
 1397 067b 02000000 		.4byte	.LFB251
 1398 067f 8E010000 		.4byte	.LFE251-.LFB251
 1399 0683 01       		.uleb128 0x1
 1400 0684 9C       		.byte	0x9c
 1401 0685 BE090000 		.4byte	0x9be
 1402 0689 28       		.uleb128 0x28
 1403 068a 00000000 		.4byte	.LASF52
 1404 068e 01       		.byte	0x1
 1405 068f 14       		.byte	0x14
 1406 0690 BE090000 		.4byte	0x9be
 1407 0694 00000000 		.4byte	.LLST0
 1408 0698 29       		.uleb128 0x29
 1409 0699 796E00   		.ascii	"yn\000"
 1410 069c 01       		.byte	0x1
 1411 069d 14       		.byte	0x14
 1412 069e 08010000 		.4byte	0x108
 1413 06a2 21000000 		.4byte	.LLST1
 1414 06a6 28       		.uleb128 0x28
 1415 06a7 A8030000 		.4byte	.LASF78
 1416 06ab 01       		.byte	0x1
 1417 06ac 14       		.byte	0x14
 1418 06ad D9030000 		.4byte	0x3d9
 1419 06b1 42000000 		.4byte	.LLST2
 1420 06b5 2A       		.uleb128 0x2a
 1421 06b6 7300     		.ascii	"s\000"
 1422 06b8 01       		.byte	0x1
ARM GAS  C:\msys64\tmp\ccopjPFb.s 			page 26


 1423 06b9 16       		.byte	0x16
 1424 06ba C9090000 		.4byte	0x9c9
 1425 06be 06       		.uleb128 0x6
 1426 06bf 03       		.byte	0x3
 1427 06c0 00000000 		.4byte	_ZL2pd
 1428 06c4 9F       		.byte	0x9f
 1429 06c5 2A       		.uleb128 0x2a
 1430 06c6 7000     		.ascii	"p\000"
 1431 06c8 01       		.byte	0x1
 1432 06c9 17       		.byte	0x17
 1433 06ca D4090000 		.4byte	0x9d4
 1434 06ce 06       		.uleb128 0x6
 1435 06cf 03       		.byte	0x3
 1436 06d0 0C000000 		.4byte	_ZL2pd+12
 1437 06d4 9F       		.byte	0x9f
 1438 06d5 2B       		.uleb128 0x2b
 1439 06d6 20000000 		.4byte	.LASF79
 1440 06da 01       		.byte	0x1
 1441 06db 1A       		.byte	0x1a
 1442 06dc D9030000 		.4byte	0x3d9
 1443 06e0 0B       		.uleb128 0xb
 1444 06e1 03       		.byte	0x3
 1445 06e2 08000000 		.4byte	_ZL2pd+8
 1446 06e6 94       		.byte	0x94
 1447 06e7 01       		.byte	0x1
 1448 06e8 08       		.byte	0x8
 1449 06e9 FF       		.byte	0xff
 1450 06ea 1A       		.byte	0x1a
 1451 06eb 9F       		.byte	0x9f
 1452 06ec 2C       		.uleb128 0x2c
 1453 06ed DE050000 		.4byte	.LASF63
 1454 06f1 01       		.byte	0x1
 1455 06f2 24       		.byte	0x24
 1456 06f3 9E000000 		.4byte	0x9e
 1457 06f7 63000000 		.4byte	.LLST3
 1458 06fb 2A       		.uleb128 0x2a
 1459 06fc 773000   		.ascii	"w0\000"
 1460 06ff 01       		.byte	0x1
 1461 0700 27       		.byte	0x27
 1462 0701 25000000 		.4byte	0x25
 1463 0705 02       		.uleb128 0x2
 1464 0706 90       		.byte	0x90
 1465 0707 4C       		.uleb128 0x4c
 1466 0708 2A       		.uleb128 0x2a
 1467 0709 70686900 		.ascii	"phi\000"
 1468 070d 01       		.byte	0x1
 1469 070e 2A       		.byte	0x2a
 1470 070f 25000000 		.4byte	0x25
 1471 0713 02       		.uleb128 0x2
 1472 0714 90       		.byte	0x90
 1473 0715 4D       		.uleb128 0x4d
 1474 0716 2D       		.uleb128 0x2d
 1475 0717 7900     		.ascii	"y\000"
 1476 0719 01       		.byte	0x1
 1477 071a 2D       		.byte	0x2d
 1478 071b F7000000 		.4byte	0xf7
 1479 071f 9B000000 		.4byte	.LLST4
ARM GAS  C:\msys64\tmp\ccopjPFb.s 			page 27


 1480 0723 2A       		.uleb128 0x2a
 1481 0724 795F6500 		.ascii	"y_e\000"
 1482 0728 01       		.byte	0x1
 1483 0729 2E       		.byte	0x2e
 1484 072a FD000000 		.4byte	0xfd
 1485 072e 01       		.uleb128 0x1
 1486 072f 52       		.byte	0x52
 1487 0730 2E       		.uleb128 0x2e
 1488 0731 B9050000 		.4byte	0x5b9
 1489 0735 0A000000 		.4byte	.LBB162
 1490 0739 00000000 		.4byte	.Ldebug_ranges0+0
 1491 073d 01       		.byte	0x1
 1492 073e 27       		.byte	0x27
 1493 073f 21080000 		.4byte	0x821
 1494 0743 2F       		.uleb128 0x2f
 1495 0744 D4050000 		.4byte	0x5d4
 1496 0748 C6000000 		.4byte	.LLST5
 1497 074c 30       		.uleb128 0x30
 1498 074d C9050000 		.4byte	0x5c9
 1499 0751 31       		.uleb128 0x31
 1500 0752 00000000 		.4byte	.Ldebug_ranges0+0
 1501 0756 32       		.uleb128 0x32
 1502 0757 DF050000 		.4byte	0x5df
 1503 075b 32       		.uleb128 0x32
 1504 075c E9050000 		.4byte	0x5e9
 1505 0760 32       		.uleb128 0x32
 1506 0761 F3050000 		.4byte	0x5f3
 1507 0765 2E       		.uleb128 0x2e
 1508 0766 04040000 		.4byte	0x404
 1509 076a 0A000000 		.4byte	.LBB164
 1510 076e 40000000 		.4byte	.Ldebug_ranges0+0x40
 1511 0772 03       		.byte	0x3
 1512 0773 7A       		.byte	0x7a
 1513 0774 88070000 		.4byte	0x788
 1514 0778 30       		.uleb128 0x30
 1515 0779 2B040000 		.4byte	0x42b
 1516 077d 30       		.uleb128 0x30
 1517 077e 20040000 		.4byte	0x420
 1518 0782 30       		.uleb128 0x30
 1519 0783 15040000 		.4byte	0x415
 1520 0787 00       		.byte	0
 1521 0788 2E       		.uleb128 0x2e
 1522 0789 37040000 		.4byte	0x437
 1523 078d 22000000 		.4byte	.LBB169
 1524 0791 68000000 		.4byte	.Ldebug_ranges0+0x68
 1525 0795 03       		.byte	0x3
 1526 0796 77       		.byte	0x77
 1527 0797 A1070000 		.4byte	0x7a1
 1528 079b 30       		.uleb128 0x30
 1529 079c 47040000 		.4byte	0x447
 1530 07a0 00       		.byte	0
 1531 07a1 2E       		.uleb128 0x2e
 1532 07a2 37040000 		.4byte	0x437
 1533 07a6 3A000000 		.4byte	.LBB176
 1534 07aa 98000000 		.4byte	.Ldebug_ranges0+0x98
 1535 07ae 03       		.byte	0x3
 1536 07af 78       		.byte	0x78
ARM GAS  C:\msys64\tmp\ccopjPFb.s 			page 28


 1537 07b0 BA070000 		.4byte	0x7ba
 1538 07b4 30       		.uleb128 0x30
 1539 07b5 47040000 		.4byte	0x447
 1540 07b9 00       		.byte	0
 1541 07ba 33       		.uleb128 0x33
 1542 07bb DE030000 		.4byte	0x3de
 1543 07bf 70000000 		.4byte	.LBB188
 1544 07c3 12000000 		.4byte	.LBE188-.LBB188
 1545 07c7 03       		.byte	0x3
 1546 07c8 7A       		.byte	0x7a
 1547 07c9 2F       		.uleb128 0x2f
 1548 07ca F9030000 		.4byte	0x3f9
 1549 07ce F7000000 		.4byte	.LLST6
 1550 07d2 30       		.uleb128 0x30
 1551 07d3 EF030000 		.4byte	0x3ef
 1552 07d7 34       		.uleb128 0x34
 1553 07d8 5A030000 		.4byte	0x35a
 1554 07dc 70000000 		.4byte	.LBB189
 1555 07e0 12000000 		.4byte	.LBE189-.LBB189
 1556 07e4 02       		.byte	0x2
 1557 07e5 8601     		.2byte	0x186
 1558 07e7 2F       		.uleb128 0x2f
 1559 07e8 75030000 		.4byte	0x375
 1560 07ec F7000000 		.4byte	.LLST6
 1561 07f0 30       		.uleb128 0x30
 1562 07f1 6B030000 		.4byte	0x36b
 1563 07f5 34       		.uleb128 0x34
 1564 07f6 29030000 		.4byte	0x329
 1565 07fa 70000000 		.4byte	.LBB190
 1566 07fe 12000000 		.4byte	.LBE190-.LBB190
 1567 0802 02       		.byte	0x2
 1568 0803 4B01     		.2byte	0x14b
 1569 0805 30       		.uleb128 0x30
 1570 0806 4B030000 		.4byte	0x34b
 1571 080a 2F       		.uleb128 0x2f
 1572 080b 42030000 		.4byte	0x342
 1573 080f F7000000 		.4byte	.LLST6
 1574 0813 2F       		.uleb128 0x2f
 1575 0814 39030000 		.4byte	0x339
 1576 0818 0F010000 		.4byte	.LLST9
 1577 081c 00       		.byte	0
 1578 081d 00       		.byte	0
 1579 081e 00       		.byte	0
 1580 081f 00       		.byte	0
 1581 0820 00       		.byte	0
 1582 0821 31       		.uleb128 0x31
 1583 0822 B8000000 		.4byte	.Ldebug_ranges0+0xb8
 1584 0826 1E       		.uleb128 0x1e
 1585 0827 73696700 		.ascii	"sig\000"
 1586 082b 01       		.byte	0x1
 1587 082c 33       		.byte	0x33
 1588 082d 25000000 		.4byte	0x25
 1589 0831 2E       		.uleb128 0x2e
 1590 0832 4F050000 		.4byte	0x54f
 1591 0836 0E000000 		.4byte	.LBB200
 1592 083a E0000000 		.4byte	.Ldebug_ranges0+0xe0
 1593 083e 01       		.byte	0x1
ARM GAS  C:\msys64\tmp\ccopjPFb.s 			page 29


 1594 083f 33       		.byte	0x33
 1595 0840 3C090000 		.4byte	0x93c
 1596 0844 2F       		.uleb128 0x2f
 1597 0845 5D050000 		.4byte	0x55d
 1598 0849 2D010000 		.4byte	.LLST10
 1599 084d 2F       		.uleb128 0x2f
 1600 084e 66050000 		.4byte	0x566
 1601 0852 45010000 		.4byte	.LLST11
 1602 0856 31       		.uleb128 0x31
 1603 0857 E0000000 		.4byte	.Ldebug_ranges0+0xe0
 1604 085b 35       		.uleb128 0x35
 1605 085c 71050000 		.4byte	0x571
 1606 0860 59010000 		.4byte	.LLST12
 1607 0864 35       		.uleb128 0x35
 1608 0865 7A050000 		.4byte	0x57a
 1609 0869 70010000 		.4byte	.LLST13
 1610 086d 2E       		.uleb128 0x2e
 1611 086e 35050000 		.4byte	0x535
 1612 0872 0E000000 		.4byte	.LBB202
 1613 0876 08010000 		.4byte	.Ldebug_ranges0+0x108
 1614 087a 04       		.byte	0x4
 1615 087b 42       		.byte	0x42
 1616 087c 02090000 		.4byte	0x902
 1617 0880 2F       		.uleb128 0x2f
 1618 0881 45050000 		.4byte	0x545
 1619 0885 70010000 		.4byte	.LLST13
 1620 0889 36       		.uleb128 0x36
 1621 088a 53040000 		.4byte	0x453
 1622 088e 0E000000 		.4byte	.LBB204
 1623 0892 30010000 		.4byte	.Ldebug_ranges0+0x130
 1624 0896 03       		.byte	0x3
 1625 0897 AB       		.byte	0xab
 1626 0898 2F       		.uleb128 0x2f
 1627 0899 63040000 		.4byte	0x463
 1628 089d 84010000 		.4byte	.LLST15
 1629 08a1 31       		.uleb128 0x31
 1630 08a2 30010000 		.4byte	.Ldebug_ranges0+0x130
 1631 08a6 35       		.uleb128 0x35
 1632 08a7 6C040000 		.4byte	0x46c
 1633 08ab 98010000 		.4byte	.LLST16
 1634 08af 35       		.uleb128 0x35
 1635 08b0 75040000 		.4byte	0x475
 1636 08b4 B6010000 		.4byte	.LLST17
 1637 08b8 35       		.uleb128 0x35
 1638 08b9 80040000 		.4byte	0x480
 1639 08bd CA010000 		.4byte	.LLST18
 1640 08c1 35       		.uleb128 0x35
 1641 08c2 8B040000 		.4byte	0x48b
 1642 08c6 DD010000 		.4byte	.LLST19
 1643 08ca 35       		.uleb128 0x35
 1644 08cb 95040000 		.4byte	0x495
 1645 08cf 0D020000 		.4byte	.LLST20
 1646 08d3 32       		.uleb128 0x32
 1647 08d4 9F040000 		.4byte	0x49f
 1648 08d8 36       		.uleb128 0x36
 1649 08d9 04040000 		.4byte	0x404
 1650 08dd E6000000 		.4byte	.LBB206
ARM GAS  C:\msys64\tmp\ccopjPFb.s 			page 30


 1651 08e1 50010000 		.4byte	.Ldebug_ranges0+0x150
 1652 08e5 03       		.byte	0x3
 1653 08e6 A0       		.byte	0xa0
 1654 08e7 30       		.uleb128 0x30
 1655 08e8 2B040000 		.4byte	0x42b
 1656 08ec 2F       		.uleb128 0x2f
 1657 08ed 20040000 		.4byte	0x420
 1658 08f1 50020000 		.4byte	.LLST21
 1659 08f5 2F       		.uleb128 0x2f
 1660 08f6 15040000 		.4byte	0x415
 1661 08fa 64020000 		.4byte	.LLST22
 1662 08fe 00       		.byte	0
 1663 08ff 00       		.byte	0
 1664 0900 00       		.byte	0
 1665 0901 00       		.byte	0
 1666 0902 37       		.uleb128 0x37
 1667 0903 78010000 		.4byte	.Ldebug_ranges0+0x178
 1668 0907 27090000 		.4byte	0x927
 1669 090b 35       		.uleb128 0x35
 1670 090c 96050000 		.4byte	0x596
 1671 0910 8D020000 		.4byte	.LLST23
 1672 0914 35       		.uleb128 0x35
 1673 0915 A1050000 		.4byte	0x5a1
 1674 0919 A7020000 		.4byte	.LLST24
 1675 091d 35       		.uleb128 0x35
 1676 091e AC050000 		.4byte	0x5ac
 1677 0922 C5020000 		.4byte	.LLST25
 1678 0926 00       		.byte	0
 1679 0927 38       		.uleb128 0x38
 1680 0928 B4000000 		.4byte	.LBB225
 1681 092c 04000000 		.4byte	.LBE225-.LBB225
 1682 0930 35       		.uleb128 0x35
 1683 0931 89050000 		.4byte	0x589
 1684 0935 EB020000 		.4byte	.LLST26
 1685 0939 00       		.byte	0
 1686 093a 00       		.byte	0
 1687 093b 00       		.byte	0
 1688 093c 36       		.uleb128 0x36
 1689 093d FD050000 		.4byte	0x5fd
 1690 0941 9A000000 		.4byte	.LBB235
 1691 0945 98010000 		.4byte	.Ldebug_ranges0+0x198
 1692 0949 01       		.byte	0x1
 1693 094a 36       		.byte	0x36
 1694 094b 30       		.uleb128 0x30
 1695 094c 18060000 		.4byte	0x618
 1696 0950 2F       		.uleb128 0x2f
 1697 0951 0E060000 		.4byte	0x60e
 1698 0955 05030000 		.4byte	.LLST27
 1699 0959 39       		.uleb128 0x39
 1700 095a AA040000 		.4byte	0x4aa
 1701 095e 9A000000 		.4byte	.LBB237
 1702 0962 B0010000 		.4byte	.Ldebug_ranges0+0x1b0
 1703 0966 03       		.byte	0x3
 1704 0967 9B02     		.2byte	0x29b
 1705 0969 30       		.uleb128 0x30
 1706 096a BB040000 		.4byte	0x4bb
 1707 096e 39       		.uleb128 0x39
ARM GAS  C:\msys64\tmp\ccopjPFb.s 			page 31


 1708 096f 82030000 		.4byte	0x382
 1709 0973 9A000000 		.4byte	.LBB238
 1710 0977 C8010000 		.4byte	.Ldebug_ranges0+0x1c8
 1711 097b 02       		.byte	0x2
 1712 097c B001     		.2byte	0x1b0
 1713 097e 2F       		.uleb128 0x2f
 1714 097f A9030000 		.4byte	0x3a9
 1715 0983 1D030000 		.4byte	.LLST28
 1716 0987 30       		.uleb128 0x30
 1717 0988 9F030000 		.4byte	0x39f
 1718 098c 2F       		.uleb128 0x2f
 1719 098d 93030000 		.4byte	0x393
 1720 0991 35030000 		.4byte	.LLST29
 1721 0995 39       		.uleb128 0x39
 1722 0996 29030000 		.4byte	0x329
 1723 099a 9A000000 		.4byte	.LBB239
 1724 099e E0010000 		.4byte	.Ldebug_ranges0+0x1e0
 1725 09a2 02       		.byte	0x2
 1726 09a3 3E01     		.2byte	0x13e
 1727 09a5 2F       		.uleb128 0x2f
 1728 09a6 4B030000 		.4byte	0x34b
 1729 09aa 4D030000 		.4byte	.LLST30
 1730 09ae 30       		.uleb128 0x30
 1731 09af 42030000 		.4byte	0x342
 1732 09b3 30       		.uleb128 0x30
 1733 09b4 39030000 		.4byte	0x339
 1734 09b8 00       		.byte	0
 1735 09b9 00       		.byte	0
 1736 09ba 00       		.byte	0
 1737 09bb 00       		.byte	0
 1738 09bc 00       		.byte	0
 1739 09bd 00       		.byte	0
 1740 09be 08       		.uleb128 0x8
 1741 09bf F5010000 		.4byte	0x1f5
 1742 09c3 3A       		.uleb128 0x3a
 1743 09c4 04       		.byte	0x4
 1744 09c5 56020000 		.4byte	0x256
 1745 09c9 08       		.uleb128 0x8
 1746 09ca C3090000 		.4byte	0x9c3
 1747 09ce 3A       		.uleb128 0x3a
 1748 09cf 04       		.byte	0x4
 1749 09d0 11030000 		.4byte	0x311
 1750 09d4 08       		.uleb128 0x8
 1751 09d5 CE090000 		.4byte	0x9ce
 1752 09d9 25       		.uleb128 0x25
 1753 09da 46030000 		.4byte	.LASF80
 1754 09de 01       		.byte	0x1
 1755 09df 44       		.byte	0x44
 1756 09e0 90010000 		.4byte	.LFB252
 1757 09e4 10000000 		.4byte	.LFE252-.LFB252
 1758 09e8 01       		.uleb128 0x1
 1759 09e9 9C       		.byte	0x9c
 1760 09ea 0C0A0000 		.4byte	0xa0c
 1761 09ee 26       		.uleb128 0x26
 1762 09ef 00000000 		.4byte	.LASF52
 1763 09f3 01       		.byte	0x1
 1764 09f4 44       		.byte	0x44
ARM GAS  C:\msys64\tmp\ccopjPFb.s 			page 32


 1765 09f5 BE090000 		.4byte	0x9be
 1766 09f9 01       		.uleb128 0x1
 1767 09fa 50       		.byte	0x50
 1768 09fb 2A       		.uleb128 0x2a
 1769 09fc 7300     		.ascii	"s\000"
 1770 09fe 01       		.byte	0x1
 1771 09ff 45       		.byte	0x45
 1772 0a00 0C0A0000 		.4byte	0xa0c
 1773 0a04 06       		.uleb128 0x6
 1774 0a05 03       		.byte	0x3
 1775 0a06 00000000 		.4byte	_ZL2pd
 1776 0a0a 9F       		.byte	0x9f
 1777 0a0b 00       		.byte	0
 1778 0a0c 08       		.uleb128 0x8
 1779 0a0d C3090000 		.4byte	0x9c3
 1780 0a11 25       		.uleb128 0x25
 1781 0a12 9E030000 		.4byte	.LASF81
 1782 0a16 01       		.byte	0x1
 1783 0a17 49       		.byte	0x49
 1784 0a18 A0010000 		.4byte	.LFB253
 1785 0a1c 02000000 		.4byte	.LFE253-.LFB253
 1786 0a20 01       		.uleb128 0x1
 1787 0a21 9C       		.byte	0x9c
 1788 0a22 340A0000 		.4byte	0xa34
 1789 0a26 26       		.uleb128 0x26
 1790 0a27 00000000 		.4byte	.LASF52
 1791 0a2b 01       		.byte	0x1
 1792 0a2c 49       		.byte	0x49
 1793 0a2d BE090000 		.4byte	0x9be
 1794 0a31 01       		.uleb128 0x1
 1795 0a32 50       		.byte	0x50
 1796 0a33 00       		.byte	0
 1797 0a34 25       		.uleb128 0x25
 1798 0a35 07000000 		.4byte	.LASF82
 1799 0a39 01       		.byte	0x1
 1800 0a3a 4E       		.byte	0x4e
 1801 0a3b A2010000 		.4byte	.LFB254
 1802 0a3f 26000000 		.4byte	.LFE254-.LFB254
 1803 0a43 01       		.uleb128 0x1
 1804 0a44 9C       		.byte	0x9c
 1805 0a45 740A0000 		.4byte	0xa74
 1806 0a49 26       		.uleb128 0x26
 1807 0a4a F1020000 		.4byte	.LASF83
 1808 0a4e 01       		.byte	0x1
 1809 0a4f 4E       		.byte	0x4e
 1810 0a50 A9000000 		.4byte	0xa9
 1811 0a54 01       		.uleb128 0x1
 1812 0a55 50       		.byte	0x50
 1813 0a56 26       		.uleb128 0x26
 1814 0a57 5E030000 		.4byte	.LASF84
 1815 0a5b 01       		.byte	0x1
 1816 0a5c 4E       		.byte	0x4e
 1817 0a5d A9000000 		.4byte	0xa9
 1818 0a61 01       		.uleb128 0x1
 1819 0a62 51       		.byte	0x51
 1820 0a63 2A       		.uleb128 0x2a
 1821 0a64 7000     		.ascii	"p\000"
ARM GAS  C:\msys64\tmp\ccopjPFb.s 			page 33


 1822 0a66 01       		.byte	0x1
 1823 0a67 50       		.byte	0x50
 1824 0a68 7A0A0000 		.4byte	0xa7a
 1825 0a6c 06       		.uleb128 0x6
 1826 0a6d 03       		.byte	0x3
 1827 0a6e 0C000000 		.4byte	_ZL2pd+12
 1828 0a72 9F       		.byte	0x9f
 1829 0a73 00       		.byte	0
 1830 0a74 3A       		.uleb128 0x3a
 1831 0a75 04       		.byte	0x4
 1832 0a76 24020000 		.4byte	0x224
 1833 0a7a 08       		.uleb128 0x8
 1834 0a7b 740A0000 		.4byte	0xa74
 1835 0a7f 3B       		.uleb128 0x3b
 1836 0a80 5F040000 		.4byte	.LASF108
 1837 0a84 00000000 		.4byte	.LFB256
 1838 0a88 18000000 		.4byte	.LFE256-.LFB256
 1839 0a8c 01       		.uleb128 0x1
 1840 0a8d 9C       		.byte	0x9c
 1841 0a8e 070B0000 		.4byte	0xb07
 1842 0a92 33       		.uleb128 0x33
 1843 0a93 23060000 		.4byte	0x623
 1844 0a97 00000000 		.4byte	.LBB268
 1845 0a9b 18000000 		.4byte	.LBE268-.LBB268
 1846 0a9f 01       		.byte	0x1
 1847 0aa0 68       		.byte	0x68
 1848 0aa1 2F       		.uleb128 0x2f
 1849 0aa2 2D060000 		.4byte	0x62d
 1850 0aa6 75030000 		.4byte	.LLST31
 1851 0aaa 2F       		.uleb128 0x2f
 1852 0aab 38060000 		.4byte	0x638
 1853 0aaf 89030000 		.4byte	.LLST32
 1854 0ab3 33       		.uleb128 0x33
 1855 0ab4 18050000 		.4byte	0x518
 1856 0ab8 00000000 		.4byte	.LBB270
 1857 0abc 18000000 		.4byte	.LBE270-.LBB270
 1858 0ac0 01       		.byte	0x1
 1859 0ac1 0D       		.byte	0xd
 1860 0ac2 3C       		.uleb128 0x3c
 1861 0ac3 26050000 		.4byte	0x526
 1862 0ac7 06       		.uleb128 0x6
 1863 0ac8 03       		.byte	0x3
 1864 0ac9 00000000 		.4byte	_ZL2pd
 1865 0acd 9F       		.byte	0x9f
 1866 0ace 3D       		.uleb128 0x3d
 1867 0acf 00050000 		.4byte	0x500
 1868 0ad3 00000000 		.4byte	.LBB271
 1869 0ad7 10000000 		.4byte	.LBE271-.LBB271
 1870 0adb 04       		.byte	0x4
 1871 0adc 2F       		.byte	0x2f
 1872 0add EB0A0000 		.4byte	0xaeb
 1873 0ae1 2F       		.uleb128 0x2f
 1874 0ae2 0E050000 		.4byte	0x50e
 1875 0ae6 9F030000 		.4byte	.LLST33
 1876 0aea 00       		.byte	0
 1877 0aeb 33       		.uleb128 0x33
 1878 0aec E3040000 		.4byte	0x4e3
ARM GAS  C:\msys64\tmp\ccopjPFb.s 			page 34


 1879 0af0 10000000 		.4byte	.LBB273
 1880 0af4 08000000 		.4byte	.LBE273-.LBB273
 1881 0af8 04       		.byte	0x4
 1882 0af9 2F       		.byte	0x2f
 1883 0afa 2F       		.uleb128 0x2f
 1884 0afb F1040000 		.4byte	0x4f1
 1885 0aff B7030000 		.4byte	.LLST34
 1886 0b03 00       		.byte	0
 1887 0b04 00       		.byte	0
 1888 0b05 00       		.byte	0
 1889 0b06 00       		.byte	0
 1890 0b07 3E       		.uleb128 0x3e
 1891 0b08 F3060000 		.4byte	.LASF85
 1892 0b0c 03       		.byte	0x3
 1893 0b0d 3F       		.byte	0x3f
 1894 0b0e D9030000 		.4byte	0x3d9
 1895 0b12 3E       		.uleb128 0x3e
 1896 0b13 C7050000 		.4byte	.LASF86
 1897 0b17 03       		.byte	0x3
 1898 0b18 44       		.byte	0x44
 1899 0b19 D9030000 		.4byte	0x3d9
 1900 0b1d 0D       		.uleb128 0xd
 1901 0b1e 55030000 		.4byte	0x355
 1902 0b22 2D0B0000 		.4byte	0xb2d
 1903 0b26 0E       		.uleb128 0xe
 1904 0b27 D6000000 		.4byte	0xd6
 1905 0b2b 97       		.byte	0x97
 1906 0b2c 00       		.byte	0
 1907 0b2d 3E       		.uleb128 0x3e
 1908 0b2e DA020000 		.4byte	.LASF87
 1909 0b32 03       		.byte	0x3
 1910 0b33 61       		.byte	0x61
 1911 0b34 380B0000 		.4byte	0xb38
 1912 0b38 08       		.uleb128 0x8
 1913 0b39 1D0B0000 		.4byte	0xb1d
 1914 0b3d 0D       		.uleb128 0xd
 1915 0b3e 55030000 		.4byte	0x355
 1916 0b42 4D0B0000 		.4byte	0xb4d
 1917 0b46 0E       		.uleb128 0xe
 1918 0b47 D6000000 		.4byte	0xd6
 1919 0b4b 80       		.byte	0x80
 1920 0b4c 00       		.byte	0
 1921 0b4d 3E       		.uleb128 0x3e
 1922 0b4e 1E060000 		.4byte	.LASF88
 1923 0b52 03       		.byte	0x3
 1924 0b53 8E       		.byte	0x8e
 1925 0b54 580B0000 		.4byte	0xb58
 1926 0b58 08       		.uleb128 0x8
 1927 0b59 3D0B0000 		.4byte	0xb3d
 1928 0b5d 0D       		.uleb128 0xd
 1929 0b5e 55030000 		.4byte	0x355
 1930 0b62 6E0B0000 		.4byte	0xb6e
 1931 0b66 3F       		.uleb128 0x3f
 1932 0b67 D6000000 		.4byte	0xd6
 1933 0b6b 8603     		.2byte	0x386
 1934 0b6d 00       		.byte	0
 1935 0b6e 3E       		.uleb128 0x3e
ARM GAS  C:\msys64\tmp\ccopjPFb.s 			page 35


 1936 0b6f 79040000 		.4byte	.LASF89
 1937 0b73 03       		.byte	0x3
 1938 0b74 C0       		.byte	0xc0
 1939 0b75 790B0000 		.4byte	0xb79
 1940 0b79 08       		.uleb128 0x8
 1941 0b7a 5D0B0000 		.4byte	0xb5d
 1942 0b7e 40       		.uleb128 0x40
 1943 0b7f 3D050000 		.4byte	.LASF90
 1944 0b83 03       		.byte	0x3
 1945 0b84 3201     		.2byte	0x132
 1946 0b86 8A0B0000 		.4byte	0xb8a
 1947 0b8a 08       		.uleb128 0x8
 1948 0b8b 5D0B0000 		.4byte	0xb5d
 1949 0b8f 40       		.uleb128 0x40
 1950 0b90 13000000 		.4byte	.LASF91
 1951 0b94 03       		.byte	0x3
 1952 0b95 A501     		.2byte	0x1a5
 1953 0b97 9B0B0000 		.4byte	0xb9b
 1954 0b9b 08       		.uleb128 0x8
 1955 0b9c 5D0B0000 		.4byte	0xb5d
 1956 0ba0 0D       		.uleb128 0xd
 1957 0ba1 55030000 		.4byte	0x355
 1958 0ba5 B10B0000 		.4byte	0xbb1
 1959 0ba9 3F       		.uleb128 0x3f
 1960 0baa D6000000 		.4byte	0xd6
 1961 0bae 0001     		.2byte	0x100
 1962 0bb0 00       		.byte	0
 1963 0bb1 40       		.uleb128 0x40
 1964 0bb2 DD030000 		.4byte	.LASF92
 1965 0bb6 03       		.byte	0x3
 1966 0bb7 4602     		.2byte	0x246
 1967 0bb9 BD0B0000 		.4byte	0xbbd
 1968 0bbd 08       		.uleb128 0x8
 1969 0bbe A00B0000 		.4byte	0xba0
 1970 0bc2 40       		.uleb128 0x40
 1971 0bc3 AD020000 		.4byte	.LASF93
 1972 0bc7 03       		.byte	0x3
 1973 0bc8 5D02     		.2byte	0x25d
 1974 0bca CE0B0000 		.4byte	0xbce
 1975 0bce 08       		.uleb128 0x8
 1976 0bcf A00B0000 		.4byte	0xba0
 1977 0bd3 40       		.uleb128 0x40
 1978 0bd4 1E050000 		.4byte	.LASF94
 1979 0bd8 03       		.byte	0x3
 1980 0bd9 7502     		.2byte	0x275
 1981 0bdb DF0B0000 		.4byte	0xbdf
 1982 0bdf 08       		.uleb128 0x8
 1983 0be0 A00B0000 		.4byte	0xba0
 1984 0be4 40       		.uleb128 0x40
 1985 0be5 2E050000 		.4byte	.LASF95
 1986 0be9 03       		.byte	0x3
 1987 0bea A402     		.2byte	0x2a4
 1988 0bec F00B0000 		.4byte	0xbf0
 1989 0bf0 08       		.uleb128 0x8
 1990 0bf1 3D0B0000 		.4byte	0xb3d
 1991 0bf5 40       		.uleb128 0x40
 1992 0bf6 AF030000 		.4byte	.LASF96
ARM GAS  C:\msys64\tmp\ccopjPFb.s 			page 36


 1993 0bfa 03       		.byte	0x3
 1994 0bfb B902     		.2byte	0x2b9
 1995 0bfd 010C0000 		.4byte	0xc01
 1996 0c01 08       		.uleb128 0x8
 1997 0c02 3D0B0000 		.4byte	0xb3d
 1998 0c06 40       		.uleb128 0x40
 1999 0c07 4B010000 		.4byte	.LASF97
 2000 0c0b 03       		.byte	0x3
 2001 0c0c D602     		.2byte	0x2d6
 2002 0c0e 120C0000 		.4byte	0xc12
 2003 0c12 08       		.uleb128 0x8
 2004 0c13 3D0B0000 		.4byte	0xb3d
 2005 0c17 2A       		.uleb128 0x2a
 2006 0c18 706400   		.ascii	"pd\000"
 2007 0c1b 01       		.byte	0x1
 2008 0c1c 0D       		.byte	0xd
 2009 0c1d 00020000 		.4byte	0x200
 2010 0c21 05       		.uleb128 0x5
 2011 0c22 03       		.byte	0x3
 2012 0c23 00000000 		.4byte	_ZL2pd
 2013 0c27 00       		.byte	0
 2014              		.section	.debug_abbrev,"",%progbits
 2015              	.Ldebug_abbrev0:
 2016 0000 01       		.uleb128 0x1
 2017 0001 11       		.uleb128 0x11
 2018 0002 01       		.byte	0x1
 2019 0003 25       		.uleb128 0x25
 2020 0004 0E       		.uleb128 0xe
 2021 0005 13       		.uleb128 0x13
 2022 0006 0B       		.uleb128 0xb
 2023 0007 03       		.uleb128 0x3
 2024 0008 0E       		.uleb128 0xe
 2025 0009 1B       		.uleb128 0x1b
 2026 000a 0E       		.uleb128 0xe
 2027 000b 55       		.uleb128 0x55
 2028 000c 17       		.uleb128 0x17
 2029 000d 11       		.uleb128 0x11
 2030 000e 01       		.uleb128 0x1
 2031 000f 10       		.uleb128 0x10
 2032 0010 17       		.uleb128 0x17
 2033 0011 00       		.byte	0
 2034 0012 00       		.byte	0
 2035 0013 02       		.uleb128 0x2
 2036 0014 24       		.uleb128 0x24
 2037 0015 00       		.byte	0
 2038 0016 0B       		.uleb128 0xb
 2039 0017 0B       		.uleb128 0xb
 2040 0018 3E       		.uleb128 0x3e
 2041 0019 0B       		.uleb128 0xb
 2042 001a 03       		.uleb128 0x3
 2043 001b 0E       		.uleb128 0xe
 2044 001c 00       		.byte	0
 2045 001d 00       		.byte	0
 2046 001e 03       		.uleb128 0x3
 2047 001f 16       		.uleb128 0x16
 2048 0020 00       		.byte	0
 2049 0021 03       		.uleb128 0x3
ARM GAS  C:\msys64\tmp\ccopjPFb.s 			page 37


 2050 0022 0E       		.uleb128 0xe
 2051 0023 3A       		.uleb128 0x3a
 2052 0024 0B       		.uleb128 0xb
 2053 0025 3B       		.uleb128 0x3b
 2054 0026 0B       		.uleb128 0xb
 2055 0027 49       		.uleb128 0x49
 2056 0028 13       		.uleb128 0x13
 2057 0029 00       		.byte	0
 2058 002a 00       		.byte	0
 2059 002b 04       		.uleb128 0x4
 2060 002c 24       		.uleb128 0x24
 2061 002d 00       		.byte	0
 2062 002e 0B       		.uleb128 0xb
 2063 002f 0B       		.uleb128 0xb
 2064 0030 3E       		.uleb128 0x3e
 2065 0031 0B       		.uleb128 0xb
 2066 0032 03       		.uleb128 0x3
 2067 0033 08       		.uleb128 0x8
 2068 0034 00       		.byte	0
 2069 0035 00       		.byte	0
 2070 0036 05       		.uleb128 0x5
 2071 0037 3B       		.uleb128 0x3b
 2072 0038 00       		.byte	0
 2073 0039 03       		.uleb128 0x3
 2074 003a 0E       		.uleb128 0xe
 2075 003b 00       		.byte	0
 2076 003c 00       		.byte	0
 2077 003d 06       		.uleb128 0x6
 2078 003e 16       		.uleb128 0x16
 2079 003f 00       		.byte	0
 2080 0040 03       		.uleb128 0x3
 2081 0041 0E       		.uleb128 0xe
 2082 0042 3A       		.uleb128 0x3a
 2083 0043 0B       		.uleb128 0xb
 2084 0044 3B       		.uleb128 0x3b
 2085 0045 05       		.uleb128 0x5
 2086 0046 49       		.uleb128 0x49
 2087 0047 13       		.uleb128 0x13
 2088 0048 00       		.byte	0
 2089 0049 00       		.byte	0
 2090 004a 07       		.uleb128 0x7
 2091 004b 0F       		.uleb128 0xf
 2092 004c 00       		.byte	0
 2093 004d 0B       		.uleb128 0xb
 2094 004e 0B       		.uleb128 0xb
 2095 004f 49       		.uleb128 0x49
 2096 0050 13       		.uleb128 0x13
 2097 0051 00       		.byte	0
 2098 0052 00       		.byte	0
 2099 0053 08       		.uleb128 0x8
 2100 0054 26       		.uleb128 0x26
 2101 0055 00       		.byte	0
 2102 0056 49       		.uleb128 0x49
 2103 0057 13       		.uleb128 0x13
 2104 0058 00       		.byte	0
 2105 0059 00       		.byte	0
 2106 005a 09       		.uleb128 0x9
ARM GAS  C:\msys64\tmp\ccopjPFb.s 			page 38


 2107 005b 04       		.uleb128 0x4
 2108 005c 01       		.byte	0x1
 2109 005d 0B       		.uleb128 0xb
 2110 005e 0B       		.uleb128 0xb
 2111 005f 49       		.uleb128 0x49
 2112 0060 13       		.uleb128 0x13
 2113 0061 3A       		.uleb128 0x3a
 2114 0062 0B       		.uleb128 0xb
 2115 0063 3B       		.uleb128 0x3b
 2116 0064 0B       		.uleb128 0xb
 2117 0065 01       		.uleb128 0x1
 2118 0066 13       		.uleb128 0x13
 2119 0067 00       		.byte	0
 2120 0068 00       		.byte	0
 2121 0069 0A       		.uleb128 0xa
 2122 006a 28       		.uleb128 0x28
 2123 006b 00       		.byte	0
 2124 006c 03       		.uleb128 0x3
 2125 006d 0E       		.uleb128 0xe
 2126 006e 1C       		.uleb128 0x1c
 2127 006f 0B       		.uleb128 0xb
 2128 0070 00       		.byte	0
 2129 0071 00       		.byte	0
 2130 0072 0B       		.uleb128 0xb
 2131 0073 13       		.uleb128 0x13
 2132 0074 01       		.byte	0x1
 2133 0075 03       		.uleb128 0x3
 2134 0076 0E       		.uleb128 0xe
 2135 0077 0B       		.uleb128 0xb
 2136 0078 0B       		.uleb128 0xb
 2137 0079 3A       		.uleb128 0x3a
 2138 007a 0B       		.uleb128 0xb
 2139 007b 3B       		.uleb128 0x3b
 2140 007c 0B       		.uleb128 0xb
 2141 007d 01       		.uleb128 0x1
 2142 007e 13       		.uleb128 0x13
 2143 007f 00       		.byte	0
 2144 0080 00       		.byte	0
 2145 0081 0C       		.uleb128 0xc
 2146 0082 0D       		.uleb128 0xd
 2147 0083 00       		.byte	0
 2148 0084 03       		.uleb128 0x3
 2149 0085 0E       		.uleb128 0xe
 2150 0086 3A       		.uleb128 0x3a
 2151 0087 0B       		.uleb128 0xb
 2152 0088 3B       		.uleb128 0x3b
 2153 0089 0B       		.uleb128 0xb
 2154 008a 49       		.uleb128 0x49
 2155 008b 13       		.uleb128 0x13
 2156 008c 38       		.uleb128 0x38
 2157 008d 0B       		.uleb128 0xb
 2158 008e 00       		.byte	0
 2159 008f 00       		.byte	0
 2160 0090 0D       		.uleb128 0xd
 2161 0091 01       		.uleb128 0x1
 2162 0092 01       		.byte	0x1
 2163 0093 49       		.uleb128 0x49
ARM GAS  C:\msys64\tmp\ccopjPFb.s 			page 39


 2164 0094 13       		.uleb128 0x13
 2165 0095 01       		.uleb128 0x1
 2166 0096 13       		.uleb128 0x13
 2167 0097 00       		.byte	0
 2168 0098 00       		.byte	0
 2169 0099 0E       		.uleb128 0xe
 2170 009a 21       		.uleb128 0x21
 2171 009b 00       		.byte	0
 2172 009c 49       		.uleb128 0x49
 2173 009d 13       		.uleb128 0x13
 2174 009e 2F       		.uleb128 0x2f
 2175 009f 0B       		.uleb128 0xb
 2176 00a0 00       		.byte	0
 2177 00a1 00       		.byte	0
 2178 00a2 0F       		.uleb128 0xf
 2179 00a3 04       		.uleb128 0x4
 2180 00a4 01       		.byte	0x1
 2181 00a5 0B       		.uleb128 0xb
 2182 00a6 0B       		.uleb128 0xb
 2183 00a7 49       		.uleb128 0x49
 2184 00a8 13       		.uleb128 0x13
 2185 00a9 3A       		.uleb128 0x3a
 2186 00aa 0B       		.uleb128 0xb
 2187 00ab 3B       		.uleb128 0x3b
 2188 00ac 0B       		.uleb128 0xb
 2189 00ad 6E       		.uleb128 0x6e
 2190 00ae 0E       		.uleb128 0xe
 2191 00af 01       		.uleb128 0x1
 2192 00b0 13       		.uleb128 0x13
 2193 00b1 00       		.byte	0
 2194 00b2 00       		.byte	0
 2195 00b3 10       		.uleb128 0x10
 2196 00b4 13       		.uleb128 0x13
 2197 00b5 01       		.byte	0x1
 2198 00b6 03       		.uleb128 0x3
 2199 00b7 08       		.uleb128 0x8
 2200 00b8 0B       		.uleb128 0xb
 2201 00b9 0B       		.uleb128 0xb
 2202 00ba 3A       		.uleb128 0x3a
 2203 00bb 0B       		.uleb128 0xb
 2204 00bc 3B       		.uleb128 0x3b
 2205 00bd 0B       		.uleb128 0xb
 2206 00be 01       		.uleb128 0x1
 2207 00bf 13       		.uleb128 0x13
 2208 00c0 00       		.byte	0
 2209 00c1 00       		.byte	0
 2210 00c2 11       		.uleb128 0x11
 2211 00c3 2E       		.uleb128 0x2e
 2212 00c4 01       		.byte	0x1
 2213 00c5 3F       		.uleb128 0x3f
 2214 00c6 19       		.uleb128 0x19
 2215 00c7 03       		.uleb128 0x3
 2216 00c8 0E       		.uleb128 0xe
 2217 00c9 3A       		.uleb128 0x3a
 2218 00ca 0B       		.uleb128 0xb
 2219 00cb 3B       		.uleb128 0x3b
 2220 00cc 0B       		.uleb128 0xb
ARM GAS  C:\msys64\tmp\ccopjPFb.s 			page 40


 2221 00cd 6E       		.uleb128 0x6e
 2222 00ce 0E       		.uleb128 0xe
 2223 00cf 49       		.uleb128 0x49
 2224 00d0 13       		.uleb128 0x13
 2225 00d1 3C       		.uleb128 0x3c
 2226 00d2 19       		.uleb128 0x19
 2227 00d3 64       		.uleb128 0x64
 2228 00d4 13       		.uleb128 0x13
 2229 00d5 00       		.byte	0
 2230 00d6 00       		.byte	0
 2231 00d7 12       		.uleb128 0x12
 2232 00d8 05       		.uleb128 0x5
 2233 00d9 00       		.byte	0
 2234 00da 49       		.uleb128 0x49
 2235 00db 13       		.uleb128 0x13
 2236 00dc 34       		.uleb128 0x34
 2237 00dd 19       		.uleb128 0x19
 2238 00de 00       		.byte	0
 2239 00df 00       		.byte	0
 2240 00e0 13       		.uleb128 0x13
 2241 00e1 0D       		.uleb128 0xd
 2242 00e2 00       		.byte	0
 2243 00e3 03       		.uleb128 0x3
 2244 00e4 08       		.uleb128 0x8
 2245 00e5 3A       		.uleb128 0x3a
 2246 00e6 0B       		.uleb128 0xb
 2247 00e7 3B       		.uleb128 0x3b
 2248 00e8 0B       		.uleb128 0xb
 2249 00e9 49       		.uleb128 0x49
 2250 00ea 13       		.uleb128 0x13
 2251 00eb 38       		.uleb128 0x38
 2252 00ec 0B       		.uleb128 0xb
 2253 00ed 00       		.byte	0
 2254 00ee 00       		.byte	0
 2255 00ef 14       		.uleb128 0x14
 2256 00f0 0D       		.uleb128 0xd
 2257 00f1 00       		.byte	0
 2258 00f2 03       		.uleb128 0x3
 2259 00f3 0E       		.uleb128 0xe
 2260 00f4 3A       		.uleb128 0x3a
 2261 00f5 0B       		.uleb128 0xb
 2262 00f6 3B       		.uleb128 0x3b
 2263 00f7 0B       		.uleb128 0xb
 2264 00f8 49       		.uleb128 0x49
 2265 00f9 13       		.uleb128 0x13
 2266 00fa 0B       		.uleb128 0xb
 2267 00fb 0B       		.uleb128 0xb
 2268 00fc 0D       		.uleb128 0xd
 2269 00fd 0B       		.uleb128 0xb
 2270 00fe 0C       		.uleb128 0xc
 2271 00ff 0B       		.uleb128 0xb
 2272 0100 38       		.uleb128 0x38
 2273 0101 0B       		.uleb128 0xb
 2274 0102 00       		.byte	0
 2275 0103 00       		.byte	0
 2276 0104 15       		.uleb128 0x15
 2277 0105 2E       		.uleb128 0x2e
ARM GAS  C:\msys64\tmp\ccopjPFb.s 			page 41


 2278 0106 01       		.byte	0x1
 2279 0107 3F       		.uleb128 0x3f
 2280 0108 19       		.uleb128 0x19
 2281 0109 03       		.uleb128 0x3
 2282 010a 0E       		.uleb128 0xe
 2283 010b 3A       		.uleb128 0x3a
 2284 010c 0B       		.uleb128 0xb
 2285 010d 3B       		.uleb128 0x3b
 2286 010e 0B       		.uleb128 0xb
 2287 010f 6E       		.uleb128 0x6e
 2288 0110 0E       		.uleb128 0xe
 2289 0111 49       		.uleb128 0x49
 2290 0112 13       		.uleb128 0x13
 2291 0113 3C       		.uleb128 0x3c
 2292 0114 19       		.uleb128 0x19
 2293 0115 64       		.uleb128 0x64
 2294 0116 13       		.uleb128 0x13
 2295 0117 01       		.uleb128 0x1
 2296 0118 13       		.uleb128 0x13
 2297 0119 00       		.byte	0
 2298 011a 00       		.byte	0
 2299 011b 16       		.uleb128 0x16
 2300 011c 2E       		.uleb128 0x2e
 2301 011d 01       		.byte	0x1
 2302 011e 3F       		.uleb128 0x3f
 2303 011f 19       		.uleb128 0x19
 2304 0120 03       		.uleb128 0x3
 2305 0121 0E       		.uleb128 0xe
 2306 0122 3A       		.uleb128 0x3a
 2307 0123 0B       		.uleb128 0xb
 2308 0124 3B       		.uleb128 0x3b
 2309 0125 0B       		.uleb128 0xb
 2310 0126 6E       		.uleb128 0x6e
 2311 0127 0E       		.uleb128 0xe
 2312 0128 3C       		.uleb128 0x3c
 2313 0129 19       		.uleb128 0x19
 2314 012a 64       		.uleb128 0x64
 2315 012b 13       		.uleb128 0x13
 2316 012c 00       		.byte	0
 2317 012d 00       		.byte	0
 2318 012e 17       		.uleb128 0x17
 2319 012f 2E       		.uleb128 0x2e
 2320 0130 01       		.byte	0x1
 2321 0131 3F       		.uleb128 0x3f
 2322 0132 19       		.uleb128 0x19
 2323 0133 03       		.uleb128 0x3
 2324 0134 08       		.uleb128 0x8
 2325 0135 3A       		.uleb128 0x3a
 2326 0136 0B       		.uleb128 0xb
 2327 0137 3B       		.uleb128 0x3b
 2328 0138 0B       		.uleb128 0xb
 2329 0139 6E       		.uleb128 0x6e
 2330 013a 0E       		.uleb128 0xe
 2331 013b 49       		.uleb128 0x49
 2332 013c 13       		.uleb128 0x13
 2333 013d 3C       		.uleb128 0x3c
 2334 013e 19       		.uleb128 0x19
ARM GAS  C:\msys64\tmp\ccopjPFb.s 			page 42


 2335 013f 64       		.uleb128 0x64
 2336 0140 13       		.uleb128 0x13
 2337 0141 01       		.uleb128 0x1
 2338 0142 13       		.uleb128 0x13
 2339 0143 00       		.byte	0
 2340 0144 00       		.byte	0
 2341 0145 18       		.uleb128 0x18
 2342 0146 05       		.uleb128 0x5
 2343 0147 00       		.byte	0
 2344 0148 49       		.uleb128 0x49
 2345 0149 13       		.uleb128 0x13
 2346 014a 00       		.byte	0
 2347 014b 00       		.byte	0
 2348 014c 19       		.uleb128 0x19
 2349 014d 2E       		.uleb128 0x2e
 2350 014e 01       		.byte	0x1
 2351 014f 03       		.uleb128 0x3
 2352 0150 0E       		.uleb128 0xe
 2353 0151 3A       		.uleb128 0x3a
 2354 0152 0B       		.uleb128 0xb
 2355 0153 3B       		.uleb128 0x3b
 2356 0154 0B       		.uleb128 0xb
 2357 0155 49       		.uleb128 0x49
 2358 0156 13       		.uleb128 0x13
 2359 0157 20       		.uleb128 0x20
 2360 0158 0B       		.uleb128 0xb
 2361 0159 01       		.uleb128 0x1
 2362 015a 13       		.uleb128 0x13
 2363 015b 00       		.byte	0
 2364 015c 00       		.byte	0
 2365 015d 1A       		.uleb128 0x1a
 2366 015e 05       		.uleb128 0x5
 2367 015f 00       		.byte	0
 2368 0160 03       		.uleb128 0x3
 2369 0161 08       		.uleb128 0x8
 2370 0162 3A       		.uleb128 0x3a
 2371 0163 0B       		.uleb128 0xb
 2372 0164 3B       		.uleb128 0x3b
 2373 0165 0B       		.uleb128 0xb
 2374 0166 49       		.uleb128 0x49
 2375 0167 13       		.uleb128 0x13
 2376 0168 00       		.byte	0
 2377 0169 00       		.byte	0
 2378 016a 1B       		.uleb128 0x1b
 2379 016b 2E       		.uleb128 0x2e
 2380 016c 01       		.byte	0x1
 2381 016d 03       		.uleb128 0x3
 2382 016e 0E       		.uleb128 0xe
 2383 016f 3A       		.uleb128 0x3a
 2384 0170 0B       		.uleb128 0xb
 2385 0171 3B       		.uleb128 0x3b
 2386 0172 05       		.uleb128 0x5
 2387 0173 49       		.uleb128 0x49
 2388 0174 13       		.uleb128 0x13
 2389 0175 20       		.uleb128 0x20
 2390 0176 0B       		.uleb128 0xb
 2391 0177 01       		.uleb128 0x1
ARM GAS  C:\msys64\tmp\ccopjPFb.s 			page 43


 2392 0178 13       		.uleb128 0x13
 2393 0179 00       		.byte	0
 2394 017a 00       		.byte	0
 2395 017b 1C       		.uleb128 0x1c
 2396 017c 05       		.uleb128 0x5
 2397 017d 00       		.byte	0
 2398 017e 03       		.uleb128 0x3
 2399 017f 08       		.uleb128 0x8
 2400 0180 3A       		.uleb128 0x3a
 2401 0181 0B       		.uleb128 0xb
 2402 0182 3B       		.uleb128 0x3b
 2403 0183 05       		.uleb128 0x5
 2404 0184 49       		.uleb128 0x49
 2405 0185 13       		.uleb128 0x13
 2406 0186 00       		.byte	0
 2407 0187 00       		.byte	0
 2408 0188 1D       		.uleb128 0x1d
 2409 0189 05       		.uleb128 0x5
 2410 018a 00       		.byte	0
 2411 018b 03       		.uleb128 0x3
 2412 018c 0E       		.uleb128 0xe
 2413 018d 3A       		.uleb128 0x3a
 2414 018e 0B       		.uleb128 0xb
 2415 018f 3B       		.uleb128 0x3b
 2416 0190 0B       		.uleb128 0xb
 2417 0191 49       		.uleb128 0x49
 2418 0192 13       		.uleb128 0x13
 2419 0193 00       		.byte	0
 2420 0194 00       		.byte	0
 2421 0195 1E       		.uleb128 0x1e
 2422 0196 34       		.uleb128 0x34
 2423 0197 00       		.byte	0
 2424 0198 03       		.uleb128 0x3
 2425 0199 08       		.uleb128 0x8
 2426 019a 3A       		.uleb128 0x3a
 2427 019b 0B       		.uleb128 0xb
 2428 019c 3B       		.uleb128 0x3b
 2429 019d 0B       		.uleb128 0xb
 2430 019e 49       		.uleb128 0x49
 2431 019f 13       		.uleb128 0x13
 2432 01a0 00       		.byte	0
 2433 01a1 00       		.byte	0
 2434 01a2 1F       		.uleb128 0x1f
 2435 01a3 2E       		.uleb128 0x2e
 2436 01a4 01       		.byte	0x1
 2437 01a5 47       		.uleb128 0x47
 2438 01a6 13       		.uleb128 0x13
 2439 01a7 20       		.uleb128 0x20
 2440 01a8 0B       		.uleb128 0xb
 2441 01a9 64       		.uleb128 0x64
 2442 01aa 13       		.uleb128 0x13
 2443 01ab 01       		.uleb128 0x1
 2444 01ac 13       		.uleb128 0x13
 2445 01ad 00       		.byte	0
 2446 01ae 00       		.byte	0
 2447 01af 20       		.uleb128 0x20
 2448 01b0 05       		.uleb128 0x5
ARM GAS  C:\msys64\tmp\ccopjPFb.s 			page 44


 2449 01b1 00       		.byte	0
 2450 01b2 03       		.uleb128 0x3
 2451 01b3 0E       		.uleb128 0xe
 2452 01b4 49       		.uleb128 0x49
 2453 01b5 13       		.uleb128 0x13
 2454 01b6 34       		.uleb128 0x34
 2455 01b7 19       		.uleb128 0x19
 2456 01b8 00       		.byte	0
 2457 01b9 00       		.byte	0
 2458 01ba 21       		.uleb128 0x21
 2459 01bb 0B       		.uleb128 0xb
 2460 01bc 01       		.byte	0x1
 2461 01bd 01       		.uleb128 0x1
 2462 01be 13       		.uleb128 0x13
 2463 01bf 00       		.byte	0
 2464 01c0 00       		.byte	0
 2465 01c1 22       		.uleb128 0x22
 2466 01c2 34       		.uleb128 0x34
 2467 01c3 00       		.byte	0
 2468 01c4 03       		.uleb128 0x3
 2469 01c5 0E       		.uleb128 0xe
 2470 01c6 3A       		.uleb128 0x3a
 2471 01c7 0B       		.uleb128 0xb
 2472 01c8 3B       		.uleb128 0x3b
 2473 01c9 0B       		.uleb128 0xb
 2474 01ca 49       		.uleb128 0x49
 2475 01cb 13       		.uleb128 0x13
 2476 01cc 00       		.byte	0
 2477 01cd 00       		.byte	0
 2478 01ce 23       		.uleb128 0x23
 2479 01cf 0B       		.uleb128 0xb
 2480 01d0 01       		.byte	0x1
 2481 01d1 00       		.byte	0
 2482 01d2 00       		.byte	0
 2483 01d3 24       		.uleb128 0x24
 2484 01d4 2E       		.uleb128 0x2e
 2485 01d5 01       		.byte	0x1
 2486 01d6 03       		.uleb128 0x3
 2487 01d7 0E       		.uleb128 0xe
 2488 01d8 34       		.uleb128 0x34
 2489 01d9 19       		.uleb128 0x19
 2490 01da 20       		.uleb128 0x20
 2491 01db 0B       		.uleb128 0xb
 2492 01dc 01       		.uleb128 0x1
 2493 01dd 13       		.uleb128 0x13
 2494 01de 00       		.byte	0
 2495 01df 00       		.byte	0
 2496 01e0 25       		.uleb128 0x25
 2497 01e1 2E       		.uleb128 0x2e
 2498 01e2 01       		.byte	0x1
 2499 01e3 3F       		.uleb128 0x3f
 2500 01e4 19       		.uleb128 0x19
 2501 01e5 03       		.uleb128 0x3
 2502 01e6 0E       		.uleb128 0xe
 2503 01e7 3A       		.uleb128 0x3a
 2504 01e8 0B       		.uleb128 0xb
 2505 01e9 3B       		.uleb128 0x3b
ARM GAS  C:\msys64\tmp\ccopjPFb.s 			page 45


 2506 01ea 0B       		.uleb128 0xb
 2507 01eb 11       		.uleb128 0x11
 2508 01ec 01       		.uleb128 0x1
 2509 01ed 12       		.uleb128 0x12
 2510 01ee 06       		.uleb128 0x6
 2511 01ef 40       		.uleb128 0x40
 2512 01f0 18       		.uleb128 0x18
 2513 01f1 9742     		.uleb128 0x2117
 2514 01f3 19       		.uleb128 0x19
 2515 01f4 01       		.uleb128 0x1
 2516 01f5 13       		.uleb128 0x13
 2517 01f6 00       		.byte	0
 2518 01f7 00       		.byte	0
 2519 01f8 26       		.uleb128 0x26
 2520 01f9 05       		.uleb128 0x5
 2521 01fa 00       		.byte	0
 2522 01fb 03       		.uleb128 0x3
 2523 01fc 0E       		.uleb128 0xe
 2524 01fd 3A       		.uleb128 0x3a
 2525 01fe 0B       		.uleb128 0xb
 2526 01ff 3B       		.uleb128 0x3b
 2527 0200 0B       		.uleb128 0xb
 2528 0201 49       		.uleb128 0x49
 2529 0202 13       		.uleb128 0x13
 2530 0203 02       		.uleb128 0x2
 2531 0204 18       		.uleb128 0x18
 2532 0205 00       		.byte	0
 2533 0206 00       		.byte	0
 2534 0207 27       		.uleb128 0x27
 2535 0208 05       		.uleb128 0x5
 2536 0209 00       		.byte	0
 2537 020a 03       		.uleb128 0x3
 2538 020b 08       		.uleb128 0x8
 2539 020c 3A       		.uleb128 0x3a
 2540 020d 0B       		.uleb128 0xb
 2541 020e 3B       		.uleb128 0x3b
 2542 020f 0B       		.uleb128 0xb
 2543 0210 49       		.uleb128 0x49
 2544 0211 13       		.uleb128 0x13
 2545 0212 02       		.uleb128 0x2
 2546 0213 18       		.uleb128 0x18
 2547 0214 00       		.byte	0
 2548 0215 00       		.byte	0
 2549 0216 28       		.uleb128 0x28
 2550 0217 05       		.uleb128 0x5
 2551 0218 00       		.byte	0
 2552 0219 03       		.uleb128 0x3
 2553 021a 0E       		.uleb128 0xe
 2554 021b 3A       		.uleb128 0x3a
 2555 021c 0B       		.uleb128 0xb
 2556 021d 3B       		.uleb128 0x3b
 2557 021e 0B       		.uleb128 0xb
 2558 021f 49       		.uleb128 0x49
 2559 0220 13       		.uleb128 0x13
 2560 0221 02       		.uleb128 0x2
 2561 0222 17       		.uleb128 0x17
 2562 0223 00       		.byte	0
ARM GAS  C:\msys64\tmp\ccopjPFb.s 			page 46


 2563 0224 00       		.byte	0
 2564 0225 29       		.uleb128 0x29
 2565 0226 05       		.uleb128 0x5
 2566 0227 00       		.byte	0
 2567 0228 03       		.uleb128 0x3
 2568 0229 08       		.uleb128 0x8
 2569 022a 3A       		.uleb128 0x3a
 2570 022b 0B       		.uleb128 0xb
 2571 022c 3B       		.uleb128 0x3b
 2572 022d 0B       		.uleb128 0xb
 2573 022e 49       		.uleb128 0x49
 2574 022f 13       		.uleb128 0x13
 2575 0230 02       		.uleb128 0x2
 2576 0231 17       		.uleb128 0x17
 2577 0232 00       		.byte	0
 2578 0233 00       		.byte	0
 2579 0234 2A       		.uleb128 0x2a
 2580 0235 34       		.uleb128 0x34
 2581 0236 00       		.byte	0
 2582 0237 03       		.uleb128 0x3
 2583 0238 08       		.uleb128 0x8
 2584 0239 3A       		.uleb128 0x3a
 2585 023a 0B       		.uleb128 0xb
 2586 023b 3B       		.uleb128 0x3b
 2587 023c 0B       		.uleb128 0xb
 2588 023d 49       		.uleb128 0x49
 2589 023e 13       		.uleb128 0x13
 2590 023f 02       		.uleb128 0x2
 2591 0240 18       		.uleb128 0x18
 2592 0241 00       		.byte	0
 2593 0242 00       		.byte	0
 2594 0243 2B       		.uleb128 0x2b
 2595 0244 34       		.uleb128 0x34
 2596 0245 00       		.byte	0
 2597 0246 03       		.uleb128 0x3
 2598 0247 0E       		.uleb128 0xe
 2599 0248 3A       		.uleb128 0x3a
 2600 0249 0B       		.uleb128 0xb
 2601 024a 3B       		.uleb128 0x3b
 2602 024b 0B       		.uleb128 0xb
 2603 024c 49       		.uleb128 0x49
 2604 024d 13       		.uleb128 0x13
 2605 024e 02       		.uleb128 0x2
 2606 024f 18       		.uleb128 0x18
 2607 0250 00       		.byte	0
 2608 0251 00       		.byte	0
 2609 0252 2C       		.uleb128 0x2c
 2610 0253 34       		.uleb128 0x34
 2611 0254 00       		.byte	0
 2612 0255 03       		.uleb128 0x3
 2613 0256 0E       		.uleb128 0xe
 2614 0257 3A       		.uleb128 0x3a
 2615 0258 0B       		.uleb128 0xb
 2616 0259 3B       		.uleb128 0x3b
 2617 025a 0B       		.uleb128 0xb
 2618 025b 49       		.uleb128 0x49
 2619 025c 13       		.uleb128 0x13
ARM GAS  C:\msys64\tmp\ccopjPFb.s 			page 47


 2620 025d 02       		.uleb128 0x2
 2621 025e 17       		.uleb128 0x17
 2622 025f 00       		.byte	0
 2623 0260 00       		.byte	0
 2624 0261 2D       		.uleb128 0x2d
 2625 0262 34       		.uleb128 0x34
 2626 0263 00       		.byte	0
 2627 0264 03       		.uleb128 0x3
 2628 0265 08       		.uleb128 0x8
 2629 0266 3A       		.uleb128 0x3a
 2630 0267 0B       		.uleb128 0xb
 2631 0268 3B       		.uleb128 0x3b
 2632 0269 0B       		.uleb128 0xb
 2633 026a 49       		.uleb128 0x49
 2634 026b 13       		.uleb128 0x13
 2635 026c 02       		.uleb128 0x2
 2636 026d 17       		.uleb128 0x17
 2637 026e 00       		.byte	0
 2638 026f 00       		.byte	0
 2639 0270 2E       		.uleb128 0x2e
 2640 0271 1D       		.uleb128 0x1d
 2641 0272 01       		.byte	0x1
 2642 0273 31       		.uleb128 0x31
 2643 0274 13       		.uleb128 0x13
 2644 0275 52       		.uleb128 0x52
 2645 0276 01       		.uleb128 0x1
 2646 0277 55       		.uleb128 0x55
 2647 0278 17       		.uleb128 0x17
 2648 0279 58       		.uleb128 0x58
 2649 027a 0B       		.uleb128 0xb
 2650 027b 59       		.uleb128 0x59
 2651 027c 0B       		.uleb128 0xb
 2652 027d 01       		.uleb128 0x1
 2653 027e 13       		.uleb128 0x13
 2654 027f 00       		.byte	0
 2655 0280 00       		.byte	0
 2656 0281 2F       		.uleb128 0x2f
 2657 0282 05       		.uleb128 0x5
 2658 0283 00       		.byte	0
 2659 0284 31       		.uleb128 0x31
 2660 0285 13       		.uleb128 0x13
 2661 0286 02       		.uleb128 0x2
 2662 0287 17       		.uleb128 0x17
 2663 0288 00       		.byte	0
 2664 0289 00       		.byte	0
 2665 028a 30       		.uleb128 0x30
 2666 028b 05       		.uleb128 0x5
 2667 028c 00       		.byte	0
 2668 028d 31       		.uleb128 0x31
 2669 028e 13       		.uleb128 0x13
 2670 028f 00       		.byte	0
 2671 0290 00       		.byte	0
 2672 0291 31       		.uleb128 0x31
 2673 0292 0B       		.uleb128 0xb
 2674 0293 01       		.byte	0x1
 2675 0294 55       		.uleb128 0x55
 2676 0295 17       		.uleb128 0x17
ARM GAS  C:\msys64\tmp\ccopjPFb.s 			page 48


 2677 0296 00       		.byte	0
 2678 0297 00       		.byte	0
 2679 0298 32       		.uleb128 0x32
 2680 0299 34       		.uleb128 0x34
 2681 029a 00       		.byte	0
 2682 029b 31       		.uleb128 0x31
 2683 029c 13       		.uleb128 0x13
 2684 029d 00       		.byte	0
 2685 029e 00       		.byte	0
 2686 029f 33       		.uleb128 0x33
 2687 02a0 1D       		.uleb128 0x1d
 2688 02a1 01       		.byte	0x1
 2689 02a2 31       		.uleb128 0x31
 2690 02a3 13       		.uleb128 0x13
 2691 02a4 11       		.uleb128 0x11
 2692 02a5 01       		.uleb128 0x1
 2693 02a6 12       		.uleb128 0x12
 2694 02a7 06       		.uleb128 0x6
 2695 02a8 58       		.uleb128 0x58
 2696 02a9 0B       		.uleb128 0xb
 2697 02aa 59       		.uleb128 0x59
 2698 02ab 0B       		.uleb128 0xb
 2699 02ac 00       		.byte	0
 2700 02ad 00       		.byte	0
 2701 02ae 34       		.uleb128 0x34
 2702 02af 1D       		.uleb128 0x1d
 2703 02b0 01       		.byte	0x1
 2704 02b1 31       		.uleb128 0x31
 2705 02b2 13       		.uleb128 0x13
 2706 02b3 11       		.uleb128 0x11
 2707 02b4 01       		.uleb128 0x1
 2708 02b5 12       		.uleb128 0x12
 2709 02b6 06       		.uleb128 0x6
 2710 02b7 58       		.uleb128 0x58
 2711 02b8 0B       		.uleb128 0xb
 2712 02b9 59       		.uleb128 0x59
 2713 02ba 05       		.uleb128 0x5
 2714 02bb 00       		.byte	0
 2715 02bc 00       		.byte	0
 2716 02bd 35       		.uleb128 0x35
 2717 02be 34       		.uleb128 0x34
 2718 02bf 00       		.byte	0
 2719 02c0 31       		.uleb128 0x31
 2720 02c1 13       		.uleb128 0x13
 2721 02c2 02       		.uleb128 0x2
 2722 02c3 17       		.uleb128 0x17
 2723 02c4 00       		.byte	0
 2724 02c5 00       		.byte	0
 2725 02c6 36       		.uleb128 0x36
 2726 02c7 1D       		.uleb128 0x1d
 2727 02c8 01       		.byte	0x1
 2728 02c9 31       		.uleb128 0x31
 2729 02ca 13       		.uleb128 0x13
 2730 02cb 52       		.uleb128 0x52
 2731 02cc 01       		.uleb128 0x1
 2732 02cd 55       		.uleb128 0x55
 2733 02ce 17       		.uleb128 0x17
ARM GAS  C:\msys64\tmp\ccopjPFb.s 			page 49


 2734 02cf 58       		.uleb128 0x58
 2735 02d0 0B       		.uleb128 0xb
 2736 02d1 59       		.uleb128 0x59
 2737 02d2 0B       		.uleb128 0xb
 2738 02d3 00       		.byte	0
 2739 02d4 00       		.byte	0
 2740 02d5 37       		.uleb128 0x37
 2741 02d6 0B       		.uleb128 0xb
 2742 02d7 01       		.byte	0x1
 2743 02d8 55       		.uleb128 0x55
 2744 02d9 17       		.uleb128 0x17
 2745 02da 01       		.uleb128 0x1
 2746 02db 13       		.uleb128 0x13
 2747 02dc 00       		.byte	0
 2748 02dd 00       		.byte	0
 2749 02de 38       		.uleb128 0x38
 2750 02df 0B       		.uleb128 0xb
 2751 02e0 01       		.byte	0x1
 2752 02e1 11       		.uleb128 0x11
 2753 02e2 01       		.uleb128 0x1
 2754 02e3 12       		.uleb128 0x12
 2755 02e4 06       		.uleb128 0x6
 2756 02e5 00       		.byte	0
 2757 02e6 00       		.byte	0
 2758 02e7 39       		.uleb128 0x39
 2759 02e8 1D       		.uleb128 0x1d
 2760 02e9 01       		.byte	0x1
 2761 02ea 31       		.uleb128 0x31
 2762 02eb 13       		.uleb128 0x13
 2763 02ec 52       		.uleb128 0x52
 2764 02ed 01       		.uleb128 0x1
 2765 02ee 55       		.uleb128 0x55
 2766 02ef 17       		.uleb128 0x17
 2767 02f0 58       		.uleb128 0x58
 2768 02f1 0B       		.uleb128 0xb
 2769 02f2 59       		.uleb128 0x59
 2770 02f3 05       		.uleb128 0x5
 2771 02f4 00       		.byte	0
 2772 02f5 00       		.byte	0
 2773 02f6 3A       		.uleb128 0x3a
 2774 02f7 10       		.uleb128 0x10
 2775 02f8 00       		.byte	0
 2776 02f9 0B       		.uleb128 0xb
 2777 02fa 0B       		.uleb128 0xb
 2778 02fb 49       		.uleb128 0x49
 2779 02fc 13       		.uleb128 0x13
 2780 02fd 00       		.byte	0
 2781 02fe 00       		.byte	0
 2782 02ff 3B       		.uleb128 0x3b
 2783 0300 2E       		.uleb128 0x2e
 2784 0301 01       		.byte	0x1
 2785 0302 03       		.uleb128 0x3
 2786 0303 0E       		.uleb128 0xe
 2787 0304 34       		.uleb128 0x34
 2788 0305 19       		.uleb128 0x19
 2789 0306 11       		.uleb128 0x11
 2790 0307 01       		.uleb128 0x1
ARM GAS  C:\msys64\tmp\ccopjPFb.s 			page 50


 2791 0308 12       		.uleb128 0x12
 2792 0309 06       		.uleb128 0x6
 2793 030a 40       		.uleb128 0x40
 2794 030b 18       		.uleb128 0x18
 2795 030c 9742     		.uleb128 0x2117
 2796 030e 19       		.uleb128 0x19
 2797 030f 01       		.uleb128 0x1
 2798 0310 13       		.uleb128 0x13
 2799 0311 00       		.byte	0
 2800 0312 00       		.byte	0
 2801 0313 3C       		.uleb128 0x3c
 2802 0314 05       		.uleb128 0x5
 2803 0315 00       		.byte	0
 2804 0316 31       		.uleb128 0x31
 2805 0317 13       		.uleb128 0x13
 2806 0318 02       		.uleb128 0x2
 2807 0319 18       		.uleb128 0x18
 2808 031a 00       		.byte	0
 2809 031b 00       		.byte	0
 2810 031c 3D       		.uleb128 0x3d
 2811 031d 1D       		.uleb128 0x1d
 2812 031e 01       		.byte	0x1
 2813 031f 31       		.uleb128 0x31
 2814 0320 13       		.uleb128 0x13
 2815 0321 11       		.uleb128 0x11
 2816 0322 01       		.uleb128 0x1
 2817 0323 12       		.uleb128 0x12
 2818 0324 06       		.uleb128 0x6
 2819 0325 58       		.uleb128 0x58
 2820 0326 0B       		.uleb128 0xb
 2821 0327 59       		.uleb128 0x59
 2822 0328 0B       		.uleb128 0xb
 2823 0329 01       		.uleb128 0x1
 2824 032a 13       		.uleb128 0x13
 2825 032b 00       		.byte	0
 2826 032c 00       		.byte	0
 2827 032d 3E       		.uleb128 0x3e
 2828 032e 34       		.uleb128 0x34
 2829 032f 00       		.byte	0
 2830 0330 03       		.uleb128 0x3
 2831 0331 0E       		.uleb128 0xe
 2832 0332 3A       		.uleb128 0x3a
 2833 0333 0B       		.uleb128 0xb
 2834 0334 3B       		.uleb128 0x3b
 2835 0335 0B       		.uleb128 0xb
 2836 0336 49       		.uleb128 0x49
 2837 0337 13       		.uleb128 0x13
 2838 0338 3F       		.uleb128 0x3f
 2839 0339 19       		.uleb128 0x19
 2840 033a 3C       		.uleb128 0x3c
 2841 033b 19       		.uleb128 0x19
 2842 033c 00       		.byte	0
 2843 033d 00       		.byte	0
 2844 033e 3F       		.uleb128 0x3f
 2845 033f 21       		.uleb128 0x21
 2846 0340 00       		.byte	0
 2847 0341 49       		.uleb128 0x49
ARM GAS  C:\msys64\tmp\ccopjPFb.s 			page 51


 2848 0342 13       		.uleb128 0x13
 2849 0343 2F       		.uleb128 0x2f
 2850 0344 05       		.uleb128 0x5
 2851 0345 00       		.byte	0
 2852 0346 00       		.byte	0
 2853 0347 40       		.uleb128 0x40
 2854 0348 34       		.uleb128 0x34
 2855 0349 00       		.byte	0
 2856 034a 03       		.uleb128 0x3
 2857 034b 0E       		.uleb128 0xe
 2858 034c 3A       		.uleb128 0x3a
 2859 034d 0B       		.uleb128 0xb
 2860 034e 3B       		.uleb128 0x3b
 2861 034f 05       		.uleb128 0x5
 2862 0350 49       		.uleb128 0x49
 2863 0351 13       		.uleb128 0x13
 2864 0352 3F       		.uleb128 0x3f
 2865 0353 19       		.uleb128 0x19
 2866 0354 3C       		.uleb128 0x3c
 2867 0355 19       		.uleb128 0x19
 2868 0356 00       		.byte	0
 2869 0357 00       		.byte	0
 2870 0358 00       		.byte	0
 2871              		.section	.debug_loc,"",%progbits
 2872              	.Ldebug_loc0:
 2873              	.LLST0:
 2874 0000 02000000 		.4byte	.LVL1
 2875 0004 08000000 		.4byte	.LVL2
 2876 0008 0100     		.2byte	0x1
 2877 000a 50       		.byte	0x50
 2878 000b 08000000 		.4byte	.LVL2
 2879 000f 90010000 		.4byte	.LFE251
 2880 0013 0400     		.2byte	0x4
 2881 0015 F3       		.byte	0xf3
 2882 0016 01       		.uleb128 0x1
 2883 0017 50       		.byte	0x50
 2884 0018 9F       		.byte	0x9f
 2885 0019 00000000 		.4byte	0
 2886 001d 00000000 		.4byte	0
 2887              	.LLST1:
 2888 0021 02000000 		.4byte	.LVL1
 2889 0025 9E000000 		.4byte	.LVL16
 2890 0029 0100     		.2byte	0x1
 2891 002b 51       		.byte	0x51
 2892 002c 9E000000 		.4byte	.LVL16
 2893 0030 90010000 		.4byte	.LFE251
 2894 0034 0400     		.2byte	0x4
 2895 0036 F3       		.byte	0xf3
 2896 0037 01       		.uleb128 0x1
 2897 0038 51       		.byte	0x51
 2898 0039 9F       		.byte	0x9f
 2899 003a 00000000 		.4byte	0
 2900 003e 00000000 		.4byte	0
 2901              	.LLST2:
 2902 0042 02000000 		.4byte	.LVL1
 2903 0046 6C000000 		.4byte	.LVL11
 2904 004a 0100     		.2byte	0x1
ARM GAS  C:\msys64\tmp\ccopjPFb.s 			page 52


 2905 004c 52       		.byte	0x52
 2906 004d 6C000000 		.4byte	.LVL11
 2907 0051 90010000 		.4byte	.LFE251
 2908 0055 0400     		.2byte	0x4
 2909 0057 F3       		.byte	0xf3
 2910 0058 01       		.uleb128 0x1
 2911 0059 52       		.byte	0x52
 2912 005a 9F       		.byte	0x9f
 2913 005b 00000000 		.4byte	0
 2914 005f 00000000 		.4byte	0
 2915              	.LLST3:
 2916 0063 22000000 		.4byte	.LVL3
 2917 0067 2E000000 		.4byte	.LVL4
 2918 006b 0100     		.2byte	0x1
 2919 006d 53       		.byte	0x53
 2920 006e 2E000000 		.4byte	.LVL4
 2921 0072 30000000 		.4byte	.LVL5
 2922 0076 0300     		.2byte	0x3
 2923 0078 73       		.byte	0x73
 2924 0079 7F       		.sleb128 -1
 2925 007a 9F       		.byte	0x9f
 2926 007b 30000000 		.4byte	.LVL5
 2927 007f 90010000 		.4byte	.LFE251
 2928 0083 0E00     		.2byte	0xe
 2929 0085 F3       		.byte	0xf3
 2930 0086 01       		.uleb128 0x1
 2931 0087 50       		.byte	0x50
 2932 0088 23       		.byte	0x23
 2933 0089 04       		.uleb128 0x4
 2934 008a 94       		.byte	0x94
 2935 008b 02       		.byte	0x2
 2936 008c 0A       		.byte	0xa
 2937 008d FFFF     		.2byte	0xffff
 2938 008f 1A       		.byte	0x1a
 2939 0090 38       		.byte	0x38
 2940 0091 26       		.byte	0x26
 2941 0092 9F       		.byte	0x9f
 2942 0093 00000000 		.4byte	0
 2943 0097 00000000 		.4byte	0
 2944              	.LLST4:
 2945 009b 92000000 		.4byte	.LVL15
 2946 009f 56010000 		.4byte	.LVL39
 2947 00a3 0100     		.2byte	0x1
 2948 00a5 51       		.byte	0x51
 2949 00a6 56010000 		.4byte	.LVL39
 2950 00aa 64010000 		.4byte	.LVL41
 2951 00ae 0300     		.2byte	0x3
 2952 00b0 71       		.byte	0x71
 2953 00b1 7C       		.sleb128 -4
 2954 00b2 9F       		.byte	0x9f
 2955 00b3 64010000 		.4byte	.LVL41
 2956 00b7 90010000 		.4byte	.LFE251
 2957 00bb 0100     		.2byte	0x1
 2958 00bd 51       		.byte	0x51
 2959 00be 00000000 		.4byte	0
 2960 00c2 00000000 		.4byte	0
 2961              	.LLST5:
ARM GAS  C:\msys64\tmp\ccopjPFb.s 			page 53


 2962 00c6 34000000 		.4byte	.LVL6
 2963 00ca 3A000000 		.4byte	.LVL8
 2964 00ce 0100     		.2byte	0x1
 2965 00d0 50       		.byte	0x50
 2966 00d1 3A000000 		.4byte	.LVL8
 2967 00d5 4E000000 		.4byte	.LVL9
 2968 00d9 0200     		.2byte	0x2
 2969 00db 90       		.byte	0x90
 2970 00dc 4F       		.uleb128 0x4f
 2971 00dd 4E000000 		.4byte	.LVL9
 2972 00e1 8A000000 		.4byte	.LVL14
 2973 00e5 0800     		.2byte	0x8
 2974 00e7 F3       		.byte	0xf3
 2975 00e8 01       		.uleb128 0x1
 2976 00e9 50       		.byte	0x50
 2977 00ea 23       		.byte	0x23
 2978 00eb 04       		.uleb128 0x4
 2979 00ec 94       		.byte	0x94
 2980 00ed 02       		.byte	0x2
 2981 00ee 9F       		.byte	0x9f
 2982 00ef 00000000 		.4byte	0
 2983 00f3 00000000 		.4byte	0
 2984              	.LLST6:
 2985 00f7 70000000 		.4byte	.LVL12
 2986 00fb 82000000 		.4byte	.LVL13
 2987 00ff 0600     		.2byte	0x6
 2988 0101 9E       		.byte	0x9e
 2989 0102 04       		.uleb128 0x4
 2990 0103 49FFB846 		.4byte	0x46b8ff49
 2991 0107 00000000 		.4byte	0
 2992 010b 00000000 		.4byte	0
 2993              	.LLST9:
 2994 010f 70000000 		.4byte	.LVL12
 2995 0113 82000000 		.4byte	.LVL13
 2996 0117 0C00     		.2byte	0xc
 2997 0119 F5       		.byte	0xf5
 2998 011a 4C       		.uleb128 0x4c
 2999 011b 25       		.uleb128 0x25
 3000 011c F4       		.byte	0xf4
 3001 011d 25       		.uleb128 0x25
 3002 011e 04       		.byte	0x4
 3003 011f 49FFB846 		.4byte	0x46b8ff49
 3004 0123 1C       		.byte	0x1c
 3005 0124 9F       		.byte	0x9f
 3006 0125 00000000 		.4byte	0
 3007 0129 00000000 		.4byte	0
 3008              	.LLST10:
 3009 012d A2000000 		.4byte	.LVL17
 3010 0131 64010000 		.4byte	.LVL41
 3011 0135 0600     		.2byte	0x6
 3012 0137 03       		.byte	0x3
 3013 0138 00000000 		.4byte	_ZL2pd
 3014 013c 9F       		.byte	0x9f
 3015 013d 00000000 		.4byte	0
 3016 0141 00000000 		.4byte	0
 3017              	.LLST11:
 3018 0145 A2000000 		.4byte	.LVL17
ARM GAS  C:\msys64\tmp\ccopjPFb.s 			page 54


 3019 0149 1C010000 		.4byte	.LVL33
 3020 014d 0200     		.2byte	0x2
 3021 014f 90       		.byte	0x90
 3022 0150 4D       		.uleb128 0x4d
 3023 0151 00000000 		.4byte	0
 3024 0155 00000000 		.4byte	0
 3025              	.LLST12:
 3026 0159 A2000000 		.4byte	.LVL17
 3027 015d 1C010000 		.4byte	.LVL33
 3028 0161 0500     		.2byte	0x5
 3029 0163 03       		.byte	0x3
 3030 0164 0C000000 		.4byte	_ZL2pd+12
 3031 0168 00000000 		.4byte	0
 3032 016c 00000000 		.4byte	0
 3033              	.LLST13:
 3034 0170 C6000000 		.4byte	.LVL20
 3035 0174 CA000000 		.4byte	.LVL21
 3036 0178 0200     		.2byte	0x2
 3037 017a 90       		.byte	0x90
 3038 017b 4F       		.uleb128 0x4f
 3039 017c 00000000 		.4byte	0
 3040 0180 00000000 		.4byte	0
 3041              	.LLST15:
 3042 0184 CA000000 		.4byte	.LVL21
 3043 0188 DE000000 		.4byte	.LVL23
 3044 018c 0200     		.2byte	0x2
 3045 018e 90       		.byte	0x90
 3046 018f 4F       		.uleb128 0x4f
 3047 0190 00000000 		.4byte	0
 3048 0194 00000000 		.4byte	0
 3049              	.LLST16:
 3050 0198 CA000000 		.4byte	.LVL21
 3051 019c DE000000 		.4byte	.LVL23
 3052 01a0 0C00     		.2byte	0xc
 3053 01a2 F5       		.byte	0xf5
 3054 01a3 4F       		.uleb128 0x4f
 3055 01a4 25       		.uleb128 0x25
 3056 01a5 F5       		.byte	0xf5
 3057 01a6 4F       		.uleb128 0x4f
 3058 01a7 25       		.uleb128 0x25
 3059 01a8 F7       		.byte	0xf7
 3060 01a9 2C       		.uleb128 0x2c
 3061 01aa F7       		.byte	0xf7
 3062 01ab 25       		.uleb128 0x25
 3063 01ac 1C       		.byte	0x1c
 3064 01ad 9F       		.byte	0x9f
 3065 01ae 00000000 		.4byte	0
 3066 01b2 00000000 		.4byte	0
 3067              	.LLST17:
 3068 01b6 DA000000 		.4byte	.LVL22
 3069 01ba 04010000 		.4byte	.LVL30
 3070 01be 0200     		.2byte	0x2
 3071 01c0 90       		.byte	0x90
 3072 01c1 4E       		.uleb128 0x4e
 3073 01c2 00000000 		.4byte	0
 3074 01c6 00000000 		.4byte	0
 3075              	.LLST18:
ARM GAS  C:\msys64\tmp\ccopjPFb.s 			page 55


 3076 01ca E2000000 		.4byte	.LVL24
 3077 01ce 18010000 		.4byte	.LVL32
 3078 01d2 0100     		.2byte	0x1
 3079 01d4 54       		.byte	0x54
 3080 01d5 00000000 		.4byte	0
 3081 01d9 00000000 		.4byte	0
 3082              	.LLST19:
 3083 01dd E6000000 		.4byte	.LVL25
 3084 01e1 F0000000 		.4byte	.LVL26
 3085 01e5 0100     		.2byte	0x1
 3086 01e7 53       		.byte	0x53
 3087 01e8 F0000000 		.4byte	.LVL26
 3088 01ec F8000000 		.4byte	.LVL27
 3089 01f0 0300     		.2byte	0x3
 3090 01f2 73       		.byte	0x73
 3091 01f3 7F       		.sleb128 -1
 3092 01f4 9F       		.byte	0x9f
 3093 01f5 F8000000 		.4byte	.LVL27
 3094 01f9 18010000 		.4byte	.LVL32
 3095 01fd 0600     		.2byte	0x6
 3096 01ff 74       		.byte	0x74
 3097 0200 00       		.sleb128 0
 3098 0201 08       		.byte	0x8
 3099 0202 7F       		.byte	0x7f
 3100 0203 1A       		.byte	0x1a
 3101 0204 9F       		.byte	0x9f
 3102 0205 00000000 		.4byte	0
 3103 0209 00000000 		.4byte	0
 3104              	.LLST20:
 3105 020d E6000000 		.4byte	.LVL25
 3106 0211 F0000000 		.4byte	.LVL26
 3107 0215 0600     		.2byte	0x6
 3108 0217 73       		.byte	0x73
 3109 0218 01       		.sleb128 1
 3110 0219 08       		.byte	0x8
 3111 021a 7F       		.byte	0x7f
 3112 021b 1A       		.byte	0x1a
 3113 021c 9F       		.byte	0x9f
 3114 021d F0000000 		.4byte	.LVL26
 3115 0221 F8000000 		.4byte	.LVL27
 3116 0225 0600     		.2byte	0x6
 3117 0227 73       		.byte	0x73
 3118 0228 00       		.sleb128 0
 3119 0229 08       		.byte	0x8
 3120 022a 7F       		.byte	0x7f
 3121 022b 1A       		.byte	0x1a
 3122 022c 9F       		.byte	0x9f
 3123 022d F8000000 		.4byte	.LVL27
 3124 0231 FC000000 		.4byte	.LVL28
 3125 0235 0100     		.2byte	0x1
 3126 0237 53       		.byte	0x53
 3127 0238 FC000000 		.4byte	.LVL28
 3128 023c 18010000 		.4byte	.LVL32
 3129 0240 0600     		.2byte	0x6
 3130 0242 74       		.byte	0x74
 3131 0243 01       		.sleb128 1
 3132 0244 08       		.byte	0x8
ARM GAS  C:\msys64\tmp\ccopjPFb.s 			page 56


 3133 0245 7F       		.byte	0x7f
 3134 0246 1A       		.byte	0x1a
 3135 0247 9F       		.byte	0x9f
 3136 0248 00000000 		.4byte	0
 3137 024c 00000000 		.4byte	0
 3138              	.LLST21:
 3139 0250 00010000 		.4byte	.LVL29
 3140 0254 12010000 		.4byte	.LVL31
 3141 0258 0200     		.2byte	0x2
 3142 025a 90       		.byte	0x90
 3143 025b 4F       		.uleb128 0x4f
 3144 025c 00000000 		.4byte	0
 3145 0260 00000000 		.4byte	0
 3146              	.LLST22:
 3147 0264 00010000 		.4byte	.LVL29
 3148 0268 04010000 		.4byte	.LVL30
 3149 026c 0B00     		.2byte	0xb
 3150 026e F5       		.byte	0xf5
 3151 026f 4E       		.uleb128 0x4e
 3152 0270 25       		.uleb128 0x25
 3153 0271 74       		.byte	0x74
 3154 0272 00       		.sleb128 0
 3155 0273 F7       		.byte	0xf7
 3156 0274 2C       		.uleb128 0x2c
 3157 0275 F7       		.byte	0xf7
 3158 0276 25       		.uleb128 0x25
 3159 0277 1C       		.byte	0x1c
 3160 0278 9F       		.byte	0x9f
 3161 0279 04010000 		.4byte	.LVL30
 3162 027d 12010000 		.4byte	.LVL31
 3163 0281 0200     		.2byte	0x2
 3164 0283 90       		.byte	0x90
 3165 0284 4E       		.uleb128 0x4e
 3166 0285 00000000 		.4byte	0
 3167 0289 00000000 		.4byte	0
 3168              	.LLST23:
 3169 028d B8000000 		.4byte	.LVL19
 3170 0291 1C010000 		.4byte	.LVL33
 3171 0295 0800     		.2byte	0x8
 3172 0297 F5       		.byte	0xf5
 3173 0298 4D       		.uleb128 0x4d
 3174 0299 25       		.uleb128 0x25
 3175 029a F5       		.byte	0xf5
 3176 029b 4B       		.uleb128 0x4b
 3177 029c 25       		.uleb128 0x25
 3178 029d 1C       		.byte	0x1c
 3179 029e 9F       		.byte	0x9f
 3180 029f 00000000 		.4byte	0
 3181 02a3 00000000 		.4byte	0
 3182              	.LLST24:
 3183 02a7 B8000000 		.4byte	.LVL19
 3184 02ab 1C010000 		.4byte	.LVL33
 3185 02af 0C00     		.2byte	0xc
 3186 02b1 F4       		.byte	0xf4
 3187 02b2 25       		.uleb128 0x25
 3188 02b3 04       		.byte	0x4
 3189 02b4 0000803F 		.4byte	0x3f800000
ARM GAS  C:\msys64\tmp\ccopjPFb.s 			page 57


 3190 02b8 F5       		.byte	0xf5
 3191 02b9 4B       		.uleb128 0x4b
 3192 02ba 25       		.uleb128 0x25
 3193 02bb 1C       		.byte	0x1c
 3194 02bc 9F       		.byte	0x9f
 3195 02bd 00000000 		.4byte	0
 3196 02c1 00000000 		.4byte	0
 3197              	.LLST25:
 3198 02c5 B8000000 		.4byte	.LVL19
 3199 02c9 1C010000 		.4byte	.LVL33
 3200 02cd 1400     		.2byte	0x14
 3201 02cf F5       		.byte	0xf5
 3202 02d0 4D       		.uleb128 0x4d
 3203 02d1 25       		.uleb128 0x25
 3204 02d2 F5       		.byte	0xf5
 3205 02d3 4B       		.uleb128 0x4b
 3206 02d4 25       		.uleb128 0x25
 3207 02d5 1C       		.byte	0x1c
 3208 02d6 F4       		.byte	0xf4
 3209 02d7 25       		.uleb128 0x25
 3210 02d8 04       		.byte	0x4
 3211 02d9 0000803F 		.4byte	0x3f800000
 3212 02dd F5       		.byte	0xf5
 3213 02de 4B       		.uleb128 0x4b
 3214 02df 25       		.uleb128 0x25
 3215 02e0 1C       		.byte	0x1c
 3216 02e1 1B       		.byte	0x1b
 3217 02e2 9F       		.byte	0x9f
 3218 02e3 00000000 		.4byte	0
 3219 02e7 00000000 		.4byte	0
 3220              	.LLST26:
 3221 02eb AA000000 		.4byte	.LVL18
 3222 02ef 1C010000 		.4byte	.LVL33
 3223 02f3 0800     		.2byte	0x8
 3224 02f5 F5       		.byte	0xf5
 3225 02f6 4D       		.uleb128 0x4d
 3226 02f7 25       		.uleb128 0x25
 3227 02f8 F5       		.byte	0xf5
 3228 02f9 4B       		.uleb128 0x4b
 3229 02fa 25       		.uleb128 0x25
 3230 02fb 1B       		.byte	0x1b
 3231 02fc 9F       		.byte	0x9f
 3232 02fd 00000000 		.4byte	0
 3233 0301 00000000 		.4byte	0
 3234              	.LLST27:
 3235 0305 1C010000 		.4byte	.LVL33
 3236 0309 3A010000 		.4byte	.LVL37
 3237 030d 0600     		.2byte	0x6
 3238 030f 9E       		.byte	0x9e
 3239 0310 04       		.uleb128 0x4
 3240 0311 CDCC4C3D 		.4byte	0x3d4ccccd
 3241 0315 00000000 		.4byte	0
 3242 0319 00000000 		.4byte	0
 3243              	.LLST28:
 3244 031d 1C010000 		.4byte	.LVL33
 3245 0321 3A010000 		.4byte	.LVL37
 3246 0325 0600     		.2byte	0x6
ARM GAS  C:\msys64\tmp\ccopjPFb.s 			page 58


 3247 0327 9E       		.byte	0x9e
 3248 0328 04       		.uleb128 0x4
 3249 0329 0000803F 		.4byte	0x3f800000
 3250 032d 00000000 		.4byte	0
 3251 0331 00000000 		.4byte	0
 3252              	.LLST29:
 3253 0335 1C010000 		.4byte	.LVL33
 3254 0339 3A010000 		.4byte	.LVL37
 3255 033d 0600     		.2byte	0x6
 3256 033f 9E       		.byte	0x9e
 3257 0340 04       		.uleb128 0x4
 3258 0341 000080BF 		.4byte	0xbf800000
 3259 0345 00000000 		.4byte	0
 3260 0349 00000000 		.4byte	0
 3261              	.LLST30:
 3262 034d 1C010000 		.4byte	.LVL33
 3263 0351 26010000 		.4byte	.LVL34
 3264 0355 0600     		.2byte	0x6
 3265 0357 9E       		.byte	0x9e
 3266 0358 04       		.uleb128 0x4
 3267 0359 000080BF 		.4byte	0xbf800000
 3268 035d 36010000 		.4byte	.LVL36
 3269 0361 3A010000 		.4byte	.LVL37
 3270 0365 0600     		.2byte	0x6
 3271 0367 9E       		.byte	0x9e
 3272 0368 04       		.uleb128 0x4
 3273 0369 000080BF 		.4byte	0xbf800000
 3274 036d 00000000 		.4byte	0
 3275 0371 00000000 		.4byte	0
 3276              	.LLST31:
 3277 0375 00000000 		.4byte	.LVL45
 3278 0379 12000000 		.4byte	.LVL47
 3279 037d 0200     		.2byte	0x2
 3280 037f 31       		.byte	0x31
 3281 0380 9F       		.byte	0x9f
 3282 0381 00000000 		.4byte	0
 3283 0385 00000000 		.4byte	0
 3284              	.LLST32:
 3285 0389 00000000 		.4byte	.LVL45
 3286 038d 12000000 		.4byte	.LVL47
 3287 0391 0400     		.2byte	0x4
 3288 0393 0A       		.byte	0xa
 3289 0394 FFFF     		.2byte	0xffff
 3290 0396 9F       		.byte	0x9f
 3291 0397 00000000 		.4byte	0
 3292 039b 00000000 		.4byte	0
 3293              	.LLST33:
 3294 039f 00000000 		.4byte	.LVL45
 3295 03a3 10000000 		.4byte	.LVL46
 3296 03a7 0600     		.2byte	0x6
 3297 03a9 03       		.byte	0x3
 3298 03aa 00000000 		.4byte	_ZL2pd
 3299 03ae 9F       		.byte	0x9f
 3300 03af 00000000 		.4byte	0
 3301 03b3 00000000 		.4byte	0
 3302              	.LLST34:
 3303 03b7 10000000 		.4byte	.LVL46
ARM GAS  C:\msys64\tmp\ccopjPFb.s 			page 59


 3304 03bb 12000000 		.4byte	.LVL47
 3305 03bf 0600     		.2byte	0x6
 3306 03c1 03       		.byte	0x3
 3307 03c2 0C000000 		.4byte	_ZL2pd+12
 3308 03c6 9F       		.byte	0x9f
 3309 03c7 00000000 		.4byte	0
 3310 03cb 00000000 		.4byte	0
 3311              		.section	.debug_aranges,"",%progbits
 3312 0000 24000000 		.4byte	0x24
 3313 0004 0200     		.2byte	0x2
 3314 0006 00000000 		.4byte	.Ldebug_info0
 3315 000a 04       		.byte	0x4
 3316 000b 00       		.byte	0
 3317 000c 0000     		.2byte	0
 3318 000e 0000     		.2byte	0
 3319 0010 00000000 		.4byte	.Ltext0
 3320 0014 C8010000 		.4byte	.Letext0-.Ltext0
 3321 0018 00000000 		.4byte	.LFB256
 3322 001c 18000000 		.4byte	.LFE256-.LFB256
 3323 0020 00000000 		.4byte	0
 3324 0024 00000000 		.4byte	0
 3325              		.section	.debug_ranges,"",%progbits
 3326              	.Ldebug_ranges0:
 3327 0000 0A000000 		.4byte	.LBB162
 3328 0004 0E000000 		.4byte	.LBE162
 3329 0008 22000000 		.4byte	.LBB251
 3330 000c 28000000 		.4byte	.LBE251
 3331 0010 2A000000 		.4byte	.LBB252
 3332 0014 30000000 		.4byte	.LBE252
 3333 0018 34000000 		.4byte	.LBB253
 3334 001c 3E000000 		.4byte	.LBE253
 3335 0020 46000000 		.4byte	.LBB254
 3336 0024 5A000000 		.4byte	.LBE254
 3337 0028 5C000000 		.4byte	.LBB256
 3338 002c 68000000 		.4byte	.LBE256
 3339 0030 6C000000 		.4byte	.LBB257
 3340 0034 8E000000 		.4byte	.LBE257
 3341 0038 00000000 		.4byte	0
 3342 003c 00000000 		.4byte	0
 3343 0040 0A000000 		.4byte	.LBB164
 3344 0044 0E000000 		.4byte	.LBE164
 3345 0048 4A000000 		.4byte	.LBB182
 3346 004c 4E000000 		.4byte	.LBE182
 3347 0050 5C000000 		.4byte	.LBB186
 3348 0054 68000000 		.4byte	.LBE186
 3349 0058 6C000000 		.4byte	.LBB187
 3350 005c 70000000 		.4byte	.LBE187
 3351 0060 00000000 		.4byte	0
 3352 0064 00000000 		.4byte	0
 3353 0068 22000000 		.4byte	.LBB169
 3354 006c 28000000 		.4byte	.LBE169
 3355 0070 34000000 		.4byte	.LBB175
 3356 0074 3A000000 		.4byte	.LBE175
 3357 0078 3C000000 		.4byte	.LBB180
 3358 007c 3E000000 		.4byte	.LBE180
 3359 0080 4E000000 		.4byte	.LBB183
 3360 0084 52000000 		.4byte	.LBE183
ARM GAS  C:\msys64\tmp\ccopjPFb.s 			page 60


 3361 0088 56000000 		.4byte	.LBB185
 3362 008c 5A000000 		.4byte	.LBE185
 3363 0090 00000000 		.4byte	0
 3364 0094 00000000 		.4byte	0
 3365 0098 3A000000 		.4byte	.LBB176
 3366 009c 3C000000 		.4byte	.LBE176
 3367 00a0 46000000 		.4byte	.LBB181
 3368 00a4 4A000000 		.4byte	.LBE181
 3369 00a8 52000000 		.4byte	.LBB184
 3370 00ac 56000000 		.4byte	.LBE184
 3371 00b0 00000000 		.4byte	0
 3372 00b4 00000000 		.4byte	0
 3373 00b8 0E000000 		.4byte	.LBB199
 3374 00bc 1A000000 		.4byte	.LBE199
 3375 00c0 5A000000 		.4byte	.LBB248
 3376 00c4 5C000000 		.4byte	.LBE248
 3377 00c8 92000000 		.4byte	.LBB249
 3378 00cc 9E000000 		.4byte	.LBE249
 3379 00d0 A2000000 		.4byte	.LBB250
 3380 00d4 62010000 		.4byte	.LBE250
 3381 00d8 00000000 		.4byte	0
 3382 00dc 00000000 		.4byte	0
 3383 00e0 0E000000 		.4byte	.LBB200
 3384 00e4 12000000 		.4byte	.LBE200
 3385 00e8 5A000000 		.4byte	.LBB233
 3386 00ec 5C000000 		.4byte	.LBE233
 3387 00f0 92000000 		.4byte	.LBB234
 3388 00f4 9A000000 		.4byte	.LBE234
 3389 00f8 A2000000 		.4byte	.LBB246
 3390 00fc 1C010000 		.4byte	.LBE246
 3391 0100 00000000 		.4byte	0
 3392 0104 00000000 		.4byte	0
 3393 0108 0E000000 		.4byte	.LBB202
 3394 010c 12000000 		.4byte	.LBE202
 3395 0110 5A000000 		.4byte	.LBB221
 3396 0114 5C000000 		.4byte	.LBE221
 3397 0118 96000000 		.4byte	.LBB227
 3398 011c 9A000000 		.4byte	.LBE227
 3399 0120 C6000000 		.4byte	.LBB229
 3400 0124 18010000 		.4byte	.LBE229
 3401 0128 00000000 		.4byte	0
 3402 012c 00000000 		.4byte	0
 3403 0130 0E000000 		.4byte	.LBB204
 3404 0134 12000000 		.4byte	.LBE204
 3405 0138 5A000000 		.4byte	.LBB216
 3406 013c 5C000000 		.4byte	.LBE216
 3407 0140 CA000000 		.4byte	.LBB217
 3408 0144 18010000 		.4byte	.LBE217
 3409 0148 00000000 		.4byte	0
 3410 014c 00000000 		.4byte	0
 3411 0150 E6000000 		.4byte	.LBB206
 3412 0154 EA000000 		.4byte	.LBE206
 3413 0158 F0000000 		.4byte	.LBB211
 3414 015c F4000000 		.4byte	.LBE211
 3415 0160 00010000 		.4byte	.LBB212
 3416 0164 0C010000 		.4byte	.LBE212
 3417 0168 0E010000 		.4byte	.LBB213
ARM GAS  C:\msys64\tmp\ccopjPFb.s 			page 61


 3418 016c 12010000 		.4byte	.LBE213
 3419 0170 00000000 		.4byte	0
 3420 0174 00000000 		.4byte	0
 3421 0178 92000000 		.4byte	.LBB223
 3422 017c 96000000 		.4byte	.LBE223
 3423 0180 AA000000 		.4byte	.LBB224
 3424 0184 B4000000 		.4byte	.LBE224
 3425 0188 B8000000 		.4byte	.LBB226
 3426 018c C6000000 		.4byte	.LBE226
 3427 0190 00000000 		.4byte	0
 3428 0194 00000000 		.4byte	0
 3429 0198 9A000000 		.4byte	.LBB235
 3430 019c 9E000000 		.4byte	.LBE235
 3431 01a0 1C010000 		.4byte	.LBB247
 3432 01a4 3A010000 		.4byte	.LBE247
 3433 01a8 00000000 		.4byte	0
 3434 01ac 00000000 		.4byte	0
 3435 01b0 9A000000 		.4byte	.LBB237
 3436 01b4 9E000000 		.4byte	.LBE237
 3437 01b8 1C010000 		.4byte	.LBB244
 3438 01bc 3A010000 		.4byte	.LBE244
 3439 01c0 00000000 		.4byte	0
 3440 01c4 00000000 		.4byte	0
 3441 01c8 9A000000 		.4byte	.LBB238
 3442 01cc 9E000000 		.4byte	.LBE238
 3443 01d0 1C010000 		.4byte	.LBB243
 3444 01d4 3A010000 		.4byte	.LBE243
 3445 01d8 00000000 		.4byte	0
 3446 01dc 00000000 		.4byte	0
 3447 01e0 9A000000 		.4byte	.LBB239
 3448 01e4 9E000000 		.4byte	.LBE239
 3449 01e8 1C010000 		.4byte	.LBB242
 3450 01ec 3A010000 		.4byte	.LBE242
 3451 01f0 00000000 		.4byte	0
 3452 01f4 00000000 		.4byte	0
 3453 01f8 00000000 		.4byte	.Ltext0
 3454 01fc C8010000 		.4byte	.Letext0
 3455 0200 00000000 		.4byte	.LFB256
 3456 0204 18000000 		.4byte	.LFE256
 3457 0208 00000000 		.4byte	0
 3458 020c 00000000 		.4byte	0
 3459              		.section	.debug_line,"",%progbits
 3460              	.Ldebug_line0:
 3461 0000 20030000 		.section	.debug_str,"MS",%progbits,1
 3461      0200FD01 
 3461      00000201 
 3461      FB0E0D00 
 3461      01010101 
 3462              	.LASF52:
 3463 0000 70617261 		.ascii	"params\000"
 3463      6D7300
 3464              	.LASF82:
 3465 0007 5F686F6F 		.ascii	"_hook_param\000"
 3465      6B5F7061 
 3465      72616D00 
 3466              	.LASF91:
 3467 0013 77745F70 		.ascii	"wt_par_lut_f\000"
ARM GAS  C:\msys64\tmp\ccopjPFb.s 			page 62


 3467      61725F6C 
 3467      75745F66 
 3467      00
 3468              	.LASF79:
 3469 0020 666C6167 		.ascii	"flags\000"
 3469      7300
 3470              	.LASF98:
 3471 0026 474E5520 		.ascii	"GNU C++11 5.4.1 20160919 (release) [ARM/embedded-5-"
 3471      432B2B31 
 3471      3120352E 
 3471      342E3120 
 3471      32303136 
 3472 0059 6272616E 		.ascii	"branch revision 240496] -mcpu=cortex-m4 -mthumb -mn"
 3472      63682072 
 3472      65766973 
 3472      696F6E20 
 3472      32343034 
 3473 008c 6F2D7468 		.ascii	"o-thumb-interwork -mlittle-endian -mfloat-abi=hard "
 3473      756D622D 
 3473      696E7465 
 3473      72776F72 
 3473      6B202D6D 
 3474 00bf 2D6D6670 		.ascii	"-mfpu=fpv4-sp-d16 -g -Os -std=c++11 -fsingle-precis"
 3474      753D6670 
 3474      76342D73 
 3474      702D6431 
 3474      36202D67 
 3475 00f2 696F6E2D 		.ascii	"ion-constant -fcheck-new -fno-rtti -fno-exceptions "
 3475      636F6E73 
 3475      74616E74 
 3475      202D6663 
 3475      6865636B 
 3476 0125 2D666E6F 		.ascii	"-fno-non-call-exceptions\000"
 3476      2D6E6F6E 
 3476      2D63616C 
 3476      6C2D6578 
 3476      63657074 
 3477              	.LASF1:
 3478 013e 756E7369 		.ascii	"unsigned int\000"
 3478      676E6564 
 3478      20696E74 
 3478      00
 3479              	.LASF97:
 3480 014b 62697472 		.ascii	"bitres_lut_f\000"
 3480      65735F6C 
 3480      75745F66 
 3480      00
 3481              	.LASF64:
 3482 0158 6F73635F 		.ascii	"osc_sinf\000"
 3482      73696E66 
 3482      00
 3483              	.LASF8:
 3484 0161 5F5F696E 		.ascii	"__int32_t\000"
 3484      7433325F 
 3484      7400
 3485              	.LASF76:
 3486 016b 706C6174 		.ascii	"platform\000"
ARM GAS  C:\msys64\tmp\ccopjPFb.s 			page 63


 3486      666F726D 
 3486      00
 3487              	.LASF30:
 3488 0174 70697463 		.ascii	"pitch\000"
 3488      6800
 3489              	.LASF44:
 3490 017a 75736572 		.ascii	"user_osc_param_id_t\000"
 3490      5F6F7363 
 3490      5F706172 
 3490      616D5F69 
 3490      645F7400 
 3491              	.LASF50:
 3492 018e 53746174 		.ascii	"State\000"
 3492      6500
 3493              	.LASF35:
 3494 0194 6B5F7573 		.ascii	"k_user_osc_param_id1\000"
 3494      65725F6F 
 3494      73635F70 
 3494      6172616D 
 3494      5F696431 
 3495              	.LASF36:
 3496 01a9 6B5F7573 		.ascii	"k_user_osc_param_id2\000"
 3496      65725F6F 
 3496      73635F70 
 3496      6172616D 
 3496      5F696432 
 3497              	.LASF37:
 3498 01be 6B5F7573 		.ascii	"k_user_osc_param_id3\000"
 3498      65725F6F 
 3498      73635F70 
 3498      6172616D 
 3498      5F696433 
 3499              	.LASF38:
 3500 01d3 6B5F7573 		.ascii	"k_user_osc_param_id4\000"
 3500      65725F6F 
 3500      73635F70 
 3500      6172616D 
 3500      5F696434 
 3501              	.LASF39:
 3502 01e8 6B5F7573 		.ascii	"k_user_osc_param_id5\000"
 3502      65725F6F 
 3502      73635F70 
 3502      6172616D 
 3502      5F696435 
 3503              	.LASF40:
 3504 01fd 6B5F7573 		.ascii	"k_user_osc_param_id6\000"
 3504      65725F6F 
 3504      73635F70 
 3504      6172616D 
 3504      5F696436 
 3505              	.LASF105:
 3506 0212 5F5A4E32 		.ascii	"_ZN2PD5State5resetEv\000"
 3506      50443553 
 3506      74617465 
 3506      35726573 
 3506      65744576 
 3507              	.LASF43:
ARM GAS  C:\msys64\tmp\ccopjPFb.s 			page 64


 3508 0227 6B5F6E75 		.ascii	"k_num_user_osc_param_id\000"
 3508      6D5F7573 
 3508      65725F6F 
 3508      73635F70 
 3508      6172616D 
 3509              	.LASF77:
 3510 023f 5F686F6F 		.ascii	"_hook_cycle\000"
 3510      6B5F6379 
 3510      636C6500 
 3511              	.LASF100:
 3512 024b 433A5C6D 		.ascii	"C:\\msys64\\home\\logue-sdk\\platform\\nutekt-digit"
 3512      73797336 
 3512      345C686F 
 3512      6D655C6C 
 3512      6F677565 
 3513 0279 616C5C43 		.ascii	"al\\Custom-Projects\\osc\\VPS_Project\\phase_distor"
 3513      7573746F 
 3513      6D2D5072 
 3513      6F6A6563 
 3513      74735C6F 
 3514 02a8 74696F6E 		.ascii	"tion\000"
 3514      00
 3515              	.LASF93:
 3516 02ad 74616E70 		.ascii	"tanpi_lut_f\000"
 3516      695F6C75 
 3516      745F6600 
 3517              	.LASF72:
 3518 02b9 6F73635F 		.ascii	"osc_softclipf\000"
 3518      736F6674 
 3518      636C6970 
 3518      6600
 3519              	.LASF58:
 3520 02c7 636C616D 		.ascii	"clampfsel\000"
 3520      70667365 
 3520      6C00
 3521              	.LASF17:
 3522 02d1 75696E74 		.ascii	"uint32_t\000"
 3522      33325F74 
 3522      00
 3523              	.LASF87:
 3524 02da 6D696469 		.ascii	"midi_to_hz_lut_f\000"
 3524      5F746F5F 
 3524      687A5F6C 
 3524      75745F66 
 3524      00
 3525              	.LASF0:
 3526 02eb 666C6F61 		.ascii	"float\000"
 3526      7400
 3527              	.LASF83:
 3528 02f1 696E6465 		.ascii	"index\000"
 3528      7800
 3529              	.LASF25:
 3530 02f7 6B5F7573 		.ascii	"k_user_module_delfx\000"
 3530      65725F6D 
 3530      6F64756C 
 3530      655F6465 
 3530      6C667800 
ARM GAS  C:\msys64\tmp\ccopjPFb.s 			page 65


 3531              	.LASF13:
 3532 030b 6C6F6E67 		.ascii	"long long unsigned int\000"
 3532      206C6F6E 
 3532      6720756E 
 3532      7369676E 
 3532      65642069 
 3533              	.LASF53:
 3534 0322 50686173 		.ascii	"PhaseDistortion\000"
 3534      65446973 
 3534      746F7274 
 3534      696F6E00 
 3535              	.LASF68:
 3536 0332 66726163 		.ascii	"fraction\000"
 3536      74696F6E 
 3536      00
 3537              	.LASF6:
 3538 033b 5F5F7569 		.ascii	"__uint16_t\000"
 3538      6E743136 
 3538      5F7400
 3539              	.LASF80:
 3540 0346 5F686F6F 		.ascii	"_hook_on\000"
 3540      6B5F6F6E 
 3540      00
 3541              	.LASF45:
 3542 034f 75736572 		.ascii	"user_osc_param\000"
 3542      5F6F7363 
 3542      5F706172 
 3542      616D00
 3543              	.LASF84:
 3544 035e 76616C75 		.ascii	"value\000"
 3544      6500
 3545              	.LASF73:
 3546 0364 5F5F696E 		.ascii	"__initialize_p\000"
 3546      69746961 
 3546      6C697A65 
 3546      5F7000
 3547              	.LASF26:
 3548 0373 6B5F7573 		.ascii	"k_user_module_revfx\000"
 3548      65725F6D 
 3548      6F64756C 
 3548      655F7265 
 3548      76667800 
 3549              	.LASF74:
 3550 0387 5F5F7072 		.ascii	"__priority\000"
 3550      696F7269 
 3550      747900
 3551              	.LASF31:
 3552 0392 6375746F 		.ascii	"cutoff\000"
 3552      666600
 3553              	.LASF20:
 3554 0399 63686172 		.ascii	"char\000"
 3554      00
 3555              	.LASF81:
 3556 039e 5F686F6F 		.ascii	"_hook_off\000"
 3556      6B5F6F66 
 3556      6600
 3557              	.LASF78:
ARM GAS  C:\msys64\tmp\ccopjPFb.s 			page 66


 3558 03a8 6672616D 		.ascii	"frames\000"
 3558      657300
 3559              	.LASF96:
 3560 03af 73636865 		.ascii	"schetzen_lut_f\000"
 3560      747A656E 
 3560      5F6C7574 
 3560      5F6600
 3561              	.LASF14:
 3562 03be 75696E74 		.ascii	"uint8_t\000"
 3562      385F7400 
 3563              	.LASF46:
 3564 03c6 666C6167 		.ascii	"flags_none\000"
 3564      735F6E6F 
 3564      6E6500
 3565              	.LASF62:
 3566 03d1 6F73635F 		.ascii	"osc_notehzf\000"
 3566      6E6F7465 
 3566      687A6600 
 3567              	.LASF92:
 3568 03dd 6C6F675F 		.ascii	"log_lut_f\000"
 3568      6C75745F 
 3568      6600
 3569              	.LASF103:
 3570 03e7 5F5A4E32 		.ascii	"_ZN2PD6ParamsC4Ev\000"
 3570      50443650 
 3570      6172616D 
 3570      73433445 
 3570      7600
 3571              	.LASF106:
 3572 03f9 5F5A4E32 		.ascii	"_ZN2PDC4Ev\000"
 3572      50444334 
 3572      457600
 3573              	.LASF60:
 3574 0404 636C6970 		.ascii	"clipmaxf\000"
 3574      6D617866 
 3574      00
 3575              	.LASF12:
 3576 040d 6C6F6E67 		.ascii	"long long int\000"
 3576      206C6F6E 
 3576      6720696E 
 3576      7400
 3577              	.LASF54:
 3578 041b 5F5A4E32 		.ascii	"_ZN2PD5StateC4Ev\000"
 3578      50443553 
 3578      74617465 
 3578      43344576 
 3578      00
 3579              	.LASF47:
 3580 042c 666C6167 		.ascii	"flag_reset\000"
 3580      5F726573 
 3580      657400
 3581              	.LASF32:
 3582 0437 7265736F 		.ascii	"resonance\000"
 3582      6E616E63 
 3582      6500
 3583              	.LASF28:
 3584 0441 6B5F6E75 		.ascii	"k_num_user_modules\000"
ARM GAS  C:\msys64\tmp\ccopjPFb.s 			page 67


 3584      6D5F7573 
 3584      65725F6D 
 3584      6F64756C 
 3584      657300
 3585              	.LASF59:
 3586 0454 636C6970 		.ascii	"clipmaxu32\000"
 3586      6D617875 
 3586      333200
 3587              	.LASF108:
 3588 045f 5F474C4F 		.ascii	"_GLOBAL__sub_I__hook_init\000"
 3588      42414C5F 
 3588      5F737562 
 3588      5F495F5F 
 3588      686F6F6B 
 3589              	.LASF89:
 3590 0479 77745F73 		.ascii	"wt_saw_lut_f\000"
 3590      61775F6C 
 3590      75745F66 
 3590      00
 3591              	.LASF27:
 3592 0486 6B5F7573 		.ascii	"k_user_module_osc\000"
 3592      65725F6D 
 3592      6F64756C 
 3592      655F6F73 
 3592      6300
 3593              	.LASF69:
 3594 0498 6E756D65 		.ascii	"numerator\000"
 3594      7261746F 
 3594      7200
 3595              	.LASF18:
 3596 04a2 6C6F6E67 		.ascii	"long double\000"
 3596      20646F75 
 3596      626C6500 
 3597              	.LASF15:
 3598 04ae 75696E74 		.ascii	"uint16_t\000"
 3598      31365F74 
 3598      00
 3599              	.LASF66:
 3600 04b7 74686973 		.ascii	"this\000"
 3600      00
 3601              	.LASF48:
 3602 04bc 50617261 		.ascii	"Params\000"
 3602      6D7300
 3603              	.LASF107:
 3604 04c3 5F5F7374 		.ascii	"__static_initialization_and_destruction_0\000"
 3604      61746963 
 3604      5F696E69 
 3604      7469616C 
 3604      697A6174 
 3605              	.LASF42:
 3606 04ed 6B5F7573 		.ascii	"k_user_osc_param_shiftshape\000"
 3606      65725F6F 
 3606      73635F70 
 3606      6172616D 
 3606      5F736869 
 3607              	.LASF75:
 3608 0509 5F686F6F 		.ascii	"_hook_init\000"
ARM GAS  C:\msys64\tmp\ccopjPFb.s 			page 68


 3608      6B5F696E 
 3608      697400
 3609              	.LASF4:
 3610 0514 73686F72 		.ascii	"short int\000"
 3610      7420696E 
 3610      7400
 3611              	.LASF94:
 3612 051e 73717274 		.ascii	"sqrtm2log_lut_f\000"
 3612      6D326C6F 
 3612      675F6C75 
 3612      745F6600 
 3613              	.LASF95:
 3614 052e 63756269 		.ascii	"cubicsat_lut_f\000"
 3614      63736174 
 3614      5F6C7574 
 3614      5F6600
 3615              	.LASF90:
 3616 053d 77745F73 		.ascii	"wt_sqr_lut_f\000"
 3616      71725F6C 
 3616      75745F66 
 3616      00
 3617              	.LASF9:
 3618 054a 6C6F6E67 		.ascii	"long int\000"
 3618      20696E74 
 3618      00
 3619              	.LASF49:
 3620 0553 73686170 		.ascii	"shape\000"
 3620      6500
 3621              	.LASF24:
 3622 0559 6B5F7573 		.ascii	"k_user_module_modfx\000"
 3622      65725F6D 
 3622      6F64756C 
 3622      655F6D6F 
 3622      64667800 
 3623              	.LASF41:
 3624 056d 6B5F7573 		.ascii	"k_user_osc_param_shape\000"
 3624      65725F6F 
 3624      73635F70 
 3624      6172616D 
 3624      5F736861 
 3625              	.LASF102:
 3626 0584 31397573 		.ascii	"19user_osc_param_id_t\000"
 3626      65725F6F 
 3626      73635F70 
 3626      6172616D 
 3626      5F69645F 
 3627              	.LASF99:
 3628 059a 70642E63 		.ascii	"pd.cpp\000"
 3628      707000
 3629              	.LASF104:
 3630 05a1 72657365 		.ascii	"reset\000"
 3630      7400
 3631              	.LASF33:
 3632 05a7 72657365 		.ascii	"reserved0\000"
 3632      72766564 
 3632      3000
 3633              	.LASF70:
ARM GAS  C:\msys64\tmp\ccopjPFb.s 			page 69


 3634 05b1 64656E6F 		.ascii	"denominator\000"
 3634      6D696E61 
 3634      746F7200 
 3635              	.LASF5:
 3636 05bd 5F5F7569 		.ascii	"__uint8_t\000"
 3636      6E74385F 
 3636      7400
 3637              	.LASF86:
 3638 05c7 6B5F6F73 		.ascii	"k_osc_api_version\000"
 3638      635F6170 
 3638      695F7665 
 3638      7273696F 
 3638      6E00
 3639              	.LASF56:
 3640 05d9 6673656C 		.ascii	"fsel\000"
 3640      00
 3641              	.LASF63:
 3642 05de 6E6F7465 		.ascii	"note\000"
 3642      00
 3643              	.LASF22:
 3644 05e3 7133315F 		.ascii	"q31_t\000"
 3644      7400
 3645              	.LASF55:
 3646 05e9 5F5A4E32 		.ascii	"_ZN2PD15PhaseDistortionEf\000"
 3646      50443135 
 3646      50686173 
 3646      65446973 
 3646      746F7274 
 3647              	.LASF19:
 3648 0603 73697A65 		.ascii	"sizetype\000"
 3648      74797065 
 3648      00
 3649              	.LASF11:
 3650 060c 6C6F6E67 		.ascii	"long unsigned int\000"
 3650      20756E73 
 3650      69676E65 
 3650      6420696E 
 3650      7400
 3651              	.LASF88:
 3652 061e 77745F73 		.ascii	"wt_sine_lut_f\000"
 3652      696E655F 
 3652      6C75745F 
 3652      6600
 3653              	.LASF16:
 3654 062c 696E7433 		.ascii	"int32_t\000"
 3654      325F7400 
 3655              	.LASF61:
 3656 0634 6C696E69 		.ascii	"linintf\000"
 3656      6E746600 
 3657              	.LASF3:
 3658 063c 756E7369 		.ascii	"unsigned char\000"
 3658      676E6564 
 3658      20636861 
 3658      7200
 3659              	.LASF10:
 3660 064a 5F5F7569 		.ascii	"__uint32_t\000"
 3660      6E743332 
ARM GAS  C:\msys64\tmp\ccopjPFb.s 			page 70


 3660      5F7400
 3661              	.LASF67:
 3662 0655 6F73635F 		.ascii	"osc_cosf\000"
 3662      636F7366 
 3662      00
 3663              	.LASF23:
 3664 065e 6B5F7573 		.ascii	"k_user_module_global\000"
 3664      65725F6D 
 3664      6F64756C 
 3664      655F676C 
 3664      6F62616C 
 3665              	.LASF101:
 3666 0673 6465636C 		.ascii	"decltype(nullptr)\000"
 3666      74797065 
 3666      286E756C 
 3666      6C707472 
 3666      2900
 3667              	.LASF51:
 3668 0685 73746174 		.ascii	"state\000"
 3668      6500
 3669              	.LASF2:
 3670 068b 7369676E 		.ascii	"signed char\000"
 3670      65642063 
 3670      68617200 
 3671              	.LASF7:
 3672 0697 73686F72 		.ascii	"short unsigned int\000"
 3672      7420756E 
 3672      7369676E 
 3672      65642069 
 3672      6E7400
 3673              	.LASF71:
 3674 06aa 6F73635F 		.ascii	"osc_w0f_for_note\000"
 3674      7730665F 
 3674      666F725F 
 3674      6E6F7465 
 3674      00
 3675              	.LASF34:
 3676 06bb 75736572 		.ascii	"user_osc_param_t\000"
 3676      5F6F7363 
 3676      5F706172 
 3676      616D5F74 
 3676      00
 3677              	.LASF21:
 3678 06cc 646F7562 		.ascii	"double\000"
 3678      6C6500
 3679              	.LASF29:
 3680 06d3 73686170 		.ascii	"shape_lfo\000"
 3680      655F6C66 
 3680      6F00
 3681              	.LASF65:
 3682 06dd 636C6970 		.ascii	"clip1m1f\000"
 3682      316D3166 
 3682      00
 3683              	.LASF57:
 3684 06e6 636C616D 		.ascii	"clampmaxfsel\000"
 3684      706D6178 
 3684      6673656C 
ARM GAS  C:\msys64\tmp\ccopjPFb.s 			page 71


 3684      00
 3685              	.LASF85:
 3686 06f3 6B5F6F73 		.ascii	"k_osc_api_platform\000"
 3686      635F6170 
 3686      695F706C 
 3686      6174666F 
 3686      726D00
 3687              		.ident	"GCC: (GNU Tools for ARM Embedded Processors) 5.4.1 20160919 (release) [ARM/embedded-5-bran
ARM GAS  C:\msys64\tmp\ccopjPFb.s 			page 72


DEFINED SYMBOLS
                            *ABS*:00000000 pd.cpp
C:\msys64\tmp\ccopjPFb.s:21     .text:00000000 $t
C:\msys64\tmp\ccopjPFb.s:26     .text:00000000 _hook_init
C:\msys64\tmp\ccopjPFb.s:44     .text:00000002 _hook_cycle
C:\msys64\tmp\ccopjPFb.s:459    .text:0000016c $d
C:\msys64\tmp\ccopjPFb.s:471    .text:00000190 $t
C:\msys64\tmp\ccopjPFb.s:476    .text:00000190 _hook_on
C:\msys64\tmp\ccopjPFb.s:493    .text:0000019c $d
C:\msys64\tmp\ccopjPFb.s:497    .text:000001a0 $t
C:\msys64\tmp\ccopjPFb.s:502    .text:000001a0 _hook_off
C:\msys64\tmp\ccopjPFb.s:519    .text:000001a2 _hook_param
C:\msys64\tmp\ccopjPFb.s:544    .text:000001c0 $d
C:\msys64\tmp\ccopjPFb.s:550    .text.startup:00000000 $t
C:\msys64\tmp\ccopjPFb.s:554    .text.startup:00000000 _GLOBAL__sub_I__hook_init
C:\msys64\tmp\ccopjPFb.s:587    .text.startup:00000014 $d
C:\msys64\tmp\ccopjPFb.s:597    .init_array:00000000 $d
C:\msys64\tmp\ccopjPFb.s:600    .bss:00000000 $d
C:\msys64\tmp\ccopjPFb.s:604    .bss:00000000 _ZL2pd
                     .debug_frame:00000010 $d

UNDEFINED SYMBOLS
midi_to_hz_lut_f
wt_sine_lut_f
