ARM GAS  C:\msys64\tmp\ccHb7GrS.s 			page 1


   1              		.syntax unified
   2              		.cpu cortex-m4
   3              		.eabi_attribute 27, 1
   4              		.eabi_attribute 28, 1
   5              		.fpu fpv4-sp-d16
   6              		.eabi_attribute 20, 1
   7              		.eabi_attribute 21, 1
   8              		.eabi_attribute 23, 3
   9              		.eabi_attribute 24, 1
  10              		.eabi_attribute 25, 1
  11              		.eabi_attribute 26, 1
  12              		.eabi_attribute 30, 4
  13              		.eabi_attribute 34, 1
  14              		.eabi_attribute 18, 4
  15              		.thumb
  16              		.syntax unified
  17              		.file	"pd.cpp"
  18              		.text
  19              	.Ltext0:
  20              		.cfi_sections	.debug_frame
  21              		.align	1
  22              		.global	_hook_init
  23              		.thumb
  24              		.thumb_func
  25              		.type	_hook_init, %function
  26              	_hook_init:
  27              	.LFB250:
  28              		.file 1 "pd.cpp"
  29              		.loc 1 15 0
  30              		.cfi_startproc
  31              		@ args = 0, pretend = 0, frame = 0
  32              		@ frame_needed = 0, uses_anonymous_args = 0
  33              		@ link register save eliminated.
  34              	.LVL0:
  35 0000 7047     		bx	lr
  36              		.cfi_endproc
  37              	.LFE250:
  38              		.size	_hook_init, .-_hook_init
  39              		.align	1
  40              		.global	_hook_cycle
  41              		.thumb
  42              		.thumb_func
  43              		.type	_hook_cycle, %function
  44              	_hook_cycle:
  45              	.LFB251:
  46              		.loc 1 20 0
  47              		.cfi_startproc
  48              		@ args = 0, pretend = 0, frame = 0
  49              		@ frame_needed = 0, uses_anonymous_args = 0
  50              	.LVL1:
  51              		.loc 1 20 0
  52 0002 70B5     		push	{r4, r5, r6, lr}
  53              		.cfi_def_cfa_offset 16
  54              		.cfi_offset 4, -16
  55              		.cfi_offset 5, -12
  56              		.cfi_offset 6, -8
  57              		.cfi_offset 14, -4
ARM GAS  C:\msys64\tmp\ccHb7GrS.s 			page 2


  58              		.loc 1 27 0
  59 0004 5B4C     		ldr	r4, .L29
  60              		.loc 1 37 0
  61 0006 8088     		ldrh	r0, [r0, #4]
  62              	.LVL2:
  63              		.loc 1 27 0
  64 0008 237A     		ldrb	r3, [r4, #8]	@ zero_extendqisi2
  65              	.LVL3:
  66              	.LBB192:
  67              	.LBB193:
  68              	.LBB194:
  69              	.LBB195:
  70              		.file 2 "C:/msys64/home/logue-sdk/platform/nutekt-digital/inc/utils/float_math.h"
  71              		.loc 2 826 0
  72 000a 9FED5B7A 		vldr.32	s14, .L29+4
  73 000e D4ED035A 		vldr.32	s11, [r4, #12]
  74              	.LBE195:
  75              	.LBE194:
  76              	.LBE193:
  77              	.LBE192:
  78              	.LBB226:
  79              	.LBB227:
  80              	.LBB228:
  81              	.LBB229:
  82              	.LBB230:
  83              	.LBB231:
  84              	.LBB232:
  85              	.LBB233:
  86              		.file 3 "C:/msys64/home/logue-sdk/platform/nutekt-digital/inc/osc_api.h"
  87              		.loc 3 154 0
  88 0012 9FED5A2A 		vldr.32	s4, .L29+8
  89              	.LBE233:
  90              	.LBE232:
  91              	.LBE231:
  92              	.LBE230:
  93              	.LBE229:
  94              	.LBE228:
  95              		.loc 1 58 0
  96 0016 9FED5A3A 		vldr.32	s6, .L29+12
  97 001a DFED5A3A 		vldr.32	s7, .L29+16
  98              	.LBE227:
  99              	.LBE226:
 100              		.loc 1 29 0
 101 001e 1D46     		mov	r5, r3
 102              		.loc 1 32 0
 103 0020 DB07     		lsls	r3, r3, #31
 104              	.LVL4:
 105              	.LBB279:
 106              	.LBB280:
 107              		.file 4 "pd.hpp"
 108              		.loc 4 43 0
 109 0022 44BF     		itt	mi
 110 0024 0023     		movmi	r3, #0
 111 0026 2360     		strmi	r3, [r4]	@ float
 112              	.LBE280:
 113              	.LBE279:
 114              		.loc 1 37 0
ARM GAS  C:\msys64\tmp\ccHb7GrS.s 			page 3


 115 0028 0312     		asrs	r3, r0, #8
 116              	.LVL5:
 117              		.loc 1 29 0
 118 002a 6FF30005 		bfc	r5, #0, #1
 119              	.LBB281:
 120              	.LBB220:
 121              	.LBB199:
 122              	.LBB200:
 123              		.loc 3 109 0
 124 002e 962B     		cmp	r3, #150
 125              	.LBE200:
 126              	.LBE199:
 127              	.LBE220:
 128              	.LBE281:
 129              		.loc 1 29 0
 130 0030 2572     		strb	r5, [r4, #8]
 131              		.loc 1 40 0
 132 0032 C0B2     		uxtb	r0, r0
 133              	.LBB282:
 134              	.LBB221:
 135              	.LBB205:
 136              	.LBB201:
 137              		.loc 3 109 0
 138 0034 D8BF     		it	le
 139 0036 1D46     		movle	r5, r3
 140              	.LBE201:
 141              	.LBE205:
 142              		.loc 3 120 0
 143 0038 03F10103 		add	r3, r3, #1
 144              	.LVL6:
 145 003c DBB2     		uxtb	r3, r3
 146              	.LVL7:
 147              	.LBE221:
 148              	.LBE282:
 149              		.loc 1 40 0
 150 003e 07EE900A 		vmov	s15, r0	@ int
 151              	.LVL8:
 152              	.LBB283:
 153              	.LBB222:
 154              	.LBB206:
 155              	.LBB202:
 156              		.loc 3 109 0
 157 0042 C8BF     		it	gt
 158 0044 9725     		movgt	r5, #151
 159              	.LVL9:
 160 0046 5048     		ldr	r0, .L29+20
 161              	.LVL10:
 162              	.LBE202:
 163              	.LBE206:
 164              	.LBE222:
 165              	.LBE283:
 166              		.loc 1 43 0
 167 0048 D4ED006A 		vldr.32	s13, [r4]
 168              	.LBB284:
 169              	.LBB223:
 170              	.LBB207:
 171              	.LBB208:
ARM GAS  C:\msys64\tmp\ccHb7GrS.s 			page 4


 172              		.loc 3 109 0
 173 004c 962B     		cmp	r3, #150
 174 004e 88BF     		it	hi
 175 0050 9723     		movhi	r3, #151
 176              	.LBE208:
 177              	.LBE207:
 178              	.LBB210:
 179              	.LBB196:
 180              		.loc 2 826 0
 181 0052 F8EEE77A 		vcvt.f32.s32	s15, s15
 182              	.LVL11:
 183              	.LBE196:
 184              	.LBE210:
 185              	.LBB211:
 186              	.LBB203:
 187              		.loc 3 109 0
 188 0056 00EB8505 		add	r5, r0, r5, lsl #2
 189              	.LBE203:
 190              	.LBE211:
 191              	.LBB212:
 192              	.LBB209:
 193 005a 00EB8303 		add	r3, r0, r3, lsl #2
 194              	.LBE209:
 195              	.LBE212:
 196              	.LBB213:
 197              	.LBB204:
 198 005e 95ED006A 		vldr.32	s12, [r5]
 199              	.LVL12:
 200              	.LBE204:
 201              	.LBE213:
 202              	.LBE223:
 203              	.LBE284:
 204              	.LBB285:
 205              	.LBB276:
 206              	.LBB261:
 207              	.LBB258:
 208              	.LBB249:
 209              	.LBB246:
 210              	.LBB244:
 211              	.LBB242:
 212              		.loc 3 160 0
 213 0062 4A4D     		ldr	r5, .L29+24
 214              	.LBE242:
 215              	.LBE244:
 216              	.LBE246:
 217              	.LBE249:
 218              	.LBE258:
 219              	.LBE261:
 220              	.LBE276:
 221              	.LBE285:
 222              	.LBB286:
 223              	.LBB224:
 224              	.LBB214:
 225              	.LBB197:
 226              		.loc 2 826 0
 227 0064 67EE877A 		vmul.f32	s15, s15, s14
 228 0068 93ED007A 		vldr.32	s14, [r3]
ARM GAS  C:\msys64\tmp\ccHb7GrS.s 			page 5


 229 006c 37EE467A 		vsub.f32	s14, s14, s12
 230              	.LBE197:
 231              	.LBE214:
 232              	.LBE224:
 233              	.LBE286:
 234              		.loc 1 47 0
 235 0070 01EB8202 		add	r2, r1, r2, lsl #2
 236              	.LVL13:
 237              	.LBB287:
 238              	.LBB225:
 239              	.LBB215:
 240              	.LBB198:
 241              		.loc 2 826 0
 242 0074 A7EE876A 		vfma.f32	s12, s15, s14
 243              	.LVL14:
 244              	.LBE198:
 245              	.LBE215:
 246              	.LBB216:
 247              	.LBB217:
 248              	.LBB218:
 249              	.LBB219:
 250              		.loc 2 193 0
 251 0078 DFED457A 		vldr.32	s15, .L29+28
 252 007c B4EEE76A 		vcmpe.f32	s12, s15
 253 0080 F1EE10FA 		vmrs	APSR_nzcv, FPSCR
 254 0084 A8BF     		it	ge
 255 0086 B0EE676A 		vmovge.f32	s12, s15
 256              	.LVL15:
 257              	.LBE219:
 258              	.LBE218:
 259              	.LBE217:
 260              	.LBE216:
 261              		.loc 3 124 0
 262 008a DFED427A 		vldr.32	s15, .L29+32
 263 008e 26EE276A 		vmul.f32	s12, s12, s15
 264              	.LVL16:
 265 0092 B6EE004A 		vmov.f32	s8, #5.0e-1
 266              	.LBE225:
 267              	.LBE287:
 268              		.loc 1 40 0
 269 0096 84ED016A 		vstr.32	s12, [r4, #4]
 270              	.LVL17:
 271              	.LBB288:
 272              	.LBB277:
 273              	.LBB262:
 274              	.LBB259:
 275              	.LBB250:
 276              	.LBB251:
 277              		.loc 4 63 0
 278 009a B7EE005A 		vmov.f32	s10, #1.0e+0
 279              	.LBE251:
 280              	.LBE250:
 281              	.LBB255:
 282              	.LBB247:
 283              		.loc 3 171 0
 284 009e F5EE002A 		vmov.f32	s5, #2.5e-1
 285              	.LBE247:
ARM GAS  C:\msys64\tmp\ccHb7GrS.s 			page 6


 286              	.LBE255:
 287              	.LBE259:
 288              	.LBE262:
 289              	.LBB263:
 290              	.LBB264:
 291              	.LBB265:
 292              	.LBB266:
 293              	.LBB267:
 294              	.LBB268:
 295              		.loc 2 193 0
 296 00a2 FFEE001A 		vmov.f32	s3, #-1.0e+0
 297              	.LVL18:
 298              	.L14:
 299              	.LBE268:
 300              	.LBE267:
 301              	.LBE266:
 302              	.LBE265:
 303              	.LBE264:
 304              	.LBE263:
 305              	.LBE277:
 306              		.loc 1 50 0
 307 00a6 9142     		cmp	r1, r2
 308 00a8 60D0     		beq	.L7
 309              	.LVL19:
 310              	.LBB278:
 311              	.LBB274:
 312              	.LBB260:
 313              	.LBB256:
 314              		.loc 4 56 0
 315 00aa F4EEE56A 		vcmpe.f32	s13, s11
 316 00ae F1EE10FA 		vmrs	APSR_nzcv, FPSCR
 317              	.LVL20:
 318              	.LBB252:
 319              		.loc 4 63 0
 320 00b2 5BBF     		ittet	pl
 321 00b4 36EEE57A 		vsubpl.f32	s14, s13, s11
 322 00b8 75EE654A 		vsubpl.f32	s9, s10, s11
 323              	.LBE252:
 324              	.LBB253:
 325              		.loc 4 58 0
 326 00bc C6EEA57A 		vdivmi.f32	s15, s13, s11
 327              	.LVL21:
 328              	.LBE253:
 329              	.LBB254:
 330              		.loc 4 63 0
 331 00c0 C7EE247A 		vdivpl.f32	s15, s14, s9
 332 00c4 58BF     		it	pl
 333 00c6 77EE857A 		vaddpl.f32	s15, s15, s10
 334 00ca 67EE847A 		vmul.f32	s15, s15, s8
 335              	.LVL22:
 336              	.LBE254:
 337              	.LBE256:
 338              	.LBB257:
 339              	.LBB248:
 340              		.loc 3 171 0
 341 00ce 77EEA27A 		vadd.f32	s15, s15, s5
 342              	.LVL23:
ARM GAS  C:\msys64\tmp\ccHb7GrS.s 			page 7


 343              	.LBB245:
 344              	.LBB243:
 345              		.loc 3 154 0
 346 00d2 BCEEE77A 		vcvt.u32.f32	s14, s15
 347 00d6 B8EE477A 		vcvt.f32.u32	s14, s14
 348 00da 37EEC77A 		vsub.f32	s14, s15, s14
 349 00de 27EE027A 		vmul.f32	s14, s14, s4
 350              	.LVL24:
 351              		.loc 3 155 0
 352 00e2 FCEEC77A 		vcvt.u32.f32	s15, s14
 353              	.LVL25:
 354 00e6 17EE900A 		vmov	r0, s15	@ int
 355              	.LVL26:
 356              		.loc 3 157 0
 357 00ea 00F07F03 		and	r3, r0, #127
 358              	.LVL27:
 359              	.LBB234:
 360              	.LBB235:
 361              		.loc 2 826 0
 362 00ee 04EE900A 		vmov	s9, r0	@ int
 363              	.LBE235:
 364              	.LBE234:
 365              		.loc 3 160 0
 366 00f2 05EB8306 		add	r6, r5, r3, lsl #2
 367 00f6 0133     		adds	r3, r3, #1
 368              	.LVL28:
 369              	.LBB239:
 370              	.LBB236:
 371              		.loc 2 826 0
 372 00f8 F8EE644A 		vcvt.f32.u32	s9, s9
 373              	.LBE236:
 374              	.LBE239:
 375              		.loc 3 160 0
 376 00fc 03F07F03 		and	r3, r3, #127
 377              	.LVL29:
 378 0100 05EB8303 		add	r3, r5, r3, lsl #2
 379              	.LVL30:
 380 0104 D6ED007A 		vldr.32	s15, [r6]
 381              	.LVL31:
 382              	.LBB240:
 383              	.LBB237:
 384              		.loc 2 826 0
 385 0108 37EE647A 		vsub.f32	s14, s14, s9
 386              	.LVL32:
 387 010c D3ED004A 		vldr.32	s9, [r3]
 388 0110 74EEE74A 		vsub.f32	s9, s9, s15
 389              	.LBE237:
 390              	.LBE240:
 391              		.loc 3 161 0
 392 0114 7F28     		cmp	r0, #127
 393              	.LBB241:
 394              	.LBB238:
 395              		.loc 2 826 0
 396 0116 E7EE247A 		vfma.f32	s15, s14, s9
 397              	.LVL33:
 398              	.LBE238:
 399              	.LBE241:
ARM GAS  C:\msys64\tmp\ccHb7GrS.s 			page 8


 400              		.loc 3 161 0
 401 011a 88BF     		it	hi
 402 011c F1EE677A 		vneghi.f32	s15, s15
 403              	.LVL34:
 404              	.LBE243:
 405              	.LBE245:
 406              	.LBE248:
 407              	.LBE257:
 408              		.loc 4 66 0
 409 0120 F1EE677A 		vneg.f32	s15, s15
 410              	.LVL35:
 411              	.LBE260:
 412              	.LBE274:
 413              	.LBB275:
 414              	.LBB273:
 415              	.LBB272:
 416              	.LBB271:
 417              	.LBB270:
 418              	.LBB269:
 419              		.loc 2 193 0
 420 0124 F4EEE17A 		vcmpe.f32	s15, s3
 421 0128 F1EE10FA 		vmrs	APSR_nzcv, FPSCR
 422 012c 07DB     		blt	.L27
 423              	.LVL36:
 424 012e F4EEC57A 		vcmpe.f32	s15, s10
 425 0132 F1EE10FA 		vmrs	APSR_nzcv, FPSCR
 426 0136 A8BF     		it	ge
 427 0138 F0EE457A 		vmovge.f32	s15, s10
 428              	.LVL37:
 429 013c 01E0     		b	.L12
 430              	.LVL38:
 431              	.L27:
 432 013e FFEE007A 		vmov.f32	s15, #-1.0e+0
 433              	.LVL39:
 434              	.L12:
 435              	.LBE269:
 436              	.LBE270:
 437              	.LBE271:
 438              	.LBE272:
 439              	.LBE273:
 440              	.LBE275:
 441              		.loc 1 58 0
 442 0142 27EEA77A 		vmul.f32	s14, s15, s15
 443              		.loc 1 61 0
 444 0146 76EE866A 		vadd.f32	s13, s13, s12
 445              	.LVL40:
 446              		.loc 1 58 0
 447 014a 27EEC77A 		vnmul.f32	s14, s15, s14
 448 014e E7EE037A 		vfma.f32	s15, s14, s6
 449 0152 67EEA37A 		vmul.f32	s15, s15, s7
 450 0156 FDEEE77A 		vcvt.s32.f32	s15, s15
 451 015a E1EC017A 		vstmia.32	r1!, {s15}	@ int
 452              	.LVL41:
 453              		.loc 1 62 0
 454 015e FCEEE67A 		vcvt.u32.f32	s15, s13
 455 0162 F8EE677A 		vcvt.f32.u32	s15, s15
 456 0166 76EEE76A 		vsub.f32	s13, s13, s15
ARM GAS  C:\msys64\tmp\ccHb7GrS.s 			page 9


 457              	.LVL42:
 458              	.LBE278:
 459              		.loc 1 50 0
 460 016a 9CE7     		b	.L14
 461              	.LVL43:
 462              	.L7:
 463              	.LBE288:
 464              		.loc 1 66 0
 465 016c C4ED006A 		vstr.32	s13, [r4]
 466 0170 70BD     		pop	{r4, r5, r6, pc}
 467              	.L30:
 468 0172 00BF     		.align	2
 469              	.L29:
 470 0174 00000000 		.word	.LANCHOR0
 471 0178 8180803B 		.word	998277249
 472 017c 00008043 		.word	1132462080
 473 0180 CDCC4C3D 		.word	1028443341
 474 0184 0000004F 		.word	1325400064
 475 0188 00000000 		.word	midi_to_hz_lut_f
 476 018c 00000000 		.word	wt_sine_lut_f
 477 0190 49FFB846 		.word	1186529097
 478 0194 3EC3AE37 		.word	934200126
 479              		.cfi_endproc
 480              	.LFE251:
 481              		.size	_hook_cycle, .-_hook_cycle
 482              		.align	1
 483              		.global	_hook_on
 484              		.thumb
 485              		.thumb_func
 486              		.type	_hook_on, %function
 487              	_hook_on:
 488              	.LFB252:
 489              		.loc 1 69 0
 490              		.cfi_startproc
 491              		@ args = 0, pretend = 0, frame = 0
 492              		@ frame_needed = 0, uses_anonymous_args = 0
 493              		@ link register save eliminated.
 494              	.LVL44:
 495              		.loc 1 71 0
 496 0198 024A     		ldr	r2, .L32
 497 019a 137A     		ldrb	r3, [r2, #8]	@ zero_extendqisi2
 498 019c 43F00103 		orr	r3, r3, #1
 499 01a0 1372     		strb	r3, [r2, #8]
 500 01a2 7047     		bx	lr
 501              	.L33:
 502              		.align	2
 503              	.L32:
 504 01a4 00000000 		.word	.LANCHOR0
 505              		.cfi_endproc
 506              	.LFE252:
 507              		.size	_hook_on, .-_hook_on
 508              		.align	1
 509              		.global	_hook_off
 510              		.thumb
 511              		.thumb_func
 512              		.type	_hook_off, %function
 513              	_hook_off:
ARM GAS  C:\msys64\tmp\ccHb7GrS.s 			page 10


 514              	.LFB253:
 515              		.loc 1 74 0
 516              		.cfi_startproc
 517              		@ args = 0, pretend = 0, frame = 0
 518              		@ frame_needed = 0, uses_anonymous_args = 0
 519              		@ link register save eliminated.
 520              	.LVL45:
 521 01a8 7047     		bx	lr
 522              		.cfi_endproc
 523              	.LFE253:
 524              		.size	_hook_off, .-_hook_off
 525              		.align	1
 526              		.global	_hook_param
 527              		.thumb
 528              		.thumb_func
 529              		.type	_hook_param, %function
 530              	_hook_param:
 531              	.LFB254:
 532              		.loc 1 79 0
 533              		.cfi_startproc
 534              		@ args = 0, pretend = 0, frame = 0
 535              		@ frame_needed = 0, uses_anonymous_args = 0
 536              		@ link register save eliminated.
 537              	.LVL46:
 538              		.loc 1 83 0
 539 01aa 0628     		cmp	r0, #6
 540              		.loc 1 79 0
 541 01ac 07EE901A 		vmov	s15, r1	@ int
 542              		.loc 1 83 0
 543 01b0 08D1     		bne	.L35
 544              		.loc 1 98 0
 545 01b2 F8EEE77A 		vcvt.f32.s32	s15, s15
 546 01b6 9FED047A 		vldr.32	s14, .L38
 547 01ba 044B     		ldr	r3, .L38+4
 548 01bc 67EE877A 		vmul.f32	s15, s15, s14
 549 01c0 C3ED037A 		vstr.32	s15, [r3, #12]
 550              	.L35:
 551 01c4 7047     		bx	lr
 552              	.L39:
 553 01c6 00BF     		.align	2
 554              	.L38:
 555 01c8 0820803A 		.word	981475336
 556 01cc 00000000 		.word	.LANCHOR0
 557              		.cfi_endproc
 558              	.LFE254:
 559              		.size	_hook_param, .-_hook_param
 560              		.section	.text.startup,"ax",%progbits
 561              		.align	1
 562              		.thumb
 563              		.thumb_func
 564              		.type	_GLOBAL__sub_I__hook_init, %function
 565              	_GLOBAL__sub_I__hook_init:
 566              	.LFB256:
 567              		.loc 1 105 0
 568              		.cfi_startproc
 569              		@ args = 0, pretend = 0, frame = 0
 570              		@ frame_needed = 0, uses_anonymous_args = 0
ARM GAS  C:\msys64\tmp\ccHb7GrS.s 			page 11


 571              		@ link register save eliminated.
 572              	.LVL47:
 573              	.LBB298:
 574              	.LBB299:
 575              	.LBB300:
 576              	.LBB301:
 577              	.LBB302:
 578              		.loc 4 37 0
 579 0000 044B     		ldr	r3, .L41
 580 0002 197A     		ldrb	r1, [r3, #8]	@ zero_extendqisi2
 581 0004 0022     		movs	r2, #0
 582 0006 6FF30001 		bfc	r1, #0, #1
 583 000a 1A60     		str	r2, [r3]	@ float
 584 000c 5A60     		str	r2, [r3, #4]	@ float
 585 000e 1972     		strb	r1, [r3, #8]
 586              	.LVL48:
 587              	.LBE302:
 588              	.LBE301:
 589              	.LBB303:
 590              	.LBB304:
 591              		.loc 4 26 0
 592 0010 DA60     		str	r2, [r3, #12]	@ float
 593              	.LVL49:
 594 0012 7047     		bx	lr
 595              	.L42:
 596              		.align	2
 597              	.L41:
 598 0014 00000000 		.word	.LANCHOR0
 599              	.LBE304:
 600              	.LBE303:
 601              	.LBE300:
 602              	.LBE299:
 603              	.LBE298:
 604              		.cfi_endproc
 605              	.LFE256:
 606              		.size	_GLOBAL__sub_I__hook_init, .-_GLOBAL__sub_I__hook_init
 607              		.section	.init_array,"aw",%init_array
 608              		.align	2
 609 0000 00000000 		.word	_GLOBAL__sub_I__hook_init(target1)
 610              		.bss
 611              		.align	2
 612              		.set	.LANCHOR0,. + 0
 613              		.type	_ZL2pd, %object
 614              		.size	_ZL2pd, 16
 615              	_ZL2pd:
 616 0000 00000000 		.space	16
 616      00000000 
 616      00000000 
 616      00000000 
 617              		.text
 618              	.Letext0:
 619              		.file 5 "c:\\msys64\\home\\logue-sdk\\tools\\gcc\\gcc-arm-none-eabi-5_4-2016q3\\arm-none-eabi\\inc
 620              		.file 6 "c:\\msys64\\home\\logue-sdk\\tools\\gcc\\gcc-arm-none-eabi-5_4-2016q3\\arm-none-eabi\\inc
 621              		.file 7 "c:\\msys64\\home\\logue-sdk\\platform\\ext\\cmsis\\cmsis\\include\\arm_math.h"
 622              		.file 8 "C:/msys64/home/logue-sdk/platform/nutekt-digital/inc/userosc.h"
 623              		.file 9 "C:/msys64/home/logue-sdk/platform/nutekt-digital/inc/userprg.h"
 624              		.file 10 "C:/msys64/home/logue-sdk/platform/nutekt-digital/inc/utils/int_math.h"
ARM GAS  C:\msys64\tmp\ccHb7GrS.s 			page 12

