ARM GAS  C:\msys64\tmp\cc8rWMSQ.s 			page 1


   1              		.syntax unified
   2              		.cpu cortex-m4
   3              		.eabi_attribute 27, 1
   4              		.eabi_attribute 28, 1
   5              		.fpu fpv4-sp-d16
   6              		.eabi_attribute 20, 1
   7              		.eabi_attribute 21, 1
   8              		.eabi_attribute 23, 3
   9              		.eabi_attribute 24, 1
  10              		.eabi_attribute 25, 1
  11              		.eabi_attribute 26, 1
  12              		.eabi_attribute 30, 4
  13              		.eabi_attribute 34, 1
  14              		.eabi_attribute 18, 4
  15              		.thumb
  16              		.syntax unified
  17              		.file	"mvps1D.cpp"
  18              		.text
  19              	.Ltext0:
  20              		.cfi_sections	.debug_frame
  21              		.section	.text._ZN6MVPS1D16MultiPhaseShaperEff,"axG",%progbits,_ZN6MVPS1D16MultiPhaseShaperEff,com
  22              		.align	1
  23              		.weak	_ZN6MVPS1D16MultiPhaseShaperEff
  24              		.thumb
  25              		.thumb_func
  26              		.type	_ZN6MVPS1D16MultiPhaseShaperEff, %function
  27              	_ZN6MVPS1D16MultiPhaseShaperEff:
  28              	.LFB248:
  29              		.file 1 "mvps1D.hpp"
  30              		.loc 1 56 0
  31              		.cfi_startproc
  32              		@ args = 0, pretend = 0, frame = 0
  33              		@ frame_needed = 0, uses_anonymous_args = 0
  34              		@ link register save eliminated.
  35              	.LVL0:
  36              		.loc 1 57 0
  37 0000 D0ED057A 		vldr.32	s15, [r0, #20]
  38 0004 90ED035A 		vldr.32	s10, [r0, #12]
  39              		.loc 1 58 0
  40 0008 90ED087A 		vldr.32	s14, [r0, #32]
  41              		.loc 1 59 0
  42 000c 90ED066A 		vldr.32	s12, [r0, #24]
  43              		.loc 1 60 0
  44 0010 D0ED096A 		vldr.32	s13, [r0, #36]
  45              		.loc 1 61 0
  46 0014 90ED074A 		vldr.32	s8, [r0, #28]
  47              		.loc 1 62 0
  48 0018 D0ED0A4A 		vldr.32	s9, [r0, #40]
  49              		.loc 1 57 0
  50 001c F0EE605A 		vmov.f32	s11, s1
  51 0020 E7EE855A 		vfma.f32	s11, s15, s10
  52              	.LVL1:
  53              		.loc 1 58 0
  54 0024 D0ED047A 		vldr.32	s15, [r0, #16]
  55              	.LBB98:
  56              		.loc 1 65 0
  57 0028 F4EEC05A 		vcmpe.f32	s11, s0
ARM GAS  C:\msys64\tmp\cc8rWMSQ.s 			page 2


  58 002c F1EE10FA 		vmrs	APSR_nzcv, FPSCR
  59              	.LBE98:
  60              		.loc 1 58 0
  61 0030 27EE877A 		vmul.f32	s14, s15, s14
  62              	.LVL2:
  63              	.LBB106:
  64              		.loc 1 65 0
  65 0034 04DD     		ble	.L13
  66              	.LVL3:
  67              	.LBB99:
  68              		.loc 1 67 0
  69 0036 C0EE257A 		vdiv.f32	s15, s0, s11
  70              	.LVL4:
  71 003a 67EE877A 		vmul.f32	s15, s15, s14
  72              	.LVL5:
  73              	.LBE99:
  74 003e 39E0     		b	.L4
  75              	.LVL6:
  76              	.L13:
  77              	.LBE106:
  78              		.loc 1 59 0
  79 0040 F0EE603A 		vmov.f32	s7, s1
  80 0044 E5EE063A 		vfma.f32	s7, s10, s12
  81              		.loc 1 60 0
  82 0048 67EEA66A 		vmul.f32	s13, s15, s13
  83              	.LVL7:
  84              	.LBB107:
  85              	.LBB100:
  86              		.loc 1 68 0
  87 004c F4EEC03A 		vcmpe.f32	s7, s0
  88 0050 F1EE10FA 		vmrs	APSR_nzcv, FPSCR
  89 0054 0CDD     		ble	.L14
  90              	.LVL8:
  91              	.LBB101:
  92              		.loc 1 73 0
  93 0056 30EE650A 		vsub.f32	s0, s0, s11
  94              	.LVL9:
  95 005a 73EEE50A 		vsub.f32	s1, s7, s11
  96              	.LVL10:
  97 005e 76EEC77A 		vsub.f32	s15, s13, s14
  98              	.LVL11:
  99 0062 C0EE206A 		vdiv.f32	s13, s0, s1
 100              	.LVL12:
 101 0066 A7EEA67A 		vfma.f32	s14, s15, s13
 102              	.LVL13:
 103 006a F0EE477A 		vmov.f32	s15, s14
 104              	.LVL14:
 105              	.LBE101:
 106 006e 21E0     		b	.L4
 107              	.LVL15:
 108              	.L14:
 109              	.LBE100:
 110              	.LBE107:
 111              		.loc 1 61 0
 112 0070 E5EE040A 		vfma.f32	s1, s10, s8
 113              	.LVL16:
 114              		.loc 1 62 0
ARM GAS  C:\msys64\tmp\cc8rWMSQ.s 			page 3


 115 0074 67EEA47A 		vmul.f32	s15, s15, s9
 116              	.LVL17:
 117              	.LBB108:
 118              	.LBB105:
 119              	.LBB102:
 120              		.loc 1 74 0
 121 0078 F4EEC00A 		vcmpe.f32	s1, s0
 122 007c F1EE10FA 		vmrs	APSR_nzcv, FPSCR
 123 0080 0CDD     		ble	.L15
 124              	.LVL18:
 125              	.LBB103:
 126              		.loc 1 79 0
 127 0082 30EE630A 		vsub.f32	s0, s0, s7
 128              	.LVL19:
 129 0086 70EEE30A 		vsub.f32	s1, s1, s7
 130              	.LVL20:
 131 008a 37EEE67A 		vsub.f32	s14, s15, s13
 132              	.LVL21:
 133 008e C0EE207A 		vdiv.f32	s15, s0, s1
 134              	.LVL22:
 135 0092 E7EE276A 		vfma.f32	s13, s14, s15
 136 0096 F0EE667A 		vmov.f32	s15, s13
 137              	.LVL23:
 138              	.LBE103:
 139 009a 0BE0     		b	.L4
 140              	.LVL24:
 141              	.L15:
 142              	.LBB104:
 143              		.loc 1 85 0
 144 009c B7EE007A 		vmov.f32	s14, #1.0e+0
 145              	.LVL25:
 146 00a0 30EE600A 		vsub.f32	s0, s0, s1
 147              	.LVL26:
 148 00a4 77EE600A 		vsub.f32	s1, s14, s1
 149              	.LVL27:
 150 00a8 77EE676A 		vsub.f32	s13, s14, s15
 151              	.LVL28:
 152 00ac 80EE207A 		vdiv.f32	s14, s0, s1
 153              	.LVL29:
 154 00b0 E6EE877A 		vfma.f32	s15, s13, s14
 155              	.LVL30:
 156              	.L4:
 157              	.LBE104:
 158              	.LBE102:
 159              	.LBE105:
 160              	.LBE108:
 161              	.LBB109:
 162              	.LBB110:
 163              	.LBB111:
 164              	.LBB112:
 165              		.file 2 "C:/msys64/home/logue-sdk/platform/nutekt-digital/inc/osc_api.h"
 166              		.loc 2 160 0
 167 00b4 174A     		ldr	r2, .L17
 168              	.LBE112:
 169              	.LBE111:
 170              		.loc 2 171 0
 171 00b6 B5EE007A 		vmov.f32	s14, #2.5e-1
ARM GAS  C:\msys64\tmp\cc8rWMSQ.s 			page 4


 172 00ba 77EE877A 		vadd.f32	s15, s15, s14
 173              	.LVL31:
 174              	.LBB120:
 175              	.LBB119:
 176              		.loc 2 154 0
 177 00be BCEEE77A 		vcvt.u32.f32	s14, s15
 178 00c2 B8EE477A 		vcvt.f32.u32	s14, s14
 179 00c6 77EEC77A 		vsub.f32	s15, s15, s14
 180              	.LVL32:
 181 00ca 9FED137A 		vldr.32	s14, .L17+4
 182 00ce 67EE877A 		vmul.f32	s15, s15, s14
 183              	.LVL33:
 184              		.loc 2 155 0
 185 00d2 BCEEE77A 		vcvt.u32.f32	s14, s15
 186 00d6 17EE101A 		vmov	r1, s14	@ int
 187              	.LVL34:
 188              		.loc 2 157 0
 189 00da 01F07F03 		and	r3, r1, #127
 190              	.LVL35:
 191              		.loc 2 160 0
 192 00de 02EB8300 		add	r0, r2, r3, lsl #2
 193              	.LVL36:
 194 00e2 0133     		adds	r3, r3, #1
 195              	.LVL37:
 196              	.LBB113:
 197              	.LBB114:
 198              		.file 3 "C:/msys64/home/logue-sdk/platform/nutekt-digital/inc/utils/float_math.h"
 199              		.loc 3 826 0
 200 00e4 B8EE477A 		vcvt.f32.u32	s14, s14
 201              	.LBE114:
 202              	.LBE113:
 203              		.loc 2 160 0
 204 00e8 03F07F03 		and	r3, r3, #127
 205              	.LVL38:
 206 00ec 02EB8303 		add	r3, r2, r3, lsl #2
 207              	.LVL39:
 208 00f0 90ED000A 		vldr.32	s0, [r0]
 209              	.LVL40:
 210              	.LBB117:
 211              	.LBB115:
 212              		.loc 3 826 0
 213 00f4 77EEC77A 		vsub.f32	s15, s15, s14
 214              	.LVL41:
 215 00f8 93ED007A 		vldr.32	s14, [r3]
 216 00fc 37EE407A 		vsub.f32	s14, s14, s0
 217              	.LBE115:
 218              	.LBE117:
 219              		.loc 2 161 0
 220 0100 7F29     		cmp	r1, #127
 221              	.LBB118:
 222              	.LBB116:
 223              		.loc 3 826 0
 224 0102 A7EE870A 		vfma.f32	s0, s15, s14
 225              	.LVL42:
 226              	.LBE116:
 227              	.LBE118:
 228              		.loc 2 161 0
ARM GAS  C:\msys64\tmp\cc8rWMSQ.s 			page 5


 229 0106 88BF     		it	hi
 230 0108 B1EE400A 		vneghi.f32	s0, s0
 231              	.LVL43:
 232              	.LBE119:
 233              	.LBE120:
 234              	.LBE110:
 235              	.LBE109:
 236              		.loc 1 89 0
 237 010c B1EE400A 		vneg.f32	s0, s0
 238 0110 7047     		bx	lr
 239              	.L18:
 240 0112 00BF     		.align	2
 241              	.L17:
 242 0114 00000000 		.word	wt_sine_lut_f
 243 0118 00008043 		.word	1132462080
 244              		.cfi_endproc
 245              	.LFE248:
 246              		.size	_ZN6MVPS1D16MultiPhaseShaperEff, .-_ZN6MVPS1D16MultiPhaseShaperEff
 247              		.text
 248              		.align	1
 249              		.global	_hook_init
 250              		.thumb
 251              		.thumb_func
 252              		.type	_hook_init, %function
 253              	_hook_init:
 254              	.LFB250:
 255              		.file 4 "mvps1D.cpp"
 256              		.loc 4 14 0
 257              		.cfi_startproc
 258              		@ args = 0, pretend = 0, frame = 0
 259              		@ frame_needed = 0, uses_anonymous_args = 0
 260              		@ link register save eliminated.
 261              	.LVL44:
 262 0000 7047     		bx	lr
 263              		.cfi_endproc
 264              	.LFE250:
 265              		.size	_hook_init, .-_hook_init
 266              		.align	1
 267              		.global	_hook_cycle
 268              		.thumb
 269              		.thumb_func
 270              		.type	_hook_cycle, %function
 271              	_hook_cycle:
 272              	.LFB251:
 273              		.loc 4 19 0
 274              		.cfi_startproc
 275              		@ args = 0, pretend = 0, frame = 0
 276              		@ frame_needed = 0, uses_anonymous_args = 0
 277              	.LVL45:
 278              		.loc 4 19 0
 279 0002 70B5     		push	{r4, r5, r6, lr}
 280              		.cfi_def_cfa_offset 16
 281              		.cfi_offset 4, -16
 282              		.cfi_offset 5, -12
 283              		.cfi_offset 6, -8
 284              		.cfi_offset 14, -4
 285              		.loc 4 24 0
ARM GAS  C:\msys64\tmp\cc8rWMSQ.s 			page 6


 286 0004 8488     		ldrh	r4, [r0, #4]
 287              	.LBB149:
 288              	.LBB150:
 289              	.LBB151:
 290              	.LBB152:
 291              		.loc 3 826 0
 292 0006 9FED3D7A 		vldr.32	s14, .L35
 293              	.LBE152:
 294              	.LBE151:
 295              	.LBE150:
 296              	.LBE149:
 297              		.loc 4 24 0
 298 000a 2312     		asrs	r3, r4, #8
 299              	.LVL46:
 300              	.LBB193:
 301              	.LBB185:
 302              	.LBB158:
 303              	.LBB159:
 304              		.loc 2 109 0
 305 000c 962B     		cmp	r3, #150
 306              	.LBE159:
 307              	.LBE158:
 308              	.LBE185:
 309              	.LBE193:
 310              		.loc 4 19 0
 311 000e 0D46     		mov	r5, r1
 312              		.loc 4 27 0
 313 0010 E1B2     		uxtb	r1, r4
 314              	.LVL47:
 315              	.LBB194:
 316              	.LBB186:
 317              	.LBB164:
 318              	.LBB160:
 319              		.loc 2 109 0
 320 0012 D8BF     		it	le
 321 0014 1C46     		movle	r4, r3
 322              	.LBE160:
 323              	.LBE164:
 324              		.loc 2 120 0
 325 0016 03F10103 		add	r3, r3, #1
 326              	.LVL48:
 327 001a DBB2     		uxtb	r3, r3
 328              	.LVL49:
 329              	.LBE186:
 330              	.LBE194:
 331              		.loc 4 27 0
 332 001c 07EE901A 		vmov	s15, r1	@ int
 333              	.LVL50:
 334              	.LBB195:
 335              	.LBB187:
 336              	.LBB165:
 337              	.LBB161:
 338              		.loc 2 109 0
 339 0020 C8BF     		it	gt
 340 0022 9724     		movgt	r4, #151
 341              	.LVL51:
 342 0024 3649     		ldr	r1, .L35+4
ARM GAS  C:\msys64\tmp\cc8rWMSQ.s 			page 7


 343              	.LVL52:
 344              	.LBE161:
 345              	.LBE165:
 346              	.LBB166:
 347              	.LBB167:
 348 0026 962B     		cmp	r3, #150
 349 0028 88BF     		it	hi
 350 002a 9723     		movhi	r3, #151
 351              	.LBE167:
 352              	.LBE166:
 353              	.LBB169:
 354              	.LBB153:
 355              		.loc 3 826 0
 356 002c F8EEE77A 		vcvt.f32.s32	s15, s15
 357              	.LVL53:
 358              	.LBE153:
 359              	.LBE169:
 360              	.LBB170:
 361              	.LBB162:
 362              		.loc 2 109 0
 363 0030 01EB8404 		add	r4, r1, r4, lsl #2
 364              	.LBE162:
 365              	.LBE170:
 366              	.LBB171:
 367              	.LBB168:
 368 0034 01EB8303 		add	r3, r1, r3, lsl #2
 369              	.LBE168:
 370              	.LBE171:
 371              	.LBE187:
 372              	.LBE195:
 373              		.loc 4 19 0
 374 0038 2DED088B 		vpush.64	{d8, d9, d10, d11}
 375              		.cfi_def_cfa_offset 48
 376              		.cfi_offset 80, -48
 377              		.cfi_offset 81, -44
 378              		.cfi_offset 82, -40
 379              		.cfi_offset 83, -36
 380              		.cfi_offset 84, -32
 381              		.cfi_offset 85, -28
 382              		.cfi_offset 86, -24
 383              		.cfi_offset 87, -20
 384              	.LBB196:
 385              	.LBB188:
 386              	.LBB172:
 387              	.LBB154:
 388              		.loc 3 826 0
 389 003c 67EE877A 		vmul.f32	s15, s15, s14
 390              	.LBE154:
 391              	.LBE172:
 392              	.LBB173:
 393              	.LBB163:
 394              		.loc 2 109 0
 395 0040 D4ED008A 		vldr.32	s17, [r4]
 396              	.LVL54:
 397              	.LBE163:
 398              	.LBE173:
 399              	.LBB174:
ARM GAS  C:\msys64\tmp\cc8rWMSQ.s 			page 8


 400              	.LBB155:
 401              		.loc 3 826 0
 402 0044 93ED007A 		vldr.32	s14, [r3]
 403              	.LBE155:
 404              	.LBE174:
 405              	.LBE188:
 406              	.LBE196:
 407              		.loc 4 34 0
 408 0048 90ED009A 		vldr.32	s18, [r0]	@ int
 409              		.loc 4 27 0
 410 004c 2D4B     		ldr	r3, .L35+8
 411              	.LBB197:
 412              	.LBB198:
 413              		.loc 4 53 0
 414 004e DFED2EAA 		vldr.32	s21, .L35+12
 415              	.LBE198:
 416              	.LBE197:
 417              		.loc 4 30 0
 418 0052 93ED008A 		vldr.32	s16, [r3]
 419              	.LBB241:
 420              	.LBB237:
 421              		.loc 4 53 0
 422 0056 9FED2DAA 		vldr.32	s20, .L35+16
 423              	.LBE237:
 424              	.LBE241:
 425              	.LBB242:
 426              	.LBB189:
 427              	.LBB175:
 428              	.LBB156:
 429              		.loc 3 826 0
 430 005a 37EE687A 		vsub.f32	s14, s14, s17
 431              	.LBE156:
 432              	.LBE175:
 433              	.LBE189:
 434              	.LBE242:
 435              		.loc 4 34 0
 436 005e BAEEE09A 		vcvt.f32.s32	s18, s18, #31
 437              	.LBB243:
 438              	.LBB190:
 439              	.LBB176:
 440              	.LBB157:
 441              		.loc 3 826 0
 442 0062 E7EE878A 		vfma.f32	s17, s15, s14
 443              	.LVL55:
 444              	.LBE157:
 445              	.LBE176:
 446              	.LBE190:
 447              	.LBE243:
 448              		.loc 4 38 0
 449 0066 05EB8206 		add	r6, r5, r2, lsl #2
 450 006a 1C46     		mov	r4, r3
 451              	.LBB244:
 452              	.LBB191:
 453              	.LBB177:
 454              	.LBB178:
 455              	.LBB179:
 456              	.LBB180:
ARM GAS  C:\msys64\tmp\cc8rWMSQ.s 			page 9


 457              		.loc 3 193 0
 458 006c DFED287A 		vldr.32	s15, .L35+20
 459              	.LBE180:
 460              	.LBE179:
 461              	.LBE178:
 462              	.LBE177:
 463              	.LBE191:
 464              	.LBE244:
 465              		.loc 4 34 0
 466 0070 83ED029A 		vstr.32	s18, [r3, #8]
 467              	.LBB245:
 468              	.LBB192:
 469              	.LBB184:
 470              	.LBB183:
 471              	.LBB182:
 472              	.LBB181:
 473              		.loc 3 193 0
 474 0074 F4EEE78A 		vcmpe.f32	s17, s15
 475 0078 F1EE10FA 		vmrs	APSR_nzcv, FPSCR
 476 007c B8BF     		it	lt
 477 007e F0EE687A 		vmovlt.f32	s15, s17
 478              	.LVL56:
 479              	.LBE181:
 480              	.LBE182:
 481              	.LBE183:
 482              	.LBE184:
 483              		.loc 2 124 0
 484 0082 DFED248A 		vldr.32	s17, .L35+24
 485 0086 67EEA88A 		vmul.f32	s17, s15, s17
 486              	.LVL57:
 487              	.LBE192:
 488              	.LBE245:
 489              	.LBB246:
 490              	.LBB238:
 491              	.LBB199:
 492              	.LBB200:
 493              	.LBB201:
 494              	.LBB202:
 495              	.LBB203:
 496              	.LBB204:
 497              		.loc 3 193 0
 498 008a BFEE00BA 		vmov.f32	s22, #-1.0e+0
 499              	.LBE204:
 500              	.LBE203:
 501              	.LBE202:
 502              	.LBE201:
 503              	.LBE200:
 504              	.LBE199:
 505              	.LBE238:
 506              	.LBE246:
 507              		.loc 4 27 0
 508 008e C3ED018A 		vstr.32	s17, [r3, #4]
 509              	.LVL58:
 510              	.LBB247:
 511              	.LBB239:
 512              	.LBB225:
 513              	.LBB221:
ARM GAS  C:\msys64\tmp\cc8rWMSQ.s 			page 10


 514              	.LBB217:
 515              	.LBB213:
 516              	.LBB208:
 517              	.LBB209:
 518              		.loc 3 193 0
 519 0092 F7EE009A 		vmov.f32	s19, #1.0e+0
 520              	.LVL59:
 521              	.L27:
 522              	.LBE209:
 523              	.LBE208:
 524              	.LBE213:
 525              	.LBE217:
 526              	.LBE221:
 527              	.LBE225:
 528              	.LBE239:
 529              		.loc 4 41 0
 530 0096 B542     		cmp	r5, r6
 531 0098 2AD0     		beq	.L24
 532              	.LVL60:
 533              	.LBB240:
 534              		.loc 4 44 0
 535 009a B0EE480A 		vmov.f32	s0, s16
 536 009e F0EE490A 		vmov.f32	s1, s18
 537              	.LBB226:
 538              	.LBB227:
 539              		.loc 1 92 0
 540 00a2 38EE288A 		vadd.f32	s16, s16, s17
 541              	.LVL61:
 542              	.LBE227:
 543              	.LBE226:
 544              		.loc 4 44 0
 545 00a6 1748     		ldr	r0, .L35+8
 546 00a8 FFF7FEFF 		bl	_ZN6MVPS1D16MultiPhaseShaperEff
 547              	.LVL62:
 548              	.LBB231:
 549              	.LBB228:
 550              		.loc 1 93 0
 551 00ac FCEEC87A 		vcvt.u32.f32	s15, s16
 552              	.LBE228:
 553              	.LBE231:
 554              	.LBB232:
 555              	.LBB222:
 556              	.LBB218:
 557              	.LBB214:
 558              	.LBB210:
 559              	.LBB205:
 560              		.loc 3 193 0
 561 00b0 B4EECB0A 		vcmpe.f32	s0, s22
 562              	.LBE205:
 563              	.LBE210:
 564              	.LBE214:
 565              	.LBE218:
 566              	.LBE222:
 567              	.LBE232:
 568              	.LBB233:
 569              	.LBB229:
 570              		.loc 1 93 0
ARM GAS  C:\msys64\tmp\cc8rWMSQ.s 			page 11


 571 00b4 F8EE677A 		vcvt.f32.u32	s15, s15
 572              	.LBE229:
 573              	.LBE233:
 574              	.LBB234:
 575              	.LBB223:
 576              	.LBB219:
 577              	.LBB215:
 578              	.LBB211:
 579              	.LBB206:
 580              		.loc 3 193 0
 581 00b8 F1EE10FA 		vmrs	APSR_nzcv, FPSCR
 582              	.LBE206:
 583              	.LBE211:
 584              	.LBE215:
 585              	.LBE219:
 586              	.LBE223:
 587              	.LBE234:
 588              	.LBB235:
 589              	.LBB230:
 590              		.loc 1 93 0
 591 00bc 38EE678A 		vsub.f32	s16, s16, s15
 592              	.LVL63:
 593              	.LBE230:
 594              	.LBE235:
 595              	.LBB236:
 596              	.LBB224:
 597              	.LBB220:
 598              	.LBB216:
 599              	.LBB212:
 600              	.LBB207:
 601              		.loc 3 193 0
 602 00c0 07DB     		blt	.L34
 603              	.LVL64:
 604 00c2 B4EEE90A 		vcmpe.f32	s0, s19
 605 00c6 F1EE10FA 		vmrs	APSR_nzcv, FPSCR
 606 00ca A8BF     		it	ge
 607 00cc B0EE690A 		vmovge.f32	s0, s19
 608              	.LVL65:
 609 00d0 01E0     		b	.L25
 610              	.LVL66:
 611              	.L34:
 612 00d2 BFEE000A 		vmov.f32	s0, #-1.0e+0
 613              	.LVL67:
 614              	.L25:
 615              	.LBE207:
 616              	.LBE212:
 617              	.LBE216:
 618              	.LBE220:
 619              	.LBE224:
 620              	.LBE236:
 621              		.loc 4 53 0
 622 00d6 60EE007A 		vmul.f32	s15, s0, s0
 623 00da 60EE677A 		vnmul.f32	s15, s0, s15
 624 00de A7EEAA0A 		vfma.f32	s0, s15, s21
 625 00e2 20EE0A0A 		vmul.f32	s0, s0, s20
 626 00e6 BDEEC00A 		vcvt.s32.f32	s0, s0
 627 00ea A5EC010A 		vstmia.32	r5!, {s0}	@ int
ARM GAS  C:\msys64\tmp\cc8rWMSQ.s 			page 12


 628              	.LVL68:
 629              	.LBE240:
 630              		.loc 4 41 0
 631 00ee D2E7     		b	.L27
 632              	.LVL69:
 633              	.L24:
 634              	.LBE247:
 635              		.loc 4 58 0
 636 00f0 84ED008A 		vstr.32	s16, [r4]
 637              	.LVL70:
 638              		.loc 4 60 0
 639 00f4 BDEC088B 		vldm	sp!, {d8-d11}
 640              		.cfi_restore 86
 641              		.cfi_restore 87
 642              		.cfi_restore 84
 643              		.cfi_restore 85
 644              		.cfi_restore 82
 645              		.cfi_restore 83
 646              		.cfi_restore 80
 647              		.cfi_restore 81
 648              		.cfi_def_cfa_offset 16
 649              	.LVL71:
 650 00f8 70BD     		pop	{r4, r5, r6, pc}
 651              	.LVL72:
 652              	.L36:
 653 00fa 00BF     		.align	2
 654              	.L35:
 655 00fc 8180803B 		.word	998277249
 656 0100 00000000 		.word	midi_to_hz_lut_f
 657 0104 00000000 		.word	.LANCHOR0
 658 0108 CDCC4C3D 		.word	1028443341
 659 010c 0000004F 		.word	1325400064
 660 0110 49FFB846 		.word	1186529097
 661 0114 3EC3AE37 		.word	934200126
 662              		.cfi_endproc
 663              	.LFE251:
 664              		.size	_hook_cycle, .-_hook_cycle
 665              		.align	1
 666              		.global	_hook_on
 667              		.thumb
 668              		.thumb_func
 669              		.type	_hook_on, %function
 670              	_hook_on:
 671              	.LFB259:
 672              		.cfi_startproc
 673              		@ args = 0, pretend = 0, frame = 0
 674              		@ frame_needed = 0, uses_anonymous_args = 0
 675              		@ link register save eliminated.
 676 0118 7047     		bx	lr
 677              		.cfi_endproc
 678              	.LFE259:
 679              		.size	_hook_on, .-_hook_on
 680              		.align	1
 681              		.global	_hook_off
 682              		.thumb
 683              		.thumb_func
 684              		.type	_hook_off, %function
ARM GAS  C:\msys64\tmp\cc8rWMSQ.s 			page 13


 685              	_hook_off:
 686              	.LFB253:
 687              		.loc 4 67 0
 688              		.cfi_startproc
 689              		@ args = 0, pretend = 0, frame = 0
 690              		@ frame_needed = 0, uses_anonymous_args = 0
 691              		@ link register save eliminated.
 692              	.LVL73:
 693 011a 7047     		bx	lr
 694              		.cfi_endproc
 695              	.LFE253:
 696              		.size	_hook_off, .-_hook_off
 697              		.align	1
 698              		.global	_hook_param
 699              		.thumb
 700              		.thumb_func
 701              		.type	_hook_param, %function
 702              	_hook_param:
 703              	.LFB254:
 704              		.loc 4 72 0
 705              		.cfi_startproc
 706              		@ args = 0, pretend = 0, frame = 0
 707              		@ frame_needed = 0, uses_anonymous_args = 0
 708              		@ link register save eliminated.
 709              	.LVL74:
 710              		.loc 4 76 0
 711 011c 07EE901A 		vmov	s15, r1	@ int
 712 0120 9FED247A 		vldr.32	s14, .L50
 713 0124 F8EEE77A 		vcvt.f32.s32	s15, s15
 714 0128 27EE877A 		vmul.f32	s14, s15, s14
 715              	.LVL75:
 716              		.loc 4 77 0
 717 012c 0728     		cmp	r0, #7
 718 012e 40D8     		bhi	.L39
 719 0130 DFE800F0 		tbb	[pc, r0]
 720              	.L42:
 721 0134 04       		.byte	(.L41-.L42)/2
 722 0135 0C       		.byte	(.L43-.L42)/2
 723 0136 14       		.byte	(.L44-.L42)/2
 724 0137 1E       		.byte	(.L45-.L42)/2
 725 0138 26       		.byte	(.L46-.L42)/2
 726 0139 30       		.byte	(.L47-.L42)/2
 727 013a 38       		.byte	(.L48-.L42)/2
 728 013b 3C       		.byte	(.L49-.L42)/2
 729              		.p2align 1
 730              	.L41:
 731              		.loc 4 80 0
 732 013c 9FED1E7A 		vldr.32	s14, .L50+4
 733              	.LVL76:
 734 0140 1E4B     		ldr	r3, .L50+8
 735 0142 67EE877A 		vmul.f32	s15, s15, s14
 736              	.LVL77:
 737 0146 C3ED057A 		vstr.32	s15, [r3, #20]
 738              		.loc 4 81 0
 739 014a 7047     		bx	lr
 740              	.LVL78:
 741              	.L43:
ARM GAS  C:\msys64\tmp\cc8rWMSQ.s 			page 14


 742              		.loc 4 85 0
 743 014c 9FED1C7A 		vldr.32	s14, .L50+12
 744              	.LVL79:
 745 0150 1A4B     		ldr	r3, .L50+8
 746 0152 67EE877A 		vmul.f32	s15, s15, s14
 747              	.LVL80:
 748 0156 C3ED087A 		vstr.32	s15, [r3, #32]
 749              		.loc 4 86 0
 750 015a 7047     		bx	lr
 751              	.LVL81:
 752              	.L44:
 753              		.loc 4 90 0
 754 015c 9FED197A 		vldr.32	s14, .L50+16
 755              	.LVL82:
 756 0160 DFED156A 		vldr.32	s13, .L50+4
 757 0164 154B     		ldr	r3, .L50+8
 758 0166 A7EEA67A 		vfma.f32	s14, s15, s13
 759 016a 83ED067A 		vstr.32	s14, [r3, #24]
 760              		.loc 4 91 0
 761 016e 7047     		bx	lr
 762              	.LVL83:
 763              	.L45:
 764              		.loc 4 95 0
 765 0170 9FED137A 		vldr.32	s14, .L50+12
 766              	.LVL84:
 767 0174 114B     		ldr	r3, .L50+8
 768 0176 67EE877A 		vmul.f32	s15, s15, s14
 769              	.LVL85:
 770 017a C3ED097A 		vstr.32	s15, [r3, #36]
 771              		.loc 4 96 0
 772 017e 7047     		bx	lr
 773              	.LVL86:
 774              	.L46:
 775              		.loc 4 100 0
 776 0180 9FED117A 		vldr.32	s14, .L50+20
 777              	.LVL87:
 778 0184 DFED116A 		vldr.32	s13, .L50+24
 779 0188 0C4B     		ldr	r3, .L50+8
 780 018a A7EEA67A 		vfma.f32	s14, s15, s13
 781 018e 83ED077A 		vstr.32	s14, [r3, #28]
 782              		.loc 4 101 0
 783 0192 7047     		bx	lr
 784              	.LVL88:
 785              	.L47:
 786              		.loc 4 105 0
 787 0194 9FED0A7A 		vldr.32	s14, .L50+12
 788              	.LVL89:
 789 0198 084B     		ldr	r3, .L50+8
 790 019a 67EE877A 		vmul.f32	s15, s15, s14
 791              	.LVL90:
 792 019e C3ED0A7A 		vstr.32	s15, [r3, #40]
 793              		.loc 4 106 0
 794 01a2 7047     		bx	lr
 795              	.LVL91:
 796              	.L48:
 797              		.loc 4 110 0
 798 01a4 054B     		ldr	r3, .L50+8
ARM GAS  C:\msys64\tmp\cc8rWMSQ.s 			page 15


 799 01a6 83ED037A 		vstr.32	s14, [r3, #12]
 800              		.loc 4 111 0
 801 01aa 7047     		bx	lr
 802              	.L49:
 803              		.loc 4 115 0
 804 01ac 034B     		ldr	r3, .L50+8
 805 01ae 83ED047A 		vstr.32	s14, [r3, #16]
 806              	.L39:
 807 01b2 7047     		bx	lr
 808              	.L51:
 809              		.align	2
 810              	.L50:
 811 01b4 0820803A 		.word	981475336
 812 01b8 A69B443B 		.word	994352038
 813 01bc 00000000 		.word	.LANCHOR0
 814 01c0 0AD7233C 		.word	1008981770
 815 01c4 9A99993E 		.word	1050253722
 816 01c8 9A99193F 		.word	1058642330
 817 01cc 6F12833B 		.word	998445679
 818              		.cfi_endproc
 819              	.LFE254:
 820              		.size	_hook_param, .-_hook_param
 821              		.section	.text.startup,"ax",%progbits
 822              		.align	1
 823              		.thumb
 824              		.thumb_func
 825              		.type	_GLOBAL__sub_I__hook_init, %function
 826              	_GLOBAL__sub_I__hook_init:
 827              	.LFB256:
 828              		.loc 4 120 0
 829              		.cfi_startproc
 830              		@ args = 0, pretend = 0, frame = 0
 831              		@ frame_needed = 0, uses_anonymous_args = 0
 832              		@ link register save eliminated.
 833              	.LVL92:
 834              	.LBB262:
 835              	.LBB263:
 836              	.LBB264:
 837              	.LBB265:
 838              	.LBB266:
 839              	.LBB267:
 840              		.loc 1 47 0
 841 0000 074B     		ldr	r3, .L53
 842 0002 0022     		movs	r2, #0
 843 0004 1A60     		str	r2, [r3]	@ float
 844 0006 5A60     		str	r2, [r3, #4]	@ float
 845 0008 9A60     		str	r2, [r3, #8]	@ float
 846              	.LVL93:
 847              	.LBE267:
 848              	.LBE266:
 849              		.loc 1 53 0
 850 000a 4FF07C52 		mov	r2, #1056964608
 851 000e DA60     		str	r2, [r3, #12]	@ float
 852 0010 1A61     		str	r2, [r3, #16]	@ float
 853 0012 5A61     		str	r2, [r3, #20]	@ float
 854 0014 9A61     		str	r2, [r3, #24]	@ float
 855 0016 DA61     		str	r2, [r3, #28]	@ float
ARM GAS  C:\msys64\tmp\cc8rWMSQ.s 			page 16


 856 0018 1A62     		str	r2, [r3, #32]	@ float
 857 001a 5A62     		str	r2, [r3, #36]	@ float
 858 001c 9A62     		str	r2, [r3, #40]	@ float
 859              	.LVL94:
 860 001e 7047     		bx	lr
 861              	.L54:
 862              		.align	2
 863              	.L53:
 864 0020 00000000 		.word	.LANCHOR0
 865              	.LBE265:
 866              	.LBE264:
 867              	.LBE263:
 868              	.LBE262:
 869              		.cfi_endproc
 870              	.LFE256:
 871              		.size	_GLOBAL__sub_I__hook_init, .-_GLOBAL__sub_I__hook_init
 872              		.section	.init_array,"aw",%init_array
 873              		.align	2
 874 0000 00000000 		.word	_GLOBAL__sub_I__hook_init(target1)
 875              		.bss
 876              		.align	2
 877              		.set	.LANCHOR0,. + 0
 878              		.type	_ZL6mvps1D, %object
 879              		.size	_ZL6mvps1D, 44
 880              	_ZL6mvps1D:
 881 0000 00000000 		.space	44
 881      00000000 
 881      00000000 
 881      00000000 
 881      00000000 
 882              		.text
 883              	.Letext0:
 884              		.file 5 "c:\\msys64\\home\\logue-sdk\\tools\\gcc\\gcc-arm-none-eabi-5_4-2016q3\\arm-none-eabi\\inc
 885              		.file 6 "c:\\msys64\\home\\logue-sdk\\tools\\gcc\\gcc-arm-none-eabi-5_4-2016q3\\arm-none-eabi\\inc
 886              		.file 7 "c:\\msys64\\home\\logue-sdk\\platform\\ext\\cmsis\\cmsis\\include\\arm_math.h"
 887              		.file 8 "C:/msys64/home/logue-sdk/platform/nutekt-digital/inc/userosc.h"
 888              		.file 9 "C:/msys64/home/logue-sdk/platform/nutekt-digital/inc/utils/int_math.h"
 889              		.file 10 "C:/msys64/home/logue-sdk/platform/nutekt-digital/inc/userprg.h"