ARM GAS  C:\msys64\tmp\cc8rWMSQ.s 			page 1


   1              		.syntax unified
   2              		.cpu cortex-m4
   3              		.eabi_attribute 27, 1
   4              		.eabi_attribute 28, 1
   5              		.fpu fpv4-sp-d16
   6              		.eabi_attribute 20, 1
   7              		.eabi_attribute 21, 1
   8              		.eabi_attribute 23, 3
   9              		.eabi_attribute 24, 1
  10              		.eabi_attribute 25, 1
  11              		.eabi_attribute 26, 1
  12              		.eabi_attribute 30, 4
  13              		.eabi_attribute 34, 1
  14              		.eabi_attribute 18, 4
  15              		.thumb
  16              		.syntax unified
  17              		.file	"mvps1D.cpp"
  18              		.text
  19              	.Ltext0:
  20              		.cfi_sections	.debug_frame
  21              		.section	.text._ZN6MVPS1D16MultiPhaseShaperEff,"axG",%progbits,_ZN6MVPS1D16MultiPhaseShaperEff,com
  22              		.align	1
  23              		.weak	_ZN6MVPS1D16MultiPhaseShaperEff
  24              		.thumb
  25              		.thumb_func
  26              		.type	_ZN6MVPS1D16MultiPhaseShaperEff, %function
  27              	_ZN6MVPS1D16MultiPhaseShaperEff:
  28              	.LFB248:
  29              		.file 1 "mvps1D.hpp"
  30              		.loc 1 56 0
  31              		.cfi_startproc
  32              		@ args = 0, pretend = 0, frame = 0
  33              		@ frame_needed = 0, uses_anonymous_args = 0
  34              		@ link register save eliminated.
  35              	.LVL0:
  36              		.loc 1 57 0
  37 0000 D0ED057A 		vldr.32	s15, [r0, #20]
  38 0004 90ED035A 		vldr.32	s10, [r0, #12]
  39              		.loc 1 58 0
  40 0008 90ED087A 		vldr.32	s14, [r0, #32]
  41              		.loc 1 59 0
  42 000c 90ED066A 		vldr.32	s12, [r0, #24]
  43              		.loc 1 60 0
  44 0010 D0ED096A 		vldr.32	s13, [r0, #36]
  45              		.loc 1 61 0
  46 0014 90ED074A 		vldr.32	s8, [r0, #28]
  47              		.loc 1 62 0
  48 0018 D0ED0A4A 		vldr.32	s9, [r0, #40]
  49              		.loc 1 57 0
  50 001c F0EE605A 		vmov.f32	s11, s1
  51 0020 E7EE855A 		vfma.f32	s11, s15, s10
  52              	.LVL1:
  53              		.loc 1 58 0
  54 0024 D0ED047A 		vldr.32	s15, [r0, #16]
  55              	.LBB98:
  56              		.loc 1 65 0
  57 0028 F4EEC05A 		vcmpe.f32	s11, s0
ARM GAS  C:\msys64\tmp\cc8rWMSQ.s 			page 2


  58 002c F1EE10FA 		vmrs	APSR_nzcv, FPSCR
  59              	.LBE98:
  60              		.loc 1 58 0
  61 0030 27EE877A 		vmul.f32	s14, s15, s14
  62              	.LVL2:
  63              	.LBB106:
  64              		.loc 1 65 0
  65 0034 04DD     		ble	.L13
  66              	.LVL3:
  67              	.LBB99:
  68              		.loc 1 67 0
  69 0036 C0EE257A 		vdiv.f32	s15, s0, s11
  70              	.LVL4:
  71 003a 67EE877A 		vmul.f32	s15, s15, s14
  72              	.LVL5:
  73              	.LBE99:
  74 003e 39E0     		b	.L4
  75              	.LVL6:
  76              	.L13:
  77              	.LBE106:
  78              		.loc 1 59 0
  79 0040 F0EE603A 		vmov.f32	s7, s1
  80 0044 E5EE063A 		vfma.f32	s7, s10, s12
  81              		.loc 1 60 0
  82 0048 67EEA66A 		vmul.f32	s13, s15, s13
  83              	.LVL7:
  84              	.LBB107:
  85              	.LBB100:
  86              		.loc 1 68 0
  87 004c F4EEC03A 		vcmpe.f32	s7, s0
  88 0050 F1EE10FA 		vmrs	APSR_nzcv, FPSCR
  89 0054 0CDD     		ble	.L14
  90              	.LVL8:
  91              	.LBB101:
  92              		.loc 1 73 0
  93 0056 30EE650A 		vsub.f32	s0, s0, s11
  94              	.LVL9:
  95 005a 73EEE50A 		vsub.f32	s1, s7, s11
  96              	.LVL10:
  97 005e 76EEC77A 		vsub.f32	s15, s13, s14
  98              	.LVL11:
  99 0062 C0EE206A 		vdiv.f32	s13, s0, s1
 100              	.LVL12:
 101 0066 A7EEA67A 		vfma.f32	s14, s15, s13
 102              	.LVL13:
 103 006a F0EE477A 		vmov.f32	s15, s14
 104              	.LVL14:
 105              	.LBE101:
 106 006e 21E0     		b	.L4
 107              	.LVL15:
 108              	.L14:
 109              	.LBE100:
 110              	.LBE107:
 111              		.loc 1 61 0
 112 0070 E5EE040A 		vfma.f32	s1, s10, s8
 113              	.LVL16:
 114              		.loc 1 62 0
ARM GAS  C:\msys64\tmp\cc8rWMSQ.s 			page 3


 115 0074 67EEA47A 		vmul.f32	s15, s15, s9
 116              	.LVL17:
 117              	.LBB108:
 118              	.LBB105:
 119              	.LBB102:
 120              		.loc 1 74 0
 121 0078 F4EEC00A 		vcmpe.f32	s1, s0
 122 007c F1EE10FA 		vmrs	APSR_nzcv, FPSCR
 123 0080 0CDD     		ble	.L15
 124              	.LVL18:
 125              	.LBB103:
 126              		.loc 1 79 0
 127 0082 30EE630A 		vsub.f32	s0, s0, s7
 128              	.LVL19:
 129 0086 70EEE30A 		vsub.f32	s1, s1, s7
 130              	.LVL20:
 131 008a 37EEE67A 		vsub.f32	s14, s15, s13
 132              	.LVL21:
 133 008e C0EE207A 		vdiv.f32	s15, s0, s1
 134              	.LVL22:
 135 0092 E7EE276A 		vfma.f32	s13, s14, s15
 136 0096 F0EE667A 		vmov.f32	s15, s13
 137              	.LVL23:
 138              	.LBE103:
 139 009a 0BE0     		b	.L4
 140              	.LVL24:
 141              	.L15:
 142              	.LBB104:
 143              		.loc 1 85 0
 144 009c B7EE007A 		vmov.f32	s14, #1.0e+0
 145              	.LVL25:
 146 00a0 30EE600A 		vsub.f32	s0, s0, s1
 147              	.LVL26:
 148 00a4 77EE600A 		vsub.f32	s1, s14, s1
 149              	.LVL27:
 150 00a8 77EE676A 		vsub.f32	s13, s14, s15
 151              	.LVL28:
 152 00ac 80EE207A 		vdiv.f32	s14, s0, s1
 153              	.LVL29:
 154 00b0 E6EE877A 		vfma.f32	s15, s13, s14
 155              	.LVL30:
 156              	.L4:
 157              	.LBE104:
 158              	.LBE102:
 159              	.LBE105:
 160              	.LBE108:
 161              	.LBB109:
 162              	.LBB110:
 163              	.LBB111:
 164              	.LBB112:
 165              		.file 2 "C:/msys64/home/logue-sdk/platform/nutekt-digital/inc/osc_api.h"
 166              		.loc 2 160 0
 167 00b4 174A     		ldr	r2, .L17
 168              	.LBE112:
 169              	.LBE111:
 170              		.loc 2 171 0
 171 00b6 B5EE007A 		vmov.f32	s14, #2.5e-1
ARM GAS  C:\msys64\tmp\cc8rWMSQ.s 			page 4


 172 00ba 77EE877A 		vadd.f32	s15, s15, s14
 173              	.LVL31:
 174              	.LBB120:
 175              	.LBB119:
 176              		.loc 2 154 0
 177 00be BCEEE77A 		vcvt.u32.f32	s14, s15
 178 00c2 B8EE477A 		vcvt.f32.u32	s14, s14
 179 00c6 77EEC77A 		vsub.f32	s15, s15, s14
 180              	.LVL32:
 181 00ca 9FED137A 		vldr.32	s14, .L17+4
 182 00ce 67EE877A 		vmul.f32	s15, s15, s14
 183              	.LVL33:
 184              		.loc 2 155 0
 185 00d2 BCEEE77A 		vcvt.u32.f32	s14, s15
 186 00d6 17EE101A 		vmov	r1, s14	@ int
 187              	.LVL34:
 188              		.loc 2 157 0
 189 00da 01F07F03 		and	r3, r1, #127
 190              	.LVL35:
 191              		.loc 2 160 0
 192 00de 02EB8300 		add	r0, r2, r3, lsl #2
 193              	.LVL36:
 194 00e2 0133     		adds	r3, r3, #1
 195              	.LVL37:
 196              	.LBB113:
 197              	.LBB114:
 198              		.file 3 "C:/msys64/home/logue-sdk/platform/nutekt-digital/inc/utils/float_math.h"
 199              		.loc 3 826 0
 200 00e4 B8EE477A 		vcvt.f32.u32	s14, s14
 201              	.LBE114:
 202              	.LBE113:
 203              		.loc 2 160 0
 204 00e8 03F07F03 		and	r3, r3, #127
 205              	.LVL38:
 206 00ec 02EB8303 		add	r3, r2, r3, lsl #2
 207              	.LVL39:
 208 00f0 90ED000A 		vldr.32	s0, [r0]
 209              	.LVL40:
 210              	.LBB117:
 211              	.LBB115:
 212              		.loc 3 826 0
 213 00f4 77EEC77A 		vsub.f32	s15, s15, s14
 214              	.LVL41:
 215 00f8 93ED007A 		vldr.32	s14, [r3]
 216 00fc 37EE407A 		vsub.f32	s14, s14, s0
 217              	.LBE115:
 218              	.LBE117:
 219              		.loc 2 161 0
 220 0100 7F29     		cmp	r1, #127
 221              	.LBB118:
 222              	.LBB116:
 223              		.loc 3 826 0
 224 0102 A7EE870A 		vfma.f32	s0, s15, s14
 225              	.LVL42:
 226              	.LBE116:
 227              	.LBE118:
 228              		.loc 2 161 0
ARM GAS  C:\msys64\tmp\cc8rWMSQ.s 			page 5


 229 0106 88BF     		it	hi
 230 0108 B1EE400A 		vneghi.f32	s0, s0
 231              	.LVL43:
 232              	.LBE119:
 233              	.LBE120:
 234              	.LBE110:
 235              	.LBE109:
 236              		.loc 1 89 0
 237 010c B1EE400A 		vneg.f32	s0, s0
 238 0110 7047     		bx	lr
 239              	.L18:
 240 0112 00BF     		.align	2
 241              	.L17:
 242 0114 00000000 		.word	wt_sine_lut_f
 243 0118 00008043 		.word	1132462080
 244              		.cfi_endproc
 245              	.LFE248:
 246              		.size	_ZN6MVPS1D16MultiPhaseShaperEff, .-_ZN6MVPS1D16MultiPhaseShaperEff
 247              		.text
 248              		.align	1
 249              		.global	_hook_init
 250              		.thumb
 251              		.thumb_func
 252              		.type	_hook_init, %function
 253              	_hook_init:
 254              	.LFB250:
 255              		.file 4 "mvps1D.cpp"
 256              		.loc 4 14 0
 257              		.cfi_startproc
 258              		@ args = 0, pretend = 0, frame = 0
 259              		@ frame_needed = 0, uses_anonymous_args = 0
 260              		@ link register save eliminated.
 261              	.LVL44:
 262 0000 7047     		bx	lr
 263              		.cfi_endproc
 264              	.LFE250:
 265              		.size	_hook_init, .-_hook_init
 266              		.align	1
 267              		.global	_hook_cycle
 268              		.thumb
 269              		.thumb_func
 270              		.type	_hook_cycle, %function
 271              	_hook_cycle:
 272              	.LFB251:
 273              		.loc 4 19 0
 274              		.cfi_startproc
 275              		@ args = 0, pretend = 0, frame = 0
 276              		@ frame_needed = 0, uses_anonymous_args = 0
 277              	.LVL45:
 278              		.loc 4 19 0
 279 0002 70B5     		push	{r4, r5, r6, lr}
 280              		.cfi_def_cfa_offset 16
 281              		.cfi_offset 4, -16
 282              		.cfi_offset 5, -12
 283              		.cfi_offset 6, -8
 284              		.cfi_offset 14, -4
 285              		.loc 4 24 0
ARM GAS  C:\msys64\tmp\cc8rWMSQ.s 			page 6


 286 0004 8488     		ldrh	r4, [r0, #4]
 287              	.LBB149:
 288              	.LBB150:
 289              	.LBB151:
 290              	.LBB152:
 291              		.loc 3 826 0
 292 0006 9FED3D7A 		vldr.32	s14, .L35
 293              	.LBE152:
 294              	.LBE151:
 295              	.LBE150:
 296              	.LBE149:
 297              		.loc 4 24 0
 298 000a 2312     		asrs	r3, r4, #8
 299              	.LVL46:
 300              	.LBB193:
 301              	.LBB185:
 302              	.LBB158:
 303              	.LBB159:
 304              		.loc 2 109 0
 305 000c 962B     		cmp	r3, #150
 306              	.LBE159:
 307              	.LBE158:
 308              	.LBE185:
 309              	.LBE193:
 310              		.loc 4 19 0
 311 000e 0D46     		mov	r5, r1
 312              		.loc 4 27 0
 313 0010 E1B2     		uxtb	r1, r4
 314              	.LVL47:
 315              	.LBB194:
 316              	.LBB186:
 317              	.LBB164:
 318              	.LBB160:
 319              		.loc 2 109 0
 320 0012 D8BF     		it	le
 321 0014 1C46     		movle	r4, r3
 322              	.LBE160:
 323              	.LBE164:
 324              		.loc 2 120 0
 325 0016 03F10103 		add	r3, r3, #1
 326              	.LVL48:
 327 001a DBB2     		uxtb	r3, r3
 328              	.LVL49:
 329              	.LBE186:
 330              	.LBE194:
 331              		.loc 4 27 0
 332 001c 07EE901A 		vmov	s15, r1	@ int
 333              	.LVL50:
 334              	.LBB195:
 335              	.LBB187:
 336              	.LBB165:
 337              	.LBB161:
 338              		.loc 2 109 0
 339 0020 C8BF     		it	gt
 340 0022 9724     		movgt	r4, #151
 341              	.LVL51:
 342 0024 3649     		ldr	r1, .L35+4
ARM GAS  C:\msys64\tmp\cc8rWMSQ.s 			page 7


 343              	.LVL52:
 344              	.LBE161:
 345              	.LBE165:
 346              	.LBB166:
 347              	.LBB167:
 348 0026 962B     		cmp	r3, #150
 349 0028 88BF     		it	hi
 350 002a 9723     		movhi	r3, #151
 351              	.LBE167:
 352              	.LBE166:
 353              	.LBB169:
 354              	.LBB153:
 355              		.loc 3 826 0
 356 002c F8EEE77A 		vcvt.f32.s32	s15, s15
 357              	.LVL53:
 358              	.LBE153:
 359              	.LBE169:
 360              	.LBB170:
 361              	.LBB162:
 362              		.loc 2 109 0
 363 0030 01EB8404 		add	r4, r1, r4, lsl #2
 364              	.LBE162:
 365              	.LBE170:
 366              	.LBB171:
 367              	.LBB168:
 368 0034 01EB8303 		add	r3, r1, r3, lsl #2
 369              	.LBE168:
 370              	.LBE171:
 371              	.LBE187:
 372              	.LBE195:
 373              		.loc 4 19 0
 374 0038 2DED088B 		vpush.64	{d8, d9, d10, d11}
 375              		.cfi_def_cfa_offset 48
 376              		.cfi_offset 80, -48
 377              		.cfi_offset 81, -44
 378              		.cfi_offset 82, -40
 379              		.cfi_offset 83, -36
 380              		.cfi_offset 84, -32
 381              		.cfi_offset 85, -28
 382              		.cfi_offset 86, -24
 383              		.cfi_offset 87, -20
 384              	.LBB196:
 385              	.LBB188:
 386              	.LBB172:
 387              	.LBB154:
 388              		.loc 3 826 0
 389 003c 67EE877A 		vmul.f32	s15, s15, s14
 390              	.LBE154:
 391              	.LBE172:
 392              	.LBB173:
 393              	.LBB163:
 394              		.loc 2 109 0
 395 0040 D4ED008A 		vldr.32	s17, [r4]
 396              	.LVL54:
 397              	.LBE163:
 398              	.LBE173:
 399              	.LBB174:
ARM GAS  C:\msys64\tmp\cc8rWMSQ.s 			page 8


 400              	.LBB155:
 401              		.loc 3 826 0
 402 0044 93ED007A 		vldr.32	s14, [r3]
 403              	.LBE155:
 404              	.LBE174:
 405              	.LBE188:
 406              	.LBE196:
 407              		.loc 4 34 0
 408 0048 90ED009A 		vldr.32	s18, [r0]	@ int
 409              		.loc 4 27 0
 410 004c 2D4B     		ldr	r3, .L35+8
 411              	.LBB197:
 412              	.LBB198:
 413              		.loc 4 53 0
 414 004e DFED2EAA 		vldr.32	s21, .L35+12
 415              	.LBE198:
 416              	.LBE197:
 417              		.loc 4 30 0
 418 0052 93ED008A 		vldr.32	s16, [r3]
 419              	.LBB241:
 420              	.LBB237:
 421              		.loc 4 53 0
 422 0056 9FED2DAA 		vldr.32	s20, .L35+16
 423              	.LBE237:
 424              	.LBE241:
 425              	.LBB242:
 426              	.LBB189:
 427              	.LBB175:
 428              	.LBB156:
 429              		.loc 3 826 0
 430 005a 37EE687A 		vsub.f32	s14, s14, s17
 431              	.LBE156:
 432              	.LBE175:
 433              	.LBE189:
 434              	.LBE242:
 435              		.loc 4 34 0
 436 005e BAEEE09A 		vcvt.f32.s32	s18, s18, #31
 437              	.LBB243:
 438              	.LBB190:
 439              	.LBB176:
 440              	.LBB157:
 441              		.loc 3 826 0
 442 0062 E7EE878A 		vfma.f32	s17, s15, s14
 443              	.LVL55:
 444              	.LBE157:
 445              	.LBE176:
 446              	.LBE190:
 447              	.LBE243:
 448              		.loc 4 38 0
 449 0066 05EB8206 		add	r6, r5, r2, lsl #2
 450 006a 1C46     		mov	r4, r3
 451              	.LBB244:
 452              	.LBB191:
 453              	.LBB177:
 454              	.LBB178:
 455              	.LBB179:
 456              	.LBB180:
ARM GAS  C:\msys64\tmp\cc8rWMSQ.s 			page 9


 457              		.loc 3 193 0
 458 006c DFED287A 		vldr.32	s15, .L35+20
 459              	.LBE180:
 460              	.LBE179:
 461              	.LBE178:
 462              	.LBE177:
 463              	.LBE191:
 464              	.LBE244:
 465              		.loc 4 34 0
 466 0070 83ED029A 		vstr.32	s18, [r3, #8]
 467              	.LBB245:
 468              	.LBB192:
 469              	.LBB184:
 470              	.LBB183:
 471              	.LBB182:
 472              	.LBB181:
 473              		.loc 3 193 0
 474 0074 F4EEE78A 		vcmpe.f32	s17, s15
 475 0078 F1EE10FA 		vmrs	APSR_nzcv, FPSCR
 476 007c B8BF     		it	lt
 477 007e F0EE687A 		vmovlt.f32	s15, s17
 478              	.LVL56:
 479              	.LBE181:
 480              	.LBE182:
 481              	.LBE183:
 482              	.LBE184:
 483              		.loc 2 124 0
 484 0082 DFED248A 		vldr.32	s17, .L35+24
 485 0086 67EEA88A 		vmul.f32	s17, s15, s17
 486              	.LVL57:
 487              	.LBE192:
 488              	.LBE245:
 489              	.LBB246:
 490              	.LBB238:
 491              	.LBB199:
 492              	.LBB200:
 493              	.LBB201:
 494              	.LBB202:
 495              	.LBB203:
 496              	.LBB204:
 497              		.loc 3 193 0
 498 008a BFEE00BA 		vmov.f32	s22, #-1.0e+0
 499              	.LBE204:
 500              	.LBE203:
 501              	.LBE202:
 502              	.LBE201:
 503              	.LBE200:
 504              	.LBE199:
 505              	.LBE238:
 506              	.LBE246:
 507              		.loc 4 27 0
 508 008e C3ED018A 		vstr.32	s17, [r3, #4]
 509              	.LVL58:
 510              	.LBB247:
 511              	.LBB239:
 512              	.LBB225:
 513              	.LBB221:
ARM GAS  C:\msys64\tmp\cc8rWMSQ.s 			page 10


 514              	.LBB217:
 515              	.LBB213:
 516              	.LBB208:
 517              	.LBB209:
 518              		.loc 3 193 0
 519 0092 F7EE009A 		vmov.f32	s19, #1.0e+0
 520              	.LVL59:
 521              	.L27:
 522              	.LBE209:
 523              	.LBE208:
 524              	.LBE213:
 525              	.LBE217:
 526              	.LBE221:
 527              	.LBE225:
 528              	.LBE239:
 529              		.loc 4 41 0
 530 0096 B542     		cmp	r5, r6
 531 0098 2AD0     		beq	.L24
 532              	.LVL60:
 533              	.LBB240:
 534              		.loc 4 44 0
 535 009a B0EE480A 		vmov.f32	s0, s16
 536 009e F0EE490A 		vmov.f32	s1, s18
 537              	.LBB226:
 538              	.LBB227:
 539              		.loc 1 92 0
 540 00a2 38EE288A 		vadd.f32	s16, s16, s17
 541              	.LVL61:
 542              	.LBE227:
 543              	.LBE226:
 544              		.loc 4 44 0
 545 00a6 1748     		ldr	r0, .L35+8
 546 00a8 FFF7FEFF 		bl	_ZN6MVPS1D16MultiPhaseShaperEff
 547              	.LVL62:
 548              	.LBB231:
 549              	.LBB228:
 550              		.loc 1 93 0
 551 00ac FCEEC87A 		vcvt.u32.f32	s15, s16
 552              	.LBE228:
 553              	.LBE231:
 554              	.LBB232:
 555              	.LBB222:
 556              	.LBB218:
 557              	.LBB214:
 558              	.LBB210:
 559              	.LBB205:
 560              		.loc 3 193 0
 561 00b0 B4EECB0A 		vcmpe.f32	s0, s22
 562              	.LBE205:
 563              	.LBE210:
 564              	.LBE214:
 565              	.LBE218:
 566              	.LBE222:
 567              	.LBE232:
 568              	.LBB233:
 569              	.LBB229:
 570              		.loc 1 93 0
ARM GAS  C:\msys64\tmp\cc8rWMSQ.s 			page 11


 571 00b4 F8EE677A 		vcvt.f32.u32	s15, s15
 572              	.LBE229:
 573              	.LBE233:
 574              	.LBB234:
 575              	.LBB223:
 576              	.LBB219:
 577              	.LBB215:
 578              	.LBB211:
 579              	.LBB206:
 580              		.loc 3 193 0
 581 00b8 F1EE10FA 		vmrs	APSR_nzcv, FPSCR
 582              	.LBE206:
 583              	.LBE211:
 584              	.LBE215:
 585              	.LBE219:
 586              	.LBE223:
 587              	.LBE234:
 588              	.LBB235:
 589              	.LBB230:
 590              		.loc 1 93 0
 591 00bc 38EE678A 		vsub.f32	s16, s16, s15
 592              	.LVL63:
 593              	.LBE230:
 594              	.LBE235:
 595              	.LBB236:
 596              	.LBB224:
 597              	.LBB220:
 598              	.LBB216:
 599              	.LBB212:
 600              	.LBB207:
 601              		.loc 3 193 0
 602 00c0 07DB     		blt	.L34
 603              	.LVL64:
 604 00c2 B4EEE90A 		vcmpe.f32	s0, s19
 605 00c6 F1EE10FA 		vmrs	APSR_nzcv, FPSCR
 606 00ca A8BF     		it	ge
 607 00cc B0EE690A 		vmovge.f32	s0, s19
 608              	.LVL65:
 609 00d0 01E0     		b	.L25
 610              	.LVL66:
 611              	.L34:
 612 00d2 BFEE000A 		vmov.f32	s0, #-1.0e+0
 613              	.LVL67:
 614              	.L25:
 615              	.LBE207:
 616              	.LBE212:
 617              	.LBE216:
 618              	.LBE220:
 619              	.LBE224:
 620              	.LBE236:
 621              		.loc 4 53 0
 622 00d6 60EE007A 		vmul.f32	s15, s0, s0
 623 00da 60EE677A 		vnmul.f32	s15, s0, s15
 624 00de A7EEAA0A 		vfma.f32	s0, s15, s21
 625 00e2 20EE0A0A 		vmul.f32	s0, s0, s20
 626 00e6 BDEEC00A 		vcvt.s32.f32	s0, s0
 627 00ea A5EC010A 		vstmia.32	r5!, {s0}	@ int
ARM GAS  C:\msys64\tmp\cc8rWMSQ.s 			page 12


 628              	.LVL68:
 629              	.LBE240:
 630              		.loc 4 41 0
 631 00ee D2E7     		b	.L27
 632              	.LVL69:
 633              	.L24:
 634              	.LBE247:
 635              		.loc 4 58 0
 636 00f0 84ED008A 		vstr.32	s16, [r4]
 637              	.LVL70:
 638              		.loc 4 60 0
 639 00f4 BDEC088B 		vldm	sp!, {d8-d11}
 640              		.cfi_restore 86
 641              		.cfi_restore 87
 642              		.cfi_restore 84
 643              		.cfi_restore 85
 644              		.cfi_restore 82
 645              		.cfi_restore 83
 646              		.cfi_restore 80
 647              		.cfi_restore 81
 648              		.cfi_def_cfa_offset 16
 649              	.LVL71:
 650 00f8 70BD     		pop	{r4, r5, r6, pc}
 651              	.LVL72:
 652              	.L36:
 653 00fa 00BF     		.align	2
 654              	.L35:
 655 00fc 8180803B 		.word	998277249
 656 0100 00000000 		.word	midi_to_hz_lut_f
 657 0104 00000000 		.word	.LANCHOR0
 658 0108 CDCC4C3D 		.word	1028443341
 659 010c 0000004F 		.word	1325400064
 660 0110 49FFB846 		.word	1186529097
 661 0114 3EC3AE37 		.word	934200126
 662              		.cfi_endproc
 663              	.LFE251:
 664              		.size	_hook_cycle, .-_hook_cycle
 665              		.align	1
 666              		.global	_hook_on
 667              		.thumb
 668              		.thumb_func
 669              		.type	_hook_on, %function
 670              	_hook_on:
 671              	.LFB259:
 672              		.cfi_startproc
 673              		@ args = 0, pretend = 0, frame = 0
 674              		@ frame_needed = 0, uses_anonymous_args = 0
 675              		@ link register save eliminated.
 676 0118 7047     		bx	lr
 677              		.cfi_endproc
 678              	.LFE259:
 679              		.size	_hook_on, .-_hook_on
 680              		.align	1
 681              		.global	_hook_off
 682              		.thumb
 683              		.thumb_func
 684              		.type	_hook_off, %function
ARM GAS  C:\msys64\tmp\cc8rWMSQ.s 			page 13


 685              	_hook_off:
 686              	.LFB253:
 687              		.loc 4 67 0
 688              		.cfi_startproc
 689              		@ args = 0, pretend = 0, frame = 0
 690              		@ frame_needed = 0, uses_anonymous_args = 0
 691              		@ link register save eliminated.
 692              	.LVL73:
 693 011a 7047     		bx	lr
 694              		.cfi_endproc
 695              	.LFE253:
 696              		.size	_hook_off, .-_hook_off
 697              		.align	1
 698              		.global	_hook_param
 699              		.thumb
 700              		.thumb_func
 701              		.type	_hook_param, %function
 702              	_hook_param:
 703              	.LFB254:
 704              		.loc 4 72 0
 705              		.cfi_startproc
 706              		@ args = 0, pretend = 0, frame = 0
 707              		@ frame_needed = 0, uses_anonymous_args = 0
 708              		@ link register save eliminated.
 709              	.LVL74:
 710              		.loc 4 76 0
 711 011c 07EE901A 		vmov	s15, r1	@ int
 712 0120 9FED247A 		vldr.32	s14, .L50
 713 0124 F8EEE77A 		vcvt.f32.s32	s15, s15
 714 0128 27EE877A 		vmul.f32	s14, s15, s14
 715              	.LVL75:
 716              		.loc 4 77 0
 717 012c 0728     		cmp	r0, #7
 718 012e 40D8     		bhi	.L39
 719 0130 DFE800F0 		tbb	[pc, r0]
 720              	.L42:
 721 0134 04       		.byte	(.L41-.L42)/2
 722 0135 0C       		.byte	(.L43-.L42)/2
 723 0136 14       		.byte	(.L44-.L42)/2
 724 0137 1E       		.byte	(.L45-.L42)/2
 725 0138 26       		.byte	(.L46-.L42)/2
 726 0139 30       		.byte	(.L47-.L42)/2
 727 013a 38       		.byte	(.L48-.L42)/2
 728 013b 3C       		.byte	(.L49-.L42)/2
 729              		.p2align 1
 730              	.L41:
 731              		.loc 4 80 0
 732 013c 9FED1E7A 		vldr.32	s14, .L50+4
 733              	.LVL76:
 734 0140 1E4B     		ldr	r3, .L50+8
 735 0142 67EE877A 		vmul.f32	s15, s15, s14
 736              	.LVL77:
 737 0146 C3ED057A 		vstr.32	s15, [r3, #20]
 738              		.loc 4 81 0
 739 014a 7047     		bx	lr
 740              	.LVL78:
 741              	.L43:
ARM GAS  C:\msys64\tmp\cc8rWMSQ.s 			page 14


 742              		.loc 4 85 0
 743 014c 9FED1C7A 		vldr.32	s14, .L50+12
 744              	.LVL79:
 745 0150 1A4B     		ldr	r3, .L50+8
 746 0152 67EE877A 		vmul.f32	s15, s15, s14
 747              	.LVL80:
 748 0156 C3ED087A 		vstr.32	s15, [r3, #32]
 749              		.loc 4 86 0
 750 015a 7047     		bx	lr
 751              	.LVL81:
 752              	.L44:
 753              		.loc 4 90 0
 754 015c 9FED197A 		vldr.32	s14, .L50+16
 755              	.LVL82:
 756 0160 DFED156A 		vldr.32	s13, .L50+4
 757 0164 154B     		ldr	r3, .L50+8
 758 0166 A7EEA67A 		vfma.f32	s14, s15, s13
 759 016a 83ED067A 		vstr.32	s14, [r3, #24]
 760              		.loc 4 91 0
 761 016e 7047     		bx	lr
 762              	.LVL83:
 763              	.L45:
 764              		.loc 4 95 0
 765 0170 9FED137A 		vldr.32	s14, .L50+12
 766              	.LVL84:
 767 0174 114B     		ldr	r3, .L50+8
 768 0176 67EE877A 		vmul.f32	s15, s15, s14
 769              	.LVL85:
 770 017a C3ED097A 		vstr.32	s15, [r3, #36]
 771              		.loc 4 96 0
 772 017e 7047     		bx	lr
 773              	.LVL86:
 774              	.L46:
 775              		.loc 4 100 0
 776 0180 9FED117A 		vldr.32	s14, .L50+20
 777              	.LVL87:
 778 0184 DFED116A 		vldr.32	s13, .L50+24
 779 0188 0C4B     		ldr	r3, .L50+8
 780 018a A7EEA67A 		vfma.f32	s14, s15, s13
 781 018e 83ED077A 		vstr.32	s14, [r3, #28]
 782              		.loc 4 101 0
 783 0192 7047     		bx	lr
 784              	.LVL88:
 785              	.L47:
 786              		.loc 4 105 0
 787 0194 9FED0A7A 		vldr.32	s14, .L50+12
 788              	.LVL89:
 789 0198 084B     		ldr	r3, .L50+8
 790 019a 67EE877A 		vmul.f32	s15, s15, s14
 791              	.LVL90:
 792 019e C3ED0A7A 		vstr.32	s15, [r3, #40]
 793              		.loc 4 106 0
 794 01a2 7047     		bx	lr
 795              	.LVL91:
 796              	.L48:
 797              		.loc 4 110 0
 798 01a4 054B     		ldr	r3, .L50+8
ARM GAS  C:\msys64\tmp\cc8rWMSQ.s 			page 15


 799 01a6 83ED037A 		vstr.32	s14, [r3, #12]
 800              		.loc 4 111 0
 801 01aa 7047     		bx	lr
 802              	.L49:
 803              		.loc 4 115 0
 804 01ac 034B     		ldr	r3, .L50+8
 805 01ae 83ED047A 		vstr.32	s14, [r3, #16]
 806              	.L39:
 807 01b2 7047     		bx	lr
 808              	.L51:
 809              		.align	2
 810              	.L50:
 811 01b4 0820803A 		.word	981475336
 812 01b8 A69B443B 		.word	994352038
 813 01bc 00000000 		.word	.LANCHOR0
 814 01c0 0AD7233C 		.word	1008981770
 815 01c4 9A99993E 		.word	1050253722
 816 01c8 9A99193F 		.word	1058642330
 817 01cc 6F12833B 		.word	998445679
 818              		.cfi_endproc
 819              	.LFE254:
 820              		.size	_hook_param, .-_hook_param
 821              		.section	.text.startup,"ax",%progbits
 822              		.align	1
 823              		.thumb
 824              		.thumb_func
 825              		.type	_GLOBAL__sub_I__hook_init, %function
 826              	_GLOBAL__sub_I__hook_init:
 827              	.LFB256:
 828              		.loc 4 120 0
 829              		.cfi_startproc
 830              		@ args = 0, pretend = 0, frame = 0
 831              		@ frame_needed = 0, uses_anonymous_args = 0
 832              		@ link register save eliminated.
 833              	.LVL92:
 834              	.LBB262:
 835              	.LBB263:
 836              	.LBB264:
 837              	.LBB265:
 838              	.LBB266:
 839              	.LBB267:
 840              		.loc 1 47 0
 841 0000 074B     		ldr	r3, .L53
 842 0002 0022     		movs	r2, #0
 843 0004 1A60     		str	r2, [r3]	@ float
 844 0006 5A60     		str	r2, [r3, #4]	@ float
 845 0008 9A60     		str	r2, [r3, #8]	@ float
 846              	.LVL93:
 847              	.LBE267:
 848              	.LBE266:
 849              		.loc 1 53 0
 850 000a 4FF07C52 		mov	r2, #1056964608
 851 000e DA60     		str	r2, [r3, #12]	@ float
 852 0010 1A61     		str	r2, [r3, #16]	@ float
 853 0012 5A61     		str	r2, [r3, #20]	@ float
 854 0014 9A61     		str	r2, [r3, #24]	@ float
 855 0016 DA61     		str	r2, [r3, #28]	@ float
ARM GAS  C:\msys64\tmp\cc8rWMSQ.s 			page 16


 856 0018 1A62     		str	r2, [r3, #32]	@ float
 857 001a 5A62     		str	r2, [r3, #36]	@ float
 858 001c 9A62     		str	r2, [r3, #40]	@ float
 859              	.LVL94:
 860 001e 7047     		bx	lr
 861              	.L54:
 862              		.align	2
 863              	.L53:
 864 0020 00000000 		.word	.LANCHOR0
 865              	.LBE265:
 866              	.LBE264:
 867              	.LBE263:
 868              	.LBE262:
 869              		.cfi_endproc
 870              	.LFE256:
 871              		.size	_GLOBAL__sub_I__hook_init, .-_GLOBAL__sub_I__hook_init
 872              		.section	.init_array,"aw",%init_array
 873              		.align	2
 874 0000 00000000 		.word	_GLOBAL__sub_I__hook_init(target1)
 875              		.bss
 876              		.align	2
 877              		.set	.LANCHOR0,. + 0
 878              		.type	_ZL6mvps1D, %object
 879              		.size	_ZL6mvps1D, 44
 880              	_ZL6mvps1D:
 881 0000 00000000 		.space	44
 881      00000000 
 881      00000000 
 881      00000000 
 881      00000000 
 882              		.text
 883              	.Letext0:
 884              		.file 5 "c:\\msys64\\home\\logue-sdk\\tools\\gcc\\gcc-arm-none-eabi-5_4-2016q3\\arm-none-eabi\\inc
 885              		.file 6 "c:\\msys64\\home\\logue-sdk\\tools\\gcc\\gcc-arm-none-eabi-5_4-2016q3\\arm-none-eabi\\inc
 886              		.file 7 "c:\\msys64\\home\\logue-sdk\\platform\\ext\\cmsis\\cmsis\\include\\arm_math.h"
 887              		.file 8 "C:/msys64/home/logue-sdk/platform/nutekt-digital/inc/userosc.h"
 888              		.file 9 "C:/msys64/home/logue-sdk/platform/nutekt-digital/inc/utils/int_math.h"
 889              		.file 10 "C:/msys64/home/logue-sdk/platform/nutekt-digital/inc/userprg.h"
 890              		.section	.debug_info,"",%progbits
 891              	.Ldebug_info0:
 892 0000 7D0D0000 		.4byte	0xd7d
 893 0004 0400     		.2byte	0x4
 894 0006 00000000 		.4byte	.Ldebug_abbrev0
 895 000a 04       		.byte	0x4
 896 000b 01       		.uleb128 0x1
 897 000c 20000000 		.4byte	.LASF102
 898 0010 04       		.byte	0x4
 899 0011 E5060000 		.4byte	.LASF103
 900 0015 8E040000 		.4byte	.LASF104
 901 0019 30020000 		.4byte	.Ldebug_ranges0+0x230
 902 001d 00000000 		.4byte	0
 903 0021 00000000 		.4byte	.Ldebug_line0
 904 0025 02       		.uleb128 0x2
 905 0026 04       		.byte	0x4
 906 0027 04       		.byte	0x4
 907 0028 75020000 		.4byte	.LASF0
 908 002c 03       		.uleb128 0x3
ARM GAS  C:\msys64\tmp\cc8rWMSQ.s 			page 17


 909 002d 04       		.byte	0x4
 910 002e 05       		.byte	0x5
 911 002f 696E7400 		.ascii	"int\000"
 912 0033 02       		.uleb128 0x2
 913 0034 04       		.byte	0x4
 914 0035 07       		.byte	0x7
 915 0036 38010000 		.4byte	.LASF1
 916 003a 02       		.uleb128 0x2
 917 003b 01       		.byte	0x1
 918 003c 06       		.byte	0x6
 919 003d 93060000 		.4byte	.LASF2
 920 0041 04       		.uleb128 0x4
 921 0042 A2050000 		.4byte	.LASF5
 922 0046 05       		.byte	0x5
 923 0047 1D       		.byte	0x1d
 924 0048 4C000000 		.4byte	0x4c
 925 004c 02       		.uleb128 0x2
 926 004d 01       		.byte	0x1
 927 004e 08       		.byte	0x8
 928 004f 07060000 		.4byte	.LASF3
 929 0053 02       		.uleb128 0x2
 930 0054 02       		.byte	0x2
 931 0055 05       		.byte	0x5
 932 0056 F1040000 		.4byte	.LASF4
 933 005a 04       		.uleb128 0x4
 934 005b AC020000 		.4byte	.LASF6
 935 005f 05       		.byte	0x5
 936 0060 2B       		.byte	0x2b
 937 0061 65000000 		.4byte	0x65
 938 0065 02       		.uleb128 0x2
 939 0066 02       		.byte	0x2
 940 0067 07       		.byte	0x7
 941 0068 9F060000 		.4byte	.LASF7
 942 006c 04       		.uleb128 0x4
 943 006d 5B010000 		.4byte	.LASF8
 944 0071 05       		.byte	0x5
 945 0072 3F       		.byte	0x3f
 946 0073 77000000 		.4byte	0x77
 947 0077 02       		.uleb128 0x2
 948 0078 04       		.byte	0x4
 949 0079 05       		.byte	0x5
 950 007a 27050000 		.4byte	.LASF9
 951 007e 04       		.uleb128 0x4
 952 007f 15060000 		.4byte	.LASF10
 953 0083 05       		.byte	0x5
 954 0084 41       		.byte	0x41
 955 0085 89000000 		.4byte	0x89
 956 0089 02       		.uleb128 0x2
 957 008a 04       		.byte	0x4
 958 008b 07       		.byte	0x7
 959 008c D7050000 		.4byte	.LASF11
 960 0090 02       		.uleb128 0x2
 961 0091 08       		.byte	0x8
 962 0092 05       		.byte	0x5
 963 0093 9D030000 		.4byte	.LASF12
 964 0097 02       		.uleb128 0x2
 965 0098 08       		.byte	0x8
ARM GAS  C:\msys64\tmp\cc8rWMSQ.s 			page 18


 966 0099 07       		.byte	0x7
 967 009a 95020000 		.4byte	.LASF13
 968 009e 04       		.uleb128 0x4
 969 009f 49030000 		.4byte	.LASF14
 970 00a3 06       		.byte	0x6
 971 00a4 18       		.byte	0x18
 972 00a5 41000000 		.4byte	0x41
 973 00a9 04       		.uleb128 0x4
 974 00aa 33040000 		.4byte	.LASF15
 975 00ae 06       		.byte	0x6
 976 00af 24       		.byte	0x24
 977 00b0 5A000000 		.4byte	0x5a
 978 00b4 04       		.uleb128 0x4
 979 00b5 F7050000 		.4byte	.LASF16
 980 00b9 06       		.byte	0x6
 981 00ba 2C       		.byte	0x2c
 982 00bb 6C000000 		.4byte	0x6c
 983 00bf 04       		.uleb128 0x4
 984 00c0 56020000 		.4byte	.LASF17
 985 00c4 06       		.byte	0x6
 986 00c5 30       		.byte	0x30
 987 00c6 7E000000 		.4byte	0x7e
 988 00ca 02       		.uleb128 0x2
 989 00cb 08       		.byte	0x8
 990 00cc 04       		.byte	0x4
 991 00cd 27040000 		.4byte	.LASF18
 992 00d1 05       		.uleb128 0x5
 993 00d2 54060000 		.4byte	.LASF105
 994 00d6 02       		.uleb128 0x2
 995 00d7 04       		.byte	0x4
 996 00d8 07       		.byte	0x7
 997 00d9 CE050000 		.4byte	.LASF19
 998 00dd 02       		.uleb128 0x2
 999 00de 01       		.byte	0x1
 1000 00df 08       		.byte	0x8
 1001 00e0 24030000 		.4byte	.LASF20
 1002 00e4 02       		.uleb128 0x2
 1003 00e5 08       		.byte	0x8
 1004 00e6 04       		.byte	0x4
 1005 00e7 D4060000 		.4byte	.LASF21
 1006 00eb 06       		.uleb128 0x6
 1007 00ec C8050000 		.4byte	.LASF22
 1008 00f0 07       		.byte	0x7
 1009 00f1 8D01     		.2byte	0x18d
 1010 00f3 B4000000 		.4byte	0xb4
 1011 00f7 07       		.uleb128 0x7
 1012 00f8 04       		.byte	0x4
 1013 00f9 EB000000 		.4byte	0xeb
 1014 00fd 07       		.uleb128 0x7
 1015 00fe 04       		.byte	0x4
 1016 00ff 03010000 		.4byte	0x103
 1017 0103 08       		.uleb128 0x8
 1018 0104 EB000000 		.4byte	0xeb
 1019 0108 07       		.uleb128 0x7
 1020 0109 04       		.byte	0x4
 1021 010a B4000000 		.4byte	0xb4
 1022 010e 09       		.uleb128 0x9
ARM GAS  C:\msys64\tmp\cc8rWMSQ.s 			page 19


 1023 010f 01       		.byte	0x1
 1024 0110 4C000000 		.4byte	0x4c
 1025 0114 0A       		.byte	0xa
 1026 0115 35       		.byte	0x35
 1027 0116 3F010000 		.4byte	0x13f
 1028 011a 0A       		.uleb128 0xa
 1029 011b 29060000 		.4byte	.LASF23
 1030 011f 00       		.byte	0
 1031 0120 0A       		.uleb128 0xa
 1032 0121 36050000 		.4byte	.LASF24
 1033 0125 01       		.byte	0x1
 1034 0126 0A       		.uleb128 0xa
 1035 0127 81020000 		.4byte	.LASF25
 1036 012b 02       		.byte	0x2
 1037 012c 0A       		.uleb128 0xa
 1038 012d DB020000 		.4byte	.LASF26
 1039 0131 03       		.byte	0x3
 1040 0132 0A       		.uleb128 0xa
 1041 0133 0B040000 		.4byte	.LASF27
 1042 0137 04       		.byte	0x4
 1043 0138 0A       		.uleb128 0xa
 1044 0139 C6030000 		.4byte	.LASF28
 1045 013d 05       		.byte	0x5
 1046 013e 00       		.byte	0
 1047 013f 0B       		.uleb128 0xb
 1048 0140 B7020000 		.4byte	.LASF45
 1049 0144 10       		.byte	0x10
 1050 0145 08       		.byte	0x8
 1051 0146 3C       		.byte	0x3c
 1052 0147 88010000 		.4byte	0x188
 1053 014b 0C       		.uleb128 0xc
 1054 014c DB060000 		.4byte	.LASF29
 1055 0150 08       		.byte	0x8
 1056 0151 3E       		.byte	0x3e
 1057 0152 B4000000 		.4byte	0xb4
 1058 0156 00       		.byte	0
 1059 0157 0C       		.uleb128 0xc
 1060 0158 6E010000 		.4byte	.LASF30
 1061 015c 08       		.byte	0x8
 1062 015d 40       		.byte	0x40
 1063 015e A9000000 		.4byte	0xa9
 1064 0162 04       		.byte	0x4
 1065 0163 0C       		.uleb128 0xc
 1066 0164 1D030000 		.4byte	.LASF31
 1067 0168 08       		.byte	0x8
 1068 0169 42       		.byte	0x42
 1069 016a A9000000 		.4byte	0xa9
 1070 016e 06       		.byte	0x6
 1071 016f 0C       		.uleb128 0xc
 1072 0170 BC030000 		.4byte	.LASF32
 1073 0174 08       		.byte	0x8
 1074 0175 44       		.byte	0x44
 1075 0176 A9000000 		.4byte	0xa9
 1076 017a 08       		.byte	0x8
 1077 017b 0C       		.uleb128 0xc
 1078 017c 8C050000 		.4byte	.LASF33
 1079 0180 08       		.byte	0x8
ARM GAS  C:\msys64\tmp\cc8rWMSQ.s 			page 20


 1080 0181 45       		.byte	0x45
 1081 0182 88010000 		.4byte	0x188
 1082 0186 0A       		.byte	0xa
 1083 0187 00       		.byte	0
 1084 0188 0D       		.uleb128 0xd
 1085 0189 A9000000 		.4byte	0xa9
 1086 018d 98010000 		.4byte	0x198
 1087 0191 0E       		.uleb128 0xe
 1088 0192 D6000000 		.4byte	0xd6
 1089 0196 02       		.byte	0x2
 1090 0197 00       		.byte	0
 1091 0198 04       		.uleb128 0x4
 1092 0199 C3060000 		.4byte	.LASF34
 1093 019d 08       		.byte	0x8
 1094 019e 46       		.byte	0x46
 1095 019f 3F010000 		.4byte	0x13f
 1096 01a3 0F       		.uleb128 0xf
 1097 01a4 01       		.byte	0x1
 1098 01a5 4C000000 		.4byte	0x4c
 1099 01a9 08       		.byte	0x8
 1100 01aa 4B       		.byte	0x4b
 1101 01ab 76050000 		.4byte	.LASF106
 1102 01af EA010000 		.4byte	0x1ea
 1103 01b3 0A       		.uleb128 0xa
 1104 01b4 9A010000 		.4byte	.LASF35
 1105 01b8 00       		.byte	0
 1106 01b9 0A       		.uleb128 0xa
 1107 01ba AF010000 		.4byte	.LASF36
 1108 01be 01       		.byte	0x1
 1109 01bf 0A       		.uleb128 0xa
 1110 01c0 C4010000 		.4byte	.LASF37
 1111 01c4 02       		.byte	0x2
 1112 01c5 0A       		.uleb128 0xa
 1113 01c6 D9010000 		.4byte	.LASF38
 1114 01ca 03       		.byte	0x3
 1115 01cb 0A       		.uleb128 0xa
 1116 01cc EE010000 		.4byte	.LASF39
 1117 01d0 04       		.byte	0x4
 1118 01d1 0A       		.uleb128 0xa
 1119 01d2 03020000 		.4byte	.LASF40
 1120 01d6 05       		.byte	0x5
 1121 01d7 0A       		.uleb128 0xa
 1122 01d8 4A050000 		.4byte	.LASF41
 1123 01dc 06       		.byte	0x6
 1124 01dd 0A       		.uleb128 0xa
 1125 01de 72040000 		.4byte	.LASF42
 1126 01e2 07       		.byte	0x7
 1127 01e3 0A       		.uleb128 0xa
 1128 01e4 18020000 		.4byte	.LASF43
 1129 01e8 08       		.byte	0x8
 1130 01e9 00       		.byte	0
 1131 01ea 04       		.uleb128 0x4
 1132 01eb 74010000 		.4byte	.LASF44
 1133 01ef 08       		.byte	0x8
 1134 01f0 5D       		.byte	0x5d
 1135 01f1 A3010000 		.4byte	0x1a3
 1136 01f5 07       		.uleb128 0x7
ARM GAS  C:\msys64\tmp\cc8rWMSQ.s 			page 21


 1137 01f6 04       		.byte	0x4
 1138 01f7 FB010000 		.4byte	0x1fb
 1139 01fb 08       		.uleb128 0x8
 1140 01fc 98010000 		.4byte	0x198
 1141 0200 0B       		.uleb128 0xb
 1142 0201 AB030000 		.4byte	.LASF46
 1143 0205 2C       		.byte	0x2c
 1144 0206 01       		.byte	0x1
 1145 0207 10       		.byte	0x10
 1146 0208 55030000 		.4byte	0x355
 1147 020c 0B       		.uleb128 0xb
 1148 020d 41040000 		.4byte	.LASF47
 1149 0211 20       		.byte	0x20
 1150 0212 01       		.byte	0x1
 1151 0213 12       		.byte	0x12
 1152 0214 8C020000 		.4byte	0x28c
 1153 0218 0C       		.uleb128 0xc
 1154 0219 30050000 		.4byte	.LASF48
 1155 021d 01       		.byte	0x1
 1156 021e 13       		.byte	0x13
 1157 021f 25000000 		.4byte	0x25
 1158 0223 00       		.byte	0
 1159 0224 0C       		.uleb128 0xc
 1160 0225 03030000 		.4byte	.LASF49
 1161 0229 01       		.byte	0x1
 1162 022a 14       		.byte	0x14
 1163 022b 25000000 		.4byte	0x25
 1164 022f 04       		.byte	0x4
 1165 0230 10       		.uleb128 0x10
 1166 0231 643000   		.ascii	"d0\000"
 1167 0234 01       		.byte	0x1
 1168 0235 15       		.byte	0x15
 1169 0236 25000000 		.4byte	0x25
 1170 023a 08       		.byte	0x8
 1171 023b 10       		.uleb128 0x10
 1172 023c 643100   		.ascii	"d1\000"
 1173 023f 01       		.byte	0x1
 1174 0240 16       		.byte	0x16
 1175 0241 25000000 		.4byte	0x25
 1176 0245 0C       		.byte	0xc
 1177 0246 10       		.uleb128 0x10
 1178 0247 643200   		.ascii	"d2\000"
 1179 024a 01       		.byte	0x1
 1180 024b 17       		.byte	0x17
 1181 024c 25000000 		.4byte	0x25
 1182 0250 10       		.byte	0x10
 1183 0251 10       		.uleb128 0x10
 1184 0252 763000   		.ascii	"v0\000"
 1185 0255 01       		.byte	0x1
 1186 0256 18       		.byte	0x18
 1187 0257 25000000 		.4byte	0x25
 1188 025b 14       		.byte	0x14
 1189 025c 10       		.uleb128 0x10
 1190 025d 763100   		.ascii	"v1\000"
 1191 0260 01       		.byte	0x1
 1192 0261 19       		.byte	0x19
 1193 0262 25000000 		.4byte	0x25
ARM GAS  C:\msys64\tmp\cc8rWMSQ.s 			page 22


 1194 0266 18       		.byte	0x18
 1195 0267 10       		.uleb128 0x10
 1196 0268 763200   		.ascii	"v2\000"
 1197 026b 01       		.byte	0x1
 1198 026c 1A       		.byte	0x1a
 1199 026d 25000000 		.4byte	0x25
 1200 0271 1C       		.byte	0x1c
 1201 0272 11       		.uleb128 0x11
 1202 0273 41040000 		.4byte	.LASF47
 1203 0277 01       		.byte	0x1
 1204 0278 1C       		.byte	0x1c
 1205 0279 3E060000 		.4byte	.LASF51
 1206 027d 55030000 		.4byte	0x355
 1207 0281 85020000 		.4byte	0x285
 1208 0285 12       		.uleb128 0x12
 1209 0286 55030000 		.4byte	0x355
 1210 028a 00       		.byte	0
 1211 028b 00       		.byte	0
 1212 028c 0B       		.uleb128 0xb
 1213 028d 94010000 		.4byte	.LASF50
 1214 0291 0C       		.byte	0xc
 1215 0292 01       		.byte	0x1
 1216 0293 28       		.byte	0x28
 1217 0294 D5020000 		.4byte	0x2d5
 1218 0298 10       		.uleb128 0x10
 1219 0299 70686900 		.ascii	"phi\000"
 1220 029d 01       		.byte	0x1
 1221 029e 29       		.byte	0x29
 1222 029f 25000000 		.4byte	0x25
 1223 02a3 00       		.byte	0
 1224 02a4 10       		.uleb128 0x10
 1225 02a5 773000   		.ascii	"w0\000"
 1226 02a8 01       		.byte	0x1
 1227 02a9 2A       		.byte	0x2a
 1228 02aa 25000000 		.4byte	0x25
 1229 02ae 04       		.byte	0x4
 1230 02af 10       		.uleb128 0x10
 1231 02b0 6C666F00 		.ascii	"lfo\000"
 1232 02b4 01       		.byte	0x1
 1233 02b5 2B       		.byte	0x2b
 1234 02b6 25000000 		.4byte	0x25
 1235 02ba 08       		.byte	0x8
 1236 02bb 11       		.uleb128 0x11
 1237 02bc 94010000 		.4byte	.LASF50
 1238 02c0 01       		.byte	0x1
 1239 02c1 2C       		.byte	0x2c
 1240 02c2 61050000 		.4byte	.LASF52
 1241 02c6 5B030000 		.4byte	0x35b
 1242 02ca CE020000 		.4byte	0x2ce
 1243 02ce 12       		.uleb128 0x12
 1244 02cf 5B030000 		.4byte	0x35b
 1245 02d3 00       		.byte	0
 1246 02d4 00       		.byte	0
 1247 02d5 0C       		.uleb128 0xc
 1248 02d6 66060000 		.4byte	.LASF53
 1249 02da 01       		.byte	0x1
 1250 02db 60       		.byte	0x60
ARM GAS  C:\msys64\tmp\cc8rWMSQ.s 			page 23


 1251 02dc 8C020000 		.4byte	0x28c
 1252 02e0 00       		.byte	0
 1253 02e1 0C       		.uleb128 0xc
 1254 02e2 00000000 		.4byte	.LASF54
 1255 02e6 01       		.byte	0x1
 1256 02e7 61       		.byte	0x61
 1257 02e8 0C020000 		.4byte	0x20c
 1258 02ec 0C       		.byte	0xc
 1259 02ed 13       		.uleb128 0x13
 1260 02ee AB030000 		.4byte	.LASF46
 1261 02f2 01       		.byte	0x1
 1262 02f3 33       		.byte	0x33
 1263 02f4 0E030000 		.4byte	.LASF56
 1264 02f8 61030000 		.4byte	0x361
 1265 02fc 04030000 		.4byte	0x304
 1266 0300 0A030000 		.4byte	0x30a
 1267 0304 12       		.uleb128 0x12
 1268 0305 61030000 		.4byte	0x361
 1269 0309 00       		.byte	0
 1270 030a 13       		.uleb128 0x13
 1271 030b 79030000 		.4byte	.LASF55
 1272 030f 01       		.byte	0x1
 1273 0310 38       		.byte	0x38
 1274 0311 6C060000 		.4byte	.LASF57
 1275 0315 25000000 		.4byte	0x25
 1276 0319 21030000 		.4byte	0x321
 1277 031d 31030000 		.4byte	0x331
 1278 0321 12       		.uleb128 0x12
 1279 0322 61030000 		.4byte	0x361
 1280 0326 14       		.uleb128 0x14
 1281 0327 25000000 		.4byte	0x25
 1282 032b 14       		.uleb128 0x14
 1283 032c 25000000 		.4byte	0x25
 1284 0330 00       		.byte	0
 1285 0331 11       		.uleb128 0x11
 1286 0332 88010000 		.4byte	.LASF58
 1287 0336 01       		.byte	0x1
 1288 0337 5B       		.byte	0x5b
 1289 0338 51030000 		.4byte	.LASF59
 1290 033c 25000000 		.4byte	0x25
 1291 0340 44030000 		.4byte	0x344
 1292 0344 12       		.uleb128 0x12
 1293 0345 61030000 		.4byte	0x361
 1294 0349 14       		.uleb128 0x14
 1295 034a 67030000 		.4byte	0x367
 1296 034e 14       		.uleb128 0x14
 1297 034f 25000000 		.4byte	0x25
 1298 0353 00       		.byte	0
 1299 0354 00       		.byte	0
 1300 0355 07       		.uleb128 0x7
 1301 0356 04       		.byte	0x4
 1302 0357 0C020000 		.4byte	0x20c
 1303 035b 07       		.uleb128 0x7
 1304 035c 04       		.byte	0x4
 1305 035d 8C020000 		.4byte	0x28c
 1306 0361 07       		.uleb128 0x7
 1307 0362 04       		.byte	0x4
ARM GAS  C:\msys64\tmp\cc8rWMSQ.s 			page 24


 1308 0363 00020000 		.4byte	0x200
 1309 0367 07       		.uleb128 0x7
 1310 0368 04       		.byte	0x4
 1311 0369 25000000 		.4byte	0x25
 1312 036d 15       		.uleb128 0x15
 1313 036e BE050000 		.4byte	.LASF60
 1314 0372 03       		.byte	0x3
 1315 0373 C0       		.byte	0xc0
 1316 0374 25000000 		.4byte	0x25
 1317 0378 03       		.byte	0x3
 1318 0379 99030000 		.4byte	0x399
 1319 037d 16       		.uleb128 0x16
 1320 037e 6100     		.ascii	"a\000"
 1321 0380 03       		.byte	0x3
 1322 0381 C0       		.byte	0xc0
 1323 0382 99030000 		.4byte	0x399
 1324 0386 16       		.uleb128 0x16
 1325 0387 6200     		.ascii	"b\000"
 1326 0389 03       		.byte	0x3
 1327 038a C0       		.byte	0xc0
 1328 038b 99030000 		.4byte	0x399
 1329 038f 16       		.uleb128 0x16
 1330 0390 6300     		.ascii	"c\000"
 1331 0392 03       		.byte	0x3
 1332 0393 C0       		.byte	0xc0
 1333 0394 99030000 		.4byte	0x399
 1334 0398 00       		.byte	0
 1335 0399 08       		.uleb128 0x8
 1336 039a 25000000 		.4byte	0x25
 1337 039e 17       		.uleb128 0x17
 1338 039f 00070000 		.4byte	.LASF61
 1339 03a3 03       		.byte	0x3
 1340 03a4 4901     		.2byte	0x149
 1341 03a6 25000000 		.4byte	0x25
 1342 03aa 03       		.byte	0x3
 1343 03ab C6030000 		.4byte	0x3c6
 1344 03af 18       		.uleb128 0x18
 1345 03b0 7800     		.ascii	"x\000"
 1346 03b2 03       		.byte	0x3
 1347 03b3 4901     		.2byte	0x149
 1348 03b5 99030000 		.4byte	0x399
 1349 03b9 18       		.uleb128 0x18
 1350 03ba 6D617800 		.ascii	"max\000"
 1351 03be 03       		.byte	0x3
 1352 03bf 4901     		.2byte	0x149
 1353 03c1 99030000 		.4byte	0x399
 1354 03c5 00       		.byte	0
 1355 03c6 17       		.uleb128 0x17
 1356 03c7 B2030000 		.4byte	.LASF62
 1357 03cb 03       		.byte	0x3
 1358 03cc 3C01     		.2byte	0x13c
 1359 03ce 25000000 		.4byte	0x25
 1360 03d2 03       		.byte	0x3
 1361 03d3 FA030000 		.4byte	0x3fa
 1362 03d7 18       		.uleb128 0x18
 1363 03d8 6D696E00 		.ascii	"min\000"
 1364 03dc 03       		.byte	0x3
ARM GAS  C:\msys64\tmp\cc8rWMSQ.s 			page 25


 1365 03dd 3C01     		.2byte	0x13c
 1366 03df 99030000 		.4byte	0x399
 1367 03e3 18       		.uleb128 0x18
 1368 03e4 7800     		.ascii	"x\000"
 1369 03e6 03       		.byte	0x3
 1370 03e7 3C01     		.2byte	0x13c
 1371 03e9 25000000 		.4byte	0x25
 1372 03ed 18       		.uleb128 0x18
 1373 03ee 6D617800 		.ascii	"max\000"
 1374 03f2 03       		.byte	0x3
 1375 03f3 3C01     		.2byte	0x13c
 1376 03f5 99030000 		.4byte	0x399
 1377 03f9 00       		.byte	0
 1378 03fa 15       		.uleb128 0x15
 1379 03fb D9030000 		.4byte	.LASF63
 1380 03ff 09       		.byte	0x9
 1381 0400 54       		.byte	0x54
 1382 0401 BF000000 		.4byte	0xbf
 1383 0405 03       		.byte	0x3
 1384 0406 1D040000 		.4byte	0x41d
 1385 040a 16       		.uleb128 0x16
 1386 040b 7800     		.ascii	"x\000"
 1387 040d 09       		.byte	0x9
 1388 040e 54       		.byte	0x54
 1389 040f 1D040000 		.4byte	0x41d
 1390 0413 16       		.uleb128 0x16
 1391 0414 6D00     		.ascii	"m\000"
 1392 0416 09       		.byte	0x9
 1393 0417 54       		.byte	0x54
 1394 0418 1D040000 		.4byte	0x41d
 1395 041c 00       		.byte	0
 1396 041d 08       		.uleb128 0x8
 1397 041e BF000000 		.4byte	0xbf
 1398 0422 17       		.uleb128 0x17
 1399 0423 94030000 		.4byte	.LASF64
 1400 0427 03       		.byte	0x3
 1401 0428 8501     		.2byte	0x185
 1402 042a 25000000 		.4byte	0x25
 1403 042e 03       		.byte	0x3
 1404 042f 48040000 		.4byte	0x448
 1405 0433 18       		.uleb128 0x18
 1406 0434 7800     		.ascii	"x\000"
 1407 0436 03       		.byte	0x3
 1408 0437 8501     		.2byte	0x185
 1409 0439 99030000 		.4byte	0x399
 1410 043d 18       		.uleb128 0x18
 1411 043e 6D00     		.ascii	"m\000"
 1412 0440 03       		.byte	0x3
 1413 0441 8501     		.2byte	0x185
 1414 0443 99030000 		.4byte	0x399
 1415 0447 00       		.byte	0
 1416 0448 17       		.uleb128 0x17
 1417 0449 FF050000 		.4byte	.LASF65
 1418 044d 03       		.byte	0x3
 1419 044e 3903     		.2byte	0x339
 1420 0450 25000000 		.4byte	0x25
 1421 0454 03       		.byte	0x3
ARM GAS  C:\msys64\tmp\cc8rWMSQ.s 			page 26


 1422 0455 7B040000 		.4byte	0x47b
 1423 0459 18       		.uleb128 0x18
 1424 045a 667200   		.ascii	"fr\000"
 1425 045d 03       		.byte	0x3
 1426 045e 3903     		.2byte	0x339
 1427 0460 99030000 		.4byte	0x399
 1428 0464 18       		.uleb128 0x18
 1429 0465 783000   		.ascii	"x0\000"
 1430 0468 03       		.byte	0x3
 1431 0469 3903     		.2byte	0x339
 1432 046b 99030000 		.4byte	0x399
 1433 046f 18       		.uleb128 0x18
 1434 0470 783100   		.ascii	"x1\000"
 1435 0473 03       		.byte	0x3
 1436 0474 3903     		.2byte	0x339
 1437 0476 99030000 		.4byte	0x399
 1438 047a 00       		.byte	0
 1439 047b 15       		.uleb128 0x15
 1440 047c 6D030000 		.4byte	.LASF66
 1441 0480 02       		.byte	0x2
 1442 0481 6C       		.byte	0x6c
 1443 0482 25000000 		.4byte	0x25
 1444 0486 03       		.byte	0x3
 1445 0487 97040000 		.4byte	0x497
 1446 048b 19       		.uleb128 0x19
 1447 048c C3050000 		.4byte	.LASF67
 1448 0490 02       		.byte	0x2
 1449 0491 6C       		.byte	0x6c
 1450 0492 9E000000 		.4byte	0x9e
 1451 0496 00       		.byte	0
 1452 0497 15       		.uleb128 0x15
 1453 0498 52010000 		.4byte	.LASF68
 1454 049c 02       		.byte	0x2
 1455 049d 96       		.byte	0x96
 1456 049e 25000000 		.4byte	0x25
 1457 04a2 03       		.byte	0x3
 1458 04a3 EE040000 		.4byte	0x4ee
 1459 04a7 16       		.uleb128 0x16
 1460 04a8 7800     		.ascii	"x\000"
 1461 04aa 02       		.byte	0x2
 1462 04ab 96       		.byte	0x96
 1463 04ac 25000000 		.4byte	0x25
 1464 04b0 1A       		.uleb128 0x1a
 1465 04b1 7000     		.ascii	"p\000"
 1466 04b3 02       		.byte	0x2
 1467 04b4 97       		.byte	0x97
 1468 04b5 99030000 		.4byte	0x399
 1469 04b9 1A       		.uleb128 0x1a
 1470 04ba 78306600 		.ascii	"x0f\000"
 1471 04be 02       		.byte	0x2
 1472 04bf 9A       		.byte	0x9a
 1473 04c0 99030000 		.4byte	0x399
 1474 04c4 1A       		.uleb128 0x1a
 1475 04c5 78307000 		.ascii	"x0p\000"
 1476 04c9 02       		.byte	0x2
 1477 04ca 9B       		.byte	0x9b
 1478 04cb 1D040000 		.4byte	0x41d
ARM GAS  C:\msys64\tmp\cc8rWMSQ.s 			page 27


 1479 04cf 1A       		.uleb128 0x1a
 1480 04d0 783000   		.ascii	"x0\000"
 1481 04d3 02       		.byte	0x2
 1482 04d4 9D       		.byte	0x9d
 1483 04d5 1D040000 		.4byte	0x41d
 1484 04d9 1A       		.uleb128 0x1a
 1485 04da 783100   		.ascii	"x1\000"
 1486 04dd 02       		.byte	0x2
 1487 04de 9E       		.byte	0x9e
 1488 04df 1D040000 		.4byte	0x41d
 1489 04e3 1A       		.uleb128 0x1a
 1490 04e4 793000   		.ascii	"y0\000"
 1491 04e7 02       		.byte	0x2
 1492 04e8 A0       		.byte	0xa0
 1493 04e9 99030000 		.4byte	0x399
 1494 04ed 00       		.byte	0
 1495 04ee 17       		.uleb128 0x17
 1496 04ef F7060000 		.4byte	.LASF69
 1497 04f3 03       		.byte	0x3
 1498 04f4 AF01     		.2byte	0x1af
 1499 04f6 25000000 		.4byte	0x25
 1500 04fa 03       		.byte	0x3
 1501 04fb 0A050000 		.4byte	0x50a
 1502 04ff 18       		.uleb128 0x18
 1503 0500 7800     		.ascii	"x\000"
 1504 0502 03       		.byte	0x3
 1505 0503 AF01     		.2byte	0x1af
 1506 0505 99030000 		.4byte	0x399
 1507 0509 00       		.byte	0
 1508 050a 1B       		.uleb128 0x1b
 1509 050b BB020000 		.4byte	0x2bb
 1510 050f 03       		.byte	0x3
 1511 0510 18050000 		.4byte	0x518
 1512 0514 22050000 		.4byte	0x522
 1513 0518 1C       		.uleb128 0x1c
 1514 0519 3C040000 		.4byte	.LASF71
 1515 051d 22050000 		.4byte	0x522
 1516 0521 00       		.byte	0
 1517 0522 08       		.uleb128 0x8
 1518 0523 5B030000 		.4byte	0x35b
 1519 0527 15       		.uleb128 0x15
 1520 0528 20060000 		.4byte	.LASF70
 1521 052c 02       		.byte	0x2
 1522 052d AA       		.byte	0xaa
 1523 052e 25000000 		.4byte	0x25
 1524 0532 03       		.byte	0x3
 1525 0533 41050000 		.4byte	0x541
 1526 0537 16       		.uleb128 0x16
 1527 0538 7800     		.ascii	"x\000"
 1528 053a 02       		.byte	0x2
 1529 053b AA       		.byte	0xaa
 1530 053c 25000000 		.4byte	0x25
 1531 0540 00       		.byte	0
 1532 0541 1B       		.uleb128 0x1b
 1533 0542 31030000 		.4byte	0x331
 1534 0546 03       		.byte	0x3
 1535 0547 4F050000 		.4byte	0x54f
ARM GAS  C:\msys64\tmp\cc8rWMSQ.s 			page 28


 1536 054b 6E050000 		.4byte	0x56e
 1537 054f 1C       		.uleb128 0x1c
 1538 0550 3C040000 		.4byte	.LASF71
 1539 0554 6E050000 		.4byte	0x56e
 1540 0558 16       		.uleb128 0x16
 1541 0559 70686900 		.ascii	"phi\000"
 1542 055d 01       		.byte	0x1
 1543 055e 5B       		.byte	0x5b
 1544 055f 67030000 		.4byte	0x367
 1545 0563 16       		.uleb128 0x16
 1546 0564 773000   		.ascii	"w0\000"
 1547 0567 01       		.byte	0x1
 1548 0568 5B       		.byte	0x5b
 1549 0569 25000000 		.4byte	0x25
 1550 056d 00       		.byte	0
 1551 056e 08       		.uleb128 0x8
 1552 056f 61030000 		.4byte	0x361
 1553 0573 15       		.uleb128 0x15
 1554 0574 B2060000 		.4byte	.LASF72
 1555 0578 02       		.byte	0x2
 1556 0579 76       		.byte	0x76
 1557 057a 25000000 		.4byte	0x25
 1558 057e 03       		.byte	0x3
 1559 057f B7050000 		.4byte	0x5b7
 1560 0583 19       		.uleb128 0x19
 1561 0584 C3050000 		.4byte	.LASF67
 1562 0588 02       		.byte	0x2
 1563 0589 76       		.byte	0x76
 1564 058a 9E000000 		.4byte	0x9e
 1565 058e 16       		.uleb128 0x16
 1566 058f 6D6F6400 		.ascii	"mod\000"
 1567 0593 02       		.byte	0x2
 1568 0594 76       		.byte	0x76
 1569 0595 9E000000 		.4byte	0x9e
 1570 0599 1A       		.uleb128 0x1a
 1571 059a 663000   		.ascii	"f0\000"
 1572 059d 02       		.byte	0x2
 1573 059e 77       		.byte	0x77
 1574 059f 99030000 		.4byte	0x399
 1575 05a3 1A       		.uleb128 0x1a
 1576 05a4 663100   		.ascii	"f1\000"
 1577 05a7 02       		.byte	0x2
 1578 05a8 78       		.byte	0x78
 1579 05a9 99030000 		.4byte	0x399
 1580 05ad 1A       		.uleb128 0x1a
 1581 05ae 6600     		.ascii	"f\000"
 1582 05b0 02       		.byte	0x2
 1583 05b1 7A       		.byte	0x7a
 1584 05b2 99030000 		.4byte	0x399
 1585 05b6 00       		.byte	0
 1586 05b7 17       		.uleb128 0x17
 1587 05b8 48020000 		.4byte	.LASF73
 1588 05bc 02       		.byte	0x2
 1589 05bd 9902     		.2byte	0x299
 1590 05bf 25000000 		.4byte	0x25
 1591 05c3 03       		.byte	0x3
 1592 05c4 DD050000 		.4byte	0x5dd
ARM GAS  C:\msys64\tmp\cc8rWMSQ.s 			page 29


 1593 05c8 18       		.uleb128 0x18
 1594 05c9 6300     		.ascii	"c\000"
 1595 05cb 02       		.byte	0x2
 1596 05cc 9902     		.2byte	0x299
 1597 05ce 99030000 		.4byte	0x399
 1598 05d2 18       		.uleb128 0x18
 1599 05d3 7800     		.ascii	"x\000"
 1600 05d5 02       		.byte	0x2
 1601 05d6 9902     		.2byte	0x299
 1602 05d8 25000000 		.4byte	0x25
 1603 05dc 00       		.byte	0
 1604 05dd 1D       		.uleb128 0x1d
 1605 05de 48040000 		.4byte	.LASF107
 1606 05e2 01       		.byte	0x1
 1607 05e3 FE050000 		.4byte	0x5fe
 1608 05e7 19       		.uleb128 0x19
 1609 05e8 CC020000 		.4byte	.LASF74
 1610 05ec 04       		.byte	0x4
 1611 05ed 78       		.byte	0x78
 1612 05ee 2C000000 		.4byte	0x2c
 1613 05f2 19       		.uleb128 0x19
 1614 05f3 F8020000 		.4byte	.LASF75
 1615 05f7 04       		.byte	0x4
 1616 05f8 78       		.byte	0x78
 1617 05f9 2C000000 		.4byte	0x2c
 1618 05fd 00       		.byte	0
 1619 05fe 1E       		.uleb128 0x1e
 1620 05ff 0A030000 		.4byte	0x30a
 1621 0603 00000000 		.4byte	.LFB248
 1622 0607 1C010000 		.4byte	.LFE248-.LFB248
 1623 060b 01       		.uleb128 0x1
 1624 060c 9C       		.byte	0x9c
 1625 060d 15060000 		.4byte	0x615
 1626 0611 2A080000 		.4byte	0x82a
 1627 0615 1F       		.uleb128 0x1f
 1628 0616 3C040000 		.4byte	.LASF71
 1629 061a 6E050000 		.4byte	0x56e
 1630 061e 00000000 		.4byte	.LLST0
 1631 0622 20       		.uleb128 0x20
 1632 0623 70686900 		.ascii	"phi\000"
 1633 0627 01       		.byte	0x1
 1634 0628 38       		.byte	0x38
 1635 0629 25000000 		.4byte	0x25
 1636 062d 21000000 		.4byte	.LLST1
 1637 0631 20       		.uleb128 0x20
 1638 0632 6C666F00 		.ascii	"lfo\000"
 1639 0636 01       		.byte	0x1
 1640 0637 38       		.byte	0x38
 1641 0638 25000000 		.4byte	0x25
 1642 063c 7D000000 		.4byte	.LLST2
 1643 0640 21       		.uleb128 0x21
 1644 0641 643000   		.ascii	"d0\000"
 1645 0644 01       		.byte	0x1
 1646 0645 39       		.byte	0x39
 1647 0646 25000000 		.4byte	0x25
 1648 064a 02       		.uleb128 0x2
 1649 064b 90       		.byte	0x90
ARM GAS  C:\msys64\tmp\cc8rWMSQ.s 			page 30


 1650 064c 4B       		.uleb128 0x4b
 1651 064d 22       		.uleb128 0x22
 1652 064e 763000   		.ascii	"v0\000"
 1653 0651 01       		.byte	0x1
 1654 0652 3A       		.byte	0x3a
 1655 0653 25000000 		.4byte	0x25
 1656 0657 BD000000 		.4byte	.LLST3
 1657 065b 22       		.uleb128 0x22
 1658 065c 643100   		.ascii	"d1\000"
 1659 065f 01       		.byte	0x1
 1660 0660 3B       		.byte	0x3b
 1661 0661 25000000 		.4byte	0x25
 1662 0665 47010000 		.4byte	.LLST4
 1663 0669 22       		.uleb128 0x22
 1664 066a 763100   		.ascii	"v1\000"
 1665 066d 01       		.byte	0x1
 1666 066e 3C       		.byte	0x3c
 1667 066f 25000000 		.4byte	0x25
 1668 0673 AB010000 		.4byte	.LLST5
 1669 0677 22       		.uleb128 0x22
 1670 0678 643200   		.ascii	"d2\000"
 1671 067b 01       		.byte	0x1
 1672 067c 3D       		.byte	0x3d
 1673 067d 25000000 		.4byte	0x25
 1674 0681 5B020000 		.4byte	.LLST6
 1675 0685 22       		.uleb128 0x22
 1676 0686 763200   		.ascii	"v2\000"
 1677 0689 01       		.byte	0x1
 1678 068a 3E       		.byte	0x3e
 1679 068b 25000000 		.4byte	0x25
 1680 068f BF020000 		.4byte	.LLST7
 1681 0693 22       		.uleb128 0x22
 1682 0694 707300   		.ascii	"ps\000"
 1683 0697 01       		.byte	0x1
 1684 0698 40       		.byte	0x40
 1685 0699 25000000 		.4byte	0x25
 1686 069d 50030000 		.4byte	.LLST8
 1687 06a1 23       		.uleb128 0x23
 1688 06a2 36000000 		.4byte	.LBB99
 1689 06a6 08000000 		.4byte	.LBE99-.LBB99
 1690 06aa BE060000 		.4byte	0x6be
 1691 06ae 24       		.uleb128 0x24
 1692 06af EF020000 		.4byte	.LASF76
 1693 06b3 01       		.byte	0x1
 1694 06b4 42       		.byte	0x42
 1695 06b5 25000000 		.4byte	0x25
 1696 06b9 88030000 		.4byte	.LLST9
 1697 06bd 00       		.byte	0
 1698 06be 23       		.uleb128 0x23
 1699 06bf 56000000 		.4byte	.LBB101
 1700 06c3 18000000 		.4byte	.LBE101-.LBB101
 1701 06c7 08070000 		.4byte	0x708
 1702 06cb 24       		.uleb128 0x24
 1703 06cc F0060000 		.4byte	.LASF77
 1704 06d0 01       		.byte	0x1
 1705 06d1 45       		.byte	0x45
 1706 06d2 25000000 		.4byte	0x25
ARM GAS  C:\msys64\tmp\cc8rWMSQ.s 			page 31


 1707 06d6 C0030000 		.4byte	.LLST10
 1708 06da 24       		.uleb128 0x24
 1709 06db 1D040000 		.4byte	.LASF78
 1710 06df 01       		.byte	0x1
 1711 06e0 46       		.byte	0x46
 1712 06e1 25000000 		.4byte	0x25
 1713 06e5 08040000 		.4byte	.LLST11
 1714 06e9 24       		.uleb128 0x24
 1715 06ea 96050000 		.4byte	.LASF79
 1716 06ee 01       		.byte	0x1
 1717 06ef 47       		.byte	0x47
 1718 06f0 25000000 		.4byte	0x25
 1719 06f4 2E040000 		.4byte	.LLST12
 1720 06f8 24       		.uleb128 0x24
 1721 06f9 EF020000 		.4byte	.LASF76
 1722 06fd 01       		.byte	0x1
 1723 06fe 48       		.byte	0x48
 1724 06ff 25000000 		.4byte	0x25
 1725 0703 54040000 		.4byte	.LLST13
 1726 0707 00       		.byte	0
 1727 0708 23       		.uleb128 0x23
 1728 0709 82000000 		.4byte	.LBB103
 1729 070d 18000000 		.4byte	.LBE103-.LBB103
 1730 0711 52070000 		.4byte	0x752
 1731 0715 24       		.uleb128 0x24
 1732 0716 F0060000 		.4byte	.LASF77
 1733 071a 01       		.byte	0x1
 1734 071b 4B       		.byte	0x4b
 1735 071c 25000000 		.4byte	0x25
 1736 0720 9E040000 		.4byte	.LLST14
 1737 0724 24       		.uleb128 0x24
 1738 0725 1D040000 		.4byte	.LASF78
 1739 0729 01       		.byte	0x1
 1740 072a 4C       		.byte	0x4c
 1741 072b 25000000 		.4byte	0x25
 1742 072f C4040000 		.4byte	.LLST15
 1743 0733 24       		.uleb128 0x24
 1744 0734 96050000 		.4byte	.LASF79
 1745 0738 01       		.byte	0x1
 1746 0739 4D       		.byte	0x4d
 1747 073a 25000000 		.4byte	0x25
 1748 073e EA040000 		.4byte	.LLST16
 1749 0742 24       		.uleb128 0x24
 1750 0743 EF020000 		.4byte	.LASF76
 1751 0747 01       		.byte	0x1
 1752 0748 4E       		.byte	0x4e
 1753 0749 25000000 		.4byte	0x25
 1754 074d 10050000 		.4byte	.LLST17
 1755 0751 00       		.byte	0
 1756 0752 23       		.uleb128 0x23
 1757 0753 9C000000 		.4byte	.LBB104
 1758 0757 18000000 		.4byte	.LBE104-.LBB104
 1759 075b 9C070000 		.4byte	0x79c
 1760 075f 24       		.uleb128 0x24
 1761 0760 F0060000 		.4byte	.LASF77
 1762 0764 01       		.byte	0x1
 1763 0765 51       		.byte	0x51
ARM GAS  C:\msys64\tmp\cc8rWMSQ.s 			page 32


 1764 0766 25000000 		.4byte	0x25
 1765 076a 5A050000 		.4byte	.LLST18
 1766 076e 24       		.uleb128 0x24
 1767 076f 1D040000 		.4byte	.LASF78
 1768 0773 01       		.byte	0x1
 1769 0774 52       		.byte	0x52
 1770 0775 25000000 		.4byte	0x25
 1771 0779 84050000 		.4byte	.LLST19
 1772 077d 24       		.uleb128 0x24
 1773 077e 96050000 		.4byte	.LASF79
 1774 0782 01       		.byte	0x1
 1775 0783 53       		.byte	0x53
 1776 0784 25000000 		.4byte	0x25
 1777 0788 AA050000 		.4byte	.LLST20
 1778 078c 24       		.uleb128 0x24
 1779 078d EF020000 		.4byte	.LASF76
 1780 0791 01       		.byte	0x1
 1781 0792 54       		.byte	0x54
 1782 0793 25000000 		.4byte	0x25
 1783 0797 D4050000 		.4byte	.LLST21
 1784 079b 00       		.byte	0
 1785 079c 25       		.uleb128 0x25
 1786 079d 27050000 		.4byte	0x527
 1787 07a1 B4000000 		.4byte	.LBB109
 1788 07a5 58000000 		.4byte	.LBE109-.LBB109
 1789 07a9 01       		.byte	0x1
 1790 07aa 58       		.byte	0x58
 1791 07ab 26       		.uleb128 0x26
 1792 07ac 37050000 		.4byte	0x537
 1793 07b0 26060000 		.4byte	.LLST22
 1794 07b4 27       		.uleb128 0x27
 1795 07b5 97040000 		.4byte	0x497
 1796 07b9 B4000000 		.4byte	.LBB111
 1797 07bd 00000000 		.4byte	.Ldebug_ranges0+0
 1798 07c1 02       		.byte	0x2
 1799 07c2 AB       		.byte	0xab
 1800 07c3 26       		.uleb128 0x26
 1801 07c4 A7040000 		.4byte	0x4a7
 1802 07c8 3A060000 		.4byte	.LLST23
 1803 07cc 28       		.uleb128 0x28
 1804 07cd 00000000 		.4byte	.Ldebug_ranges0+0
 1805 07d1 29       		.uleb128 0x29
 1806 07d2 B0040000 		.4byte	0x4b0
 1807 07d6 4E060000 		.4byte	.LLST24
 1808 07da 29       		.uleb128 0x29
 1809 07db B9040000 		.4byte	0x4b9
 1810 07df 6C060000 		.4byte	.LLST25
 1811 07e3 29       		.uleb128 0x29
 1812 07e4 C4040000 		.4byte	0x4c4
 1813 07e8 80060000 		.4byte	.LLST26
 1814 07ec 29       		.uleb128 0x29
 1815 07ed CF040000 		.4byte	0x4cf
 1816 07f1 93060000 		.4byte	.LLST27
 1817 07f5 29       		.uleb128 0x29
 1818 07f6 D9040000 		.4byte	0x4d9
 1819 07fa C3060000 		.4byte	.LLST28
 1820 07fe 2A       		.uleb128 0x2a
ARM GAS  C:\msys64\tmp\cc8rWMSQ.s 			page 33


 1821 07ff E3040000 		.4byte	0x4e3
 1822 0803 27       		.uleb128 0x27
 1823 0804 48040000 		.4byte	0x448
 1824 0808 E4000000 		.4byte	.LBB113
 1825 080c 18000000 		.4byte	.Ldebug_ranges0+0x18
 1826 0810 02       		.byte	0x2
 1827 0811 A0       		.byte	0xa0
 1828 0812 2B       		.uleb128 0x2b
 1829 0813 6F040000 		.4byte	0x46f
 1830 0817 26       		.uleb128 0x26
 1831 0818 64040000 		.4byte	0x464
 1832 081c 06070000 		.4byte	.LLST29
 1833 0820 2B       		.uleb128 0x2b
 1834 0821 59040000 		.4byte	0x459
 1835 0825 00       		.byte	0
 1836 0826 00       		.byte	0
 1837 0827 00       		.byte	0
 1838 0828 00       		.byte	0
 1839 0829 00       		.byte	0
 1840 082a 2C       		.uleb128 0x2c
 1841 082b E6040000 		.4byte	.LASF80
 1842 082f 04       		.byte	0x4
 1843 0830 0E       		.byte	0xe
 1844 0831 00000000 		.4byte	.LFB250
 1845 0835 02000000 		.4byte	.LFE250-.LFB250
 1846 0839 01       		.uleb128 0x1
 1847 083a 9C       		.byte	0x9c
 1848 083b 5A080000 		.4byte	0x85a
 1849 083f 2D       		.uleb128 0x2d
 1850 0840 65010000 		.4byte	.LASF81
 1851 0844 04       		.byte	0x4
 1852 0845 0E       		.byte	0xe
 1853 0846 BF000000 		.4byte	0xbf
 1854 084a 01       		.uleb128 0x1
 1855 084b 50       		.byte	0x50
 1856 084c 2E       		.uleb128 0x2e
 1857 084d 61706900 		.ascii	"api\000"
 1858 0851 04       		.byte	0x4
 1859 0852 0E       		.byte	0xe
 1860 0853 BF000000 		.4byte	0xbf
 1861 0857 01       		.uleb128 0x1
 1862 0858 51       		.byte	0x51
 1863 0859 00       		.byte	0
 1864 085a 2C       		.uleb128 0x2c
 1865 085b 30020000 		.4byte	.LASF82
 1866 085f 04       		.byte	0x4
 1867 0860 13       		.byte	0x13
 1868 0861 02000000 		.4byte	.LFB251
 1869 0865 16010000 		.4byte	.LFE251-.LFB251
 1870 0869 01       		.uleb128 0x1
 1871 086a 9C       		.byte	0x9c
 1872 086b 250B0000 		.4byte	0xb25
 1873 086f 2F       		.uleb128 0x2f
 1874 0870 00000000 		.4byte	.LASF54
 1875 0874 04       		.byte	0x4
 1876 0875 13       		.byte	0x13
 1877 0876 250B0000 		.4byte	0xb25
ARM GAS  C:\msys64\tmp\cc8rWMSQ.s 			page 34


 1878 087a 1A070000 		.4byte	.LLST30
 1879 087e 20       		.uleb128 0x20
 1880 087f 796E00   		.ascii	"yn\000"
 1881 0882 04       		.byte	0x4
 1882 0883 13       		.byte	0x13
 1883 0884 08010000 		.4byte	0x108
 1884 0888 3B070000 		.4byte	.LLST31
 1885 088c 2F       		.uleb128 0x2f
 1886 088d 33030000 		.4byte	.LASF83
 1887 0891 04       		.byte	0x4
 1888 0892 13       		.byte	0x13
 1889 0893 1D040000 		.4byte	0x41d
 1890 0897 67070000 		.4byte	.LLST32
 1891 089b 21       		.uleb128 0x21
 1892 089c 7300     		.ascii	"s\000"
 1893 089e 04       		.byte	0x4
 1894 089f 15       		.byte	0x15
 1895 08a0 300B0000 		.4byte	0xb30
 1896 08a4 06       		.uleb128 0x6
 1897 08a5 03       		.byte	0x3
 1898 08a6 00000000 		.4byte	_ZL6mvps1D
 1899 08aa 9F       		.byte	0x9f
 1900 08ab 24       		.uleb128 0x24
 1901 08ac C3050000 		.4byte	.LASF67
 1902 08b0 04       		.byte	0x4
 1903 08b1 18       		.byte	0x18
 1904 08b2 9E000000 		.4byte	0x9e
 1905 08b6 88070000 		.4byte	.LLST33
 1906 08ba 21       		.uleb128 0x21
 1907 08bb 773000   		.ascii	"w0\000"
 1908 08be 04       		.byte	0x4
 1909 08bf 1B       		.byte	0x1b
 1910 08c0 25000000 		.4byte	0x25
 1911 08c4 02       		.uleb128 0x2
 1912 08c5 90       		.byte	0x90
 1913 08c6 51       		.uleb128 0x51
 1914 08c7 22       		.uleb128 0x22
 1915 08c8 70686900 		.ascii	"phi\000"
 1916 08cc 04       		.byte	0x4
 1917 08cd 1E       		.byte	0x1e
 1918 08ce 25000000 		.4byte	0x25
 1919 08d2 BD070000 		.4byte	.LLST34
 1920 08d6 21       		.uleb128 0x21
 1921 08d7 50686900 		.ascii	"Phi\000"
 1922 08db 04       		.byte	0x4
 1923 08dc 1F       		.byte	0x1f
 1924 08dd 67030000 		.4byte	0x367
 1925 08e1 06       		.uleb128 0x6
 1926 08e2 F2       		.byte	0xf2
 1927 08e3 C7080000 		.4byte	.Ldebug_info0+2247
 1928 08e7 00       		.sleb128 0
 1929 08e8 22       		.uleb128 0x22
 1930 08e9 6C666F00 		.ascii	"lfo\000"
 1931 08ed 04       		.byte	0x4
 1932 08ee 22       		.byte	0x22
 1933 08ef 25000000 		.4byte	0x25
 1934 08f3 E9070000 		.4byte	.LLST35
ARM GAS  C:\msys64\tmp\cc8rWMSQ.s 			page 35


 1935 08f7 22       		.uleb128 0x22
 1936 08f8 7900     		.ascii	"y\000"
 1937 08fa 04       		.byte	0x4
 1938 08fb 25       		.byte	0x25
 1939 08fc F7000000 		.4byte	0xf7
 1940 0900 FD070000 		.4byte	.LLST36
 1941 0904 22       		.uleb128 0x22
 1942 0905 795F6500 		.ascii	"y_e\000"
 1943 0909 04       		.byte	0x4
 1944 090a 26       		.byte	0x26
 1945 090b FD000000 		.4byte	0xfd
 1946 090f 28080000 		.4byte	.LLST37
 1947 0913 30       		.uleb128 0x30
 1948 0914 73050000 		.4byte	0x573
 1949 0918 06000000 		.4byte	.LBB149
 1950 091c 38000000 		.4byte	.Ldebug_ranges0+0x38
 1951 0920 04       		.byte	0x4
 1952 0921 1B       		.byte	0x1b
 1953 0922 040A0000 		.4byte	0xa04
 1954 0926 26       		.uleb128 0x26
 1955 0927 8E050000 		.4byte	0x58e
 1956 092b 4F080000 		.4byte	.LLST38
 1957 092f 2B       		.uleb128 0x2b
 1958 0930 83050000 		.4byte	0x583
 1959 0934 28       		.uleb128 0x28
 1960 0935 38000000 		.4byte	.Ldebug_ranges0+0x38
 1961 0939 2A       		.uleb128 0x2a
 1962 093a 99050000 		.4byte	0x599
 1963 093e 2A       		.uleb128 0x2a
 1964 093f A3050000 		.4byte	0x5a3
 1965 0943 2A       		.uleb128 0x2a
 1966 0944 AD050000 		.4byte	0x5ad
 1967 0948 30       		.uleb128 0x30
 1968 0949 48040000 		.4byte	0x448
 1969 094d 06000000 		.4byte	.LBB151
 1970 0951 88000000 		.4byte	.Ldebug_ranges0+0x88
 1971 0955 02       		.byte	0x2
 1972 0956 7A       		.byte	0x7a
 1973 0957 6B090000 		.4byte	0x96b
 1974 095b 2B       		.uleb128 0x2b
 1975 095c 6F040000 		.4byte	0x46f
 1976 0960 2B       		.uleb128 0x2b
 1977 0961 64040000 		.4byte	0x464
 1978 0965 2B       		.uleb128 0x2b
 1979 0966 59040000 		.4byte	0x459
 1980 096a 00       		.byte	0
 1981 096b 30       		.uleb128 0x30
 1982 096c 7B040000 		.4byte	0x47b
 1983 0970 0C000000 		.4byte	.LBB158
 1984 0974 C0000000 		.4byte	.Ldebug_ranges0+0xc0
 1985 0978 02       		.byte	0x2
 1986 0979 77       		.byte	0x77
 1987 097a 84090000 		.4byte	0x984
 1988 097e 2B       		.uleb128 0x2b
 1989 097f 8B040000 		.4byte	0x48b
 1990 0983 00       		.byte	0
 1991 0984 30       		.uleb128 0x30
ARM GAS  C:\msys64\tmp\cc8rWMSQ.s 			page 36


 1992 0985 7B040000 		.4byte	0x47b
 1993 0989 26000000 		.4byte	.LBB166
 1994 098d F0000000 		.4byte	.Ldebug_ranges0+0xf0
 1995 0991 02       		.byte	0x2
 1996 0992 78       		.byte	0x78
 1997 0993 9D090000 		.4byte	0x99d
 1998 0997 2B       		.uleb128 0x2b
 1999 0998 8B040000 		.4byte	0x48b
 2000 099c 00       		.byte	0
 2001 099d 27       		.uleb128 0x27
 2002 099e 22040000 		.4byte	0x422
 2003 09a2 6C000000 		.4byte	.LBB177
 2004 09a6 08010000 		.4byte	.Ldebug_ranges0+0x108
 2005 09aa 02       		.byte	0x2
 2006 09ab 7A       		.byte	0x7a
 2007 09ac 26       		.uleb128 0x26
 2008 09ad 3D040000 		.4byte	0x43d
 2009 09b1 7A080000 		.4byte	.LLST39
 2010 09b5 2B       		.uleb128 0x2b
 2011 09b6 33040000 		.4byte	0x433
 2012 09ba 31       		.uleb128 0x31
 2013 09bb 9E030000 		.4byte	0x39e
 2014 09bf 6C000000 		.4byte	.LBB178
 2015 09c3 08010000 		.4byte	.Ldebug_ranges0+0x108
 2016 09c7 03       		.byte	0x3
 2017 09c8 8601     		.2byte	0x186
 2018 09ca 26       		.uleb128 0x26
 2019 09cb B9030000 		.4byte	0x3b9
 2020 09cf 7A080000 		.4byte	.LLST39
 2021 09d3 2B       		.uleb128 0x2b
 2022 09d4 AF030000 		.4byte	0x3af
 2023 09d8 31       		.uleb128 0x31
 2024 09d9 6D030000 		.4byte	0x36d
 2025 09dd 6C000000 		.4byte	.LBB179
 2026 09e1 08010000 		.4byte	.Ldebug_ranges0+0x108
 2027 09e5 03       		.byte	0x3
 2028 09e6 4B01     		.2byte	0x14b
 2029 09e8 2B       		.uleb128 0x2b
 2030 09e9 8F030000 		.4byte	0x38f
 2031 09ed 26       		.uleb128 0x26
 2032 09ee 86030000 		.4byte	0x386
 2033 09f2 7A080000 		.4byte	.LLST39
 2034 09f6 26       		.uleb128 0x26
 2035 09f7 7D030000 		.4byte	0x37d
 2036 09fb 92080000 		.4byte	.LLST42
 2037 09ff 00       		.byte	0
 2038 0a00 00       		.byte	0
 2039 0a01 00       		.byte	0
 2040 0a02 00       		.byte	0
 2041 0a03 00       		.byte	0
 2042 0a04 28       		.uleb128 0x28
 2043 0a05 20010000 		.4byte	.Ldebug_ranges0+0x120
 2044 0a09 22       		.uleb128 0x22
 2045 0a0a 73696700 		.ascii	"sig\000"
 2046 0a0e 04       		.byte	0x4
 2047 0a0f 2A       		.byte	0x2a
 2048 0a10 25000000 		.4byte	0x25
ARM GAS  C:\msys64\tmp\cc8rWMSQ.s 			page 37


 2049 0a14 B0080000 		.4byte	.LLST43
 2050 0a18 30       		.uleb128 0x30
 2051 0a19 B7050000 		.4byte	0x5b7
 2052 0a1d 8A000000 		.4byte	.LBB199
 2053 0a21 50010000 		.4byte	.Ldebug_ranges0+0x150
 2054 0a25 04       		.byte	0x4
 2055 0a26 32       		.byte	0x32
 2056 0a27 DC0A0000 		.4byte	0xadc
 2057 0a2b 26       		.uleb128 0x26
 2058 0a2c D2050000 		.4byte	0x5d2
 2059 0a30 E0080000 		.4byte	.LLST44
 2060 0a34 26       		.uleb128 0x26
 2061 0a35 C8050000 		.4byte	0x5c8
 2062 0a39 00090000 		.4byte	.LLST45
 2063 0a3d 31       		.uleb128 0x31
 2064 0a3e EE040000 		.4byte	0x4ee
 2065 0a42 8A000000 		.4byte	.LBB201
 2066 0a46 80010000 		.4byte	.Ldebug_ranges0+0x180
 2067 0a4a 02       		.byte	0x2
 2068 0a4b 9B02     		.2byte	0x29b
 2069 0a4d 26       		.uleb128 0x26
 2070 0a4e FF040000 		.4byte	0x4ff
 2071 0a52 E0080000 		.4byte	.LLST44
 2072 0a56 31       		.uleb128 0x31
 2073 0a57 C6030000 		.4byte	0x3c6
 2074 0a5b 8A000000 		.4byte	.LBB202
 2075 0a5f B0010000 		.4byte	.Ldebug_ranges0+0x1b0
 2076 0a63 03       		.byte	0x3
 2077 0a64 B001     		.2byte	0x1b0
 2078 0a66 26       		.uleb128 0x26
 2079 0a67 ED030000 		.4byte	0x3ed
 2080 0a6b 18090000 		.4byte	.LLST47
 2081 0a6f 26       		.uleb128 0x26
 2082 0a70 E3030000 		.4byte	0x3e3
 2083 0a74 30090000 		.4byte	.LLST48
 2084 0a78 26       		.uleb128 0x26
 2085 0a79 D7030000 		.4byte	0x3d7
 2086 0a7d 50090000 		.4byte	.LLST49
 2087 0a81 32       		.uleb128 0x32
 2088 0a82 6D030000 		.4byte	0x36d
 2089 0a86 8A000000 		.4byte	.LBB203
 2090 0a8a E0010000 		.4byte	.Ldebug_ranges0+0x1e0
 2091 0a8e 03       		.byte	0x3
 2092 0a8f 3E01     		.2byte	0x13e
 2093 0a91 B10A0000 		.4byte	0xab1
 2094 0a95 26       		.uleb128 0x26
 2095 0a96 8F030000 		.4byte	0x38f
 2096 0a9a 68090000 		.4byte	.LLST50
 2097 0a9e 26       		.uleb128 0x26
 2098 0a9f 86030000 		.4byte	0x386
 2099 0aa3 30090000 		.4byte	.LLST48
 2100 0aa7 26       		.uleb128 0x26
 2101 0aa8 7D030000 		.4byte	0x37d
 2102 0aac 90090000 		.4byte	.LLST52
 2103 0ab0 00       		.byte	0
 2104 0ab1 33       		.uleb128 0x33
 2105 0ab2 6D030000 		.4byte	0x36d
ARM GAS  C:\msys64\tmp\cc8rWMSQ.s 			page 38


 2106 0ab6 92000000 		.4byte	.LBB208
 2107 0aba 04000000 		.4byte	.LBE208-.LBB208
 2108 0abe 03       		.byte	0x3
 2109 0abf 3F01     		.2byte	0x13f
 2110 0ac1 2B       		.uleb128 0x2b
 2111 0ac2 8F030000 		.4byte	0x38f
 2112 0ac6 26       		.uleb128 0x26
 2113 0ac7 86030000 		.4byte	0x386
 2114 0acb C4090000 		.4byte	.LLST53
 2115 0acf 26       		.uleb128 0x26
 2116 0ad0 7D030000 		.4byte	0x37d
 2117 0ad4 DC090000 		.4byte	.LLST54
 2118 0ad8 00       		.byte	0
 2119 0ad9 00       		.byte	0
 2120 0ada 00       		.byte	0
 2121 0adb 00       		.byte	0
 2122 0adc 30       		.uleb128 0x30
 2123 0add 41050000 		.4byte	0x541
 2124 0ae1 A2000000 		.4byte	.LBB226
 2125 0ae5 08020000 		.4byte	.Ldebug_ranges0+0x208
 2126 0ae9 04       		.byte	0x4
 2127 0aea 2F       		.byte	0x2f
 2128 0aeb 0B0B0000 		.4byte	0xb0b
 2129 0aef 26       		.uleb128 0x26
 2130 0af0 4F050000 		.4byte	0x54f
 2131 0af4 FA090000 		.4byte	.LLST55
 2132 0af8 26       		.uleb128 0x26
 2133 0af9 63050000 		.4byte	0x563
 2134 0afd 120A0000 		.4byte	.LLST56
 2135 0b01 26       		.uleb128 0x26
 2136 0b02 58050000 		.4byte	0x558
 2137 0b06 260A0000 		.4byte	.LLST57
 2138 0b0a 00       		.byte	0
 2139 0b0b 34       		.uleb128 0x34
 2140 0b0c AC000000 		.4byte	.LVL62
 2141 0b10 FE050000 		.4byte	0x5fe
 2142 0b14 35       		.uleb128 0x35
 2143 0b15 01       		.uleb128 0x1
 2144 0b16 50       		.byte	0x50
 2145 0b17 02       		.uleb128 0x2
 2146 0b18 74       		.byte	0x74
 2147 0b19 00       		.sleb128 0
 2148 0b1a 35       		.uleb128 0x35
 2149 0b1b 02       		.uleb128 0x2
 2150 0b1c 90       		.byte	0x90
 2151 0b1d 41       		.uleb128 0x41
 2152 0b1e 03       		.uleb128 0x3
 2153 0b1f F5       		.byte	0xf5
 2154 0b20 52       		.uleb128 0x52
 2155 0b21 25       		.uleb128 0x25
 2156 0b22 00       		.byte	0
 2157 0b23 00       		.byte	0
 2158 0b24 00       		.byte	0
 2159 0b25 08       		.uleb128 0x8
 2160 0b26 F5010000 		.4byte	0x1f5
 2161 0b2a 36       		.uleb128 0x36
 2162 0b2b 04       		.byte	0x4
ARM GAS  C:\msys64\tmp\cc8rWMSQ.s 			page 39


 2163 0b2c 8C020000 		.4byte	0x28c
 2164 0b30 08       		.uleb128 0x8
 2165 0b31 2A0B0000 		.4byte	0xb2a
 2166 0b35 37       		.uleb128 0x37
 2167 0b36 29030000 		.4byte	.LASF108
 2168 0b3a 04       		.byte	0x4
 2169 0b3b 43       		.byte	0x43
 2170 0b3c 01       		.byte	0x1
 2171 0b3d 4D0B0000 		.4byte	0xb4d
 2172 0b41 19       		.uleb128 0x19
 2173 0b42 00000000 		.4byte	.LASF54
 2174 0b46 04       		.byte	0x4
 2175 0b47 43       		.byte	0x43
 2176 0b48 250B0000 		.4byte	0xb25
 2177 0b4c 00       		.byte	0
 2178 0b4d 38       		.uleb128 0x38
 2179 0b4e 350B0000 		.4byte	0xb35
 2180 0b52 1A010000 		.4byte	.LFB253
 2181 0b56 02000000 		.4byte	.LFE253-.LFB253
 2182 0b5a 01       		.uleb128 0x1
 2183 0b5b 9C       		.byte	0x9c
 2184 0b5c 680B0000 		.4byte	0xb68
 2185 0b60 39       		.uleb128 0x39
 2186 0b61 410B0000 		.4byte	0xb41
 2187 0b65 01       		.uleb128 0x1
 2188 0b66 50       		.byte	0x50
 2189 0b67 00       		.byte	0
 2190 0b68 2C       		.uleb128 0x2c
 2191 0b69 07000000 		.4byte	.LASF84
 2192 0b6d 04       		.byte	0x4
 2193 0b6e 48       		.byte	0x48
 2194 0b6f 1C010000 		.4byte	.LFB254
 2195 0b73 B4000000 		.4byte	.LFE254-.LFB254
 2196 0b77 01       		.uleb128 0x1
 2197 0b78 9C       		.byte	0x9c
 2198 0b79 B70B0000 		.4byte	0xbb7
 2199 0b7d 2D       		.uleb128 0x2d
 2200 0b7e 7B020000 		.4byte	.LASF85
 2201 0b82 04       		.byte	0x4
 2202 0b83 48       		.byte	0x48
 2203 0b84 A9000000 		.4byte	0xa9
 2204 0b88 01       		.uleb128 0x1
 2205 0b89 50       		.byte	0x50
 2206 0b8a 2D       		.uleb128 0x2d
 2207 0b8b C6020000 		.4byte	.LASF86
 2208 0b8f 04       		.byte	0x4
 2209 0b90 48       		.byte	0x48
 2210 0b91 A9000000 		.4byte	0xa9
 2211 0b95 01       		.uleb128 0x1
 2212 0b96 51       		.byte	0x51
 2213 0b97 21       		.uleb128 0x21
 2214 0b98 7000     		.ascii	"p\000"
 2215 0b9a 04       		.byte	0x4
 2216 0b9b 4A       		.byte	0x4a
 2217 0b9c BD0B0000 		.4byte	0xbbd
 2218 0ba0 06       		.uleb128 0x6
 2219 0ba1 03       		.byte	0x3
ARM GAS  C:\msys64\tmp\cc8rWMSQ.s 			page 40


 2220 0ba2 0C000000 		.4byte	_ZL6mvps1D+12
 2221 0ba6 9F       		.byte	0x9f
 2222 0ba7 24       		.uleb128 0x24
 2223 0ba8 5F020000 		.4byte	.LASF87
 2224 0bac 04       		.byte	0x4
 2225 0bad 4C       		.byte	0x4c
 2226 0bae 99030000 		.4byte	0x399
 2227 0bb2 3E0A0000 		.4byte	.LLST58
 2228 0bb6 00       		.byte	0
 2229 0bb7 36       		.uleb128 0x36
 2230 0bb8 04       		.byte	0x4
 2231 0bb9 0C020000 		.4byte	0x20c
 2232 0bbd 08       		.uleb128 0x8
 2233 0bbe B70B0000 		.4byte	0xbb7
 2234 0bc2 1B       		.uleb128 0x1b
 2235 0bc3 ED020000 		.4byte	0x2ed
 2236 0bc7 02       		.byte	0x2
 2237 0bc8 D00B0000 		.4byte	0xbd0
 2238 0bcc DA0B0000 		.4byte	0xbda
 2239 0bd0 1C       		.uleb128 0x1c
 2240 0bd1 3C040000 		.4byte	.LASF71
 2241 0bd5 6E050000 		.4byte	0x56e
 2242 0bd9 00       		.byte	0
 2243 0bda 1B       		.uleb128 0x1b
 2244 0bdb 72020000 		.4byte	0x272
 2245 0bdf 02       		.byte	0x2
 2246 0be0 E80B0000 		.4byte	0xbe8
 2247 0be4 F20B0000 		.4byte	0xbf2
 2248 0be8 1C       		.uleb128 0x1c
 2249 0be9 3C040000 		.4byte	.LASF71
 2250 0bed F20B0000 		.4byte	0xbf2
 2251 0bf1 00       		.byte	0
 2252 0bf2 08       		.uleb128 0x8
 2253 0bf3 55030000 		.4byte	0x355
 2254 0bf7 3A       		.uleb128 0x3a
 2255 0bf8 E4030000 		.4byte	.LASF109
 2256 0bfc 00000000 		.4byte	.LFB256
 2257 0c00 24000000 		.4byte	.LFE256-.LFB256
 2258 0c04 01       		.uleb128 0x1
 2259 0c05 9C       		.byte	0x9c
 2260 0c06 5F0C0000 		.4byte	0xc5f
 2261 0c0a 25       		.uleb128 0x25
 2262 0c0b DD050000 		.4byte	0x5dd
 2263 0c0f 00000000 		.4byte	.LBB262
 2264 0c13 24000000 		.4byte	.LBE262-.LBB262
 2265 0c17 04       		.byte	0x4
 2266 0c18 78       		.byte	0x78
 2267 0c19 26       		.uleb128 0x26
 2268 0c1a F2050000 		.4byte	0x5f2
 2269 0c1e 820B0000 		.4byte	.LLST59
 2270 0c22 26       		.uleb128 0x26
 2271 0c23 E7050000 		.4byte	0x5e7
 2272 0c27 980B0000 		.4byte	.LLST60
 2273 0c2b 25       		.uleb128 0x25
 2274 0c2c C20B0000 		.4byte	0xbc2
 2275 0c30 00000000 		.4byte	.LBB264
 2276 0c34 24000000 		.4byte	.LBE264-.LBB264
ARM GAS  C:\msys64\tmp\cc8rWMSQ.s 			page 41


 2277 0c38 04       		.byte	0x4
 2278 0c39 0C       		.byte	0xc
 2279 0c3a 26       		.uleb128 0x26
 2280 0c3b D00B0000 		.4byte	0xbd0
 2281 0c3f AC0B0000 		.4byte	.LLST61
 2282 0c43 25       		.uleb128 0x25
 2283 0c44 0A050000 		.4byte	0x50a
 2284 0c48 00000000 		.4byte	.LBB266
 2285 0c4c 0A000000 		.4byte	.LBE266-.LBB266
 2286 0c50 01       		.byte	0x1
 2287 0c51 33       		.byte	0x33
 2288 0c52 26       		.uleb128 0x26
 2289 0c53 18050000 		.4byte	0x518
 2290 0c57 C40B0000 		.4byte	.LLST62
 2291 0c5b 00       		.byte	0
 2292 0c5c 00       		.byte	0
 2293 0c5d 00       		.byte	0
 2294 0c5e 00       		.byte	0
 2295 0c5f 3B       		.uleb128 0x3b
 2296 0c60 0D070000 		.4byte	.LASF88
 2297 0c64 02       		.byte	0x2
 2298 0c65 3F       		.byte	0x3f
 2299 0c66 1D040000 		.4byte	0x41d
 2300 0c6a 3B       		.uleb128 0x3b
 2301 0c6b AC050000 		.4byte	.LASF89
 2302 0c6f 02       		.byte	0x2
 2303 0c70 44       		.byte	0x44
 2304 0c71 1D040000 		.4byte	0x41d
 2305 0c75 0D       		.uleb128 0xd
 2306 0c76 99030000 		.4byte	0x399
 2307 0c7a 850C0000 		.4byte	0xc85
 2308 0c7e 0E       		.uleb128 0xe
 2309 0c7f D6000000 		.4byte	0xd6
 2310 0c83 97       		.byte	0x97
 2311 0c84 00       		.byte	0
 2312 0c85 3B       		.uleb128 0x3b
 2313 0c86 64020000 		.4byte	.LASF90
 2314 0c8a 02       		.byte	0x2
 2315 0c8b 61       		.byte	0x61
 2316 0c8c 900C0000 		.4byte	0xc90
 2317 0c90 08       		.uleb128 0x8
 2318 0c91 750C0000 		.4byte	0xc75
 2319 0c95 0D       		.uleb128 0xd
 2320 0c96 99030000 		.4byte	0x399
 2321 0c9a A50C0000 		.4byte	0xca5
 2322 0c9e 0E       		.uleb128 0xe
 2323 0c9f D6000000 		.4byte	0xd6
 2324 0ca3 80       		.byte	0x80
 2325 0ca4 00       		.byte	0
 2326 0ca5 3B       		.uleb128 0x3b
 2327 0ca6 E9050000 		.4byte	.LASF91
 2328 0caa 02       		.byte	0x2
 2329 0cab 8E       		.byte	0x8e
 2330 0cac B00C0000 		.4byte	0xcb0
 2331 0cb0 08       		.uleb128 0x8
 2332 0cb1 950C0000 		.4byte	0xc95
 2333 0cb5 0D       		.uleb128 0xd
ARM GAS  C:\msys64\tmp\cc8rWMSQ.s 			page 42


 2334 0cb6 99030000 		.4byte	0x399
 2335 0cba C60C0000 		.4byte	0xcc6
 2336 0cbe 3C       		.uleb128 0x3c
 2337 0cbf D6000000 		.4byte	0xd6
 2338 0cc3 8603     		.2byte	0x386
 2339 0cc5 00       		.byte	0
 2340 0cc6 3B       		.uleb128 0x3b
 2341 0cc7 FE030000 		.4byte	.LASF92
 2342 0ccb 02       		.byte	0x2
 2343 0ccc C0       		.byte	0xc0
 2344 0ccd D10C0000 		.4byte	0xcd1
 2345 0cd1 08       		.uleb128 0x8
 2346 0cd2 B50C0000 		.4byte	0xcb5
 2347 0cd6 3D       		.uleb128 0x3d
 2348 0cd7 1A050000 		.4byte	.LASF93
 2349 0cdb 02       		.byte	0x2
 2350 0cdc 3201     		.2byte	0x132
 2351 0cde E20C0000 		.4byte	0xce2
 2352 0ce2 08       		.uleb128 0x8
 2353 0ce3 B50C0000 		.4byte	0xcb5
 2354 0ce7 3D       		.uleb128 0x3d
 2355 0ce8 13000000 		.4byte	.LASF94
 2356 0cec 02       		.byte	0x2
 2357 0ced A501     		.2byte	0x1a5
 2358 0cef F30C0000 		.4byte	0xcf3
 2359 0cf3 08       		.uleb128 0x8
 2360 0cf4 B50C0000 		.4byte	0xcb5
 2361 0cf8 0D       		.uleb128 0xd
 2362 0cf9 99030000 		.4byte	0x399
 2363 0cfd 090D0000 		.4byte	0xd09
 2364 0d01 3C       		.uleb128 0x3c
 2365 0d02 D6000000 		.4byte	0xd6
 2366 0d06 0001     		.2byte	0x100
 2367 0d08 00       		.byte	0
 2368 0d09 3D       		.uleb128 0x3d
 2369 0d0a 8A030000 		.4byte	.LASF95
 2370 0d0e 02       		.byte	0x2
 2371 0d0f 4602     		.2byte	0x246
 2372 0d11 150D0000 		.4byte	0xd15
 2373 0d15 08       		.uleb128 0x8
 2374 0d16 F80C0000 		.4byte	0xcf8
 2375 0d1a 3D       		.uleb128 0x3d
 2376 0d1b 3C020000 		.4byte	.LASF96
 2377 0d1f 02       		.byte	0x2
 2378 0d20 5D02     		.2byte	0x25d
 2379 0d22 260D0000 		.4byte	0xd26
 2380 0d26 08       		.uleb128 0x8
 2381 0d27 F80C0000 		.4byte	0xcf8
 2382 0d2b 3D       		.uleb128 0x3d
 2383 0d2c FB040000 		.4byte	.LASF97
 2384 0d30 02       		.byte	0x2
 2385 0d31 7502     		.2byte	0x275
 2386 0d33 370D0000 		.4byte	0xd37
 2387 0d37 08       		.uleb128 0x8
 2388 0d38 F80C0000 		.4byte	0xcf8
 2389 0d3c 3D       		.uleb128 0x3d
 2390 0d3d 0B050000 		.4byte	.LASF98
ARM GAS  C:\msys64\tmp\cc8rWMSQ.s 			page 43


 2391 0d41 02       		.byte	0x2
 2392 0d42 A402     		.2byte	0x2a4
 2393 0d44 480D0000 		.4byte	0xd48
 2394 0d48 08       		.uleb128 0x8
 2395 0d49 950C0000 		.4byte	0xc95
 2396 0d4d 3D       		.uleb128 0x3d
 2397 0d4e 3A030000 		.4byte	.LASF99
 2398 0d52 02       		.byte	0x2
 2399 0d53 B902     		.2byte	0x2b9
 2400 0d55 590D0000 		.4byte	0xd59
 2401 0d59 08       		.uleb128 0x8
 2402 0d5a 950C0000 		.4byte	0xc95
 2403 0d5e 3D       		.uleb128 0x3d
 2404 0d5f 45010000 		.4byte	.LASF100
 2405 0d63 02       		.byte	0x2
 2406 0d64 D602     		.2byte	0x2d6
 2407 0d66 6A0D0000 		.4byte	0xd6a
 2408 0d6a 08       		.uleb128 0x8
 2409 0d6b 950C0000 		.4byte	0xc95
 2410 0d6f 3E       		.uleb128 0x3e
 2411 0d70 8C060000 		.4byte	.LASF101
 2412 0d74 04       		.byte	0x4
 2413 0d75 0C       		.byte	0xc
 2414 0d76 00020000 		.4byte	0x200
 2415 0d7a 05       		.uleb128 0x5
 2416 0d7b 03       		.byte	0x3
 2417 0d7c 00000000 		.4byte	_ZL6mvps1D
 2418 0d80 00       		.byte	0
 2419              		.section	.debug_abbrev,"",%progbits
 2420              	.Ldebug_abbrev0:
 2421 0000 01       		.uleb128 0x1
 2422 0001 11       		.uleb128 0x11
 2423 0002 01       		.byte	0x1
 2424 0003 25       		.uleb128 0x25
 2425 0004 0E       		.uleb128 0xe
 2426 0005 13       		.uleb128 0x13
 2427 0006 0B       		.uleb128 0xb
 2428 0007 03       		.uleb128 0x3
 2429 0008 0E       		.uleb128 0xe
 2430 0009 1B       		.uleb128 0x1b
 2431 000a 0E       		.uleb128 0xe
 2432 000b 55       		.uleb128 0x55
 2433 000c 17       		.uleb128 0x17
 2434 000d 11       		.uleb128 0x11
 2435 000e 01       		.uleb128 0x1
 2436 000f 10       		.uleb128 0x10
 2437 0010 17       		.uleb128 0x17
 2438 0011 00       		.byte	0
 2439 0012 00       		.byte	0
 2440 0013 02       		.uleb128 0x2
 2441 0014 24       		.uleb128 0x24
 2442 0015 00       		.byte	0
 2443 0016 0B       		.uleb128 0xb
 2444 0017 0B       		.uleb128 0xb
 2445 0018 3E       		.uleb128 0x3e
 2446 0019 0B       		.uleb128 0xb
 2447 001a 03       		.uleb128 0x3
ARM GAS  C:\msys64\tmp\cc8rWMSQ.s 			page 44


 2448 001b 0E       		.uleb128 0xe
 2449 001c 00       		.byte	0
 2450 001d 00       		.byte	0
 2451 001e 03       		.uleb128 0x3
 2452 001f 24       		.uleb128 0x24
 2453 0020 00       		.byte	0
 2454 0021 0B       		.uleb128 0xb
 2455 0022 0B       		.uleb128 0xb
 2456 0023 3E       		.uleb128 0x3e
 2457 0024 0B       		.uleb128 0xb
 2458 0025 03       		.uleb128 0x3
 2459 0026 08       		.uleb128 0x8
 2460 0027 00       		.byte	0
 2461 0028 00       		.byte	0
 2462 0029 04       		.uleb128 0x4
 2463 002a 16       		.uleb128 0x16
 2464 002b 00       		.byte	0
 2465 002c 03       		.uleb128 0x3
 2466 002d 0E       		.uleb128 0xe
 2467 002e 3A       		.uleb128 0x3a
 2468 002f 0B       		.uleb128 0xb
 2469 0030 3B       		.uleb128 0x3b
 2470 0031 0B       		.uleb128 0xb
 2471 0032 49       		.uleb128 0x49
 2472 0033 13       		.uleb128 0x13
 2473 0034 00       		.byte	0
 2474 0035 00       		.byte	0
 2475 0036 05       		.uleb128 0x5
 2476 0037 3B       		.uleb128 0x3b
 2477 0038 00       		.byte	0
 2478 0039 03       		.uleb128 0x3
 2479 003a 0E       		.uleb128 0xe
 2480 003b 00       		.byte	0
 2481 003c 00       		.byte	0
 2482 003d 06       		.uleb128 0x6
 2483 003e 16       		.uleb128 0x16
 2484 003f 00       		.byte	0
 2485 0040 03       		.uleb128 0x3
 2486 0041 0E       		.uleb128 0xe
 2487 0042 3A       		.uleb128 0x3a
 2488 0043 0B       		.uleb128 0xb
 2489 0044 3B       		.uleb128 0x3b
 2490 0045 05       		.uleb128 0x5
 2491 0046 49       		.uleb128 0x49
 2492 0047 13       		.uleb128 0x13
 2493 0048 00       		.byte	0
 2494 0049 00       		.byte	0
 2495 004a 07       		.uleb128 0x7
 2496 004b 0F       		.uleb128 0xf
 2497 004c 00       		.byte	0
 2498 004d 0B       		.uleb128 0xb
 2499 004e 0B       		.uleb128 0xb
 2500 004f 49       		.uleb128 0x49
 2501 0050 13       		.uleb128 0x13
 2502 0051 00       		.byte	0
 2503 0052 00       		.byte	0
 2504 0053 08       		.uleb128 0x8
ARM GAS  C:\msys64\tmp\cc8rWMSQ.s 			page 45


 2505 0054 26       		.uleb128 0x26
 2506 0055 00       		.byte	0
 2507 0056 49       		.uleb128 0x49
 2508 0057 13       		.uleb128 0x13
 2509 0058 00       		.byte	0
 2510 0059 00       		.byte	0
 2511 005a 09       		.uleb128 0x9
 2512 005b 04       		.uleb128 0x4
 2513 005c 01       		.byte	0x1
 2514 005d 0B       		.uleb128 0xb
 2515 005e 0B       		.uleb128 0xb
 2516 005f 49       		.uleb128 0x49
 2517 0060 13       		.uleb128 0x13
 2518 0061 3A       		.uleb128 0x3a
 2519 0062 0B       		.uleb128 0xb
 2520 0063 3B       		.uleb128 0x3b
 2521 0064 0B       		.uleb128 0xb
 2522 0065 01       		.uleb128 0x1
 2523 0066 13       		.uleb128 0x13
 2524 0067 00       		.byte	0
 2525 0068 00       		.byte	0
 2526 0069 0A       		.uleb128 0xa
 2527 006a 28       		.uleb128 0x28
 2528 006b 00       		.byte	0
 2529 006c 03       		.uleb128 0x3
 2530 006d 0E       		.uleb128 0xe
 2531 006e 1C       		.uleb128 0x1c
 2532 006f 0B       		.uleb128 0xb
 2533 0070 00       		.byte	0
 2534 0071 00       		.byte	0
 2535 0072 0B       		.uleb128 0xb
 2536 0073 13       		.uleb128 0x13
 2537 0074 01       		.byte	0x1
 2538 0075 03       		.uleb128 0x3
 2539 0076 0E       		.uleb128 0xe
 2540 0077 0B       		.uleb128 0xb
 2541 0078 0B       		.uleb128 0xb
 2542 0079 3A       		.uleb128 0x3a
 2543 007a 0B       		.uleb128 0xb
 2544 007b 3B       		.uleb128 0x3b
 2545 007c 0B       		.uleb128 0xb
 2546 007d 01       		.uleb128 0x1
 2547 007e 13       		.uleb128 0x13
 2548 007f 00       		.byte	0
 2549 0080 00       		.byte	0
 2550 0081 0C       		.uleb128 0xc
 2551 0082 0D       		.uleb128 0xd
 2552 0083 00       		.byte	0
 2553 0084 03       		.uleb128 0x3
 2554 0085 0E       		.uleb128 0xe
 2555 0086 3A       		.uleb128 0x3a
 2556 0087 0B       		.uleb128 0xb
 2557 0088 3B       		.uleb128 0x3b
 2558 0089 0B       		.uleb128 0xb
 2559 008a 49       		.uleb128 0x49
 2560 008b 13       		.uleb128 0x13
 2561 008c 38       		.uleb128 0x38
ARM GAS  C:\msys64\tmp\cc8rWMSQ.s 			page 46


 2562 008d 0B       		.uleb128 0xb
 2563 008e 00       		.byte	0
 2564 008f 00       		.byte	0
 2565 0090 0D       		.uleb128 0xd
 2566 0091 01       		.uleb128 0x1
 2567 0092 01       		.byte	0x1
 2568 0093 49       		.uleb128 0x49
 2569 0094 13       		.uleb128 0x13
 2570 0095 01       		.uleb128 0x1
 2571 0096 13       		.uleb128 0x13
 2572 0097 00       		.byte	0
 2573 0098 00       		.byte	0
 2574 0099 0E       		.uleb128 0xe
 2575 009a 21       		.uleb128 0x21
 2576 009b 00       		.byte	0
 2577 009c 49       		.uleb128 0x49
 2578 009d 13       		.uleb128 0x13
 2579 009e 2F       		.uleb128 0x2f
 2580 009f 0B       		.uleb128 0xb
 2581 00a0 00       		.byte	0
 2582 00a1 00       		.byte	0
 2583 00a2 0F       		.uleb128 0xf
 2584 00a3 04       		.uleb128 0x4
 2585 00a4 01       		.byte	0x1
 2586 00a5 0B       		.uleb128 0xb
 2587 00a6 0B       		.uleb128 0xb
 2588 00a7 49       		.uleb128 0x49
 2589 00a8 13       		.uleb128 0x13
 2590 00a9 3A       		.uleb128 0x3a
 2591 00aa 0B       		.uleb128 0xb
 2592 00ab 3B       		.uleb128 0x3b
 2593 00ac 0B       		.uleb128 0xb
 2594 00ad 6E       		.uleb128 0x6e
 2595 00ae 0E       		.uleb128 0xe
 2596 00af 01       		.uleb128 0x1
 2597 00b0 13       		.uleb128 0x13
 2598 00b1 00       		.byte	0
 2599 00b2 00       		.byte	0
 2600 00b3 10       		.uleb128 0x10
 2601 00b4 0D       		.uleb128 0xd
 2602 00b5 00       		.byte	0
 2603 00b6 03       		.uleb128 0x3
 2604 00b7 08       		.uleb128 0x8
 2605 00b8 3A       		.uleb128 0x3a
 2606 00b9 0B       		.uleb128 0xb
 2607 00ba 3B       		.uleb128 0x3b
 2608 00bb 0B       		.uleb128 0xb
 2609 00bc 49       		.uleb128 0x49
 2610 00bd 13       		.uleb128 0x13
 2611 00be 38       		.uleb128 0x38
 2612 00bf 0B       		.uleb128 0xb
 2613 00c0 00       		.byte	0
 2614 00c1 00       		.byte	0
 2615 00c2 11       		.uleb128 0x11
 2616 00c3 2E       		.uleb128 0x2e
 2617 00c4 01       		.byte	0x1
 2618 00c5 3F       		.uleb128 0x3f
ARM GAS  C:\msys64\tmp\cc8rWMSQ.s 			page 47


 2619 00c6 19       		.uleb128 0x19
 2620 00c7 03       		.uleb128 0x3
 2621 00c8 0E       		.uleb128 0xe
 2622 00c9 3A       		.uleb128 0x3a
 2623 00ca 0B       		.uleb128 0xb
 2624 00cb 3B       		.uleb128 0x3b
 2625 00cc 0B       		.uleb128 0xb
 2626 00cd 6E       		.uleb128 0x6e
 2627 00ce 0E       		.uleb128 0xe
 2628 00cf 49       		.uleb128 0x49
 2629 00d0 13       		.uleb128 0x13
 2630 00d1 3C       		.uleb128 0x3c
 2631 00d2 19       		.uleb128 0x19
 2632 00d3 64       		.uleb128 0x64
 2633 00d4 13       		.uleb128 0x13
 2634 00d5 00       		.byte	0
 2635 00d6 00       		.byte	0
 2636 00d7 12       		.uleb128 0x12
 2637 00d8 05       		.uleb128 0x5
 2638 00d9 00       		.byte	0
 2639 00da 49       		.uleb128 0x49
 2640 00db 13       		.uleb128 0x13
 2641 00dc 34       		.uleb128 0x34
 2642 00dd 19       		.uleb128 0x19
 2643 00de 00       		.byte	0
 2644 00df 00       		.byte	0
 2645 00e0 13       		.uleb128 0x13
 2646 00e1 2E       		.uleb128 0x2e
 2647 00e2 01       		.byte	0x1
 2648 00e3 3F       		.uleb128 0x3f
 2649 00e4 19       		.uleb128 0x19
 2650 00e5 03       		.uleb128 0x3
 2651 00e6 0E       		.uleb128 0xe
 2652 00e7 3A       		.uleb128 0x3a
 2653 00e8 0B       		.uleb128 0xb
 2654 00e9 3B       		.uleb128 0x3b
 2655 00ea 0B       		.uleb128 0xb
 2656 00eb 6E       		.uleb128 0x6e
 2657 00ec 0E       		.uleb128 0xe
 2658 00ed 49       		.uleb128 0x49
 2659 00ee 13       		.uleb128 0x13
 2660 00ef 3C       		.uleb128 0x3c
 2661 00f0 19       		.uleb128 0x19
 2662 00f1 64       		.uleb128 0x64
 2663 00f2 13       		.uleb128 0x13
 2664 00f3 01       		.uleb128 0x1
 2665 00f4 13       		.uleb128 0x13
 2666 00f5 00       		.byte	0
 2667 00f6 00       		.byte	0
 2668 00f7 14       		.uleb128 0x14
 2669 00f8 05       		.uleb128 0x5
 2670 00f9 00       		.byte	0
 2671 00fa 49       		.uleb128 0x49
 2672 00fb 13       		.uleb128 0x13
 2673 00fc 00       		.byte	0
 2674 00fd 00       		.byte	0
 2675 00fe 15       		.uleb128 0x15
ARM GAS  C:\msys64\tmp\cc8rWMSQ.s 			page 48


 2676 00ff 2E       		.uleb128 0x2e
 2677 0100 01       		.byte	0x1
 2678 0101 03       		.uleb128 0x3
 2679 0102 0E       		.uleb128 0xe
 2680 0103 3A       		.uleb128 0x3a
 2681 0104 0B       		.uleb128 0xb
 2682 0105 3B       		.uleb128 0x3b
 2683 0106 0B       		.uleb128 0xb
 2684 0107 49       		.uleb128 0x49
 2685 0108 13       		.uleb128 0x13
 2686 0109 20       		.uleb128 0x20
 2687 010a 0B       		.uleb128 0xb
 2688 010b 01       		.uleb128 0x1
 2689 010c 13       		.uleb128 0x13
 2690 010d 00       		.byte	0
 2691 010e 00       		.byte	0
 2692 010f 16       		.uleb128 0x16
 2693 0110 05       		.uleb128 0x5
 2694 0111 00       		.byte	0
 2695 0112 03       		.uleb128 0x3
 2696 0113 08       		.uleb128 0x8
 2697 0114 3A       		.uleb128 0x3a
 2698 0115 0B       		.uleb128 0xb
 2699 0116 3B       		.uleb128 0x3b
 2700 0117 0B       		.uleb128 0xb
 2701 0118 49       		.uleb128 0x49
 2702 0119 13       		.uleb128 0x13
 2703 011a 00       		.byte	0
 2704 011b 00       		.byte	0
 2705 011c 17       		.uleb128 0x17
 2706 011d 2E       		.uleb128 0x2e
 2707 011e 01       		.byte	0x1
 2708 011f 03       		.uleb128 0x3
 2709 0120 0E       		.uleb128 0xe
 2710 0121 3A       		.uleb128 0x3a
 2711 0122 0B       		.uleb128 0xb
 2712 0123 3B       		.uleb128 0x3b
 2713 0124 05       		.uleb128 0x5
 2714 0125 49       		.uleb128 0x49
 2715 0126 13       		.uleb128 0x13
 2716 0127 20       		.uleb128 0x20
 2717 0128 0B       		.uleb128 0xb
 2718 0129 01       		.uleb128 0x1
 2719 012a 13       		.uleb128 0x13
 2720 012b 00       		.byte	0
 2721 012c 00       		.byte	0
 2722 012d 18       		.uleb128 0x18
 2723 012e 05       		.uleb128 0x5
 2724 012f 00       		.byte	0
 2725 0130 03       		.uleb128 0x3
 2726 0131 08       		.uleb128 0x8
 2727 0132 3A       		.uleb128 0x3a
 2728 0133 0B       		.uleb128 0xb
 2729 0134 3B       		.uleb128 0x3b
 2730 0135 05       		.uleb128 0x5
 2731 0136 49       		.uleb128 0x49
 2732 0137 13       		.uleb128 0x13
ARM GAS  C:\msys64\tmp\cc8rWMSQ.s 			page 49


 2733 0138 00       		.byte	0
 2734 0139 00       		.byte	0
 2735 013a 19       		.uleb128 0x19
 2736 013b 05       		.uleb128 0x5
 2737 013c 00       		.byte	0
 2738 013d 03       		.uleb128 0x3
 2739 013e 0E       		.uleb128 0xe
 2740 013f 3A       		.uleb128 0x3a
 2741 0140 0B       		.uleb128 0xb
 2742 0141 3B       		.uleb128 0x3b
 2743 0142 0B       		.uleb128 0xb
 2744 0143 49       		.uleb128 0x49
 2745 0144 13       		.uleb128 0x13
 2746 0145 00       		.byte	0
 2747 0146 00       		.byte	0
 2748 0147 1A       		.uleb128 0x1a
 2749 0148 34       		.uleb128 0x34
 2750 0149 00       		.byte	0
 2751 014a 03       		.uleb128 0x3
 2752 014b 08       		.uleb128 0x8
 2753 014c 3A       		.uleb128 0x3a
 2754 014d 0B       		.uleb128 0xb
 2755 014e 3B       		.uleb128 0x3b
 2756 014f 0B       		.uleb128 0xb
 2757 0150 49       		.uleb128 0x49
 2758 0151 13       		.uleb128 0x13
 2759 0152 00       		.byte	0
 2760 0153 00       		.byte	0
 2761 0154 1B       		.uleb128 0x1b
 2762 0155 2E       		.uleb128 0x2e
 2763 0156 01       		.byte	0x1
 2764 0157 47       		.uleb128 0x47
 2765 0158 13       		.uleb128 0x13
 2766 0159 20       		.uleb128 0x20
 2767 015a 0B       		.uleb128 0xb
 2768 015b 64       		.uleb128 0x64
 2769 015c 13       		.uleb128 0x13
 2770 015d 01       		.uleb128 0x1
 2771 015e 13       		.uleb128 0x13
 2772 015f 00       		.byte	0
 2773 0160 00       		.byte	0
 2774 0161 1C       		.uleb128 0x1c
 2775 0162 05       		.uleb128 0x5
 2776 0163 00       		.byte	0
 2777 0164 03       		.uleb128 0x3
 2778 0165 0E       		.uleb128 0xe
 2779 0166 49       		.uleb128 0x49
 2780 0167 13       		.uleb128 0x13
 2781 0168 34       		.uleb128 0x34
 2782 0169 19       		.uleb128 0x19
 2783 016a 00       		.byte	0
 2784 016b 00       		.byte	0
 2785 016c 1D       		.uleb128 0x1d
 2786 016d 2E       		.uleb128 0x2e
 2787 016e 01       		.byte	0x1
 2788 016f 03       		.uleb128 0x3
 2789 0170 0E       		.uleb128 0xe
ARM GAS  C:\msys64\tmp\cc8rWMSQ.s 			page 50


 2790 0171 34       		.uleb128 0x34
 2791 0172 19       		.uleb128 0x19
 2792 0173 20       		.uleb128 0x20
 2793 0174 0B       		.uleb128 0xb
 2794 0175 01       		.uleb128 0x1
 2795 0176 13       		.uleb128 0x13
 2796 0177 00       		.byte	0
 2797 0178 00       		.byte	0
 2798 0179 1E       		.uleb128 0x1e
 2799 017a 2E       		.uleb128 0x2e
 2800 017b 01       		.byte	0x1
 2801 017c 47       		.uleb128 0x47
 2802 017d 13       		.uleb128 0x13
 2803 017e 11       		.uleb128 0x11
 2804 017f 01       		.uleb128 0x1
 2805 0180 12       		.uleb128 0x12
 2806 0181 06       		.uleb128 0x6
 2807 0182 40       		.uleb128 0x40
 2808 0183 18       		.uleb128 0x18
 2809 0184 64       		.uleb128 0x64
 2810 0185 13       		.uleb128 0x13
 2811 0186 9742     		.uleb128 0x2117
 2812 0188 19       		.uleb128 0x19
 2813 0189 01       		.uleb128 0x1
 2814 018a 13       		.uleb128 0x13
 2815 018b 00       		.byte	0
 2816 018c 00       		.byte	0
 2817 018d 1F       		.uleb128 0x1f
 2818 018e 05       		.uleb128 0x5
 2819 018f 00       		.byte	0
 2820 0190 03       		.uleb128 0x3
 2821 0191 0E       		.uleb128 0xe
 2822 0192 49       		.uleb128 0x49
 2823 0193 13       		.uleb128 0x13
 2824 0194 34       		.uleb128 0x34
 2825 0195 19       		.uleb128 0x19
 2826 0196 02       		.uleb128 0x2
 2827 0197 17       		.uleb128 0x17
 2828 0198 00       		.byte	0
 2829 0199 00       		.byte	0
 2830 019a 20       		.uleb128 0x20
 2831 019b 05       		.uleb128 0x5
 2832 019c 00       		.byte	0
 2833 019d 03       		.uleb128 0x3
 2834 019e 08       		.uleb128 0x8
 2835 019f 3A       		.uleb128 0x3a
 2836 01a0 0B       		.uleb128 0xb
 2837 01a1 3B       		.uleb128 0x3b
 2838 01a2 0B       		.uleb128 0xb
 2839 01a3 49       		.uleb128 0x49
 2840 01a4 13       		.uleb128 0x13
 2841 01a5 02       		.uleb128 0x2
 2842 01a6 17       		.uleb128 0x17
 2843 01a7 00       		.byte	0
 2844 01a8 00       		.byte	0
 2845 01a9 21       		.uleb128 0x21
 2846 01aa 34       		.uleb128 0x34
ARM GAS  C:\msys64\tmp\cc8rWMSQ.s 			page 51


 2847 01ab 00       		.byte	0
 2848 01ac 03       		.uleb128 0x3
 2849 01ad 08       		.uleb128 0x8
 2850 01ae 3A       		.uleb128 0x3a
 2851 01af 0B       		.uleb128 0xb
 2852 01b0 3B       		.uleb128 0x3b
 2853 01b1 0B       		.uleb128 0xb
 2854 01b2 49       		.uleb128 0x49
 2855 01b3 13       		.uleb128 0x13
 2856 01b4 02       		.uleb128 0x2
 2857 01b5 18       		.uleb128 0x18
 2858 01b6 00       		.byte	0
 2859 01b7 00       		.byte	0
 2860 01b8 22       		.uleb128 0x22
 2861 01b9 34       		.uleb128 0x34
 2862 01ba 00       		.byte	0
 2863 01bb 03       		.uleb128 0x3
 2864 01bc 08       		.uleb128 0x8
 2865 01bd 3A       		.uleb128 0x3a
 2866 01be 0B       		.uleb128 0xb
 2867 01bf 3B       		.uleb128 0x3b
 2868 01c0 0B       		.uleb128 0xb
 2869 01c1 49       		.uleb128 0x49
 2870 01c2 13       		.uleb128 0x13
 2871 01c3 02       		.uleb128 0x2
 2872 01c4 17       		.uleb128 0x17
 2873 01c5 00       		.byte	0
 2874 01c6 00       		.byte	0
 2875 01c7 23       		.uleb128 0x23
 2876 01c8 0B       		.uleb128 0xb
 2877 01c9 01       		.byte	0x1
 2878 01ca 11       		.uleb128 0x11
 2879 01cb 01       		.uleb128 0x1
 2880 01cc 12       		.uleb128 0x12
 2881 01cd 06       		.uleb128 0x6
 2882 01ce 01       		.uleb128 0x1
 2883 01cf 13       		.uleb128 0x13
 2884 01d0 00       		.byte	0
 2885 01d1 00       		.byte	0
 2886 01d2 24       		.uleb128 0x24
 2887 01d3 34       		.uleb128 0x34
 2888 01d4 00       		.byte	0
 2889 01d5 03       		.uleb128 0x3
 2890 01d6 0E       		.uleb128 0xe
 2891 01d7 3A       		.uleb128 0x3a
 2892 01d8 0B       		.uleb128 0xb
 2893 01d9 3B       		.uleb128 0x3b
 2894 01da 0B       		.uleb128 0xb
 2895 01db 49       		.uleb128 0x49
 2896 01dc 13       		.uleb128 0x13
 2897 01dd 02       		.uleb128 0x2
 2898 01de 17       		.uleb128 0x17
 2899 01df 00       		.byte	0
 2900 01e0 00       		.byte	0
 2901 01e1 25       		.uleb128 0x25
 2902 01e2 1D       		.uleb128 0x1d
 2903 01e3 01       		.byte	0x1
ARM GAS  C:\msys64\tmp\cc8rWMSQ.s 			page 52


 2904 01e4 31       		.uleb128 0x31
 2905 01e5 13       		.uleb128 0x13
 2906 01e6 11       		.uleb128 0x11
 2907 01e7 01       		.uleb128 0x1
 2908 01e8 12       		.uleb128 0x12
 2909 01e9 06       		.uleb128 0x6
 2910 01ea 58       		.uleb128 0x58
 2911 01eb 0B       		.uleb128 0xb
 2912 01ec 59       		.uleb128 0x59
 2913 01ed 0B       		.uleb128 0xb
 2914 01ee 00       		.byte	0
 2915 01ef 00       		.byte	0
 2916 01f0 26       		.uleb128 0x26
 2917 01f1 05       		.uleb128 0x5
 2918 01f2 00       		.byte	0
 2919 01f3 31       		.uleb128 0x31
 2920 01f4 13       		.uleb128 0x13
 2921 01f5 02       		.uleb128 0x2
 2922 01f6 17       		.uleb128 0x17
 2923 01f7 00       		.byte	0
 2924 01f8 00       		.byte	0
 2925 01f9 27       		.uleb128 0x27
 2926 01fa 1D       		.uleb128 0x1d
 2927 01fb 01       		.byte	0x1
 2928 01fc 31       		.uleb128 0x31
 2929 01fd 13       		.uleb128 0x13
 2930 01fe 52       		.uleb128 0x52
 2931 01ff 01       		.uleb128 0x1
 2932 0200 55       		.uleb128 0x55
 2933 0201 17       		.uleb128 0x17
 2934 0202 58       		.uleb128 0x58
 2935 0203 0B       		.uleb128 0xb
 2936 0204 59       		.uleb128 0x59
 2937 0205 0B       		.uleb128 0xb
 2938 0206 00       		.byte	0
 2939 0207 00       		.byte	0
 2940 0208 28       		.uleb128 0x28
 2941 0209 0B       		.uleb128 0xb
 2942 020a 01       		.byte	0x1
 2943 020b 55       		.uleb128 0x55
 2944 020c 17       		.uleb128 0x17
 2945 020d 00       		.byte	0
 2946 020e 00       		.byte	0
 2947 020f 29       		.uleb128 0x29
 2948 0210 34       		.uleb128 0x34
 2949 0211 00       		.byte	0
 2950 0212 31       		.uleb128 0x31
 2951 0213 13       		.uleb128 0x13
 2952 0214 02       		.uleb128 0x2
 2953 0215 17       		.uleb128 0x17
 2954 0216 00       		.byte	0
 2955 0217 00       		.byte	0
 2956 0218 2A       		.uleb128 0x2a
 2957 0219 34       		.uleb128 0x34
 2958 021a 00       		.byte	0
 2959 021b 31       		.uleb128 0x31
 2960 021c 13       		.uleb128 0x13
ARM GAS  C:\msys64\tmp\cc8rWMSQ.s 			page 53


 2961 021d 00       		.byte	0
 2962 021e 00       		.byte	0
 2963 021f 2B       		.uleb128 0x2b
 2964 0220 05       		.uleb128 0x5
 2965 0221 00       		.byte	0
 2966 0222 31       		.uleb128 0x31
 2967 0223 13       		.uleb128 0x13
 2968 0224 00       		.byte	0
 2969 0225 00       		.byte	0
 2970 0226 2C       		.uleb128 0x2c
 2971 0227 2E       		.uleb128 0x2e
 2972 0228 01       		.byte	0x1
 2973 0229 3F       		.uleb128 0x3f
 2974 022a 19       		.uleb128 0x19
 2975 022b 03       		.uleb128 0x3
 2976 022c 0E       		.uleb128 0xe
 2977 022d 3A       		.uleb128 0x3a
 2978 022e 0B       		.uleb128 0xb
 2979 022f 3B       		.uleb128 0x3b
 2980 0230 0B       		.uleb128 0xb
 2981 0231 11       		.uleb128 0x11
 2982 0232 01       		.uleb128 0x1
 2983 0233 12       		.uleb128 0x12
 2984 0234 06       		.uleb128 0x6
 2985 0235 40       		.uleb128 0x40
 2986 0236 18       		.uleb128 0x18
 2987 0237 9742     		.uleb128 0x2117
 2988 0239 19       		.uleb128 0x19
 2989 023a 01       		.uleb128 0x1
 2990 023b 13       		.uleb128 0x13
 2991 023c 00       		.byte	0
 2992 023d 00       		.byte	0
 2993 023e 2D       		.uleb128 0x2d
 2994 023f 05       		.uleb128 0x5
 2995 0240 00       		.byte	0
 2996 0241 03       		.uleb128 0x3
 2997 0242 0E       		.uleb128 0xe
 2998 0243 3A       		.uleb128 0x3a
 2999 0244 0B       		.uleb128 0xb
 3000 0245 3B       		.uleb128 0x3b
 3001 0246 0B       		.uleb128 0xb
 3002 0247 49       		.uleb128 0x49
 3003 0248 13       		.uleb128 0x13
 3004 0249 02       		.uleb128 0x2
 3005 024a 18       		.uleb128 0x18
 3006 024b 00       		.byte	0
 3007 024c 00       		.byte	0
 3008 024d 2E       		.uleb128 0x2e
 3009 024e 05       		.uleb128 0x5
 3010 024f 00       		.byte	0
 3011 0250 03       		.uleb128 0x3
 3012 0251 08       		.uleb128 0x8
 3013 0252 3A       		.uleb128 0x3a
 3014 0253 0B       		.uleb128 0xb
 3015 0254 3B       		.uleb128 0x3b
 3016 0255 0B       		.uleb128 0xb
 3017 0256 49       		.uleb128 0x49
ARM GAS  C:\msys64\tmp\cc8rWMSQ.s 			page 54


 3018 0257 13       		.uleb128 0x13
 3019 0258 02       		.uleb128 0x2
 3020 0259 18       		.uleb128 0x18
 3021 025a 00       		.byte	0
 3022 025b 00       		.byte	0
 3023 025c 2F       		.uleb128 0x2f
 3024 025d 05       		.uleb128 0x5
 3025 025e 00       		.byte	0
 3026 025f 03       		.uleb128 0x3
 3027 0260 0E       		.uleb128 0xe
 3028 0261 3A       		.uleb128 0x3a
 3029 0262 0B       		.uleb128 0xb
 3030 0263 3B       		.uleb128 0x3b
 3031 0264 0B       		.uleb128 0xb
 3032 0265 49       		.uleb128 0x49
 3033 0266 13       		.uleb128 0x13
 3034 0267 02       		.uleb128 0x2
 3035 0268 17       		.uleb128 0x17
 3036 0269 00       		.byte	0
 3037 026a 00       		.byte	0
 3038 026b 30       		.uleb128 0x30
 3039 026c 1D       		.uleb128 0x1d
 3040 026d 01       		.byte	0x1
 3041 026e 31       		.uleb128 0x31
 3042 026f 13       		.uleb128 0x13
 3043 0270 52       		.uleb128 0x52
 3044 0271 01       		.uleb128 0x1
 3045 0272 55       		.uleb128 0x55
 3046 0273 17       		.uleb128 0x17
 3047 0274 58       		.uleb128 0x58
 3048 0275 0B       		.uleb128 0xb
 3049 0276 59       		.uleb128 0x59
 3050 0277 0B       		.uleb128 0xb
 3051 0278 01       		.uleb128 0x1
 3052 0279 13       		.uleb128 0x13
 3053 027a 00       		.byte	0
 3054 027b 00       		.byte	0
 3055 027c 31       		.uleb128 0x31
 3056 027d 1D       		.uleb128 0x1d
 3057 027e 01       		.byte	0x1
 3058 027f 31       		.uleb128 0x31
 3059 0280 13       		.uleb128 0x13
 3060 0281 52       		.uleb128 0x52
 3061 0282 01       		.uleb128 0x1
 3062 0283 55       		.uleb128 0x55
 3063 0284 17       		.uleb128 0x17
 3064 0285 58       		.uleb128 0x58
 3065 0286 0B       		.uleb128 0xb
 3066 0287 59       		.uleb128 0x59
 3067 0288 05       		.uleb128 0x5
 3068 0289 00       		.byte	0
 3069 028a 00       		.byte	0
 3070 028b 32       		.uleb128 0x32
 3071 028c 1D       		.uleb128 0x1d
 3072 028d 01       		.byte	0x1
 3073 028e 31       		.uleb128 0x31
 3074 028f 13       		.uleb128 0x13
ARM GAS  C:\msys64\tmp\cc8rWMSQ.s 			page 55


 3075 0290 52       		.uleb128 0x52
 3076 0291 01       		.uleb128 0x1
 3077 0292 55       		.uleb128 0x55
 3078 0293 17       		.uleb128 0x17
 3079 0294 58       		.uleb128 0x58
 3080 0295 0B       		.uleb128 0xb
 3081 0296 59       		.uleb128 0x59
 3082 0297 05       		.uleb128 0x5
 3083 0298 01       		.uleb128 0x1
 3084 0299 13       		.uleb128 0x13
 3085 029a 00       		.byte	0
 3086 029b 00       		.byte	0
 3087 029c 33       		.uleb128 0x33
 3088 029d 1D       		.uleb128 0x1d
 3089 029e 01       		.byte	0x1
 3090 029f 31       		.uleb128 0x31
 3091 02a0 13       		.uleb128 0x13
 3092 02a1 11       		.uleb128 0x11
 3093 02a2 01       		.uleb128 0x1
 3094 02a3 12       		.uleb128 0x12
 3095 02a4 06       		.uleb128 0x6
 3096 02a5 58       		.uleb128 0x58
 3097 02a6 0B       		.uleb128 0xb
 3098 02a7 59       		.uleb128 0x59
 3099 02a8 05       		.uleb128 0x5
 3100 02a9 00       		.byte	0
 3101 02aa 00       		.byte	0
 3102 02ab 34       		.uleb128 0x34
 3103 02ac 898201   		.uleb128 0x4109
 3104 02af 01       		.byte	0x1
 3105 02b0 11       		.uleb128 0x11
 3106 02b1 01       		.uleb128 0x1
 3107 02b2 31       		.uleb128 0x31
 3108 02b3 13       		.uleb128 0x13
 3109 02b4 00       		.byte	0
 3110 02b5 00       		.byte	0
 3111 02b6 35       		.uleb128 0x35
 3112 02b7 8A8201   		.uleb128 0x410a
 3113 02ba 00       		.byte	0
 3114 02bb 02       		.uleb128 0x2
 3115 02bc 18       		.uleb128 0x18
 3116 02bd 9142     		.uleb128 0x2111
 3117 02bf 18       		.uleb128 0x18
 3118 02c0 00       		.byte	0
 3119 02c1 00       		.byte	0
 3120 02c2 36       		.uleb128 0x36
 3121 02c3 10       		.uleb128 0x10
 3122 02c4 00       		.byte	0
 3123 02c5 0B       		.uleb128 0xb
 3124 02c6 0B       		.uleb128 0xb
 3125 02c7 49       		.uleb128 0x49
 3126 02c8 13       		.uleb128 0x13
 3127 02c9 00       		.byte	0
 3128 02ca 00       		.byte	0
 3129 02cb 37       		.uleb128 0x37
 3130 02cc 2E       		.uleb128 0x2e
 3131 02cd 01       		.byte	0x1
ARM GAS  C:\msys64\tmp\cc8rWMSQ.s 			page 56


 3132 02ce 3F       		.uleb128 0x3f
 3133 02cf 19       		.uleb128 0x19
 3134 02d0 03       		.uleb128 0x3
 3135 02d1 0E       		.uleb128 0xe
 3136 02d2 3A       		.uleb128 0x3a
 3137 02d3 0B       		.uleb128 0xb
 3138 02d4 3B       		.uleb128 0x3b
 3139 02d5 0B       		.uleb128 0xb
 3140 02d6 20       		.uleb128 0x20
 3141 02d7 0B       		.uleb128 0xb
 3142 02d8 01       		.uleb128 0x1
 3143 02d9 13       		.uleb128 0x13
 3144 02da 00       		.byte	0
 3145 02db 00       		.byte	0
 3146 02dc 38       		.uleb128 0x38
 3147 02dd 2E       		.uleb128 0x2e
 3148 02de 01       		.byte	0x1
 3149 02df 31       		.uleb128 0x31
 3150 02e0 13       		.uleb128 0x13
 3151 02e1 11       		.uleb128 0x11
 3152 02e2 01       		.uleb128 0x1
 3153 02e3 12       		.uleb128 0x12
 3154 02e4 06       		.uleb128 0x6
 3155 02e5 40       		.uleb128 0x40
 3156 02e6 18       		.uleb128 0x18
 3157 02e7 9742     		.uleb128 0x2117
 3158 02e9 19       		.uleb128 0x19
 3159 02ea 01       		.uleb128 0x1
 3160 02eb 13       		.uleb128 0x13
 3161 02ec 00       		.byte	0
 3162 02ed 00       		.byte	0
 3163 02ee 39       		.uleb128 0x39
 3164 02ef 05       		.uleb128 0x5
 3165 02f0 00       		.byte	0
 3166 02f1 31       		.uleb128 0x31
 3167 02f2 13       		.uleb128 0x13
 3168 02f3 02       		.uleb128 0x2
 3169 02f4 18       		.uleb128 0x18
 3170 02f5 00       		.byte	0
 3171 02f6 00       		.byte	0
 3172 02f7 3A       		.uleb128 0x3a
 3173 02f8 2E       		.uleb128 0x2e
 3174 02f9 01       		.byte	0x1
 3175 02fa 03       		.uleb128 0x3
 3176 02fb 0E       		.uleb128 0xe
 3177 02fc 34       		.uleb128 0x34
 3178 02fd 19       		.uleb128 0x19
 3179 02fe 11       		.uleb128 0x11
 3180 02ff 01       		.uleb128 0x1
 3181 0300 12       		.uleb128 0x12
 3182 0301 06       		.uleb128 0x6
 3183 0302 40       		.uleb128 0x40
 3184 0303 18       		.uleb128 0x18
 3185 0304 9742     		.uleb128 0x2117
 3186 0306 19       		.uleb128 0x19
 3187 0307 01       		.uleb128 0x1
 3188 0308 13       		.uleb128 0x13
ARM GAS  C:\msys64\tmp\cc8rWMSQ.s 			page 57


 3189 0309 00       		.byte	0
 3190 030a 00       		.byte	0
 3191 030b 3B       		.uleb128 0x3b
 3192 030c 34       		.uleb128 0x34
 3193 030d 00       		.byte	0
 3194 030e 03       		.uleb128 0x3
 3195 030f 0E       		.uleb128 0xe
 3196 0310 3A       		.uleb128 0x3a
 3197 0311 0B       		.uleb128 0xb
 3198 0312 3B       		.uleb128 0x3b
 3199 0313 0B       		.uleb128 0xb
 3200 0314 49       		.uleb128 0x49
 3201 0315 13       		.uleb128 0x13
 3202 0316 3F       		.uleb128 0x3f
 3203 0317 19       		.uleb128 0x19
 3204 0318 3C       		.uleb128 0x3c
 3205 0319 19       		.uleb128 0x19
 3206 031a 00       		.byte	0
 3207 031b 00       		.byte	0
 3208 031c 3C       		.uleb128 0x3c
 3209 031d 21       		.uleb128 0x21
 3210 031e 00       		.byte	0
 3211 031f 49       		.uleb128 0x49
 3212 0320 13       		.uleb128 0x13
 3213 0321 2F       		.uleb128 0x2f
 3214 0322 05       		.uleb128 0x5
 3215 0323 00       		.byte	0
 3216 0324 00       		.byte	0
 3217 0325 3D       		.uleb128 0x3d
 3218 0326 34       		.uleb128 0x34
 3219 0327 00       		.byte	0
 3220 0328 03       		.uleb128 0x3
 3221 0329 0E       		.uleb128 0xe
 3222 032a 3A       		.uleb128 0x3a
 3223 032b 0B       		.uleb128 0xb
 3224 032c 3B       		.uleb128 0x3b
 3225 032d 05       		.uleb128 0x5
 3226 032e 49       		.uleb128 0x49
 3227 032f 13       		.uleb128 0x13
 3228 0330 3F       		.uleb128 0x3f
 3229 0331 19       		.uleb128 0x19
 3230 0332 3C       		.uleb128 0x3c
 3231 0333 19       		.uleb128 0x19
 3232 0334 00       		.byte	0
 3233 0335 00       		.byte	0
 3234 0336 3E       		.uleb128 0x3e
 3235 0337 34       		.uleb128 0x34
 3236 0338 00       		.byte	0
 3237 0339 03       		.uleb128 0x3
 3238 033a 0E       		.uleb128 0xe
 3239 033b 3A       		.uleb128 0x3a
 3240 033c 0B       		.uleb128 0xb
 3241 033d 3B       		.uleb128 0x3b
 3242 033e 0B       		.uleb128 0xb
 3243 033f 49       		.uleb128 0x49
 3244 0340 13       		.uleb128 0x13
 3245 0341 02       		.uleb128 0x2
ARM GAS  C:\msys64\tmp\cc8rWMSQ.s 			page 58


 3246 0342 18       		.uleb128 0x18
 3247 0343 00       		.byte	0
 3248 0344 00       		.byte	0
 3249 0345 00       		.byte	0
 3250              		.section	.debug_loc,"",%progbits
 3251              	.Ldebug_loc0:
 3252              	.LLST0:
 3253 0000 00000000 		.4byte	.LVL0
 3254 0004 E2000000 		.4byte	.LVL36
 3255 0008 0100     		.2byte	0x1
 3256 000a 50       		.byte	0x50
 3257 000b E2000000 		.4byte	.LVL36
 3258 000f 1C010000 		.4byte	.LFE248
 3259 0013 0400     		.2byte	0x4
 3260 0015 F3       		.byte	0xf3
 3261 0016 01       		.uleb128 0x1
 3262 0017 50       		.byte	0x50
 3263 0018 9F       		.byte	0x9f
 3264 0019 00000000 		.4byte	0
 3265 001d 00000000 		.4byte	0
 3266              	.LLST1:
 3267 0021 00000000 		.4byte	.LVL0
 3268 0025 5A000000 		.4byte	.LVL9
 3269 0029 0200     		.2byte	0x2
 3270 002b 90       		.byte	0x90
 3271 002c 40       		.uleb128 0x40
 3272 002d 5A000000 		.4byte	.LVL9
 3273 0031 70000000 		.4byte	.LVL15
 3274 0035 0600     		.2byte	0x6
 3275 0037 F3       		.byte	0xf3
 3276 0038 03       		.uleb128 0x3
 3277 0039 F5       		.byte	0xf5
 3278 003a 40       		.uleb128 0x40
 3279 003b 25       		.uleb128 0x25
 3280 003c 9F       		.byte	0x9f
 3281 003d 70000000 		.4byte	.LVL15
 3282 0041 86000000 		.4byte	.LVL19
 3283 0045 0200     		.2byte	0x2
 3284 0047 90       		.byte	0x90
 3285 0048 40       		.uleb128 0x40
 3286 0049 86000000 		.4byte	.LVL19
 3287 004d 9C000000 		.4byte	.LVL24
 3288 0051 0600     		.2byte	0x6
 3289 0053 F3       		.byte	0xf3
 3290 0054 03       		.uleb128 0x3
 3291 0055 F5       		.byte	0xf5
 3292 0056 40       		.uleb128 0x40
 3293 0057 25       		.uleb128 0x25
 3294 0058 9F       		.byte	0x9f
 3295 0059 9C000000 		.4byte	.LVL24
 3296 005d A4000000 		.4byte	.LVL26
 3297 0061 0200     		.2byte	0x2
 3298 0063 90       		.byte	0x90
 3299 0064 40       		.uleb128 0x40
 3300 0065 A4000000 		.4byte	.LVL26
 3301 0069 1C010000 		.4byte	.LFE248
 3302 006d 0600     		.2byte	0x6
ARM GAS  C:\msys64\tmp\cc8rWMSQ.s 			page 59


 3303 006f F3       		.byte	0xf3
 3304 0070 03       		.uleb128 0x3
 3305 0071 F5       		.byte	0xf5
 3306 0072 40       		.uleb128 0x40
 3307 0073 25       		.uleb128 0x25
 3308 0074 9F       		.byte	0x9f
 3309 0075 00000000 		.4byte	0
 3310 0079 00000000 		.4byte	0
 3311              	.LLST2:
 3312 007d 00000000 		.4byte	.LVL0
 3313 0081 5E000000 		.4byte	.LVL10
 3314 0085 0200     		.2byte	0x2
 3315 0087 90       		.byte	0x90
 3316 0088 41       		.uleb128 0x41
 3317 0089 5E000000 		.4byte	.LVL10
 3318 008d 70000000 		.4byte	.LVL15
 3319 0091 0600     		.2byte	0x6
 3320 0093 F3       		.byte	0xf3
 3321 0094 03       		.uleb128 0x3
 3322 0095 F5       		.byte	0xf5
 3323 0096 41       		.uleb128 0x41
 3324 0097 25       		.uleb128 0x25
 3325 0098 9F       		.byte	0x9f
 3326 0099 70000000 		.4byte	.LVL15
 3327 009d 74000000 		.4byte	.LVL16
 3328 00a1 0200     		.2byte	0x2
 3329 00a3 90       		.byte	0x90
 3330 00a4 41       		.uleb128 0x41
 3331 00a5 74000000 		.4byte	.LVL16
 3332 00a9 1C010000 		.4byte	.LFE248
 3333 00ad 0600     		.2byte	0x6
 3334 00af F3       		.byte	0xf3
 3335 00b0 03       		.uleb128 0x3
 3336 00b1 F5       		.byte	0xf5
 3337 00b2 41       		.uleb128 0x41
 3338 00b3 25       		.uleb128 0x25
 3339 00b4 9F       		.byte	0x9f
 3340 00b5 00000000 		.4byte	0
 3341 00b9 00000000 		.4byte	0
 3342              	.LLST3:
 3343 00bd 34000000 		.4byte	.LVL2
 3344 00c1 6A000000 		.4byte	.LVL13
 3345 00c5 0200     		.2byte	0x2
 3346 00c7 90       		.byte	0x90
 3347 00c8 4E       		.uleb128 0x4e
 3348 00c9 6A000000 		.4byte	.LVL13
 3349 00cd 70000000 		.4byte	.LVL15
 3350 00d1 0C00     		.2byte	0xc
 3351 00d3 70       		.byte	0x70
 3352 00d4 10       		.sleb128 16
 3353 00d5 F6       		.byte	0xf6
 3354 00d6 04       		.byte	0x4
 3355 00d7 25       		.uleb128 0x25
 3356 00d8 70       		.byte	0x70
 3357 00d9 20       		.sleb128 32
 3358 00da F6       		.byte	0xf6
 3359 00db 04       		.byte	0x4
ARM GAS  C:\msys64\tmp\cc8rWMSQ.s 			page 60


 3360 00dc 25       		.uleb128 0x25
 3361 00dd 1E       		.byte	0x1e
 3362 00de 9F       		.byte	0x9f
 3363 00df 70000000 		.4byte	.LVL15
 3364 00e3 8E000000 		.4byte	.LVL21
 3365 00e7 0200     		.2byte	0x2
 3366 00e9 90       		.byte	0x90
 3367 00ea 4E       		.uleb128 0x4e
 3368 00eb 8E000000 		.4byte	.LVL21
 3369 00ef 9C000000 		.4byte	.LVL24
 3370 00f3 0C00     		.2byte	0xc
 3371 00f5 70       		.byte	0x70
 3372 00f6 10       		.sleb128 16
 3373 00f7 F6       		.byte	0xf6
 3374 00f8 04       		.byte	0x4
 3375 00f9 25       		.uleb128 0x25
 3376 00fa 70       		.byte	0x70
 3377 00fb 20       		.sleb128 32
 3378 00fc F6       		.byte	0xf6
 3379 00fd 04       		.byte	0x4
 3380 00fe 25       		.uleb128 0x25
 3381 00ff 1E       		.byte	0x1e
 3382 0100 9F       		.byte	0x9f
 3383 0101 9C000000 		.4byte	.LVL24
 3384 0105 A0000000 		.4byte	.LVL25
 3385 0109 0200     		.2byte	0x2
 3386 010b 90       		.byte	0x90
 3387 010c 4E       		.uleb128 0x4e
 3388 010d A0000000 		.4byte	.LVL25
 3389 0111 E2000000 		.4byte	.LVL36
 3390 0115 0C00     		.2byte	0xc
 3391 0117 70       		.byte	0x70
 3392 0118 10       		.sleb128 16
 3393 0119 F6       		.byte	0xf6
 3394 011a 04       		.byte	0x4
 3395 011b 25       		.uleb128 0x25
 3396 011c 70       		.byte	0x70
 3397 011d 20       		.sleb128 32
 3398 011e F6       		.byte	0xf6
 3399 011f 04       		.byte	0x4
 3400 0120 25       		.uleb128 0x25
 3401 0121 1E       		.byte	0x1e
 3402 0122 9F       		.byte	0x9f
 3403 0123 E2000000 		.4byte	.LVL36
 3404 0127 1C010000 		.4byte	.LFE248
 3405 012b 1200     		.2byte	0x12
 3406 012d F3       		.byte	0xf3
 3407 012e 01       		.uleb128 0x1
 3408 012f 50       		.byte	0x50
 3409 0130 23       		.byte	0x23
 3410 0131 10       		.uleb128 0x10
 3411 0132 F6       		.byte	0xf6
 3412 0133 04       		.byte	0x4
 3413 0134 25       		.uleb128 0x25
 3414 0135 F3       		.byte	0xf3
 3415 0136 01       		.uleb128 0x1
 3416 0137 50       		.byte	0x50
ARM GAS  C:\msys64\tmp\cc8rWMSQ.s 			page 61


 3417 0138 23       		.byte	0x23
 3418 0139 20       		.uleb128 0x20
 3419 013a F6       		.byte	0xf6
 3420 013b 04       		.byte	0x4
 3421 013c 25       		.uleb128 0x25
 3422 013d 1E       		.byte	0x1e
 3423 013e 9F       		.byte	0x9f
 3424 013f 00000000 		.4byte	0
 3425 0143 00000000 		.4byte	0
 3426              	.LLST4:
 3427 0147 34000000 		.4byte	.LVL2
 3428 014b 5E000000 		.4byte	.LVL10
 3429 014f 0C00     		.2byte	0xc
 3430 0151 F5       		.byte	0xf5
 3431 0152 4A       		.uleb128 0x4a
 3432 0153 25       		.uleb128 0x25
 3433 0154 F5       		.byte	0xf5
 3434 0155 4C       		.uleb128 0x4c
 3435 0156 25       		.uleb128 0x25
 3436 0157 1E       		.byte	0x1e
 3437 0158 F5       		.byte	0xf5
 3438 0159 41       		.uleb128 0x41
 3439 015a 25       		.uleb128 0x25
 3440 015b 22       		.byte	0x22
 3441 015c 9F       		.byte	0x9f
 3442 015d 5E000000 		.4byte	.LVL10
 3443 0161 70000000 		.4byte	.LVL15
 3444 0165 0E00     		.2byte	0xe
 3445 0167 F5       		.byte	0xf5
 3446 0168 4A       		.uleb128 0x4a
 3447 0169 25       		.uleb128 0x25
 3448 016a F5       		.byte	0xf5
 3449 016b 4C       		.uleb128 0x4c
 3450 016c 25       		.uleb128 0x25
 3451 016d 1E       		.byte	0x1e
 3452 016e F3       		.byte	0xf3
 3453 016f 03       		.uleb128 0x3
 3454 0170 F5       		.byte	0xf5
 3455 0171 41       		.uleb128 0x41
 3456 0172 25       		.uleb128 0x25
 3457 0173 22       		.byte	0x22
 3458 0174 9F       		.byte	0x9f
 3459 0175 70000000 		.4byte	.LVL15
 3460 0179 74000000 		.4byte	.LVL16
 3461 017d 0C00     		.2byte	0xc
 3462 017f F5       		.byte	0xf5
 3463 0180 4A       		.uleb128 0x4a
 3464 0181 25       		.uleb128 0x25
 3465 0182 F5       		.byte	0xf5
 3466 0183 4C       		.uleb128 0x4c
 3467 0184 25       		.uleb128 0x25
 3468 0185 1E       		.byte	0x1e
 3469 0186 F5       		.byte	0xf5
 3470 0187 41       		.uleb128 0x41
 3471 0188 25       		.uleb128 0x25
 3472 0189 22       		.byte	0x22
 3473 018a 9F       		.byte	0x9f
ARM GAS  C:\msys64\tmp\cc8rWMSQ.s 			page 62


 3474 018b 74000000 		.4byte	.LVL16
 3475 018f 1C010000 		.4byte	.LFE248
 3476 0193 0E00     		.2byte	0xe
 3477 0195 F5       		.byte	0xf5
 3478 0196 4A       		.uleb128 0x4a
 3479 0197 25       		.uleb128 0x25
 3480 0198 F5       		.byte	0xf5
 3481 0199 4C       		.uleb128 0x4c
 3482 019a 25       		.uleb128 0x25
 3483 019b 1E       		.byte	0x1e
 3484 019c F3       		.byte	0xf3
 3485 019d 03       		.uleb128 0x3
 3486 019e F5       		.byte	0xf5
 3487 019f 41       		.uleb128 0x41
 3488 01a0 25       		.uleb128 0x25
 3489 01a1 22       		.byte	0x22
 3490 01a2 9F       		.byte	0x9f
 3491 01a3 00000000 		.4byte	0
 3492 01a7 00000000 		.4byte	0
 3493              	.LLST5:
 3494 01ab 34000000 		.4byte	.LVL2
 3495 01af 3A000000 		.4byte	.LVL4
 3496 01b3 0800     		.2byte	0x8
 3497 01b5 F5       		.byte	0xf5
 3498 01b6 4F       		.uleb128 0x4f
 3499 01b7 25       		.uleb128 0x25
 3500 01b8 F5       		.byte	0xf5
 3501 01b9 4D       		.uleb128 0x4d
 3502 01ba 25       		.uleb128 0x25
 3503 01bb 1E       		.byte	0x1e
 3504 01bc 9F       		.byte	0x9f
 3505 01bd 3A000000 		.4byte	.LVL4
 3506 01c1 40000000 		.4byte	.LVL6
 3507 01c5 0A00     		.2byte	0xa
 3508 01c7 70       		.byte	0x70
 3509 01c8 10       		.sleb128 16
 3510 01c9 F6       		.byte	0xf6
 3511 01ca 04       		.byte	0x4
 3512 01cb 25       		.uleb128 0x25
 3513 01cc F5       		.byte	0xf5
 3514 01cd 4D       		.uleb128 0x4d
 3515 01ce 25       		.uleb128 0x25
 3516 01cf 1E       		.byte	0x1e
 3517 01d0 9F       		.byte	0x9f
 3518 01d1 40000000 		.4byte	.LVL6
 3519 01d5 4C000000 		.4byte	.LVL7
 3520 01d9 0800     		.2byte	0x8
 3521 01db F5       		.byte	0xf5
 3522 01dc 4F       		.uleb128 0x4f
 3523 01dd 25       		.uleb128 0x25
 3524 01de F5       		.byte	0xf5
 3525 01df 4D       		.uleb128 0x4d
 3526 01e0 25       		.uleb128 0x25
 3527 01e1 1E       		.byte	0x1e
 3528 01e2 9F       		.byte	0x9f
 3529 01e3 4C000000 		.4byte	.LVL7
 3530 01e7 62000000 		.4byte	.LVL11
ARM GAS  C:\msys64\tmp\cc8rWMSQ.s 			page 63


 3531 01eb 0A00     		.2byte	0xa
 3532 01ed F5       		.byte	0xf5
 3533 01ee 4F       		.uleb128 0x4f
 3534 01ef 25       		.uleb128 0x25
 3535 01f0 70       		.byte	0x70
 3536 01f1 24       		.sleb128 36
 3537 01f2 F6       		.byte	0xf6
 3538 01f3 04       		.byte	0x4
 3539 01f4 25       		.uleb128 0x25
 3540 01f5 1E       		.byte	0x1e
 3541 01f6 9F       		.byte	0x9f
 3542 01f7 62000000 		.4byte	.LVL11
 3543 01fb 70000000 		.4byte	.LVL15
 3544 01ff 0C00     		.2byte	0xc
 3545 0201 70       		.byte	0x70
 3546 0202 10       		.sleb128 16
 3547 0203 F6       		.byte	0xf6
 3548 0204 04       		.byte	0x4
 3549 0205 25       		.uleb128 0x25
 3550 0206 70       		.byte	0x70
 3551 0207 24       		.sleb128 36
 3552 0208 F6       		.byte	0xf6
 3553 0209 04       		.byte	0x4
 3554 020a 25       		.uleb128 0x25
 3555 020b 1E       		.byte	0x1e
 3556 020c 9F       		.byte	0x9f
 3557 020d 70000000 		.4byte	.LVL15
 3558 0211 78000000 		.4byte	.LVL17
 3559 0215 0A00     		.2byte	0xa
 3560 0217 F5       		.byte	0xf5
 3561 0218 4F       		.uleb128 0x4f
 3562 0219 25       		.uleb128 0x25
 3563 021a 70       		.byte	0x70
 3564 021b 24       		.sleb128 36
 3565 021c F6       		.byte	0xf6
 3566 021d 04       		.byte	0x4
 3567 021e 25       		.uleb128 0x25
 3568 021f 1E       		.byte	0x1e
 3569 0220 9F       		.byte	0x9f
 3570 0221 78000000 		.4byte	.LVL17
 3571 0225 E2000000 		.4byte	.LVL36
 3572 0229 0C00     		.2byte	0xc
 3573 022b 70       		.byte	0x70
 3574 022c 10       		.sleb128 16
 3575 022d F6       		.byte	0xf6
 3576 022e 04       		.byte	0x4
 3577 022f 25       		.uleb128 0x25
 3578 0230 70       		.byte	0x70
 3579 0231 24       		.sleb128 36
 3580 0232 F6       		.byte	0xf6
 3581 0233 04       		.byte	0x4
 3582 0234 25       		.uleb128 0x25
 3583 0235 1E       		.byte	0x1e
 3584 0236 9F       		.byte	0x9f
 3585 0237 E2000000 		.4byte	.LVL36
 3586 023b 1C010000 		.4byte	.LFE248
 3587 023f 1200     		.2byte	0x12
ARM GAS  C:\msys64\tmp\cc8rWMSQ.s 			page 64


 3588 0241 F3       		.byte	0xf3
 3589 0242 01       		.uleb128 0x1
 3590 0243 50       		.byte	0x50
 3591 0244 23       		.byte	0x23
 3592 0245 10       		.uleb128 0x10
 3593 0246 F6       		.byte	0xf6
 3594 0247 04       		.byte	0x4
 3595 0248 25       		.uleb128 0x25
 3596 0249 F3       		.byte	0xf3
 3597 024a 01       		.uleb128 0x1
 3598 024b 50       		.byte	0x50
 3599 024c 23       		.byte	0x23
 3600 024d 24       		.uleb128 0x24
 3601 024e F6       		.byte	0xf6
 3602 024f 04       		.byte	0x4
 3603 0250 25       		.uleb128 0x25
 3604 0251 1E       		.byte	0x1e
 3605 0252 9F       		.byte	0x9f
 3606 0253 00000000 		.4byte	0
 3607 0257 00000000 		.4byte	0
 3608              	.LLST6:
 3609 025b 34000000 		.4byte	.LVL2
 3610 025f 5E000000 		.4byte	.LVL10
 3611 0263 0C00     		.2byte	0xc
 3612 0265 F5       		.byte	0xf5
 3613 0266 4A       		.uleb128 0x4a
 3614 0267 25       		.uleb128 0x25
 3615 0268 F5       		.byte	0xf5
 3616 0269 48       		.uleb128 0x48
 3617 026a 25       		.uleb128 0x25
 3618 026b 1E       		.byte	0x1e
 3619 026c F5       		.byte	0xf5
 3620 026d 41       		.uleb128 0x41
 3621 026e 25       		.uleb128 0x25
 3622 026f 22       		.byte	0x22
 3623 0270 9F       		.byte	0x9f
 3624 0271 5E000000 		.4byte	.LVL10
 3625 0275 70000000 		.4byte	.LVL15
 3626 0279 0E00     		.2byte	0xe
 3627 027b F5       		.byte	0xf5
 3628 027c 4A       		.uleb128 0x4a
 3629 027d 25       		.uleb128 0x25
 3630 027e F5       		.byte	0xf5
 3631 027f 48       		.uleb128 0x48
 3632 0280 25       		.uleb128 0x25
 3633 0281 1E       		.byte	0x1e
 3634 0282 F3       		.byte	0xf3
 3635 0283 03       		.uleb128 0x3
 3636 0284 F5       		.byte	0xf5
 3637 0285 41       		.uleb128 0x41
 3638 0286 25       		.uleb128 0x25
 3639 0287 22       		.byte	0x22
 3640 0288 9F       		.byte	0x9f
 3641 0289 70000000 		.4byte	.LVL15
 3642 028d 74000000 		.4byte	.LVL16
 3643 0291 0C00     		.2byte	0xc
 3644 0293 F5       		.byte	0xf5
ARM GAS  C:\msys64\tmp\cc8rWMSQ.s 			page 65


 3645 0294 4A       		.uleb128 0x4a
 3646 0295 25       		.uleb128 0x25
 3647 0296 F5       		.byte	0xf5
 3648 0297 48       		.uleb128 0x48
 3649 0298 25       		.uleb128 0x25
 3650 0299 1E       		.byte	0x1e
 3651 029a F5       		.byte	0xf5
 3652 029b 41       		.uleb128 0x41
 3653 029c 25       		.uleb128 0x25
 3654 029d 22       		.byte	0x22
 3655 029e 9F       		.byte	0x9f
 3656 029f 74000000 		.4byte	.LVL16
 3657 02a3 1C010000 		.4byte	.LFE248
 3658 02a7 0E00     		.2byte	0xe
 3659 02a9 F5       		.byte	0xf5
 3660 02aa 4A       		.uleb128 0x4a
 3661 02ab 25       		.uleb128 0x25
 3662 02ac F5       		.byte	0xf5
 3663 02ad 48       		.uleb128 0x48
 3664 02ae 25       		.uleb128 0x25
 3665 02af 1E       		.byte	0x1e
 3666 02b0 F3       		.byte	0xf3
 3667 02b1 03       		.uleb128 0x3
 3668 02b2 F5       		.byte	0xf5
 3669 02b3 41       		.uleb128 0x41
 3670 02b4 25       		.uleb128 0x25
 3671 02b5 22       		.byte	0x22
 3672 02b6 9F       		.byte	0x9f
 3673 02b7 00000000 		.4byte	0
 3674 02bb 00000000 		.4byte	0
 3675              	.LLST7:
 3676 02bf 34000000 		.4byte	.LVL2
 3677 02c3 3A000000 		.4byte	.LVL4
 3678 02c7 0800     		.2byte	0x8
 3679 02c9 F5       		.byte	0xf5
 3680 02ca 4F       		.uleb128 0x4f
 3681 02cb 25       		.uleb128 0x25
 3682 02cc F5       		.byte	0xf5
 3683 02cd 49       		.uleb128 0x49
 3684 02ce 25       		.uleb128 0x25
 3685 02cf 1E       		.byte	0x1e
 3686 02d0 9F       		.byte	0x9f
 3687 02d1 3A000000 		.4byte	.LVL4
 3688 02d5 40000000 		.4byte	.LVL6
 3689 02d9 0A00     		.2byte	0xa
 3690 02db 70       		.byte	0x70
 3691 02dc 10       		.sleb128 16
 3692 02dd F6       		.byte	0xf6
 3693 02de 04       		.byte	0x4
 3694 02df 25       		.uleb128 0x25
 3695 02e0 F5       		.byte	0xf5
 3696 02e1 49       		.uleb128 0x49
 3697 02e2 25       		.uleb128 0x25
 3698 02e3 1E       		.byte	0x1e
 3699 02e4 9F       		.byte	0x9f
 3700 02e5 40000000 		.4byte	.LVL6
 3701 02e9 62000000 		.4byte	.LVL11
ARM GAS  C:\msys64\tmp\cc8rWMSQ.s 			page 66


 3702 02ed 0800     		.2byte	0x8
 3703 02ef F5       		.byte	0xf5
 3704 02f0 4F       		.uleb128 0x4f
 3705 02f1 25       		.uleb128 0x25
 3706 02f2 F5       		.byte	0xf5
 3707 02f3 49       		.uleb128 0x49
 3708 02f4 25       		.uleb128 0x25
 3709 02f5 1E       		.byte	0x1e
 3710 02f6 9F       		.byte	0x9f
 3711 02f7 62000000 		.4byte	.LVL11
 3712 02fb 70000000 		.4byte	.LVL15
 3713 02ff 0A00     		.2byte	0xa
 3714 0301 70       		.byte	0x70
 3715 0302 10       		.sleb128 16
 3716 0303 F6       		.byte	0xf6
 3717 0304 04       		.byte	0x4
 3718 0305 25       		.uleb128 0x25
 3719 0306 F5       		.byte	0xf5
 3720 0307 49       		.uleb128 0x49
 3721 0308 25       		.uleb128 0x25
 3722 0309 1E       		.byte	0x1e
 3723 030a 9F       		.byte	0x9f
 3724 030b 70000000 		.4byte	.LVL15
 3725 030f 78000000 		.4byte	.LVL17
 3726 0313 0800     		.2byte	0x8
 3727 0315 F5       		.byte	0xf5
 3728 0316 4F       		.uleb128 0x4f
 3729 0317 25       		.uleb128 0x25
 3730 0318 F5       		.byte	0xf5
 3731 0319 49       		.uleb128 0x49
 3732 031a 25       		.uleb128 0x25
 3733 031b 1E       		.byte	0x1e
 3734 031c 9F       		.byte	0x9f
 3735 031d 78000000 		.4byte	.LVL17
 3736 0321 E2000000 		.4byte	.LVL36
 3737 0325 0A00     		.2byte	0xa
 3738 0327 70       		.byte	0x70
 3739 0328 10       		.sleb128 16
 3740 0329 F6       		.byte	0xf6
 3741 032a 04       		.byte	0x4
 3742 032b 25       		.uleb128 0x25
 3743 032c F5       		.byte	0xf5
 3744 032d 49       		.uleb128 0x49
 3745 032e 25       		.uleb128 0x25
 3746 032f 1E       		.byte	0x1e
 3747 0330 9F       		.byte	0x9f
 3748 0331 E2000000 		.4byte	.LVL36
 3749 0335 1C010000 		.4byte	.LFE248
 3750 0339 0D00     		.2byte	0xd
 3751 033b F3       		.byte	0xf3
 3752 033c 01       		.uleb128 0x1
 3753 033d 50       		.byte	0x50
 3754 033e 23       		.byte	0x23
 3755 033f 10       		.uleb128 0x10
 3756 0340 F6       		.byte	0xf6
 3757 0341 04       		.byte	0x4
 3758 0342 25       		.uleb128 0x25
ARM GAS  C:\msys64\tmp\cc8rWMSQ.s 			page 67


 3759 0343 F5       		.byte	0xf5
 3760 0344 49       		.uleb128 0x49
 3761 0345 25       		.uleb128 0x25
 3762 0346 1E       		.byte	0x1e
 3763 0347 9F       		.byte	0x9f
 3764 0348 00000000 		.4byte	0
 3765 034c 00000000 		.4byte	0
 3766              	.LLST8:
 3767 0350 3E000000 		.4byte	.LVL5
 3768 0354 40000000 		.4byte	.LVL6
 3769 0358 0200     		.2byte	0x2
 3770 035a 90       		.byte	0x90
 3771 035b 4F       		.uleb128 0x4f
 3772 035c 6E000000 		.4byte	.LVL14
 3773 0360 70000000 		.4byte	.LVL15
 3774 0364 0200     		.2byte	0x2
 3775 0366 90       		.byte	0x90
 3776 0367 4E       		.uleb128 0x4e
 3777 0368 9A000000 		.4byte	.LVL23
 3778 036c 9C000000 		.4byte	.LVL24
 3779 0370 0200     		.2byte	0x2
 3780 0372 90       		.byte	0x90
 3781 0373 4D       		.uleb128 0x4d
 3782 0374 B4000000 		.4byte	.LVL30
 3783 0378 BE000000 		.4byte	.LVL31
 3784 037c 0200     		.2byte	0x2
 3785 037e 90       		.byte	0x90
 3786 037f 4F       		.uleb128 0x4f
 3787 0380 00000000 		.4byte	0
 3788 0384 00000000 		.4byte	0
 3789              	.LLST9:
 3790 0388 36000000 		.4byte	.LVL3
 3791 038c 3A000000 		.4byte	.LVL4
 3792 0390 0800     		.2byte	0x8
 3793 0392 F5       		.byte	0xf5
 3794 0393 40       		.uleb128 0x40
 3795 0394 25       		.uleb128 0x25
 3796 0395 F5       		.byte	0xf5
 3797 0396 4B       		.uleb128 0x4b
 3798 0397 25       		.uleb128 0x25
 3799 0398 1B       		.byte	0x1b
 3800 0399 9F       		.byte	0x9f
 3801 039a 3A000000 		.4byte	.LVL4
 3802 039e 3E000000 		.4byte	.LVL5
 3803 03a2 0200     		.2byte	0x2
 3804 03a4 90       		.byte	0x90
 3805 03a5 4F       		.uleb128 0x4f
 3806 03a6 3E000000 		.4byte	.LVL5
 3807 03aa 40000000 		.4byte	.LVL6
 3808 03ae 0800     		.2byte	0x8
 3809 03b0 F5       		.byte	0xf5
 3810 03b1 40       		.uleb128 0x40
 3811 03b2 25       		.uleb128 0x25
 3812 03b3 F5       		.byte	0xf5
 3813 03b4 4B       		.uleb128 0x4b
 3814 03b5 25       		.uleb128 0x25
 3815 03b6 1B       		.byte	0x1b
ARM GAS  C:\msys64\tmp\cc8rWMSQ.s 			page 68


 3816 03b7 9F       		.byte	0x9f
 3817 03b8 00000000 		.4byte	0
 3818 03bc 00000000 		.4byte	0
 3819              	.LLST10:
 3820 03c0 56000000 		.4byte	.LVL8
 3821 03c4 62000000 		.4byte	.LVL11
 3822 03c8 0800     		.2byte	0x8
 3823 03ca F5       		.byte	0xf5
 3824 03cb 4D       		.uleb128 0x4d
 3825 03cc 25       		.uleb128 0x25
 3826 03cd F5       		.byte	0xf5
 3827 03ce 4E       		.uleb128 0x4e
 3828 03cf 25       		.uleb128 0x25
 3829 03d0 1C       		.byte	0x1c
 3830 03d1 9F       		.byte	0x9f
 3831 03d2 62000000 		.4byte	.LVL11
 3832 03d6 6E000000 		.4byte	.LVL14
 3833 03da 0200     		.2byte	0x2
 3834 03dc 90       		.byte	0x90
 3835 03dd 4F       		.uleb128 0x4f
 3836 03de 6E000000 		.4byte	.LVL14
 3837 03e2 70000000 		.4byte	.LVL15
 3838 03e6 1800     		.2byte	0x18
 3839 03e8 70       		.byte	0x70
 3840 03e9 10       		.sleb128 16
 3841 03ea F6       		.byte	0xf6
 3842 03eb 04       		.byte	0x4
 3843 03ec 25       		.uleb128 0x25
 3844 03ed 70       		.byte	0x70
 3845 03ee 24       		.sleb128 36
 3846 03ef F6       		.byte	0xf6
 3847 03f0 04       		.byte	0x4
 3848 03f1 25       		.uleb128 0x25
 3849 03f2 1E       		.byte	0x1e
 3850 03f3 70       		.byte	0x70
 3851 03f4 10       		.sleb128 16
 3852 03f5 F6       		.byte	0xf6
 3853 03f6 04       		.byte	0x4
 3854 03f7 25       		.uleb128 0x25
 3855 03f8 70       		.byte	0x70
 3856 03f9 20       		.sleb128 32
 3857 03fa F6       		.byte	0xf6
 3858 03fb 04       		.byte	0x4
 3859 03fc 25       		.uleb128 0x25
 3860 03fd 1E       		.byte	0x1e
 3861 03fe 1C       		.byte	0x1c
 3862 03ff 9F       		.byte	0x9f
 3863 0400 00000000 		.4byte	0
 3864 0404 00000000 		.4byte	0
 3865              	.LLST11:
 3866 0408 56000000 		.4byte	.LVL8
 3867 040c 5A000000 		.4byte	.LVL9
 3868 0410 0800     		.2byte	0x8
 3869 0412 F5       		.byte	0xf5
 3870 0413 40       		.uleb128 0x40
 3871 0414 25       		.uleb128 0x25
 3872 0415 F5       		.byte	0xf5
ARM GAS  C:\msys64\tmp\cc8rWMSQ.s 			page 69


 3873 0416 4B       		.uleb128 0x4b
 3874 0417 25       		.uleb128 0x25
 3875 0418 1C       		.byte	0x1c
 3876 0419 9F       		.byte	0x9f
 3877 041a 5A000000 		.4byte	.LVL9
 3878 041e 70000000 		.4byte	.LVL15
 3879 0422 0200     		.2byte	0x2
 3880 0424 90       		.byte	0x90
 3881 0425 40       		.uleb128 0x40
 3882 0426 00000000 		.4byte	0
 3883 042a 00000000 		.4byte	0
 3884              	.LLST12:
 3885 042e 56000000 		.4byte	.LVL8
 3886 0432 5E000000 		.4byte	.LVL10
 3887 0436 0800     		.2byte	0x8
 3888 0438 F5       		.byte	0xf5
 3889 0439 47       		.uleb128 0x47
 3890 043a 25       		.uleb128 0x25
 3891 043b F5       		.byte	0xf5
 3892 043c 4B       		.uleb128 0x4b
 3893 043d 25       		.uleb128 0x25
 3894 043e 1C       		.byte	0x1c
 3895 043f 9F       		.byte	0x9f
 3896 0440 5E000000 		.4byte	.LVL10
 3897 0444 70000000 		.4byte	.LVL15
 3898 0448 0200     		.2byte	0x2
 3899 044a 90       		.byte	0x90
 3900 044b 41       		.uleb128 0x41
 3901 044c 00000000 		.4byte	0
 3902 0450 00000000 		.4byte	0
 3903              	.LLST13:
 3904 0454 56000000 		.4byte	.LVL8
 3905 0458 5A000000 		.4byte	.LVL9
 3906 045c 1000     		.2byte	0x10
 3907 045e F5       		.byte	0xf5
 3908 045f 40       		.uleb128 0x40
 3909 0460 25       		.uleb128 0x25
 3910 0461 F5       		.byte	0xf5
 3911 0462 4B       		.uleb128 0x4b
 3912 0463 25       		.uleb128 0x25
 3913 0464 1C       		.byte	0x1c
 3914 0465 F5       		.byte	0xf5
 3915 0466 47       		.uleb128 0x47
 3916 0467 25       		.uleb128 0x25
 3917 0468 F5       		.byte	0xf5
 3918 0469 4B       		.uleb128 0x4b
 3919 046a 25       		.uleb128 0x25
 3920 046b 1C       		.byte	0x1c
 3921 046c 1B       		.byte	0x1b
 3922 046d 9F       		.byte	0x9f
 3923 046e 5A000000 		.4byte	.LVL9
 3924 0472 66000000 		.4byte	.LVL12
 3925 0476 1200     		.2byte	0x12
 3926 0478 F3       		.byte	0xf3
 3927 0479 03       		.uleb128 0x3
 3928 047a F5       		.byte	0xf5
 3929 047b 40       		.uleb128 0x40
ARM GAS  C:\msys64\tmp\cc8rWMSQ.s 			page 70


 3930 047c 25       		.uleb128 0x25
 3931 047d F5       		.byte	0xf5
 3932 047e 4B       		.uleb128 0x4b
 3933 047f 25       		.uleb128 0x25
 3934 0480 1C       		.byte	0x1c
 3935 0481 F5       		.byte	0xf5
 3936 0482 47       		.uleb128 0x47
 3937 0483 25       		.uleb128 0x25
 3938 0484 F5       		.byte	0xf5
 3939 0485 4B       		.uleb128 0x4b
 3940 0486 25       		.uleb128 0x25
 3941 0487 1C       		.byte	0x1c
 3942 0488 1B       		.byte	0x1b
 3943 0489 9F       		.byte	0x9f
 3944 048a 66000000 		.4byte	.LVL12
 3945 048e 70000000 		.4byte	.LVL15
 3946 0492 0200     		.2byte	0x2
 3947 0494 90       		.byte	0x90
 3948 0495 4D       		.uleb128 0x4d
 3949 0496 00000000 		.4byte	0
 3950 049a 00000000 		.4byte	0
 3951              	.LLST14:
 3952 049e 82000000 		.4byte	.LVL18
 3953 04a2 8E000000 		.4byte	.LVL21
 3954 04a6 0800     		.2byte	0x8
 3955 04a8 F5       		.byte	0xf5
 3956 04a9 4F       		.uleb128 0x4f
 3957 04aa 25       		.uleb128 0x25
 3958 04ab F5       		.byte	0xf5
 3959 04ac 4D       		.uleb128 0x4d
 3960 04ad 25       		.uleb128 0x25
 3961 04ae 1C       		.byte	0x1c
 3962 04af 9F       		.byte	0x9f
 3963 04b0 8E000000 		.4byte	.LVL21
 3964 04b4 9C000000 		.4byte	.LVL24
 3965 04b8 0200     		.2byte	0x2
 3966 04ba 90       		.byte	0x90
 3967 04bb 4E       		.uleb128 0x4e
 3968 04bc 00000000 		.4byte	0
 3969 04c0 00000000 		.4byte	0
 3970              	.LLST15:
 3971 04c4 82000000 		.4byte	.LVL18
 3972 04c8 86000000 		.4byte	.LVL19
 3973 04cc 0800     		.2byte	0x8
 3974 04ce F5       		.byte	0xf5
 3975 04cf 40       		.uleb128 0x40
 3976 04d0 25       		.uleb128 0x25
 3977 04d1 F5       		.byte	0xf5
 3978 04d2 47       		.uleb128 0x47
 3979 04d3 25       		.uleb128 0x25
 3980 04d4 1C       		.byte	0x1c
 3981 04d5 9F       		.byte	0x9f
 3982 04d6 86000000 		.4byte	.LVL19
 3983 04da 9C000000 		.4byte	.LVL24
 3984 04de 0200     		.2byte	0x2
 3985 04e0 90       		.byte	0x90
 3986 04e1 40       		.uleb128 0x40
ARM GAS  C:\msys64\tmp\cc8rWMSQ.s 			page 71


 3987 04e2 00000000 		.4byte	0
 3988 04e6 00000000 		.4byte	0
 3989              	.LLST16:
 3990 04ea 82000000 		.4byte	.LVL18
 3991 04ee 8A000000 		.4byte	.LVL20
 3992 04f2 0800     		.2byte	0x8
 3993 04f4 F5       		.byte	0xf5
 3994 04f5 41       		.uleb128 0x41
 3995 04f6 25       		.uleb128 0x25
 3996 04f7 F5       		.byte	0xf5
 3997 04f8 47       		.uleb128 0x47
 3998 04f9 25       		.uleb128 0x25
 3999 04fa 1C       		.byte	0x1c
 4000 04fb 9F       		.byte	0x9f
 4001 04fc 8A000000 		.4byte	.LVL20
 4002 0500 9C000000 		.4byte	.LVL24
 4003 0504 0200     		.2byte	0x2
 4004 0506 90       		.byte	0x90
 4005 0507 41       		.uleb128 0x41
 4006 0508 00000000 		.4byte	0
 4007 050c 00000000 		.4byte	0
 4008              	.LLST17:
 4009 0510 82000000 		.4byte	.LVL18
 4010 0514 86000000 		.4byte	.LVL19
 4011 0518 1000     		.2byte	0x10
 4012 051a F5       		.byte	0xf5
 4013 051b 40       		.uleb128 0x40
 4014 051c 25       		.uleb128 0x25
 4015 051d F5       		.byte	0xf5
 4016 051e 47       		.uleb128 0x47
 4017 051f 25       		.uleb128 0x25
 4018 0520 1C       		.byte	0x1c
 4019 0521 F5       		.byte	0xf5
 4020 0522 41       		.uleb128 0x41
 4021 0523 25       		.uleb128 0x25
 4022 0524 F5       		.byte	0xf5
 4023 0525 47       		.uleb128 0x47
 4024 0526 25       		.uleb128 0x25
 4025 0527 1C       		.byte	0x1c
 4026 0528 1B       		.byte	0x1b
 4027 0529 9F       		.byte	0x9f
 4028 052a 86000000 		.4byte	.LVL19
 4029 052e 8A000000 		.4byte	.LVL20
 4030 0532 1200     		.2byte	0x12
 4031 0534 F3       		.byte	0xf3
 4032 0535 03       		.uleb128 0x3
 4033 0536 F5       		.byte	0xf5
 4034 0537 40       		.uleb128 0x40
 4035 0538 25       		.uleb128 0x25
 4036 0539 F5       		.byte	0xf5
 4037 053a 47       		.uleb128 0x47
 4038 053b 25       		.uleb128 0x25
 4039 053c 1C       		.byte	0x1c
 4040 053d F5       		.byte	0xf5
 4041 053e 41       		.uleb128 0x41
 4042 053f 25       		.uleb128 0x25
 4043 0540 F5       		.byte	0xf5
ARM GAS  C:\msys64\tmp\cc8rWMSQ.s 			page 72


 4044 0541 47       		.uleb128 0x47
 4045 0542 25       		.uleb128 0x25
 4046 0543 1C       		.byte	0x1c
 4047 0544 1B       		.byte	0x1b
 4048 0545 9F       		.byte	0x9f
 4049 0546 92000000 		.4byte	.LVL22
 4050 054a 9A000000 		.4byte	.LVL23
 4051 054e 0200     		.2byte	0x2
 4052 0550 90       		.byte	0x90
 4053 0551 4F       		.uleb128 0x4f
 4054 0552 00000000 		.4byte	0
 4055 0556 00000000 		.4byte	0
 4056              	.LLST18:
 4057 055a 9C000000 		.4byte	.LVL24
 4058 055e AC000000 		.4byte	.LVL28
 4059 0562 0C00     		.2byte	0xc
 4060 0564 F4       		.byte	0xf4
 4061 0565 25       		.uleb128 0x25
 4062 0566 04       		.byte	0x4
 4063 0567 0000803F 		.4byte	0x3f800000
 4064 056b F5       		.byte	0xf5
 4065 056c 4F       		.uleb128 0x4f
 4066 056d 25       		.uleb128 0x25
 4067 056e 1C       		.byte	0x1c
 4068 056f 9F       		.byte	0x9f
 4069 0570 AC000000 		.4byte	.LVL28
 4070 0574 B4000000 		.4byte	.LVL30
 4071 0578 0200     		.2byte	0x2
 4072 057a 90       		.byte	0x90
 4073 057b 4D       		.uleb128 0x4d
 4074 057c 00000000 		.4byte	0
 4075 0580 00000000 		.4byte	0
 4076              	.LLST19:
 4077 0584 9C000000 		.4byte	.LVL24
 4078 0588 A4000000 		.4byte	.LVL26
 4079 058c 0800     		.2byte	0x8
 4080 058e F5       		.byte	0xf5
 4081 058f 40       		.uleb128 0x40
 4082 0590 25       		.uleb128 0x25
 4083 0591 F5       		.byte	0xf5
 4084 0592 41       		.uleb128 0x41
 4085 0593 25       		.uleb128 0x25
 4086 0594 1C       		.byte	0x1c
 4087 0595 9F       		.byte	0x9f
 4088 0596 A4000000 		.4byte	.LVL26
 4089 059a B4000000 		.4byte	.LVL30
 4090 059e 0200     		.2byte	0x2
 4091 05a0 90       		.byte	0x90
 4092 05a1 40       		.uleb128 0x40
 4093 05a2 00000000 		.4byte	0
 4094 05a6 00000000 		.4byte	0
 4095              	.LLST20:
 4096 05aa 9C000000 		.4byte	.LVL24
 4097 05ae A8000000 		.4byte	.LVL27
 4098 05b2 0C00     		.2byte	0xc
 4099 05b4 F4       		.byte	0xf4
 4100 05b5 25       		.uleb128 0x25
ARM GAS  C:\msys64\tmp\cc8rWMSQ.s 			page 73


 4101 05b6 04       		.byte	0x4
 4102 05b7 0000803F 		.4byte	0x3f800000
 4103 05bb F5       		.byte	0xf5
 4104 05bc 41       		.uleb128 0x41
 4105 05bd 25       		.uleb128 0x25
 4106 05be 1C       		.byte	0x1c
 4107 05bf 9F       		.byte	0x9f
 4108 05c0 A8000000 		.4byte	.LVL27
 4109 05c4 B4000000 		.4byte	.LVL30
 4110 05c8 0200     		.2byte	0x2
 4111 05ca 90       		.byte	0x90
 4112 05cb 41       		.uleb128 0x41
 4113 05cc 00000000 		.4byte	0
 4114 05d0 00000000 		.4byte	0
 4115              	.LLST21:
 4116 05d4 9C000000 		.4byte	.LVL24
 4117 05d8 A4000000 		.4byte	.LVL26
 4118 05dc 1400     		.2byte	0x14
 4119 05de F5       		.byte	0xf5
 4120 05df 40       		.uleb128 0x40
 4121 05e0 25       		.uleb128 0x25
 4122 05e1 F5       		.byte	0xf5
 4123 05e2 41       		.uleb128 0x41
 4124 05e3 25       		.uleb128 0x25
 4125 05e4 1C       		.byte	0x1c
 4126 05e5 F4       		.byte	0xf4
 4127 05e6 25       		.uleb128 0x25
 4128 05e7 04       		.byte	0x4
 4129 05e8 0000803F 		.4byte	0x3f800000
 4130 05ec F5       		.byte	0xf5
 4131 05ed 41       		.uleb128 0x41
 4132 05ee 25       		.uleb128 0x25
 4133 05ef 1C       		.byte	0x1c
 4134 05f0 1B       		.byte	0x1b
 4135 05f1 9F       		.byte	0x9f
 4136 05f2 A4000000 		.4byte	.LVL26
 4137 05f6 A8000000 		.4byte	.LVL27
 4138 05fa 1600     		.2byte	0x16
 4139 05fc F3       		.byte	0xf3
 4140 05fd 03       		.uleb128 0x3
 4141 05fe F5       		.byte	0xf5
 4142 05ff 40       		.uleb128 0x40
 4143 0600 25       		.uleb128 0x25
 4144 0601 F5       		.byte	0xf5
 4145 0602 41       		.uleb128 0x41
 4146 0603 25       		.uleb128 0x25
 4147 0604 1C       		.byte	0x1c
 4148 0605 F4       		.byte	0xf4
 4149 0606 25       		.uleb128 0x25
 4150 0607 04       		.byte	0x4
 4151 0608 0000803F 		.4byte	0x3f800000
 4152 060c F5       		.byte	0xf5
 4153 060d 41       		.uleb128 0x41
 4154 060e 25       		.uleb128 0x25
 4155 060f 1C       		.byte	0x1c
 4156 0610 1B       		.byte	0x1b
 4157 0611 9F       		.byte	0x9f
ARM GAS  C:\msys64\tmp\cc8rWMSQ.s 			page 74


 4158 0612 B0000000 		.4byte	.LVL29
 4159 0616 B4000000 		.4byte	.LVL30
 4160 061a 0200     		.2byte	0x2
 4161 061c 90       		.byte	0x90
 4162 061d 4E       		.uleb128 0x4e
 4163 061e 00000000 		.4byte	0
 4164 0622 00000000 		.4byte	0
 4165              	.LLST22:
 4166 0626 B4000000 		.4byte	.LVL30
 4167 062a BE000000 		.4byte	.LVL31
 4168 062e 0200     		.2byte	0x2
 4169 0630 90       		.byte	0x90
 4170 0631 4F       		.uleb128 0x4f
 4171 0632 00000000 		.4byte	0
 4172 0636 00000000 		.4byte	0
 4173              	.LLST23:
 4174 063a BE000000 		.4byte	.LVL31
 4175 063e CA000000 		.4byte	.LVL32
 4176 0642 0200     		.2byte	0x2
 4177 0644 90       		.byte	0x90
 4178 0645 4F       		.uleb128 0x4f
 4179 0646 00000000 		.4byte	0
 4180 064a 00000000 		.4byte	0
 4181              	.LLST24:
 4182 064e BE000000 		.4byte	.LVL31
 4183 0652 CA000000 		.4byte	.LVL32
 4184 0656 0C00     		.2byte	0xc
 4185 0658 F5       		.byte	0xf5
 4186 0659 4F       		.uleb128 0x4f
 4187 065a 25       		.uleb128 0x25
 4188 065b F5       		.byte	0xf5
 4189 065c 4F       		.uleb128 0x4f
 4190 065d 25       		.uleb128 0x25
 4191 065e F7       		.byte	0xf7
 4192 065f 33       		.uleb128 0x33
 4193 0660 F7       		.byte	0xf7
 4194 0661 25       		.uleb128 0x25
 4195 0662 1C       		.byte	0x1c
 4196 0663 9F       		.byte	0x9f
 4197 0664 00000000 		.4byte	0
 4198 0668 00000000 		.4byte	0
 4199              	.LLST25:
 4200 066c D2000000 		.4byte	.LVL33
 4201 0670 F8000000 		.4byte	.LVL41
 4202 0674 0200     		.2byte	0x2
 4203 0676 90       		.byte	0x90
 4204 0677 4F       		.uleb128 0x4f
 4205 0678 00000000 		.4byte	0
 4206 067c 00000000 		.4byte	0
 4207              	.LLST26:
 4208 0680 DA000000 		.4byte	.LVL34
 4209 0684 0C010000 		.4byte	.LVL43
 4210 0688 0100     		.2byte	0x1
 4211 068a 51       		.byte	0x51
 4212 068b 00000000 		.4byte	0
 4213 068f 00000000 		.4byte	0
 4214              	.LLST27:
ARM GAS  C:\msys64\tmp\cc8rWMSQ.s 			page 75


 4215 0693 DE000000 		.4byte	.LVL35
 4216 0697 E4000000 		.4byte	.LVL37
 4217 069b 0100     		.2byte	0x1
 4218 069d 53       		.byte	0x53
 4219 069e E4000000 		.4byte	.LVL37
 4220 06a2 EC000000 		.4byte	.LVL38
 4221 06a6 0300     		.2byte	0x3
 4222 06a8 73       		.byte	0x73
 4223 06a9 7F       		.sleb128 -1
 4224 06aa 9F       		.byte	0x9f
 4225 06ab EC000000 		.4byte	.LVL38
 4226 06af 0C010000 		.4byte	.LVL43
 4227 06b3 0600     		.2byte	0x6
 4228 06b5 71       		.byte	0x71
 4229 06b6 00       		.sleb128 0
 4230 06b7 08       		.byte	0x8
 4231 06b8 7F       		.byte	0x7f
 4232 06b9 1A       		.byte	0x1a
 4233 06ba 9F       		.byte	0x9f
 4234 06bb 00000000 		.4byte	0
 4235 06bf 00000000 		.4byte	0
 4236              	.LLST28:
 4237 06c3 DE000000 		.4byte	.LVL35
 4238 06c7 E4000000 		.4byte	.LVL37
 4239 06cb 0600     		.2byte	0x6
 4240 06cd 73       		.byte	0x73
 4241 06ce 01       		.sleb128 1
 4242 06cf 08       		.byte	0x8
 4243 06d0 7F       		.byte	0x7f
 4244 06d1 1A       		.byte	0x1a
 4245 06d2 9F       		.byte	0x9f
 4246 06d3 E4000000 		.4byte	.LVL37
 4247 06d7 EC000000 		.4byte	.LVL38
 4248 06db 0600     		.2byte	0x6
 4249 06dd 73       		.byte	0x73
 4250 06de 00       		.sleb128 0
 4251 06df 08       		.byte	0x8
 4252 06e0 7F       		.byte	0x7f
 4253 06e1 1A       		.byte	0x1a
 4254 06e2 9F       		.byte	0x9f
 4255 06e3 EC000000 		.4byte	.LVL38
 4256 06e7 F0000000 		.4byte	.LVL39
 4257 06eb 0100     		.2byte	0x1
 4258 06ed 53       		.byte	0x53
 4259 06ee F0000000 		.4byte	.LVL39
 4260 06f2 0C010000 		.4byte	.LVL43
 4261 06f6 0600     		.2byte	0x6
 4262 06f8 71       		.byte	0x71
 4263 06f9 01       		.sleb128 1
 4264 06fa 08       		.byte	0x8
 4265 06fb 7F       		.byte	0x7f
 4266 06fc 1A       		.byte	0x1a
 4267 06fd 9F       		.byte	0x9f
 4268 06fe 00000000 		.4byte	0
 4269 0702 00000000 		.4byte	0
 4270              	.LLST29:
 4271 0706 F4000000 		.4byte	.LVL40
ARM GAS  C:\msys64\tmp\cc8rWMSQ.s 			page 76


 4272 070a 06010000 		.4byte	.LVL42
 4273 070e 0200     		.2byte	0x2
 4274 0710 90       		.byte	0x90
 4275 0711 40       		.uleb128 0x40
 4276 0712 00000000 		.4byte	0
 4277 0716 00000000 		.4byte	0
 4278              	.LLST30:
 4279 071a 02000000 		.4byte	.LVL45
 4280 071e 96000000 		.4byte	.LVL59
 4281 0722 0100     		.2byte	0x1
 4282 0724 50       		.byte	0x50
 4283 0725 96000000 		.4byte	.LVL59
 4284 0729 18010000 		.4byte	.LFE251
 4285 072d 0400     		.2byte	0x4
 4286 072f F3       		.byte	0xf3
 4287 0730 01       		.uleb128 0x1
 4288 0731 50       		.byte	0x50
 4289 0732 9F       		.byte	0x9f
 4290 0733 00000000 		.4byte	0
 4291 0737 00000000 		.4byte	0
 4292              	.LLST31:
 4293 073b 02000000 		.4byte	.LVL45
 4294 073f 12000000 		.4byte	.LVL47
 4295 0743 0100     		.2byte	0x1
 4296 0745 51       		.byte	0x51
 4297 0746 12000000 		.4byte	.LVL47
 4298 074a 96000000 		.4byte	.LVL59
 4299 074e 0100     		.2byte	0x1
 4300 0750 55       		.byte	0x55
 4301 0751 96000000 		.4byte	.LVL59
 4302 0755 18010000 		.4byte	.LFE251
 4303 0759 0400     		.2byte	0x4
 4304 075b F3       		.byte	0xf3
 4305 075c 01       		.uleb128 0x1
 4306 075d 51       		.byte	0x51
 4307 075e 9F       		.byte	0x9f
 4308 075f 00000000 		.4byte	0
 4309 0763 00000000 		.4byte	0
 4310              	.LLST32:
 4311 0767 02000000 		.4byte	.LVL45
 4312 076b 96000000 		.4byte	.LVL59
 4313 076f 0100     		.2byte	0x1
 4314 0771 52       		.byte	0x52
 4315 0772 96000000 		.4byte	.LVL59
 4316 0776 18010000 		.4byte	.LFE251
 4317 077a 0400     		.2byte	0x4
 4318 077c F3       		.byte	0xf3
 4319 077d 01       		.uleb128 0x1
 4320 077e 52       		.byte	0x52
 4321 077f 9F       		.byte	0x9f
 4322 0780 00000000 		.4byte	0
 4323 0784 00000000 		.4byte	0
 4324              	.LLST33:
 4325 0788 0C000000 		.4byte	.LVL46
 4326 078c 1A000000 		.4byte	.LVL48
 4327 0790 0100     		.2byte	0x1
 4328 0792 53       		.byte	0x53
ARM GAS  C:\msys64\tmp\cc8rWMSQ.s 			page 77


 4329 0793 1A000000 		.4byte	.LVL48
 4330 0797 1C000000 		.4byte	.LVL49
 4331 079b 0300     		.2byte	0x3
 4332 079d 73       		.byte	0x73
 4333 079e 7F       		.sleb128 -1
 4334 079f 9F       		.byte	0x9f
 4335 07a0 1C000000 		.4byte	.LVL49
 4336 07a4 96000000 		.4byte	.LVL59
 4337 07a8 0B00     		.2byte	0xb
 4338 07aa 70       		.byte	0x70
 4339 07ab 04       		.sleb128 4
 4340 07ac 94       		.byte	0x94
 4341 07ad 02       		.byte	0x2
 4342 07ae 0A       		.byte	0xa
 4343 07af FFFF     		.2byte	0xffff
 4344 07b1 1A       		.byte	0x1a
 4345 07b2 38       		.byte	0x38
 4346 07b3 26       		.byte	0x26
 4347 07b4 9F       		.byte	0x9f
 4348 07b5 00000000 		.4byte	0
 4349 07b9 00000000 		.4byte	0
 4350              	.LLST34:
 4351 07bd 92000000 		.4byte	.LVL58
 4352 07c1 A6000000 		.4byte	.LVL61
 4353 07c5 0200     		.2byte	0x2
 4354 07c7 90       		.byte	0x90
 4355 07c8 50       		.uleb128 0x50
 4356 07c9 A6000000 		.4byte	.LVL61
 4357 07cd AB000000 		.4byte	.LVL62-1
 4358 07d1 0200     		.2byte	0x2
 4359 07d3 90       		.byte	0x90
 4360 07d4 40       		.uleb128 0x40
 4361 07d5 AC000000 		.4byte	.LVL62
 4362 07d9 F4000000 		.4byte	.LVL70
 4363 07dd 0200     		.2byte	0x2
 4364 07df 90       		.byte	0x90
 4365 07e0 50       		.uleb128 0x50
 4366 07e1 00000000 		.4byte	0
 4367 07e5 00000000 		.4byte	0
 4368              	.LLST35:
 4369 07e9 92000000 		.4byte	.LVL58
 4370 07ed F8000000 		.4byte	.LVL71
 4371 07f1 0200     		.2byte	0x2
 4372 07f3 90       		.byte	0x90
 4373 07f4 52       		.uleb128 0x52
 4374 07f5 00000000 		.4byte	0
 4375 07f9 00000000 		.4byte	0
 4376              	.LLST36:
 4377 07fd 92000000 		.4byte	.LVL58
 4378 0801 EE000000 		.4byte	.LVL68
 4379 0805 0100     		.2byte	0x1
 4380 0807 55       		.byte	0x55
 4381 0808 EE000000 		.4byte	.LVL68
 4382 080c F0000000 		.4byte	.LVL69
 4383 0810 0300     		.2byte	0x3
 4384 0812 75       		.byte	0x75
 4385 0813 7C       		.sleb128 -4
ARM GAS  C:\msys64\tmp\cc8rWMSQ.s 			page 78


 4386 0814 9F       		.byte	0x9f
 4387 0815 F0000000 		.4byte	.LVL69
 4388 0819 FA000000 		.4byte	.LVL72
 4389 081d 0100     		.2byte	0x1
 4390 081f 55       		.byte	0x55
 4391 0820 00000000 		.4byte	0
 4392 0824 00000000 		.4byte	0
 4393              	.LLST37:
 4394 0828 92000000 		.4byte	.LVL58
 4395 082c FA000000 		.4byte	.LVL72
 4396 0830 0100     		.2byte	0x1
 4397 0832 56       		.byte	0x56
 4398 0833 FA000000 		.4byte	.LVL72
 4399 0837 18010000 		.4byte	.LFE251
 4400 083b 0A00     		.2byte	0xa
 4401 083d F3       		.byte	0xf3
 4402 083e 01       		.uleb128 0x1
 4403 083f 52       		.byte	0x52
 4404 0840 32       		.byte	0x32
 4405 0841 24       		.byte	0x24
 4406 0842 F3       		.byte	0xf3
 4407 0843 01       		.uleb128 0x1
 4408 0844 51       		.byte	0x51
 4409 0845 22       		.byte	0x22
 4410 0846 9F       		.byte	0x9f
 4411 0847 00000000 		.4byte	0
 4412 084b 00000000 		.4byte	0
 4413              	.LLST38:
 4414 084f 20000000 		.4byte	.LVL50
 4415 0853 26000000 		.4byte	.LVL52
 4416 0857 0100     		.2byte	0x1
 4417 0859 51       		.byte	0x51
 4418 085a 26000000 		.4byte	.LVL52
 4419 085e 30000000 		.4byte	.LVL53
 4420 0862 0200     		.2byte	0x2
 4421 0864 90       		.byte	0x90
 4422 0865 4F       		.uleb128 0x4f
 4423 0866 30000000 		.4byte	.LVL53
 4424 086a 8A000000 		.4byte	.LVL57
 4425 086e 0200     		.2byte	0x2
 4426 0870 70       		.byte	0x70
 4427 0871 04       		.sleb128 4
 4428 0872 00000000 		.4byte	0
 4429 0876 00000000 		.4byte	0
 4430              	.LLST39:
 4431 087a 66000000 		.4byte	.LVL55
 4432 087e 82000000 		.4byte	.LVL56
 4433 0882 0600     		.2byte	0x6
 4434 0884 9E       		.byte	0x9e
 4435 0885 04       		.uleb128 0x4
 4436 0886 49FFB846 		.4byte	0x46b8ff49
 4437 088a 00000000 		.4byte	0
 4438 088e 00000000 		.4byte	0
 4439              	.LLST42:
 4440 0892 66000000 		.4byte	.LVL55
 4441 0896 82000000 		.4byte	.LVL56
 4442 089a 0C00     		.2byte	0xc
ARM GAS  C:\msys64\tmp\cc8rWMSQ.s 			page 79


 4443 089c F5       		.byte	0xf5
 4444 089d 51       		.uleb128 0x51
 4445 089e 25       		.uleb128 0x25
 4446 089f F4       		.byte	0xf4
 4447 08a0 25       		.uleb128 0x25
 4448 08a1 04       		.byte	0x4
 4449 08a2 49FFB846 		.4byte	0x46b8ff49
 4450 08a6 1C       		.byte	0x1c
 4451 08a7 9F       		.byte	0x9f
 4452 08a8 00000000 		.4byte	0
 4453 08ac 00000000 		.4byte	0
 4454              	.LLST43:
 4455 08b0 9A000000 		.4byte	.LVL60
 4456 08b4 AC000000 		.4byte	.LVL62
 4457 08b8 0600     		.2byte	0x6
 4458 08ba 9E       		.byte	0x9e
 4459 08bb 04       		.uleb128 0x4
 4460 08bc 00000000 		.4byte	0
 4461 08c0 AC000000 		.4byte	.LVL62
 4462 08c4 D0000000 		.4byte	.LVL65
 4463 08c8 0200     		.2byte	0x2
 4464 08ca 90       		.byte	0x90
 4465 08cb 40       		.uleb128 0x40
 4466 08cc D2000000 		.4byte	.LVL66
 4467 08d0 D6000000 		.4byte	.LVL67
 4468 08d4 0200     		.2byte	0x2
 4469 08d6 90       		.byte	0x90
 4470 08d7 40       		.uleb128 0x40
 4471 08d8 00000000 		.4byte	0
 4472 08dc 00000000 		.4byte	0
 4473              	.LLST44:
 4474 08e0 C0000000 		.4byte	.LVL63
 4475 08e4 D0000000 		.4byte	.LVL65
 4476 08e8 0200     		.2byte	0x2
 4477 08ea 90       		.byte	0x90
 4478 08eb 40       		.uleb128 0x40
 4479 08ec D2000000 		.4byte	.LVL66
 4480 08f0 D6000000 		.4byte	.LVL67
 4481 08f4 0200     		.2byte	0x2
 4482 08f6 90       		.byte	0x90
 4483 08f7 40       		.uleb128 0x40
 4484 08f8 00000000 		.4byte	0
 4485 08fc 00000000 		.4byte	0
 4486              	.LLST45:
 4487 0900 C0000000 		.4byte	.LVL63
 4488 0904 D6000000 		.4byte	.LVL67
 4489 0908 0600     		.2byte	0x6
 4490 090a 9E       		.byte	0x9e
 4491 090b 04       		.uleb128 0x4
 4492 090c CDCC4C3D 		.4byte	0x3d4ccccd
 4493 0910 00000000 		.4byte	0
 4494 0914 00000000 		.4byte	0
 4495              	.LLST47:
 4496 0918 C0000000 		.4byte	.LVL63
 4497 091c D6000000 		.4byte	.LVL67
 4498 0920 0600     		.2byte	0x6
 4499 0922 9E       		.byte	0x9e
ARM GAS  C:\msys64\tmp\cc8rWMSQ.s 			page 80


 4500 0923 04       		.uleb128 0x4
 4501 0924 0000803F 		.4byte	0x3f800000
 4502 0928 00000000 		.4byte	0
 4503 092c 00000000 		.4byte	0
 4504              	.LLST48:
 4505 0930 C0000000 		.4byte	.LVL63
 4506 0934 C2000000 		.4byte	.LVL64
 4507 0938 0200     		.2byte	0x2
 4508 093a 90       		.byte	0x90
 4509 093b 40       		.uleb128 0x40
 4510 093c D2000000 		.4byte	.LVL66
 4511 0940 D6000000 		.4byte	.LVL67
 4512 0944 0200     		.2byte	0x2
 4513 0946 90       		.byte	0x90
 4514 0947 40       		.uleb128 0x40
 4515 0948 00000000 		.4byte	0
 4516 094c 00000000 		.4byte	0
 4517              	.LLST49:
 4518 0950 C0000000 		.4byte	.LVL63
 4519 0954 D6000000 		.4byte	.LVL67
 4520 0958 0600     		.2byte	0x6
 4521 095a 9E       		.byte	0x9e
 4522 095b 04       		.uleb128 0x4
 4523 095c 000080BF 		.4byte	0xbf800000
 4524 0960 00000000 		.4byte	0
 4525 0964 00000000 		.4byte	0
 4526              	.LLST50:
 4527 0968 C0000000 		.4byte	.LVL63
 4528 096c C2000000 		.4byte	.LVL64
 4529 0970 0600     		.2byte	0x6
 4530 0972 9E       		.byte	0x9e
 4531 0973 04       		.uleb128 0x4
 4532 0974 000080BF 		.4byte	0xbf800000
 4533 0978 D2000000 		.4byte	.LVL66
 4534 097c D6000000 		.4byte	.LVL67
 4535 0980 0600     		.2byte	0x6
 4536 0982 9E       		.byte	0x9e
 4537 0983 04       		.uleb128 0x4
 4538 0984 000080BF 		.4byte	0xbf800000
 4539 0988 00000000 		.4byte	0
 4540 098c 00000000 		.4byte	0
 4541              	.LLST52:
 4542 0990 C0000000 		.4byte	.LVL63
 4543 0994 C2000000 		.4byte	.LVL64
 4544 0998 0C00     		.2byte	0xc
 4545 099a F5       		.byte	0xf5
 4546 099b 40       		.uleb128 0x40
 4547 099c 25       		.uleb128 0x25
 4548 099d F4       		.byte	0xf4
 4549 099e 25       		.uleb128 0x25
 4550 099f 04       		.byte	0x4
 4551 09a0 0000803F 		.4byte	0x3f800000
 4552 09a4 22       		.byte	0x22
 4553 09a5 9F       		.byte	0x9f
 4554 09a6 D2000000 		.4byte	.LVL66
 4555 09aa D6000000 		.4byte	.LVL67
 4556 09ae 0C00     		.2byte	0xc
ARM GAS  C:\msys64\tmp\cc8rWMSQ.s 			page 81


 4557 09b0 F5       		.byte	0xf5
 4558 09b1 40       		.uleb128 0x40
 4559 09b2 25       		.uleb128 0x25
 4560 09b3 F4       		.byte	0xf4
 4561 09b4 25       		.uleb128 0x25
 4562 09b5 04       		.byte	0x4
 4563 09b6 0000803F 		.4byte	0x3f800000
 4564 09ba 22       		.byte	0x22
 4565 09bb 9F       		.byte	0x9f
 4566 09bc 00000000 		.4byte	0
 4567 09c0 00000000 		.4byte	0
 4568              	.LLST53:
 4569 09c4 C2000000 		.4byte	.LVL64
 4570 09c8 D2000000 		.4byte	.LVL66
 4571 09cc 0600     		.2byte	0x6
 4572 09ce 9E       		.byte	0x9e
 4573 09cf 04       		.uleb128 0x4
 4574 09d0 0000803F 		.4byte	0x3f800000
 4575 09d4 00000000 		.4byte	0
 4576 09d8 00000000 		.4byte	0
 4577              	.LLST54:
 4578 09dc C2000000 		.4byte	.LVL64
 4579 09e0 D0000000 		.4byte	.LVL65
 4580 09e4 0C00     		.2byte	0xc
 4581 09e6 F5       		.byte	0xf5
 4582 09e7 40       		.uleb128 0x40
 4583 09e8 25       		.uleb128 0x25
 4584 09e9 F4       		.byte	0xf4
 4585 09ea 25       		.uleb128 0x25
 4586 09eb 04       		.byte	0x4
 4587 09ec 0000803F 		.4byte	0x3f800000
 4588 09f0 1C       		.byte	0x1c
 4589 09f1 9F       		.byte	0x9f
 4590 09f2 00000000 		.4byte	0
 4591 09f6 00000000 		.4byte	0
 4592              	.LLST55:
 4593 09fa AC000000 		.4byte	.LVL62
 4594 09fe F0000000 		.4byte	.LVL69
 4595 0a02 0600     		.2byte	0x6
 4596 0a04 03       		.byte	0x3
 4597 0a05 00000000 		.4byte	_ZL6mvps1D
 4598 0a09 9F       		.byte	0x9f
 4599 0a0a 00000000 		.4byte	0
 4600 0a0e 00000000 		.4byte	0
 4601              	.LLST56:
 4602 0a12 AC000000 		.4byte	.LVL62
 4603 0a16 C0000000 		.4byte	.LVL63
 4604 0a1a 0200     		.2byte	0x2
 4605 0a1c 90       		.byte	0x90
 4606 0a1d 51       		.uleb128 0x51
 4607 0a1e 00000000 		.4byte	0
 4608 0a22 00000000 		.4byte	0
 4609              	.LLST57:
 4610 0a26 AC000000 		.4byte	.LVL62
 4611 0a2a C0000000 		.4byte	.LVL63
 4612 0a2e 0600     		.2byte	0x6
 4613 0a30 F2       		.byte	0xf2
ARM GAS  C:\msys64\tmp\cc8rWMSQ.s 			page 82


 4614 0a31 C7080000 		.4byte	.Ldebug_info0+2247
 4615 0a35 00       		.sleb128 0
 4616 0a36 00000000 		.4byte	0
 4617 0a3a 00000000 		.4byte	0
 4618              	.LLST58:
 4619 0a3e 2C010000 		.4byte	.LVL75
 4620 0a42 40010000 		.4byte	.LVL76
 4621 0a46 0200     		.2byte	0x2
 4622 0a48 90       		.byte	0x90
 4623 0a49 4E       		.uleb128 0x4e
 4624 0a4a 40010000 		.4byte	.LVL76
 4625 0a4e 46010000 		.4byte	.LVL77
 4626 0a52 0C00     		.2byte	0xc
 4627 0a54 F5       		.byte	0xf5
 4628 0a55 4F       		.uleb128 0x4f
 4629 0a56 25       		.uleb128 0x25
 4630 0a57 F4       		.byte	0xf4
 4631 0a58 25       		.uleb128 0x25
 4632 0a59 04       		.byte	0x4
 4633 0a5a 0820803A 		.4byte	0x3a802008
 4634 0a5e 1E       		.byte	0x1e
 4635 0a5f 9F       		.byte	0x9f
 4636 0a60 46010000 		.4byte	.LVL77
 4637 0a64 4C010000 		.4byte	.LVL78
 4638 0a68 0F00     		.2byte	0xf
 4639 0a6a 71       		.byte	0x71
 4640 0a6b 00       		.sleb128 0
 4641 0a6c F7       		.byte	0xf7
 4642 0a6d 2C       		.uleb128 0x2c
 4643 0a6e F7       		.byte	0xf7
 4644 0a6f 25       		.uleb128 0x25
 4645 0a70 F4       		.byte	0xf4
 4646 0a71 25       		.uleb128 0x25
 4647 0a72 04       		.byte	0x4
 4648 0a73 0820803A 		.4byte	0x3a802008
 4649 0a77 1E       		.byte	0x1e
 4650 0a78 9F       		.byte	0x9f
 4651 0a79 4C010000 		.4byte	.LVL78
 4652 0a7d 50010000 		.4byte	.LVL79
 4653 0a81 0200     		.2byte	0x2
 4654 0a83 90       		.byte	0x90
 4655 0a84 4E       		.uleb128 0x4e
 4656 0a85 50010000 		.4byte	.LVL79
 4657 0a89 56010000 		.4byte	.LVL80
 4658 0a8d 0C00     		.2byte	0xc
 4659 0a8f F5       		.byte	0xf5
 4660 0a90 4F       		.uleb128 0x4f
 4661 0a91 25       		.uleb128 0x25
 4662 0a92 F4       		.byte	0xf4
 4663 0a93 25       		.uleb128 0x25
 4664 0a94 04       		.byte	0x4
 4665 0a95 0820803A 		.4byte	0x3a802008
 4666 0a99 1E       		.byte	0x1e
 4667 0a9a 9F       		.byte	0x9f
 4668 0a9b 56010000 		.4byte	.LVL80
 4669 0a9f 5C010000 		.4byte	.LVL81
 4670 0aa3 0F00     		.2byte	0xf
ARM GAS  C:\msys64\tmp\cc8rWMSQ.s 			page 83


 4671 0aa5 71       		.byte	0x71
 4672 0aa6 00       		.sleb128 0
 4673 0aa7 F7       		.byte	0xf7
 4674 0aa8 2C       		.uleb128 0x2c
 4675 0aa9 F7       		.byte	0xf7
 4676 0aaa 25       		.uleb128 0x25
 4677 0aab F4       		.byte	0xf4
 4678 0aac 25       		.uleb128 0x25
 4679 0aad 04       		.byte	0x4
 4680 0aae 0820803A 		.4byte	0x3a802008
 4681 0ab2 1E       		.byte	0x1e
 4682 0ab3 9F       		.byte	0x9f
 4683 0ab4 5C010000 		.4byte	.LVL81
 4684 0ab8 60010000 		.4byte	.LVL82
 4685 0abc 0200     		.2byte	0x2
 4686 0abe 90       		.byte	0x90
 4687 0abf 4E       		.uleb128 0x4e
 4688 0ac0 60010000 		.4byte	.LVL82
 4689 0ac4 70010000 		.4byte	.LVL83
 4690 0ac8 0C00     		.2byte	0xc
 4691 0aca F5       		.byte	0xf5
 4692 0acb 4F       		.uleb128 0x4f
 4693 0acc 25       		.uleb128 0x25
 4694 0acd F4       		.byte	0xf4
 4695 0ace 25       		.uleb128 0x25
 4696 0acf 04       		.byte	0x4
 4697 0ad0 0820803A 		.4byte	0x3a802008
 4698 0ad4 1E       		.byte	0x1e
 4699 0ad5 9F       		.byte	0x9f
 4700 0ad6 70010000 		.4byte	.LVL83
 4701 0ada 74010000 		.4byte	.LVL84
 4702 0ade 0200     		.2byte	0x2
 4703 0ae0 90       		.byte	0x90
 4704 0ae1 4E       		.uleb128 0x4e
 4705 0ae2 74010000 		.4byte	.LVL84
 4706 0ae6 7A010000 		.4byte	.LVL85
 4707 0aea 0C00     		.2byte	0xc
 4708 0aec F5       		.byte	0xf5
 4709 0aed 4F       		.uleb128 0x4f
 4710 0aee 25       		.uleb128 0x25
 4711 0aef F4       		.byte	0xf4
 4712 0af0 25       		.uleb128 0x25
 4713 0af1 04       		.byte	0x4
 4714 0af2 0820803A 		.4byte	0x3a802008
 4715 0af6 1E       		.byte	0x1e
 4716 0af7 9F       		.byte	0x9f
 4717 0af8 7A010000 		.4byte	.LVL85
 4718 0afc 80010000 		.4byte	.LVL86
 4719 0b00 0F00     		.2byte	0xf
 4720 0b02 71       		.byte	0x71
 4721 0b03 00       		.sleb128 0
 4722 0b04 F7       		.byte	0xf7
 4723 0b05 2C       		.uleb128 0x2c
 4724 0b06 F7       		.byte	0xf7
 4725 0b07 25       		.uleb128 0x25
 4726 0b08 F4       		.byte	0xf4
 4727 0b09 25       		.uleb128 0x25
ARM GAS  C:\msys64\tmp\cc8rWMSQ.s 			page 84


 4728 0b0a 04       		.byte	0x4
 4729 0b0b 0820803A 		.4byte	0x3a802008
 4730 0b0f 1E       		.byte	0x1e
 4731 0b10 9F       		.byte	0x9f
 4732 0b11 80010000 		.4byte	.LVL86
 4733 0b15 84010000 		.4byte	.LVL87
 4734 0b19 0200     		.2byte	0x2
 4735 0b1b 90       		.byte	0x90
 4736 0b1c 4E       		.uleb128 0x4e
 4737 0b1d 84010000 		.4byte	.LVL87
 4738 0b21 94010000 		.4byte	.LVL88
 4739 0b25 0C00     		.2byte	0xc
 4740 0b27 F5       		.byte	0xf5
 4741 0b28 4F       		.uleb128 0x4f
 4742 0b29 25       		.uleb128 0x25
 4743 0b2a F4       		.byte	0xf4
 4744 0b2b 25       		.uleb128 0x25
 4745 0b2c 04       		.byte	0x4
 4746 0b2d 0820803A 		.4byte	0x3a802008
 4747 0b31 1E       		.byte	0x1e
 4748 0b32 9F       		.byte	0x9f
 4749 0b33 94010000 		.4byte	.LVL88
 4750 0b37 98010000 		.4byte	.LVL89
 4751 0b3b 0200     		.2byte	0x2
 4752 0b3d 90       		.byte	0x90
 4753 0b3e 4E       		.uleb128 0x4e
 4754 0b3f 98010000 		.4byte	.LVL89
 4755 0b43 9E010000 		.4byte	.LVL90
 4756 0b47 0C00     		.2byte	0xc
 4757 0b49 F5       		.byte	0xf5
 4758 0b4a 4F       		.uleb128 0x4f
 4759 0b4b 25       		.uleb128 0x25
 4760 0b4c F4       		.byte	0xf4
 4761 0b4d 25       		.uleb128 0x25
 4762 0b4e 04       		.byte	0x4
 4763 0b4f 0820803A 		.4byte	0x3a802008
 4764 0b53 1E       		.byte	0x1e
 4765 0b54 9F       		.byte	0x9f
 4766 0b55 9E010000 		.4byte	.LVL90
 4767 0b59 A4010000 		.4byte	.LVL91
 4768 0b5d 0F00     		.2byte	0xf
 4769 0b5f 71       		.byte	0x71
 4770 0b60 00       		.sleb128 0
 4771 0b61 F7       		.byte	0xf7
 4772 0b62 2C       		.uleb128 0x2c
 4773 0b63 F7       		.byte	0xf7
 4774 0b64 25       		.uleb128 0x25
 4775 0b65 F4       		.byte	0xf4
 4776 0b66 25       		.uleb128 0x25
 4777 0b67 04       		.byte	0x4
 4778 0b68 0820803A 		.4byte	0x3a802008
 4779 0b6c 1E       		.byte	0x1e
 4780 0b6d 9F       		.byte	0x9f
 4781 0b6e A4010000 		.4byte	.LVL91
 4782 0b72 D0010000 		.4byte	.LFE254
 4783 0b76 0200     		.2byte	0x2
 4784 0b78 90       		.byte	0x90
ARM GAS  C:\msys64\tmp\cc8rWMSQ.s 			page 85


 4785 0b79 4E       		.uleb128 0x4e
 4786 0b7a 00000000 		.4byte	0
 4787 0b7e 00000000 		.4byte	0
 4788              	.LLST59:
 4789 0b82 00000000 		.4byte	.LVL92
 4790 0b86 1E000000 		.4byte	.LVL94
 4791 0b8a 0400     		.2byte	0x4
 4792 0b8c 0A       		.byte	0xa
 4793 0b8d FFFF     		.2byte	0xffff
 4794 0b8f 9F       		.byte	0x9f
 4795 0b90 00000000 		.4byte	0
 4796 0b94 00000000 		.4byte	0
 4797              	.LLST60:
 4798 0b98 00000000 		.4byte	.LVL92
 4799 0b9c 1E000000 		.4byte	.LVL94
 4800 0ba0 0200     		.2byte	0x2
 4801 0ba2 31       		.byte	0x31
 4802 0ba3 9F       		.byte	0x9f
 4803 0ba4 00000000 		.4byte	0
 4804 0ba8 00000000 		.4byte	0
 4805              	.LLST61:
 4806 0bac 00000000 		.4byte	.LVL92
 4807 0bb0 1E000000 		.4byte	.LVL94
 4808 0bb4 0600     		.2byte	0x6
 4809 0bb6 03       		.byte	0x3
 4810 0bb7 00000000 		.4byte	_ZL6mvps1D
 4811 0bbb 9F       		.byte	0x9f
 4812 0bbc 00000000 		.4byte	0
 4813 0bc0 00000000 		.4byte	0
 4814              	.LLST62:
 4815 0bc4 00000000 		.4byte	.LVL92
 4816 0bc8 0A000000 		.4byte	.LVL93
 4817 0bcc 0600     		.2byte	0x6
 4818 0bce 03       		.byte	0x3
 4819 0bcf 00000000 		.4byte	_ZL6mvps1D
 4820 0bd3 9F       		.byte	0x9f
 4821 0bd4 00000000 		.4byte	0
 4822 0bd8 00000000 		.4byte	0
 4823              		.section	.debug_aranges,"",%progbits
 4824 0000 2C000000 		.4byte	0x2c
 4825 0004 0200     		.2byte	0x2
 4826 0006 00000000 		.4byte	.Ldebug_info0
 4827 000a 04       		.byte	0x4
 4828 000b 00       		.byte	0
 4829 000c 0000     		.2byte	0
 4830 000e 0000     		.2byte	0
 4831 0010 00000000 		.4byte	.Ltext0
 4832 0014 D0010000 		.4byte	.Letext0-.Ltext0
 4833 0018 00000000 		.4byte	.LFB248
 4834 001c 1C010000 		.4byte	.LFE248-.LFB248
 4835 0020 00000000 		.4byte	.LFB256
 4836 0024 24000000 		.4byte	.LFE256-.LFB256
 4837 0028 00000000 		.4byte	0
 4838 002c 00000000 		.4byte	0
 4839              		.section	.debug_ranges,"",%progbits
 4840              	.Ldebug_ranges0:
 4841 0000 B4000000 		.4byte	.LBB111
ARM GAS  C:\msys64\tmp\cc8rWMSQ.s 			page 86


 4842 0004 B6000000 		.4byte	.LBE111
 4843 0008 BE000000 		.4byte	.LBB120
 4844 000c 0C010000 		.4byte	.LBE120
 4845 0010 00000000 		.4byte	0
 4846 0014 00000000 		.4byte	0
 4847 0018 E4000000 		.4byte	.LBB113
 4848 001c E8000000 		.4byte	.LBE113
 4849 0020 F4000000 		.4byte	.LBB117
 4850 0024 00010000 		.4byte	.LBE117
 4851 0028 02010000 		.4byte	.LBB118
 4852 002c 06010000 		.4byte	.LBE118
 4853 0030 00000000 		.4byte	0
 4854 0034 00000000 		.4byte	0
 4855 0038 06000000 		.4byte	.LBB149
 4856 003c 0A000000 		.4byte	.LBE149
 4857 0040 0C000000 		.4byte	.LBB193
 4858 0044 0E000000 		.4byte	.LBE193
 4859 0048 12000000 		.4byte	.LBB194
 4860 004c 1C000000 		.4byte	.LBE194
 4861 0050 20000000 		.4byte	.LBB195
 4862 0054 38000000 		.4byte	.LBE195
 4863 0058 3C000000 		.4byte	.LBB196
 4864 005c 48000000 		.4byte	.LBE196
 4865 0060 5A000000 		.4byte	.LBB242
 4866 0064 5E000000 		.4byte	.LBE242
 4867 0068 62000000 		.4byte	.LBB243
 4868 006c 66000000 		.4byte	.LBE243
 4869 0070 6C000000 		.4byte	.LBB244
 4870 0074 70000000 		.4byte	.LBE244
 4871 0078 74000000 		.4byte	.LBB245
 4872 007c 8A000000 		.4byte	.LBE245
 4873 0080 00000000 		.4byte	0
 4874 0084 00000000 		.4byte	0
 4875 0088 06000000 		.4byte	.LBB151
 4876 008c 0A000000 		.4byte	.LBE151
 4877 0090 2C000000 		.4byte	.LBB169
 4878 0094 30000000 		.4byte	.LBE169
 4879 0098 3C000000 		.4byte	.LBB172
 4880 009c 40000000 		.4byte	.LBE172
 4881 00a0 44000000 		.4byte	.LBB174
 4882 00a4 48000000 		.4byte	.LBE174
 4883 00a8 5A000000 		.4byte	.LBB175
 4884 00ac 5E000000 		.4byte	.LBE175
 4885 00b0 62000000 		.4byte	.LBB176
 4886 00b4 66000000 		.4byte	.LBE176
 4887 00b8 00000000 		.4byte	0
 4888 00bc 00000000 		.4byte	0
 4889 00c0 0C000000 		.4byte	.LBB158
 4890 00c4 0E000000 		.4byte	.LBE158
 4891 00c8 12000000 		.4byte	.LBB164
 4892 00cc 16000000 		.4byte	.LBE164
 4893 00d0 20000000 		.4byte	.LBB165
 4894 00d4 26000000 		.4byte	.LBE165
 4895 00d8 30000000 		.4byte	.LBB170
 4896 00dc 34000000 		.4byte	.LBE170
 4897 00e0 40000000 		.4byte	.LBB173
 4898 00e4 44000000 		.4byte	.LBE173
ARM GAS  C:\msys64\tmp\cc8rWMSQ.s 			page 87


 4899 00e8 00000000 		.4byte	0
 4900 00ec 00000000 		.4byte	0
 4901 00f0 26000000 		.4byte	.LBB166
 4902 00f4 2C000000 		.4byte	.LBE166
 4903 00f8 34000000 		.4byte	.LBB171
 4904 00fc 38000000 		.4byte	.LBE171
 4905 0100 00000000 		.4byte	0
 4906 0104 00000000 		.4byte	0
 4907 0108 6C000000 		.4byte	.LBB177
 4908 010c 70000000 		.4byte	.LBE177
 4909 0110 74000000 		.4byte	.LBB184
 4910 0114 82000000 		.4byte	.LBE184
 4911 0118 00000000 		.4byte	0
 4912 011c 00000000 		.4byte	0
 4913 0120 4E000000 		.4byte	.LBB198
 4914 0124 52000000 		.4byte	.LBE198
 4915 0128 56000000 		.4byte	.LBB237
 4916 012c 5A000000 		.4byte	.LBE237
 4917 0130 8A000000 		.4byte	.LBB238
 4918 0134 8E000000 		.4byte	.LBE238
 4919 0138 92000000 		.4byte	.LBB239
 4920 013c 96000000 		.4byte	.LBE239
 4921 0140 9A000000 		.4byte	.LBB240
 4922 0144 EE000000 		.4byte	.LBE240
 4923 0148 00000000 		.4byte	0
 4924 014c 00000000 		.4byte	0
 4925 0150 8A000000 		.4byte	.LBB199
 4926 0154 8E000000 		.4byte	.LBE199
 4927 0158 92000000 		.4byte	.LBB225
 4928 015c 96000000 		.4byte	.LBE225
 4929 0160 B0000000 		.4byte	.LBB232
 4930 0164 B4000000 		.4byte	.LBE232
 4931 0168 B8000000 		.4byte	.LBB234
 4932 016c BC000000 		.4byte	.LBE234
 4933 0170 C0000000 		.4byte	.LBB236
 4934 0174 D6000000 		.4byte	.LBE236
 4935 0178 00000000 		.4byte	0
 4936 017c 00000000 		.4byte	0
 4937 0180 8A000000 		.4byte	.LBB201
 4938 0184 8E000000 		.4byte	.LBE201
 4939 0188 92000000 		.4byte	.LBB217
 4940 018c 96000000 		.4byte	.LBE217
 4941 0190 B0000000 		.4byte	.LBB218
 4942 0194 B4000000 		.4byte	.LBE218
 4943 0198 B8000000 		.4byte	.LBB219
 4944 019c BC000000 		.4byte	.LBE219
 4945 01a0 C0000000 		.4byte	.LBB220
 4946 01a4 D6000000 		.4byte	.LBE220
 4947 01a8 00000000 		.4byte	0
 4948 01ac 00000000 		.4byte	0
 4949 01b0 8A000000 		.4byte	.LBB202
 4950 01b4 8E000000 		.4byte	.LBE202
 4951 01b8 92000000 		.4byte	.LBB213
 4952 01bc 96000000 		.4byte	.LBE213
 4953 01c0 B0000000 		.4byte	.LBB214
 4954 01c4 B4000000 		.4byte	.LBE214
 4955 01c8 B8000000 		.4byte	.LBB215
ARM GAS  C:\msys64\tmp\cc8rWMSQ.s 			page 88


 4956 01cc BC000000 		.4byte	.LBE215
 4957 01d0 C0000000 		.4byte	.LBB216
 4958 01d4 D6000000 		.4byte	.LBE216
 4959 01d8 00000000 		.4byte	0
 4960 01dc 00000000 		.4byte	0
 4961 01e0 8A000000 		.4byte	.LBB203
 4962 01e4 8E000000 		.4byte	.LBE203
 4963 01e8 B0000000 		.4byte	.LBB210
 4964 01ec B4000000 		.4byte	.LBE210
 4965 01f0 B8000000 		.4byte	.LBB211
 4966 01f4 BC000000 		.4byte	.LBE211
 4967 01f8 C0000000 		.4byte	.LBB212
 4968 01fc D6000000 		.4byte	.LBE212
 4969 0200 00000000 		.4byte	0
 4970 0204 00000000 		.4byte	0
 4971 0208 A2000000 		.4byte	.LBB226
 4972 020c A6000000 		.4byte	.LBE226
 4973 0210 AC000000 		.4byte	.LBB231
 4974 0214 B0000000 		.4byte	.LBE231
 4975 0218 B4000000 		.4byte	.LBB233
 4976 021c B8000000 		.4byte	.LBE233
 4977 0220 BC000000 		.4byte	.LBB235
 4978 0224 C0000000 		.4byte	.LBE235
 4979 0228 00000000 		.4byte	0
 4980 022c 00000000 		.4byte	0
 4981 0230 00000000 		.4byte	.Ltext0
 4982 0234 D0010000 		.4byte	.Letext0
 4983 0238 00000000 		.4byte	.LFB248
 4984 023c 1C010000 		.4byte	.LFE248
 4985 0240 00000000 		.4byte	.LFB256
 4986 0244 24000000 		.4byte	.LFE256
 4987 0248 00000000 		.4byte	0
 4988 024c 00000000 		.4byte	0
 4989              		.section	.debug_line,"",%progbits
 4990              	.Ldebug_line0:
 4991 0000 98030000 		.section	.debug_str,"MS",%progbits,1
 4991      02000502 
 4991      00000201 
 4991      FB0E0D00 
 4991      01010101 
 4992              	.LASF54:
 4993 0000 70617261 		.ascii	"params\000"
 4993      6D7300
 4994              	.LASF84:
 4995 0007 5F686F6F 		.ascii	"_hook_param\000"
 4995      6B5F7061 
 4995      72616D00 
 4996              	.LASF94:
 4997 0013 77745F70 		.ascii	"wt_par_lut_f\000"
 4997      61725F6C 
 4997      75745F66 
 4997      00
 4998              	.LASF102:
 4999 0020 474E5520 		.ascii	"GNU C++11 5.4.1 20160919 (release) [ARM/embedded-5-"
 4999      432B2B31 
 4999      3120352E 
 4999      342E3120 
ARM GAS  C:\msys64\tmp\cc8rWMSQ.s 			page 89


 4999      32303136 
 5000 0053 6272616E 		.ascii	"branch revision 240496] -mcpu=cortex-m4 -mthumb -mn"
 5000      63682072 
 5000      65766973 
 5000      696F6E20 
 5000      32343034 
 5001 0086 6F2D7468 		.ascii	"o-thumb-interwork -mlittle-endian -mfloat-abi=hard "
 5001      756D622D 
 5001      696E7465 
 5001      72776F72 
 5001      6B202D6D 
 5002 00b9 2D6D6670 		.ascii	"-mfpu=fpv4-sp-d16 -g -Os -std=c++11 -fsingle-precis"
 5002      753D6670 
 5002      76342D73 
 5002      702D6431 
 5002      36202D67 
 5003 00ec 696F6E2D 		.ascii	"ion-constant -fcheck-new -fno-rtti -fno-exceptions "
 5003      636F6E73 
 5003      74616E74 
 5003      202D6663 
 5003      6865636B 
 5004 011f 2D666E6F 		.ascii	"-fno-non-call-exceptions\000"
 5004      2D6E6F6E 
 5004      2D63616C 
 5004      6C2D6578 
 5004      63657074 
 5005              	.LASF1:
 5006 0138 756E7369 		.ascii	"unsigned int\000"
 5006      676E6564 
 5006      20696E74 
 5006      00
 5007              	.LASF100:
 5008 0145 62697472 		.ascii	"bitres_lut_f\000"
 5008      65735F6C 
 5008      75745F66 
 5008      00
 5009              	.LASF68:
 5010 0152 6F73635F 		.ascii	"osc_sinf\000"
 5010      73696E66 
 5010      00
 5011              	.LASF8:
 5012 015b 5F5F696E 		.ascii	"__int32_t\000"
 5012      7433325F 
 5012      7400
 5013              	.LASF81:
 5014 0165 706C6174 		.ascii	"platform\000"
 5014      666F726D 
 5014      00
 5015              	.LASF30:
 5016 016e 70697463 		.ascii	"pitch\000"
 5016      6800
 5017              	.LASF44:
 5018 0174 75736572 		.ascii	"user_osc_param_id_t\000"
 5018      5F6F7363 
 5018      5F706172 
 5018      616D5F69 
 5018      645F7400 
ARM GAS  C:\msys64\tmp\cc8rWMSQ.s 			page 90


 5019              	.LASF58:
 5020 0188 75706461 		.ascii	"updatePhase\000"
 5020      74655068 
 5020      61736500 
 5021              	.LASF50:
 5022 0194 53746174 		.ascii	"State\000"
 5022      6500
 5023              	.LASF35:
 5024 019a 6B5F7573 		.ascii	"k_user_osc_param_id1\000"
 5024      65725F6F 
 5024      73635F70 
 5024      6172616D 
 5024      5F696431 
 5025              	.LASF36:
 5026 01af 6B5F7573 		.ascii	"k_user_osc_param_id2\000"
 5026      65725F6F 
 5026      73635F70 
 5026      6172616D 
 5026      5F696432 
 5027              	.LASF37:
 5028 01c4 6B5F7573 		.ascii	"k_user_osc_param_id3\000"
 5028      65725F6F 
 5028      73635F70 
 5028      6172616D 
 5028      5F696433 
 5029              	.LASF38:
 5030 01d9 6B5F7573 		.ascii	"k_user_osc_param_id4\000"
 5030      65725F6F 
 5030      73635F70 
 5030      6172616D 
 5030      5F696434 
 5031              	.LASF39:
 5032 01ee 6B5F7573 		.ascii	"k_user_osc_param_id5\000"
 5032      65725F6F 
 5032      73635F70 
 5032      6172616D 
 5032      5F696435 
 5033              	.LASF40:
 5034 0203 6B5F7573 		.ascii	"k_user_osc_param_id6\000"
 5034      65725F6F 
 5034      73635F70 
 5034      6172616D 
 5034      5F696436 
 5035              	.LASF43:
 5036 0218 6B5F6E75 		.ascii	"k_num_user_osc_param_id\000"
 5036      6D5F7573 
 5036      65725F6F 
 5036      73635F70 
 5036      6172616D 
 5037              	.LASF82:
 5038 0230 5F686F6F 		.ascii	"_hook_cycle\000"
 5038      6B5F6379 
 5038      636C6500 
 5039              	.LASF96:
 5040 023c 74616E70 		.ascii	"tanpi_lut_f\000"
 5040      695F6C75 
 5040      745F6600 
ARM GAS  C:\msys64\tmp\cc8rWMSQ.s 			page 91


 5041              	.LASF73:
 5042 0248 6F73635F 		.ascii	"osc_softclipf\000"
 5042      736F6674 
 5042      636C6970 
 5042      6600
 5043              	.LASF17:
 5044 0256 75696E74 		.ascii	"uint32_t\000"
 5044      33325F74 
 5044      00
 5045              	.LASF87:
 5046 025f 76616C66 		.ascii	"valf\000"
 5046      00
 5047              	.LASF90:
 5048 0264 6D696469 		.ascii	"midi_to_hz_lut_f\000"
 5048      5F746F5F 
 5048      687A5F6C 
 5048      75745F66 
 5048      00
 5049              	.LASF0:
 5050 0275 666C6F61 		.ascii	"float\000"
 5050      7400
 5051              	.LASF85:
 5052 027b 696E6465 		.ascii	"index\000"
 5052      7800
 5053              	.LASF25:
 5054 0281 6B5F7573 		.ascii	"k_user_module_delfx\000"
 5054      65725F6D 
 5054      6F64756C 
 5054      655F6465 
 5054      6C667800 
 5055              	.LASF13:
 5056 0295 6C6F6E67 		.ascii	"long long unsigned int\000"
 5056      206C6F6E 
 5056      6720756E 
 5056      7369676E 
 5056      65642069 
 5057              	.LASF6:
 5058 02ac 5F5F7569 		.ascii	"__uint16_t\000"
 5058      6E743136 
 5058      5F7400
 5059              	.LASF45:
 5060 02b7 75736572 		.ascii	"user_osc_param\000"
 5060      5F6F7363 
 5060      5F706172 
 5060      616D00
 5061              	.LASF86:
 5062 02c6 76616C75 		.ascii	"value\000"
 5062      6500
 5063              	.LASF74:
 5064 02cc 5F5F696E 		.ascii	"__initialize_p\000"
 5064      69746961 
 5064      6C697A65 
 5064      5F7000
 5065              	.LASF26:
 5066 02db 6B5F7573 		.ascii	"k_user_module_revfx\000"
 5066      65725F6D 
 5066      6F64756C 
ARM GAS  C:\msys64\tmp\cc8rWMSQ.s 			page 92


 5066      655F7265 
 5066      76667800 
 5067              	.LASF76:
 5068 02ef 66726163 		.ascii	"fraction\000"
 5068      74696F6E 
 5068      00
 5069              	.LASF75:
 5070 02f8 5F5F7072 		.ascii	"__priority\000"
 5070      696F7269 
 5070      747900
 5071              	.LASF49:
 5072 0303 73686966 		.ascii	"shiftshape\000"
 5072      74736861 
 5072      706500
 5073              	.LASF56:
 5074 030e 5F5A4E36 		.ascii	"_ZN6MVPS1DC4Ev\000"
 5074      4D565053 
 5074      31444334 
 5074      457600
 5075              	.LASF31:
 5076 031d 6375746F 		.ascii	"cutoff\000"
 5076      666600
 5077              	.LASF20:
 5078 0324 63686172 		.ascii	"char\000"
 5078      00
 5079              	.LASF108:
 5080 0329 5F686F6F 		.ascii	"_hook_off\000"
 5080      6B5F6F66 
 5080      6600
 5081              	.LASF83:
 5082 0333 6672616D 		.ascii	"frames\000"
 5082      657300
 5083              	.LASF99:
 5084 033a 73636865 		.ascii	"schetzen_lut_f\000"
 5084      747A656E 
 5084      5F6C7574 
 5084      5F6600
 5085              	.LASF14:
 5086 0349 75696E74 		.ascii	"uint8_t\000"
 5086      385F7400 
 5087              	.LASF59:
 5088 0351 5F5A4E36 		.ascii	"_ZN6MVPS1D11updatePhaseEPff\000"
 5088      4D565053 
 5088      31443131 
 5088      75706461 
 5088      74655068 
 5089              	.LASF66:
 5090 036d 6F73635F 		.ascii	"osc_notehzf\000"
 5090      6E6F7465 
 5090      687A6600 
 5091              	.LASF55:
 5092 0379 4D756C74 		.ascii	"MultiPhaseShaper\000"
 5092      69506861 
 5092      73655368 
 5092      61706572 
 5092      00
 5093              	.LASF95:
ARM GAS  C:\msys64\tmp\cc8rWMSQ.s 			page 93


 5094 038a 6C6F675F 		.ascii	"log_lut_f\000"
 5094      6C75745F 
 5094      6600
 5095              	.LASF64:
 5096 0394 636C6970 		.ascii	"clipmaxf\000"
 5096      6D617866 
 5096      00
 5097              	.LASF12:
 5098 039d 6C6F6E67 		.ascii	"long long int\000"
 5098      206C6F6E 
 5098      6720696E 
 5098      7400
 5099              	.LASF46:
 5100 03ab 4D565053 		.ascii	"MVPS1D\000"
 5100      314400
 5101              	.LASF62:
 5102 03b2 636C616D 		.ascii	"clampfsel\000"
 5102      70667365 
 5102      6C00
 5103              	.LASF32:
 5104 03bc 7265736F 		.ascii	"resonance\000"
 5104      6E616E63 
 5104      6500
 5105              	.LASF28:
 5106 03c6 6B5F6E75 		.ascii	"k_num_user_modules\000"
 5106      6D5F7573 
 5106      65725F6D 
 5106      6F64756C 
 5106      657300
 5107              	.LASF63:
 5108 03d9 636C6970 		.ascii	"clipmaxu32\000"
 5108      6D617875 
 5108      333200
 5109              	.LASF109:
 5110 03e4 5F474C4F 		.ascii	"_GLOBAL__sub_I__hook_init\000"
 5110      42414C5F 
 5110      5F737562 
 5110      5F495F5F 
 5110      686F6F6B 
 5111              	.LASF92:
 5112 03fe 77745F73 		.ascii	"wt_saw_lut_f\000"
 5112      61775F6C 
 5112      75745F66 
 5112      00
 5113              	.LASF27:
 5114 040b 6B5F7573 		.ascii	"k_user_module_osc\000"
 5114      65725F6D 
 5114      6F64756C 
 5114      655F6F73 
 5114      6300
 5115              	.LASF78:
 5116 041d 6E756D65 		.ascii	"numerator\000"
 5116      7261746F 
 5116      7200
 5117              	.LASF18:
 5118 0427 6C6F6E67 		.ascii	"long double\000"
 5118      20646F75 
ARM GAS  C:\msys64\tmp\cc8rWMSQ.s 			page 94


 5118      626C6500 
 5119              	.LASF15:
 5120 0433 75696E74 		.ascii	"uint16_t\000"
 5120      31365F74 
 5120      00
 5121              	.LASF71:
 5122 043c 74686973 		.ascii	"this\000"
 5122      00
 5123              	.LASF47:
 5124 0441 50617261 		.ascii	"Params\000"
 5124      6D7300
 5125              	.LASF107:
 5126 0448 5F5F7374 		.ascii	"__static_initialization_and_destruction_0\000"
 5126      61746963 
 5126      5F696E69 
 5126      7469616C 
 5126      697A6174 
 5127              	.LASF42:
 5128 0472 6B5F7573 		.ascii	"k_user_osc_param_shiftshape\000"
 5128      65725F6F 
 5128      73635F70 
 5128      6172616D 
 5128      5F736869 
 5129              	.LASF104:
 5130 048e 433A5C6D 		.ascii	"C:\\msys64\\home\\logue-sdk\\platform\\nutekt-digit"
 5130      73797336 
 5130      345C686F 
 5130      6D655C6C 
 5130      6F677565 
 5131 04bc 616C5C43 		.ascii	"al\\Custom-Projects\\osc\\VPS_Project\\mvps1D\000"
 5131      7573746F 
 5131      6D2D5072 
 5131      6F6A6563 
 5131      74735C6F 
 5132              	.LASF80:
 5133 04e6 5F686F6F 		.ascii	"_hook_init\000"
 5133      6B5F696E 
 5133      697400
 5134              	.LASF4:
 5135 04f1 73686F72 		.ascii	"short int\000"
 5135      7420696E 
 5135      7400
 5136              	.LASF97:
 5137 04fb 73717274 		.ascii	"sqrtm2log_lut_f\000"
 5137      6D326C6F 
 5137      675F6C75 
 5137      745F6600 
 5138              	.LASF98:
 5139 050b 63756269 		.ascii	"cubicsat_lut_f\000"
 5139      63736174 
 5139      5F6C7574 
 5139      5F6600
 5140              	.LASF93:
 5141 051a 77745F73 		.ascii	"wt_sqr_lut_f\000"
 5141      71725F6C 
 5141      75745F66 
 5141      00
ARM GAS  C:\msys64\tmp\cc8rWMSQ.s 			page 95


 5142              	.LASF9:
 5143 0527 6C6F6E67 		.ascii	"long int\000"
 5143      20696E74 
 5143      00
 5144              	.LASF48:
 5145 0530 73686170 		.ascii	"shape\000"
 5145      6500
 5146              	.LASF24:
 5147 0536 6B5F7573 		.ascii	"k_user_module_modfx\000"
 5147      65725F6D 
 5147      6F64756C 
 5147      655F6D6F 
 5147      64667800 
 5148              	.LASF41:
 5149 054a 6B5F7573 		.ascii	"k_user_osc_param_shape\000"
 5149      65725F6F 
 5149      73635F70 
 5149      6172616D 
 5149      5F736861 
 5150              	.LASF52:
 5151 0561 5F5A4E36 		.ascii	"_ZN6MVPS1D5StateC4Ev\000"
 5151      4D565053 
 5151      31443553 
 5151      74617465 
 5151      43344576 
 5152              	.LASF106:
 5153 0576 31397573 		.ascii	"19user_osc_param_id_t\000"
 5153      65725F6F 
 5153      73635F70 
 5153      6172616D 
 5153      5F69645F 
 5154              	.LASF33:
 5155 058c 72657365 		.ascii	"reserved0\000"
 5155      72766564 
 5155      3000
 5156              	.LASF79:
 5157 0596 64656E6F 		.ascii	"denominator\000"
 5157      6D696E61 
 5157      746F7200 
 5158              	.LASF5:
 5159 05a2 5F5F7569 		.ascii	"__uint8_t\000"
 5159      6E74385F 
 5159      7400
 5160              	.LASF89:
 5161 05ac 6B5F6F73 		.ascii	"k_osc_api_version\000"
 5161      635F6170 
 5161      695F7665 
 5161      7273696F 
 5161      6E00
 5162              	.LASF60:
 5163 05be 6673656C 		.ascii	"fsel\000"
 5163      00
 5164              	.LASF67:
 5165 05c3 6E6F7465 		.ascii	"note\000"
 5165      00
 5166              	.LASF22:
 5167 05c8 7133315F 		.ascii	"q31_t\000"
ARM GAS  C:\msys64\tmp\cc8rWMSQ.s 			page 96


 5167      7400
 5168              	.LASF19:
 5169 05ce 73697A65 		.ascii	"sizetype\000"
 5169      74797065 
 5169      00
 5170              	.LASF11:
 5171 05d7 6C6F6E67 		.ascii	"long unsigned int\000"
 5171      20756E73 
 5171      69676E65 
 5171      6420696E 
 5171      7400
 5172              	.LASF91:
 5173 05e9 77745F73 		.ascii	"wt_sine_lut_f\000"
 5173      696E655F 
 5173      6C75745F 
 5173      6600
 5174              	.LASF16:
 5175 05f7 696E7433 		.ascii	"int32_t\000"
 5175      325F7400 
 5176              	.LASF65:
 5177 05ff 6C696E69 		.ascii	"linintf\000"
 5177      6E746600 
 5178              	.LASF3:
 5179 0607 756E7369 		.ascii	"unsigned char\000"
 5179      676E6564 
 5179      20636861 
 5179      7200
 5180              	.LASF10:
 5181 0615 5F5F7569 		.ascii	"__uint32_t\000"
 5181      6E743332 
 5181      5F7400
 5182              	.LASF70:
 5183 0620 6F73635F 		.ascii	"osc_cosf\000"
 5183      636F7366 
 5183      00
 5184              	.LASF23:
 5185 0629 6B5F7573 		.ascii	"k_user_module_global\000"
 5185      65725F6D 
 5185      6F64756C 
 5185      655F676C 
 5185      6F62616C 
 5186              	.LASF51:
 5187 063e 5F5A4E36 		.ascii	"_ZN6MVPS1D6ParamsC4Ev\000"
 5187      4D565053 
 5187      31443650 
 5187      6172616D 
 5187      73433445 
 5188              	.LASF105:
 5189 0654 6465636C 		.ascii	"decltype(nullptr)\000"
 5189      74797065 
 5189      286E756C 
 5189      6C707472 
 5189      2900
 5190              	.LASF53:
 5191 0666 73746174 		.ascii	"state\000"
 5191      6500
 5192              	.LASF57:
ARM GAS  C:\msys64\tmp\cc8rWMSQ.s 			page 97


 5193 066c 5F5A4E36 		.ascii	"_ZN6MVPS1D16MultiPhaseShaperEff\000"
 5193      4D565053 
 5193      31443136 
 5193      4D756C74 
 5193      69506861 
 5194              	.LASF101:
 5195 068c 6D767073 		.ascii	"mvps1D\000"
 5195      314400
 5196              	.LASF2:
 5197 0693 7369676E 		.ascii	"signed char\000"
 5197      65642063 
 5197      68617200 
 5198              	.LASF7:
 5199 069f 73686F72 		.ascii	"short unsigned int\000"
 5199      7420756E 
 5199      7369676E 
 5199      65642069 
 5199      6E7400
 5200              	.LASF72:
 5201 06b2 6F73635F 		.ascii	"osc_w0f_for_note\000"
 5201      7730665F 
 5201      666F725F 
 5201      6E6F7465 
 5201      00
 5202              	.LASF34:
 5203 06c3 75736572 		.ascii	"user_osc_param_t\000"
 5203      5F6F7363 
 5203      5F706172 
 5203      616D5F74 
 5203      00
 5204              	.LASF21:
 5205 06d4 646F7562 		.ascii	"double\000"
 5205      6C6500
 5206              	.LASF29:
 5207 06db 73686170 		.ascii	"shape_lfo\000"
 5207      655F6C66 
 5207      6F00
 5208              	.LASF103:
 5209 06e5 6D767073 		.ascii	"mvps1D.cpp\000"
 5209      31442E63 
 5209      707000
 5210              	.LASF77:
 5211 06f0 66616374 		.ascii	"factor\000"
 5211      6F7200
 5212              	.LASF69:
 5213 06f7 636C6970 		.ascii	"clip1m1f\000"
 5213      316D3166 
 5213      00
 5214              	.LASF61:
 5215 0700 636C616D 		.ascii	"clampmaxfsel\000"
 5215      706D6178 
 5215      6673656C 
 5215      00
 5216              	.LASF88:
 5217 070d 6B5F6F73 		.ascii	"k_osc_api_platform\000"
 5217      635F6170 
 5217      695F706C 
ARM GAS  C:\msys64\tmp\cc8rWMSQ.s 			page 98


 5217      6174666F 
 5217      726D00
 5218              		.ident	"GCC: (GNU Tools for ARM Embedded Processors) 5.4.1 20160919 (release) [ARM/embedded-5-bran
ARM GAS  C:\msys64\tmp\cc8rWMSQ.s 			page 99


DEFINED SYMBOLS
                            *ABS*:00000000 mvps1D.cpp
C:\msys64\tmp\cc8rWMSQ.s:22     .text._ZN6MVPS1D16MultiPhaseShaperEff:00000000 $t
C:\msys64\tmp\cc8rWMSQ.s:27     .text._ZN6MVPS1D16MultiPhaseShaperEff:00000000 _ZN6MVPS1D16MultiPhaseShaperEff
C:\msys64\tmp\cc8rWMSQ.s:242    .text._ZN6MVPS1D16MultiPhaseShaperEff:00000114 $d
C:\msys64\tmp\cc8rWMSQ.s:248    .text:00000000 $t
C:\msys64\tmp\cc8rWMSQ.s:253    .text:00000000 _hook_init
C:\msys64\tmp\cc8rWMSQ.s:271    .text:00000002 _hook_cycle
C:\msys64\tmp\cc8rWMSQ.s:655    .text:000000fc $d
C:\msys64\tmp\cc8rWMSQ.s:665    .text:00000118 $t
C:\msys64\tmp\cc8rWMSQ.s:670    .text:00000118 _hook_on
C:\msys64\tmp\cc8rWMSQ.s:685    .text:0000011a _hook_off
C:\msys64\tmp\cc8rWMSQ.s:702    .text:0000011c _hook_param
C:\msys64\tmp\cc8rWMSQ.s:721    .text:00000134 $d
C:\msys64\tmp\cc8rWMSQ.s:729    .text:0000013c $t
C:\msys64\tmp\cc8rWMSQ.s:811    .text:000001b4 $d
C:\msys64\tmp\cc8rWMSQ.s:822    .text.startup:00000000 $t
C:\msys64\tmp\cc8rWMSQ.s:826    .text.startup:00000000 _GLOBAL__sub_I__hook_init
C:\msys64\tmp\cc8rWMSQ.s:864    .text.startup:00000020 $d
C:\msys64\tmp\cc8rWMSQ.s:873    .init_array:00000000 $d
C:\msys64\tmp\cc8rWMSQ.s:876    .bss:00000000 $d
C:\msys64\tmp\cc8rWMSQ.s:880    .bss:00000000 _ZL6mvps1D
                     .debug_frame:00000010 $d

UNDEFINED SYMBOLS
wt_sine_lut_f
midi_to_hz_lut_f
