ARM GAS  C:\msys64\tmp\ccIzHiui.s 			page 1


   1              		.syntax unified
   2              		.cpu cortex-m4
   3              		.eabi_attribute 27, 1
   4              		.eabi_attribute 28, 1
   5              		.fpu fpv4-sp-d16
   6              		.eabi_attribute 20, 1
   7              		.eabi_attribute 21, 1
   8              		.eabi_attribute 23, 3
   9              		.eabi_attribute 24, 1
  10              		.eabi_attribute 25, 1
  11              		.eabi_attribute 26, 1
  12              		.eabi_attribute 30, 4
  13              		.eabi_attribute 34, 1
  14              		.eabi_attribute 18, 4
  15              		.thumb
  16              		.syntax unified
  17              		.file	"mvps.cpp"
  18              		.text
  19              	.Ltext0:
  20              		.cfi_sections	.debug_frame
  21              		.align	1
  22              		.global	_hook_init
  23              		.thumb
  24              		.thumb_func
  25              		.type	_hook_init, %function
  26              	_hook_init:
  27              	.LFB295:
  28              		.file 1 "mvps.cpp"
  29              		.loc 1 14 0
  30              		.cfi_startproc
  31              		@ args = 0, pretend = 0, frame = 0
  32              		@ frame_needed = 0, uses_anonymous_args = 0
  33              		@ link register save eliminated.
  34              	.LVL0:
  35 0000 7047     		bx	lr
  36              		.cfi_endproc
  37              	.LFE295:
  38              		.size	_hook_init, .-_hook_init
  39              		.align	1
  40              		.global	_hook_cycle
  41              		.thumb
  42              		.thumb_func
  43              		.type	_hook_cycle, %function
  44              	_hook_cycle:
  45              	.LFB296:
  46              		.loc 1 19 0
  47              		.cfi_startproc
  48              		@ args = 0, pretend = 0, frame = 0
  49              		@ frame_needed = 0, uses_anonymous_args = 0
  50              	.LVL1:
  51              		.loc 1 25 0
  52 0002 C94B     		ldr	r3, .L41
  53 0004 9FEDC95A 		vldr.32	s10, .L41+4
  54              	.LBB306:
  55              	.LBB307:
  56              	.LBB308:
  57              	.LBB309:
ARM GAS  C:\msys64\tmp\ccIzHiui.s 			page 2


  58              		.file 2 "C:/msys64/home/logue-sdk/platform/nutekt-digital/inc/utils/float_math.h"
  59              		.loc 2 826 0
  60 0008 9FEDC97A 		vldr.32	s14, .L41+8
  61              	.LBE309:
  62              	.LBE308:
  63              	.LBE307:
  64              	.LBE306:
  65              	.LBB349:
  66              	.LBB350:
  67              		.file 3 "mvps.hpp"
  68              		.loc 3 76 0
  69 000c D3ED0A5A 		vldr.32	s11, [r3, #40]
  70              	.LBB351:
  71              	.LBB352:
  72              		.file 4 "C:/msys64/home/logue-sdk/platform/nutekt-digital/inc/osc_api.h"
  73              		.loc 4 615 0
  74 0010 9FEDC84A 		vldr.32	s8, .L41+12
  75              	.LBE352:
  76              	.LBE351:
  77              	.LBE350:
  78              	.LBE349:
  79              	.LBB431:
  80              	.LBB432:
  81              	.LBB433:
  82              	.LBB434:
  83              		.loc 3 91 0
  84 0014 D3ED071A 		vldr.32	s3, [r3, #28]
  85              		.loc 3 92 0
  86 0018 93ED053A 		vldr.32	s6, [r3, #20]
  87              		.loc 3 93 0
  88 001c 93ED081A 		vldr.32	s2, [r3, #32]
  89              		.loc 3 94 0
  90 0020 D3ED062A 		vldr.32	s5, [r3, #24]
  91              		.loc 3 95 0
  92 0024 D3ED090A 		vldr.32	s1, [r3, #36]
  93              	.LBE434:
  94              	.LBE433:
  95              	.LBE432:
  96              	.LBE431:
  97              		.loc 1 19 0
  98 0028 70B5     		push	{r4, r5, r6, lr}
  99              		.cfi_def_cfa_offset 16
 100              		.cfi_offset 4, -16
 101              		.cfi_offset 5, -12
 102              		.cfi_offset 6, -8
 103              		.cfi_offset 14, -4
 104              		.loc 1 25 0
 105 002a 1C7B     		ldrb	r4, [r3, #12]	@ zero_extendqisi2
 106              	.LVL2:
 107              		.loc 1 31 0
 108 002c 14F0010F 		tst	r4, #1
 109              		.loc 1 28 0
 110 0030 2546     		mov	r5, r4
 111              		.loc 1 36 0
 112 0032 8488     		ldrh	r4, [r0, #4]
 113              	.LVL3:
 114 0034 4FEA2420 		asr	r0, r4, #8
ARM GAS  C:\msys64\tmp\ccIzHiui.s 			page 3


 115              	.LVL4:
 116              		.loc 1 19 0
 117 0038 2DED0A8B 		vpush.64	{d8, d9, d10, d11, d12}
 118              		.cfi_def_cfa_offset 56
 119              		.cfi_offset 80, -56
 120              		.cfi_offset 81, -52
 121              		.cfi_offset 82, -48
 122              		.cfi_offset 83, -44
 123              		.cfi_offset 84, -40
 124              		.cfi_offset 85, -36
 125              		.cfi_offset 86, -32
 126              		.cfi_offset 87, -28
 127              		.cfi_offset 88, -24
 128              		.cfi_offset 89, -20
 129              		.loc 1 28 0
 130 003c 6FF30005 		bfc	r5, #0, #1
 131              	.LBB530:
 132              	.LBB531:
 133              		.loc 3 60 0
 134 0040 18BF     		it	ne
 135 0042 83ED005A 		vstrne.32	s10, [r3]
 136              	.LBE531:
 137              	.LBE530:
 138              	.LBB532:
 139              	.LBB340:
 140              	.LBB314:
 141              	.LBB315:
 142              		.loc 4 109 0
 143 0046 9628     		cmp	r0, #150
 144              	.LBE315:
 145              	.LBE314:
 146              	.LBE340:
 147              	.LBE532:
 148              		.loc 1 28 0
 149 0048 1D73     		strb	r5, [r3, #12]
 150              		.loc 1 39 0
 151 004a E4B2     		uxtb	r4, r4
 152              	.LBB533:
 153              	.LBB341:
 154              	.LBB320:
 155              	.LBB316:
 156              		.loc 4 109 0
 157 004c D8BF     		it	le
 158 004e 0546     		movle	r5, r0
 159              	.LBE316:
 160              	.LBE320:
 161              		.loc 4 120 0
 162 0050 00F10100 		add	r0, r0, #1
 163              	.LVL5:
 164 0054 C0B2     		uxtb	r0, r0
 165              	.LVL6:
 166              	.LBE341:
 167              	.LBE533:
 168              		.loc 1 39 0
 169 0056 07EE904A 		vmov	s15, r4	@ int
 170              	.LVL7:
 171              	.LBB534:
ARM GAS  C:\msys64\tmp\ccIzHiui.s 			page 4


 172              	.LBB342:
 173              	.LBB321:
 174              	.LBB317:
 175              		.loc 4 109 0
 176 005a C8BF     		it	gt
 177 005c 9725     		movgt	r5, #151
 178              	.LVL8:
 179 005e B64C     		ldr	r4, .L41+16
 180              	.LVL9:
 181              	.LBE317:
 182              	.LBE321:
 183              	.LBE342:
 184              	.LBE534:
 185              	.LBB535:
 186              	.LBB420:
 187              	.LBB360:
 188              	.LBB361:
 189              		.file 5 "c:\\msys64\\home\\logue-sdk\\platform\\nutekt-digital\\inc\\dsp\\biquad.hpp"
 190              		.loc 5 143 0
 191 0060 83ED0D5A 		vstr.32	s10, [r3, #52]
 192              	.LBE361:
 193              	.LBE360:
 194              	.LBE420:
 195              	.LBE535:
 196              	.LBB536:
 197              	.LBB343:
 198              	.LBB322:
 199              	.LBB323:
 200              		.loc 4 109 0
 201 0064 9628     		cmp	r0, #150
 202 0066 88BF     		it	hi
 203 0068 9720     		movhi	r0, #151
 204              	.LBE323:
 205              	.LBE322:
 206              	.LBB325:
 207              	.LBB310:
 208              		.loc 2 826 0
 209 006a F8EEE77A 		vcvt.f32.s32	s15, s15
 210              	.LVL10:
 211              	.LBE310:
 212              	.LBE325:
 213              	.LBB326:
 214              	.LBB318:
 215              		.loc 4 109 0
 216 006e 04EB8505 		add	r5, r4, r5, lsl #2
 217              	.LBE318:
 218              	.LBE326:
 219              	.LBB327:
 220              	.LBB324:
 221 0072 04EB8000 		add	r0, r4, r0, lsl #2
 222              	.LBE324:
 223              	.LBE327:
 224              	.LBB328:
 225              	.LBB319:
 226 0076 95ED006A 		vldr.32	s12, [r5]
 227              	.LVL11:
 228              	.LBE319:
ARM GAS  C:\msys64\tmp\ccIzHiui.s 			page 5


 229              	.LBE328:
 230              	.LBE343:
 231              	.LBE536:
 232              	.LBB537:
 233              	.LBB421:
 234              	.LBB366:
 235              	.LBB362:
 236              		.loc 5 143 0
 237 007a 83ED0F5A 		vstr.32	s10, [r3, #60]
 238              	.LBE362:
 239              	.LBE366:
 240              	.LBE421:
 241              	.LBE537:
 242              	.LBB538:
 243              	.LBB344:
 244              	.LBB329:
 245              	.LBB311:
 246              		.loc 2 826 0
 247 007e 67EE877A 		vmul.f32	s15, s15, s14
 248 0082 90ED007A 		vldr.32	s14, [r0]
 249              	.LBE311:
 250              	.LBE329:
 251              	.LBE344:
 252              	.LBE538:
 253              	.LBB539:
 254              	.LBB422:
 255              	.LBB367:
 256              	.LBB357:
 257              		.loc 4 617 0
 258 0086 AD48     		ldr	r0, .L41+20
 259              	.LBE357:
 260              	.LBE367:
 261              	.LBB368:
 262              	.LBB369:
 263              		.loc 5 159 0
 264 0088 83ED145A 		vstr.32	s10, [r3, #80]
 265              	.LBE369:
 266              	.LBE368:
 267              	.LBE422:
 268              	.LBE539:
 269              	.LBB540:
 270              	.LBB345:
 271              	.LBB330:
 272              	.LBB312:
 273              		.loc 2 826 0
 274 008c 37EE467A 		vsub.f32	s14, s14, s12
 275              	.LBE312:
 276              	.LBE330:
 277              	.LBE345:
 278              	.LBE540:
 279              	.LBB541:
 280              	.LBB423:
 281              	.LBB372:
 282              	.LBB370:
 283              		.loc 5 159 0
 284 0090 83ED165A 		vstr.32	s10, [r3, #88]
 285              	.LBE370:
ARM GAS  C:\msys64\tmp\ccIzHiui.s 			page 6


 286              	.LBE372:
 287              	.LBE423:
 288              	.LBE541:
 289              	.LBB542:
 290              	.LBB346:
 291              	.LBB331:
 292              	.LBB313:
 293              		.loc 2 826 0
 294 0094 A7EE876A 		vfma.f32	s12, s15, s14
 295              	.LVL12:
 296              	.LBE313:
 297              	.LBE331:
 298              	.LBE346:
 299              	.LBE542:
 300              		.loc 1 52 0
 301 0098 01EB8202 		add	r2, r1, r2, lsl #2
 302              	.LVL13:
 303              	.LBB543:
 304              	.LBB347:
 305              	.LBB332:
 306              	.LBB333:
 307              	.LBB334:
 308              	.LBB335:
 309              		.loc 2 193 0
 310 009c DFEDA87A 		vldr.32	s15, .L41+24
 311              	.LBE335:
 312              	.LBE334:
 313              	.LBE333:
 314              	.LBE332:
 315              	.LBE347:
 316              	.LBE543:
 317              	.LBB544:
 318              	.LBB523:
 319              	.LBB482:
 320              	.LBB477:
 321              	.LBB435:
 322              	.LBB436:
 323              	.LBB437:
 324              	.LBB438:
 325              		.loc 4 154 0
 326 00a0 DFEDA8AA 		vldr.32	s21, .L41+28
 327              	.LBE438:
 328              	.LBE437:
 329              	.LBE436:
 330              	.LBE435:
 331              	.LBE477:
 332              	.LBE482:
 333              		.loc 1 67 0
 334 00a4 DFEDA89A 		vldr.32	s19, .L41+32
 335 00a8 9FEDA89A 		vldr.32	s18, .L41+36
 336              	.LBE523:
 337              	.LBE544:
 338              	.LBB545:
 339              	.LBB348:
 340              	.LBB339:
 341              	.LBB338:
 342              	.LBB337:
ARM GAS  C:\msys64\tmp\ccIzHiui.s 			page 7


 343              	.LBB336:
 344              		.loc 2 193 0
 345 00ac B4EEE76A 		vcmpe.f32	s12, s15
 346 00b0 F1EE10FA 		vmrs	APSR_nzcv, FPSCR
 347 00b4 A8BF     		it	ge
 348 00b6 B0EE676A 		vmovge.f32	s12, s15
 349              	.LVL14:
 350              	.LBE336:
 351              	.LBE337:
 352              	.LBE338:
 353              	.LBE339:
 354              		.loc 4 124 0
 355 00ba DFEDA57A 		vldr.32	s15, .L41+40
 356 00be 26EE276A 		vmul.f32	s12, s12, s15
 357              	.LVL15:
 358              	.LBE348:
 359              	.LBE545:
 360              	.LBB546:
 361              	.LBB424:
 362              	.LBB373:
 363              	.LBB374:
 364              	.LBB375:
 365              	.LBB376:
 366              	.LBB377:
 367              		.loc 2 193 0
 368 00c2 DFEDA47A 		vldr.32	s15, .L41+44
 369              	.LBE377:
 370              	.LBE376:
 371              	.LBE375:
 372              	.LBE374:
 373              	.LBE373:
 374              	.LBE424:
 375              	.LBE546:
 376              		.loc 1 39 0
 377 00c6 83ED016A 		vstr.32	s12, [r3, #4]
 378              	.LVL16:
 379              	.LBB547:
 380              	.LBB425:
 381              		.loc 3 77 0
 382 00ca 26EE257A 		vmul.f32	s14, s12, s11
 383              	.LVL17:
 384              	.LBE425:
 385              	.LBE547:
 386              	.LBB548:
 387              	.LBB524:
 388              	.LBB483:
 389              	.LBB478:
 390              	.LBB456:
 391              	.LBB453:
 392              		.loc 4 171 0
 393 00ce B5EE00AA 		vmov.f32	s20, #2.5e-1
 394              	.LBE453:
 395              	.LBE456:
 396              	.LBE478:
 397              	.LBE483:
 398              	.LBE524:
 399              	.LBE548:
ARM GAS  C:\msys64\tmp\ccIzHiui.s 			page 8


 400              	.LBB549:
 401              	.LBB426:
 402              	.LBB390:
 403              	.LBB387:
 404              	.LBB384:
 405              	.LBB381:
 406              	.LBB378:
 407              		.loc 2 193 0
 408 00d2 77EE676A 		vsub.f32	s13, s14, s15
 409              	.LVL18:
 410              	.LBE378:
 411              	.LBE381:
 412              	.LBE384:
 413              	.LBE387:
 414              	.LBE390:
 415              	.LBE426:
 416              	.LBE549:
 417              	.LBB550:
 418              	.LBB525:
 419              	.LBB484:
 420              	.LBB485:
 421              	.LBB486:
 422              	.LBB487:
 423              	.LBB488:
 424              	.LBB489:
 425 00d6 BFEE00BA 		vmov.f32	s22, #-1.0e+0
 426              	.LBE489:
 427              	.LBE488:
 428              	.LBE487:
 429              	.LBE486:
 430              	.LBE485:
 431              	.LBE484:
 432              	.LBE525:
 433              	.LBE550:
 434              	.LBB551:
 435              	.LBB427:
 436              	.LBB391:
 437              	.LBB388:
 438              	.LBB385:
 439              	.LBB382:
 440              	.LBB379:
 441 00da F5EEC06A 		vcmpe.f32	s13, #0
 442 00de F1EE10FA 		vmrs	APSR_nzcv, FPSCR
 443              	.LBE379:
 444              	.LBE382:
 445              	.LBE385:
 446              	.LBE388:
 447              	.LBE391:
 448              		.loc 3 78 0
 449 00e2 F7EE006A 		vmov.f32	s13, #1.0e+0
 450              	.LVL19:
 451              	.LBB392:
 452              	.LBB389:
 453              	.LBB386:
 454              	.LBB383:
 455              	.LBB380:
 456              		.loc 2 193 0
ARM GAS  C:\msys64\tmp\ccIzHiui.s 			page 9


 457 00e6 B8BF     		it	lt
 458 00e8 F0EE477A 		vmovlt.f32	s15, s14
 459              	.LVL20:
 460              	.LBE380:
 461              	.LBE383:
 462              	.LBE386:
 463              	.LBE389:
 464              	.LBE392:
 465              		.loc 3 78 0
 466 00ec 86EEA57A 		vdiv.f32	s14, s13, s11
 467              	.LBB393:
 468              	.LBB358:
 469              		.loc 4 615 0
 470 00f0 67EE847A 		vmul.f32	s15, s15, s8
 471              	.LBE358:
 472              	.LBE393:
 473              		.loc 3 78 0
 474 00f4 67EE065A 		vmul.f32	s11, s14, s12
 475              	.LVL21:
 476              	.LBE427:
 477              	.LBE551:
 478              	.LBB552:
 479              	.LBB526:
 480              	.LBB510:
 481              	.LBB506:
 482              	.LBB502:
 483              	.LBB498:
 484              	.LBB494:
 485              	.LBB490:
 486              		.loc 2 193 0
 487 00f8 F0EE66BA 		vmov.f32	s23, s13
 488              	.LBE490:
 489              	.LBE494:
 490              	.LBE498:
 491              	.LBE502:
 492              	.LBE506:
 493              	.LBE510:
 494              	.LBE526:
 495              	.LBE552:
 496              	.LBB553:
 497              	.LBB428:
 498              	.LBB394:
 499              	.LBB395:
 500              	.LBB396:
 501              	.LBB397:
 502              	.LBB398:
 503 00fc 35EE657A 		vsub.f32	s14, s10, s11
 504              	.LVL22:
 505 0100 B5EEC07A 		vcmpe.f32	s14, #0
 506 0104 9FED897A 		vldr.32	s14, .L41+4
 507              	.LVL23:
 508 0108 F1EE10FA 		vmrs	APSR_nzcv, FPSCR
 509 010c B8BF     		it	lt
 510 010e B0EE657A 		vmovlt.f32	s14, s11
 511              	.LVL24:
 512              	.LBE398:
 513              	.LBE397:
ARM GAS  C:\msys64\tmp\ccIzHiui.s 			page 10


 514              	.LBE396:
 515              	.LBE395:
 516              	.LBE394:
 517              	.LBB399:
 518              	.LBB359:
 519              		.loc 4 616 0
 520 0112 FCEEE75A 		vcvt.u32.f32	s11, s15
 521 0116 15EE904A 		vmov	r4, s11	@ int
 522              	.LVL25:
 523              	.LBB353:
 524              	.LBB354:
 525              		.loc 2 826 0
 526 011a 04EE904A 		vmov	s9, r4	@ int
 527 011e F8EE644A 		vcvt.f32.u32	s9, s9
 528              	.LBE354:
 529              	.LBE353:
 530              		.loc 4 617 0
 531 0122 00EB8405 		add	r5, r0, r4, lsl #2
 532 0126 D5ED005A 		vldr.32	s11, [r5]
 533              	.LVL26:
 534              	.LBB356:
 535              	.LBB355:
 536              		.loc 2 826 0
 537 012a 77EEE47A 		vsub.f32	s15, s15, s9
 538              	.LVL27:
 539 012e D5ED014A 		vldr.32	s9, [r5, #4]
 540 0132 74EEE54A 		vsub.f32	s9, s9, s11
 541 0136 E7EEA45A 		vfma.f32	s11, s15, s9
 542              	.LVL28:
 543 013a D3ED104A 		vldr.32	s9, [r3, #64]
 544              	.LBE355:
 545              	.LBE356:
 546              	.LBE359:
 547              	.LBE399:
 548              	.LBB400:
 549              	.LBB363:
 550              		.loc 5 139 0
 551 013e 75EEA67A 		vadd.f32	s15, s11, s13
 552              	.LVL29:
 553              		.loc 5 141 0
 554 0142 C5EEA73A 		vdiv.f32	s7, s11, s15
 555              		.loc 5 142 0
 556 0146 75EEE65A 		vsub.f32	s11, s11, s13
 557              		.loc 5 141 0
 558 014a C3ED0C3A 		vstr.32	s7, [r3, #48]
 559              		.loc 5 142 0
 560 014e 85EEA70A 		vdiv.f32	s0, s11, s15
 561              	.LBE363:
 562              	.LBE400:
 563              	.LBB401:
 564              	.LBB402:
 565              		.loc 4 615 0
 566 0152 67EE047A 		vmul.f32	s15, s14, s8
 567              	.LVL30:
 568              	.LBE402:
 569              	.LBE401:
 570              	.LBB413:
ARM GAS  C:\msys64\tmp\ccIzHiui.s 			page 11


 571              	.LBB364:
 572              		.loc 5 141 0
 573 0156 C3ED0B3A 		vstr.32	s7, [r3, #44]
 574              	.LBE364:
 575              	.LBE413:
 576              	.LBB414:
 577              	.LBB409:
 578              		.loc 4 616 0
 579 015a BCEEE77A 		vcvt.u32.f32	s14, s15
 580              	.LBE409:
 581              	.LBE414:
 582              	.LBB415:
 583              	.LBB365:
 584              		.loc 5 142 0
 585 015e 83ED0E0A 		vstr.32	s0, [r3, #56]
 586              	.LBE365:
 587              	.LBE415:
 588              	.LBB416:
 589              	.LBB410:
 590              		.loc 4 616 0
 591 0162 17EE104A 		vmov	r4, s14	@ int
 592              	.LVL31:
 593              	.LBB403:
 594              	.LBB404:
 595              		.loc 2 826 0
 596 0166 05EE904A 		vmov	s11, r4	@ int
 597 016a F8EE655A 		vcvt.f32.u32	s11, s11
 598              	.LBE404:
 599              	.LBE403:
 600              		.loc 4 617 0
 601 016e 00EB8405 		add	r5, r0, r4, lsl #2
 602 0172 95ED007A 		vldr.32	s14, [r5]
 603              	.LVL32:
 604              	.LBE410:
 605              	.LBE416:
 606              	.LBE428:
 607              	.LBE553:
 608              	.LBB554:
 609              	.LBB527:
 610              	.LBB511:
 611              	.LBB479:
 612              		.loc 3 90 0
 613 0176 93ED044A 		vldr.32	s8, [r3, #16]
 614              	.LBE479:
 615              	.LBE511:
 616              	.LBE527:
 617              	.LBE554:
 618              	.LBB555:
 619              	.LBB429:
 620              	.LBB417:
 621              	.LBB411:
 622              	.LBB407:
 623              	.LBB405:
 624              		.loc 2 826 0
 625 017a 77EEE57A 		vsub.f32	s15, s15, s11
 626              	.LVL33:
 627 017e D5ED015A 		vldr.32	s11, [r5, #4]
ARM GAS  C:\msys64\tmp\ccIzHiui.s 			page 12


 628              	.LBE405:
 629              	.LBE407:
 630              	.LBE411:
 631              	.LBE417:
 632              	.LBE429:
 633              	.LBE555:
 634              	.LBB556:
 635              	.LBB528:
 636              	.LBB512:
 637              	.LBB480:
 638              	.LBB457:
 639              	.LBB454:
 640              	.LBB451:
 641              	.LBB449:
 642              		.loc 4 160 0
 643 0182 754D     		ldr	r5, .L41+48
 644              	.LBE449:
 645              	.LBE451:
 646              	.LBE454:
 647              	.LBE457:
 648              	.LBE480:
 649              	.LBE512:
 650              	.LBE528:
 651              	.LBE556:
 652              	.LBB557:
 653              	.LBB430:
 654              	.LBB418:
 655              	.LBB412:
 656              	.LBB408:
 657              	.LBB406:
 658              		.loc 2 826 0
 659 0184 75EEC75A 		vsub.f32	s11, s11, s14
 660 0188 A7EEA57A 		vfma.f32	s14, s15, s11
 661              	.LVL34:
 662 018c F0EE477A 		vmov.f32	s15, s14
 663              	.LVL35:
 664              	.LBE406:
 665              	.LBE408:
 666              	.LBE412:
 667              	.LBE418:
 668              	.LBB419:
 669              	.LBB371:
 670              		.loc 5 154 0
 671 0190 37EE267A 		vadd.f32	s14, s14, s13
 672              	.LVL36:
 673              		.loc 5 158 0
 674 0194 77EEE67A 		vsub.f32	s15, s15, s13
 675              		.loc 5 156 0
 676 0198 86EE872A 		vdiv.f32	s4, s13, s14
 677              		.loc 5 158 0
 678 019c C7EE878A 		vdiv.f32	s17, s15, s14
 679              		.loc 5 157 0
 680 01a0 B1EE428A 		vneg.f32	s16, s4
 681              		.loc 5 156 0
 682 01a4 83ED122A 		vstr.32	s4, [r3, #72]
 683              		.loc 5 157 0
 684 01a8 83ED138A 		vstr.32	s16, [r3, #76]
ARM GAS  C:\msys64\tmp\ccIzHiui.s 			page 13


 685              		.loc 5 158 0
 686 01ac C3ED158A 		vstr.32	s17, [r3, #84]
 687              	.LBE371:
 688              	.LBE419:
 689              	.LBE430:
 690              	.LBE557:
 691              		.loc 1 45 0
 692 01b0 93ED007A 		vldr.32	s14, [r3]
 693              	.LVL37:
 694 01b4 93ED175A 		vldr.32	s10, [r3, #92]
 695 01b8 D3ED025A 		vldr.32	s11, [r3, #8]
 696              	.LVL38:
 697              	.L20:
 698              	.LBB558:
 699              		.loc 1 55 0
 700 01bc 9142     		cmp	r1, r2
 701 01be 00F0A780 		beq	.L9
 702              	.LVL39:
 703              	.LBB529:
 704              	.LBB513:
 705              	.LBB481:
 706              	.LBB458:
 707              		.loc 3 98 0
 708 01c2 B4EEC74A 		vcmpe.f32	s8, s14
 709 01c6 F1EE10FA 		vmrs	APSR_nzcv, FPSCR
 710 01ca 04DD     		ble	.L36
 711              	.LVL40:
 712              	.LBB459:
 713              		.loc 3 100 0
 714 01cc C7EE047A 		vdiv.f32	s15, s14, s8
 715              	.LVL41:
 716 01d0 67EEA17A 		vmul.f32	s15, s15, s3
 717              	.LVL42:
 718 01d4 35E0     		b	.L12
 719              	.LVL43:
 720              	.L36:
 721              	.LBE459:
 722              		.loc 3 101 0
 723 01d6 B4EEC37A 		vcmpe.f32	s14, s6
 724 01da F1EE10FA 		vmrs	APSR_nzcv, FPSCR
 725 01de 0ED5     		bpl	.L37
 726              	.LVL44:
 727              	.LBB460:
 728              	.LBB461:
 729              		.loc 3 118 0
 730 01e0 77EE447A 		vsub.f32	s15, s14, s8
 731              		.loc 3 121 0
 732 01e4 73EE44CA 		vsub.f32	s25, s6, s8
 733 01e8 87EEACCA 		vdiv.f32	s24, s15, s25
 734 01ec 71EE617A 		vsub.f32	s15, s2, s3
 735 01f0 F0EE61CA 		vmov.f32	s25, s3
 736 01f4 ECEE27CA 		vfma.f32	s25, s24, s15
 737 01f8 F0EE6C7A 		vmov.f32	s15, s25
 738              	.LVL45:
 739 01fc 21E0     		b	.L12
 740              	.LVL46:
 741              	.L37:
ARM GAS  C:\msys64\tmp\ccIzHiui.s 			page 14


 742              	.LBE461:
 743              	.LBE460:
 744              		.loc 3 103 0
 745 01fe B4EEE27A 		vcmpe.f32	s14, s5
 746 0202 F1EE10FA 		vmrs	APSR_nzcv, FPSCR
 747 0206 0ED5     		bpl	.L38
 748              	.LVL47:
 749              	.LBB462:
 750              	.LBB463:
 751              		.loc 3 118 0
 752 0208 77EE437A 		vsub.f32	s15, s14, s6
 753              		.loc 3 121 0
 754 020c 72EEC3CA 		vsub.f32	s25, s5, s6
 755 0210 87EEACCA 		vdiv.f32	s24, s15, s25
 756 0214 70EEC17A 		vsub.f32	s15, s1, s2
 757 0218 F0EE41CA 		vmov.f32	s25, s2
 758 021c ECEE27CA 		vfma.f32	s25, s24, s15
 759 0220 F0EE6C7A 		vmov.f32	s15, s25
 760              	.LVL48:
 761 0224 0DE0     		b	.L12
 762              	.LVL49:
 763              	.L38:
 764              	.LBE463:
 765              	.LBE462:
 766              	.LBB464:
 767              	.LBB465:
 768              		.loc 3 118 0
 769 0226 77EE627A 		vsub.f32	s15, s14, s5
 770              		.loc 3 121 0
 771 022a 76EEE2CA 		vsub.f32	s25, s13, s5
 772 022e 87EEACCA 		vdiv.f32	s24, s15, s25
 773 0232 76EEE07A 		vsub.f32	s15, s13, s1
 774 0236 F0EE60CA 		vmov.f32	s25, s1
 775 023a ECEE27CA 		vfma.f32	s25, s24, s15
 776 023e F0EE6C7A 		vmov.f32	s15, s25
 777              	.LVL50:
 778              	.L12:
 779              	.LBE465:
 780              	.LBE464:
 781              	.LBE458:
 782              	.LBB466:
 783              	.LBB455:
 784              		.loc 4 171 0
 785 0242 77EE8A7A 		vadd.f32	s15, s15, s20
 786              	.LVL51:
 787              	.LBB452:
 788              	.LBB450:
 789              		.loc 4 154 0
 790 0246 BCEEE7CA 		vcvt.u32.f32	s24, s15
 791 024a B8EE4CCA 		vcvt.f32.u32	s24, s24
 792 024e 77EECC7A 		vsub.f32	s15, s15, s24
 793              	.LVL52:
 794 0252 67EEAA7A 		vmul.f32	s15, s15, s21
 795              	.LVL53:
 796              		.loc 4 155 0
 797 0256 BCEEE7CA 		vcvt.u32.f32	s24, s15
 798 025a 1CEE104A 		vmov	r4, s24	@ int
ARM GAS  C:\msys64\tmp\ccIzHiui.s 			page 15


 799              	.LVL54:
 800              		.loc 4 157 0
 801 025e 04F07F00 		and	r0, r4, #127
 802              	.LVL55:
 803              	.LBB439:
 804              	.LBB440:
 805              		.loc 2 826 0
 806 0262 0CEE904A 		vmov	s25, r4	@ int
 807              	.LBE440:
 808              	.LBE439:
 809              		.loc 4 160 0
 810 0266 05EB8006 		add	r6, r5, r0, lsl #2
 811 026a 0130     		adds	r0, r0, #1
 812              	.LVL56:
 813              	.LBB445:
 814              	.LBB441:
 815              		.loc 2 826 0
 816 026c F8EE6CCA 		vcvt.f32.u32	s25, s25
 817              	.LBE441:
 818              	.LBE445:
 819              		.loc 4 160 0
 820 0270 00F07F00 		and	r0, r0, #127
 821              	.LVL57:
 822 0274 05EB8000 		add	r0, r5, r0, lsl #2
 823              	.LVL58:
 824              	.LBB446:
 825              	.LBB442:
 826              		.loc 2 826 0
 827 0278 77EEEC7A 		vsub.f32	s15, s15, s25
 828              	.LVL59:
 829              	.LBE442:
 830              	.LBE446:
 831              		.loc 4 160 0
 832 027c 96ED00CA 		vldr.32	s24, [r6]
 833              	.LVL60:
 834              	.LBB447:
 835              	.LBB443:
 836              		.loc 2 826 0
 837 0280 D0ED00CA 		vldr.32	s25, [r0]
 838 0284 7CEECCCA 		vsub.f32	s25, s25, s24
 839              	.LBE443:
 840              	.LBE447:
 841              		.loc 4 161 0
 842 0288 7F2C     		cmp	r4, #127
 843              	.LBB448:
 844              	.LBB444:
 845              		.loc 2 826 0
 846 028a A7EEACCA 		vfma.f32	s24, s15, s25
 847              	.LVL61:
 848 028e F0EE4C7A 		vmov.f32	s15, s24
 849              	.LVL62:
 850              	.LBE444:
 851              	.LBE448:
 852              		.loc 4 161 0
 853 0292 88BF     		it	hi
 854 0294 F1EE4C7A 		vneghi.f32	s15, s24
 855              	.LVL63:
ARM GAS  C:\msys64\tmp\ccIzHiui.s 			page 16


 856              	.LBE450:
 857              	.LBE452:
 858              	.LBE455:
 859              	.LBE466:
 860              		.loc 3 109 0
 861 0298 F1EE677A 		vneg.f32	s15, s15
 862              	.LVL64:
 863              	.LBB467:
 864              	.LBB468:
 865              		.loc 5 385 0
 866 029c E3EEA74A 		vfma.f32	s9, s7, s15
 867 02a0 B0EE64CA 		vmov.f32	s24, s9
 868              	.LVL65:
 869              		.loc 5 387 0
 870 02a4 64EEC04A 		vnmul.f32	s9, s9, s0
 871              	.LVL66:
 872 02a8 E3EEA74A 		vfma.f32	s9, s7, s15
 873              	.LVL67:
 874              	.LBE468:
 875              	.LBE467:
 876              	.LBB469:
 877              	.LBB470:
 878              		.loc 5 385 0
 879 02ac F0EE457A 		vmov.f32	s15, s10
 880 02b0 E2EE0C7A 		vfma.f32	s15, s4, s24
 881              	.LVL68:
 882              		.loc 5 387 0
 883 02b4 27EEE85A 		vnmul.f32	s10, s15, s17
 884              	.LBE470:
 885              	.LBE469:
 886              	.LBB472:
 887              	.LBB473:
 888              		.loc 2 826 0
 889 02b8 77EEE57A 		vsub.f32	s15, s15, s11
 890              	.LVL69:
 891              	.LBE473:
 892              	.LBE472:
 893              	.LBB475:
 894              	.LBB471:
 895              		.loc 5 387 0
 896 02bc A8EE0C5A 		vfma.f32	s10, s16, s24
 897              	.LVL70:
 898              	.LBE471:
 899              	.LBE475:
 900              	.LBB476:
 901              	.LBB474:
 902              		.loc 2 826 0
 903 02c0 E7EE275A 		vfma.f32	s11, s14, s15
 904              	.LVL71:
 905              	.LBE474:
 906              	.LBE476:
 907              	.LBE481:
 908              	.LBE513:
 909              	.LBB514:
 910              	.LBB515:
 911              		.loc 3 85 0
 912 02c4 37EE067A 		vadd.f32	s14, s14, s12
ARM GAS  C:\msys64\tmp\ccIzHiui.s 			page 17


 913              	.LVL72:
 914              	.LBE515:
 915              	.LBE514:
 916              	.LBB518:
 917              	.LBB507:
 918              	.LBB503:
 919              	.LBB499:
 920              	.LBB495:
 921              	.LBB491:
 922              		.loc 2 193 0
 923 02c8 F4EECB5A 		vcmpe.f32	s11, s22
 924              	.LBE491:
 925              	.LBE495:
 926              	.LBE499:
 927              	.LBE503:
 928              	.LBE507:
 929              	.LBE518:
 930              	.LBB519:
 931              	.LBB516:
 932              		.loc 3 86 0
 933 02cc FCEEC77A 		vcvt.u32.f32	s15, s14
 934              	.LBE516:
 935              	.LBE519:
 936              	.LBB520:
 937              	.LBB508:
 938              	.LBB504:
 939              	.LBB500:
 940              	.LBB496:
 941              	.LBB492:
 942              		.loc 2 193 0
 943 02d0 F1EE10FA 		vmrs	APSR_nzcv, FPSCR
 944              	.LBE492:
 945              	.LBE496:
 946              	.LBE500:
 947              	.LBE504:
 948              	.LBE508:
 949              	.LBE520:
 950              	.LBB521:
 951              	.LBB517:
 952              		.loc 3 86 0
 953 02d4 F8EE677A 		vcvt.f32.u32	s15, s15
 954 02d8 37EE677A 		vsub.f32	s14, s14, s15
 955              	.LVL73:
 956              	.LBE517:
 957              	.LBE521:
 958              	.LBB522:
 959              	.LBB509:
 960              	.LBB505:
 961              	.LBB501:
 962              	.LBB497:
 963              	.LBB493:
 964              		.loc 2 193 0
 965 02dc 09DB     		blt	.L39
 966              	.LVL74:
 967 02de F4EEE65A 		vcmpe.f32	s11, s13
 968 02e2 F1EE10FA 		vmrs	APSR_nzcv, FPSCR
 969 02e6 B4BF     		ite	lt
ARM GAS  C:\msys64\tmp\ccIzHiui.s 			page 18


 970 02e8 F0EE657A 		vmovlt.f32	s15, s11
 971 02ec F0EE6B7A 		vmovge.f32	s15, s23
 972 02f0 01E0     		b	.L18
 973              	.LVL75:
 974              	.L39:
 975 02f2 FFEE007A 		vmov.f32	s15, #-1.0e+0
 976              	.LVL76:
 977              	.L18:
 978              	.LBE493:
 979              	.LBE497:
 980              	.LBE501:
 981              	.LBE505:
 982              	.LBE509:
 983              	.LBE522:
 984              		.loc 1 67 0
 985 02f6 27EEA7CA 		vmul.f32	s24, s15, s15
 986 02fa 27EECCCA 		vnmul.f32	s24, s15, s24
 987 02fe ECEE297A 		vfma.f32	s15, s24, s19
 988 0302 67EE897A 		vmul.f32	s15, s15, s18
 989 0306 FDEEE77A 		vcvt.s32.f32	s15, s15
 990 030a E1EC017A 		vstmia.32	r1!, {s15}	@ int
 991              	.LVL77:
 992              	.LBE529:
 993              		.loc 1 55 0
 994 030e 55E7     		b	.L20
 995              	.LVL78:
 996              	.L9:
 997              	.LBE558:
 998              		.loc 1 73 0
 999 0310 BDEC0A8B 		vldm	sp!, {d8-d12}
 1000              		.cfi_restore 88
 1001              		.cfi_restore 89
 1002              		.cfi_restore 86
 1003              		.cfi_restore 87
 1004              		.cfi_restore 84
 1005              		.cfi_restore 85
 1006              		.cfi_restore 82
 1007              		.cfi_restore 83
 1008              		.cfi_restore 80
 1009              		.cfi_restore 81
 1010              		.cfi_def_cfa_offset 16
 1011 0314 C3ED104A 		vstr.32	s9, [r3, #64]
 1012 0318 83ED175A 		vstr.32	s10, [r3, #92]
 1013 031c C3ED025A 		vstr.32	s11, [r3, #8]
 1014              		.loc 1 71 0
 1015 0320 83ED007A 		vstr.32	s14, [r3]
 1016              	.LVL79:
 1017              		.loc 1 73 0
 1018 0324 70BD     		pop	{r4, r5, r6, pc}
 1019              	.L42:
 1020 0326 00BF     		.align	2
 1021              	.L41:
 1022 0328 00000000 		.word	.LANCHOR0
 1023 032c 00000000 		.word	0
 1024 0330 8180803B 		.word	998277249
 1025 0334 BC9C0244 		.word	1141021884
 1026 0338 00000000 		.word	midi_to_hz_lut_f
ARM GAS  C:\msys64\tmp\ccIzHiui.s 			page 19


 1027 033c 00000000 		.word	tanpi_lut_f
 1028 0340 49FFB846 		.word	1186529097
 1029 0344 00008043 		.word	1132462080
 1030 0348 CDCC4C3D 		.word	1028443341
 1031 034c 0000004F 		.word	1325400064
 1032 0350 3EC3AE37 		.word	934200126
 1033 0354 48E1FA3E 		.word	1056629064
 1034 0358 00000000 		.word	wt_sine_lut_f
 1035              		.cfi_endproc
 1036              	.LFE296:
 1037              		.size	_hook_cycle, .-_hook_cycle
 1038              		.align	1
 1039              		.global	_hook_on
 1040              		.thumb
 1041              		.thumb_func
 1042              		.type	_hook_on, %function
 1043              	_hook_on:
 1044              	.LFB297:
 1045              		.loc 1 75 0
 1046              		.cfi_startproc
 1047              		@ args = 0, pretend = 0, frame = 0
 1048              		@ frame_needed = 0, uses_anonymous_args = 0
 1049              		@ link register save eliminated.
 1050              	.LVL80:
 1051              		.loc 1 78 0
 1052 035c 024A     		ldr	r2, .L44
 1053 035e 137B     		ldrb	r3, [r2, #12]	@ zero_extendqisi2
 1054 0360 43F00103 		orr	r3, r3, #1
 1055 0364 1373     		strb	r3, [r2, #12]
 1056 0366 7047     		bx	lr
 1057              	.L45:
 1058              		.align	2
 1059              	.L44:
 1060 0368 00000000 		.word	.LANCHOR0
 1061              		.cfi_endproc
 1062              	.LFE297:
 1063              		.size	_hook_on, .-_hook_on
 1064              		.align	1
 1065              		.global	_hook_off
 1066              		.thumb
 1067              		.thumb_func
 1068              		.type	_hook_off, %function
 1069              	_hook_off:
 1070              	.LFB298:
 1071              		.loc 1 81 0
 1072              		.cfi_startproc
 1073              		@ args = 0, pretend = 0, frame = 0
 1074              		@ frame_needed = 0, uses_anonymous_args = 0
 1075              		@ link register save eliminated.
 1076              	.LVL81:
 1077 036c 7047     		bx	lr
 1078              		.cfi_endproc
 1079              	.LFE298:
 1080              		.size	_hook_off, .-_hook_off
 1081              		.align	1
 1082              		.global	_hook_param
 1083              		.thumb
ARM GAS  C:\msys64\tmp\ccIzHiui.s 			page 20


 1084              		.thumb_func
 1085              		.type	_hook_param, %function
 1086              	_hook_param:
 1087              	.LFB299:
 1088              		.loc 1 86 0
 1089              		.cfi_startproc
 1090              		@ args = 0, pretend = 0, frame = 0
 1091              		@ frame_needed = 0, uses_anonymous_args = 0
 1092              		@ link register save eliminated.
 1093              	.LVL82:
 1094              		.loc 1 86 0
 1095 036e 07EE901A 		vmov	s15, r1	@ int
 1096              		.loc 1 90 0
 1097 0372 0628     		cmp	r0, #6
 1098 0374 00F2B780 		bhi	.L47
 1099 0378 DFE800F0 		tbb	[pc, r0]
 1100              	.L50:
 1101 037c 04       		.byte	(.L49-.L50)/2
 1102 037d 1F       		.byte	(.L51-.L50)/2
 1103 037e 3A       		.byte	(.L52-.L50)/2
 1104 037f 55       		.byte	(.L53-.L50)/2
 1105 0380 70       		.byte	(.L54-.L50)/2
 1106 0381 8B       		.byte	(.L55-.L50)/2
 1107 0382 A6       		.byte	(.L56-.L50)/2
 1108 0383 00       		.p2align 1
 1109              	.L49:
 1110              		.loc 1 93 0
 1111 0384 F8EEE77A 		vcvt.f32.s32	s15, s15
 1112 0388 9FED577A 		vldr.32	s14, .L93
 1113 038c 67EE877A 		vmul.f32	s15, s15, s14
 1114              	.LVL83:
 1115              	.LBB559:
 1116              	.LBB560:
 1117              	.LBB561:
 1118              	.LBB562:
 1119              		.loc 2 193 0
 1120 0390 F5EEC07A 		vcmpe.f32	s15, #0
 1121 0394 F1EE10FA 		vmrs	APSR_nzcv, FPSCR
 1122 0398 09DB     		blt	.L87
 1123              	.LVL84:
 1124              	.LBE562:
 1125              	.LBE561:
 1126              	.LBB564:
 1127              	.LBB565:
 1128 039a B7EE007A 		vmov.f32	s14, #1.0e+0
 1129              	.LBE565:
 1130              	.LBE564:
 1131              	.LBB566:
 1132              	.LBB563:
 1133 039e F4EEC77A 		vcmpe.f32	s15, s14
 1134 03a2 F1EE10FA 		vmrs	APSR_nzcv, FPSCR
 1135 03a6 A8BF     		it	ge
 1136 03a8 F0EE477A 		vmovge.f32	s15, s14
 1137              	.LVL85:
 1138 03ac 01E0     		b	.L57
 1139              	.LVL86:
 1140              	.L87:
ARM GAS  C:\msys64\tmp\ccIzHiui.s 			page 21


 1141 03ae DFED4F7A 		vldr.32	s15, .L93+4
 1142              	.LVL87:
 1143              	.L57:
 1144              	.LBE563:
 1145              	.LBE566:
 1146              	.LBE560:
 1147              	.LBE559:
 1148              		.loc 1 93 0
 1149 03b2 4F4B     		ldr	r3, .L93+8
 1150 03b4 C3ED047A 		vstr.32	s15, [r3, #16]
 1151              		.loc 1 94 0
 1152 03b8 7047     		bx	lr
 1153              	.L51:
 1154              		.loc 1 98 0
 1155 03ba F8EEE77A 		vcvt.f32.s32	s15, s15
 1156 03be 9FED4A7A 		vldr.32	s14, .L93
 1157 03c2 67EE877A 		vmul.f32	s15, s15, s14
 1158              	.LVL88:
 1159              	.LBB567:
 1160              	.LBB568:
 1161              	.LBB569:
 1162              	.LBB570:
 1163              		.loc 2 193 0
 1164 03c6 F5EEC07A 		vcmpe.f32	s15, #0
 1165 03ca F1EE10FA 		vmrs	APSR_nzcv, FPSCR
 1166 03ce 09DB     		blt	.L88
 1167              	.LVL89:
 1168              	.LBE570:
 1169              	.LBE569:
 1170              	.LBB572:
 1171              	.LBB573:
 1172 03d0 B7EE007A 		vmov.f32	s14, #1.0e+0
 1173              	.LBE573:
 1174              	.LBE572:
 1175              	.LBB574:
 1176              	.LBB571:
 1177 03d4 F4EEC77A 		vcmpe.f32	s15, s14
 1178 03d8 F1EE10FA 		vmrs	APSR_nzcv, FPSCR
 1179 03dc A8BF     		it	ge
 1180 03de F0EE477A 		vmovge.f32	s15, s14
 1181              	.LVL90:
 1182 03e2 01E0     		b	.L59
 1183              	.LVL91:
 1184              	.L88:
 1185 03e4 DFED417A 		vldr.32	s15, .L93+4
 1186              	.LVL92:
 1187              	.L59:
 1188              	.LBE571:
 1189              	.LBE574:
 1190              	.LBE568:
 1191              	.LBE567:
 1192              		.loc 1 98 0
 1193 03e8 414B     		ldr	r3, .L93+8
 1194 03ea C3ED077A 		vstr.32	s15, [r3, #28]
 1195              		.loc 1 99 0
 1196 03ee 7047     		bx	lr
 1197              	.L52:
ARM GAS  C:\msys64\tmp\ccIzHiui.s 			page 22


 1198              		.loc 1 103 0
 1199 03f0 F8EEE77A 		vcvt.f32.s32	s15, s15
 1200 03f4 9FED3C7A 		vldr.32	s14, .L93
 1201 03f8 67EE877A 		vmul.f32	s15, s15, s14
 1202              	.LVL93:
 1203              	.LBB575:
 1204              	.LBB576:
 1205              	.LBB577:
 1206              	.LBB578:
 1207              		.loc 2 193 0
 1208 03fc F5EEC07A 		vcmpe.f32	s15, #0
 1209 0400 F1EE10FA 		vmrs	APSR_nzcv, FPSCR
 1210 0404 09DB     		blt	.L89
 1211              	.LVL94:
 1212              	.LBE578:
 1213              	.LBE577:
 1214              	.LBB580:
 1215              	.LBB581:
 1216 0406 B7EE007A 		vmov.f32	s14, #1.0e+0
 1217              	.LBE581:
 1218              	.LBE580:
 1219              	.LBB582:
 1220              	.LBB579:
 1221 040a F4EEC77A 		vcmpe.f32	s15, s14
 1222 040e F1EE10FA 		vmrs	APSR_nzcv, FPSCR
 1223 0412 A8BF     		it	ge
 1224 0414 F0EE477A 		vmovge.f32	s15, s14
 1225              	.LVL95:
 1226 0418 01E0     		b	.L61
 1227              	.LVL96:
 1228              	.L89:
 1229 041a DFED347A 		vldr.32	s15, .L93+4
 1230              	.LVL97:
 1231              	.L61:
 1232              	.LBE579:
 1233              	.LBE582:
 1234              	.LBE576:
 1235              	.LBE575:
 1236              		.loc 1 103 0
 1237 041e 344B     		ldr	r3, .L93+8
 1238 0420 C3ED057A 		vstr.32	s15, [r3, #20]
 1239              		.loc 1 104 0
 1240 0424 7047     		bx	lr
 1241              	.L53:
 1242              		.loc 1 108 0
 1243 0426 F8EEE77A 		vcvt.f32.s32	s15, s15
 1244 042a 9FED2F7A 		vldr.32	s14, .L93
 1245 042e 67EE877A 		vmul.f32	s15, s15, s14
 1246              	.LVL98:
 1247              	.LBB583:
 1248              	.LBB584:
 1249              	.LBB585:
 1250              	.LBB586:
 1251              		.loc 2 193 0
 1252 0432 F5EEC07A 		vcmpe.f32	s15, #0
 1253 0436 F1EE10FA 		vmrs	APSR_nzcv, FPSCR
 1254 043a 09DB     		blt	.L90
ARM GAS  C:\msys64\tmp\ccIzHiui.s 			page 23


 1255              	.LVL99:
 1256              	.LBE586:
 1257              	.LBE585:
 1258              	.LBB588:
 1259              	.LBB589:
 1260 043c B7EE007A 		vmov.f32	s14, #1.0e+0
 1261              	.LBE589:
 1262              	.LBE588:
 1263              	.LBB590:
 1264              	.LBB587:
 1265 0440 F4EEC77A 		vcmpe.f32	s15, s14
 1266 0444 F1EE10FA 		vmrs	APSR_nzcv, FPSCR
 1267 0448 A8BF     		it	ge
 1268 044a F0EE477A 		vmovge.f32	s15, s14
 1269              	.LVL100:
 1270 044e 01E0     		b	.L63
 1271              	.LVL101:
 1272              	.L90:
 1273 0450 DFED267A 		vldr.32	s15, .L93+4
 1274              	.LVL102:
 1275              	.L63:
 1276              	.LBE587:
 1277              	.LBE590:
 1278              	.LBE584:
 1279              	.LBE583:
 1280              		.loc 1 108 0
 1281 0454 264B     		ldr	r3, .L93+8
 1282 0456 C3ED087A 		vstr.32	s15, [r3, #32]
 1283              		.loc 1 109 0
 1284 045a 7047     		bx	lr
 1285              	.L54:
 1286              		.loc 1 113 0
 1287 045c F8EEE77A 		vcvt.f32.s32	s15, s15
 1288 0460 9FED217A 		vldr.32	s14, .L93
 1289 0464 67EE877A 		vmul.f32	s15, s15, s14
 1290              	.LVL103:
 1291              	.LBB591:
 1292              	.LBB592:
 1293              	.LBB593:
 1294              	.LBB594:
 1295              		.loc 2 193 0
 1296 0468 F5EEC07A 		vcmpe.f32	s15, #0
 1297 046c F1EE10FA 		vmrs	APSR_nzcv, FPSCR
 1298 0470 09DB     		blt	.L91
 1299              	.LVL104:
 1300              	.LBE594:
 1301              	.LBE593:
 1302              	.LBB596:
 1303              	.LBB597:
 1304 0472 B7EE007A 		vmov.f32	s14, #1.0e+0
 1305              	.LBE597:
 1306              	.LBE596:
 1307              	.LBB598:
 1308              	.LBB595:
 1309 0476 F4EEC77A 		vcmpe.f32	s15, s14
 1310 047a F1EE10FA 		vmrs	APSR_nzcv, FPSCR
 1311 047e A8BF     		it	ge
ARM GAS  C:\msys64\tmp\ccIzHiui.s 			page 24


 1312 0480 F0EE477A 		vmovge.f32	s15, s14
 1313              	.LVL105:
 1314 0484 01E0     		b	.L65
 1315              	.LVL106:
 1316              	.L91:
 1317 0486 DFED197A 		vldr.32	s15, .L93+4
 1318              	.LVL107:
 1319              	.L65:
 1320              	.LBE595:
 1321              	.LBE598:
 1322              	.LBE592:
 1323              	.LBE591:
 1324              		.loc 1 113 0
 1325 048a 194B     		ldr	r3, .L93+8
 1326 048c C3ED067A 		vstr.32	s15, [r3, #24]
 1327              		.loc 1 114 0
 1328 0490 7047     		bx	lr
 1329              	.L55:
 1330              		.loc 1 118 0
 1331 0492 F8EEE77A 		vcvt.f32.s32	s15, s15
 1332 0496 9FED147A 		vldr.32	s14, .L93
 1333 049a 67EE877A 		vmul.f32	s15, s15, s14
 1334              	.LVL108:
 1335              	.LBB599:
 1336              	.LBB600:
 1337              	.LBB601:
 1338              	.LBB602:
 1339              		.loc 2 193 0
 1340 049e F5EEC07A 		vcmpe.f32	s15, #0
 1341 04a2 F1EE10FA 		vmrs	APSR_nzcv, FPSCR
 1342 04a6 09DB     		blt	.L92
 1343              	.LVL109:
 1344              	.LBE602:
 1345              	.LBE601:
 1346              	.LBB604:
 1347              	.LBB605:
 1348 04a8 B7EE007A 		vmov.f32	s14, #1.0e+0
 1349              	.LBE605:
 1350              	.LBE604:
 1351              	.LBB606:
 1352              	.LBB603:
 1353 04ac F4EEC77A 		vcmpe.f32	s15, s14
 1354 04b0 F1EE10FA 		vmrs	APSR_nzcv, FPSCR
 1355 04b4 A8BF     		it	ge
 1356 04b6 F0EE477A 		vmovge.f32	s15, s14
 1357              	.LVL110:
 1358 04ba 01E0     		b	.L67
 1359              	.LVL111:
 1360              	.L92:
 1361 04bc DFED0B7A 		vldr.32	s15, .L93+4
 1362              	.LVL112:
 1363              	.L67:
 1364              	.LBE603:
 1365              	.LBE606:
 1366              	.LBE600:
 1367              	.LBE599:
 1368              		.loc 1 118 0
ARM GAS  C:\msys64\tmp\ccIzHiui.s 			page 25


 1369 04c0 0B4B     		ldr	r3, .L93+8
 1370 04c2 C3ED097A 		vstr.32	s15, [r3, #36]
 1371              		.loc 1 119 0
 1372 04c6 7047     		bx	lr
 1373              	.L56:
 1374              		.loc 1 123 0
 1375 04c8 9FED0A7A 		vldr.32	s14, .L93+12
 1376 04cc DFED0A6A 		vldr.32	s13, .L93+16
 1377 04d0 074B     		ldr	r3, .L93+8
 1378 04d2 F8EEE77A 		vcvt.f32.s32	s15, s15
 1379 04d6 67EE877A 		vmul.f32	s15, s15, s14
 1380 04da B7EE007A 		vmov.f32	s14, #1.0e+0
 1381 04de A7EEA67A 		vfma.f32	s14, s15, s13
 1382 04e2 83ED0A7A 		vstr.32	s14, [r3, #40]
 1383              	.L47:
 1384 04e6 7047     		bx	lr
 1385              	.L94:
 1386              		.align	2
 1387              	.L93:
 1388 04e8 0AD7233C 		.word	1008981770
 1389 04ec 00000000 		.word	0
 1390 04f0 00000000 		.word	.LANCHOR0
 1391 04f4 0820803A 		.word	981475336
 1392 04f8 0000C842 		.word	1120403456
 1393              		.cfi_endproc
 1394              	.LFE299:
 1395              		.size	_hook_param, .-_hook_param
 1396              		.section	.text.startup,"ax",%progbits
 1397              		.align	1
 1398              		.thumb
 1399              		.thumb_func
 1400              		.type	_GLOBAL__sub_I__hook_init, %function
 1401              	_GLOBAL__sub_I__hook_init:
 1402              	.LFB301:
 1403              		.loc 1 131 0
 1404              		.cfi_startproc
 1405              		@ args = 0, pretend = 0, frame = 0
 1406              		@ frame_needed = 0, uses_anonymous_args = 0
 1407              		@ link register save eliminated.
 1408              	.LVL113:
 1409              	.LBB633:
 1410              	.LBB634:
 1411              	.LBB635:
 1412              	.LBB636:
 1413              	.LBB637:
 1414              	.LBB638:
 1415              		.loc 3 54 0
 1416 0000 114B     		ldr	r3, .L96
 1417 0002 0022     		movs	r2, #0
 1418 0004 197B     		ldrb	r1, [r3, #12]	@ zero_extendqisi2
 1419 0006 1A60     		str	r2, [r3]	@ float
 1420 0008 5A60     		str	r2, [r3, #4]	@ float
 1421 000a 9A60     		str	r2, [r3, #8]	@ float
 1422              	.LBE638:
 1423              	.LBE637:
 1424              	.LBB641:
 1425              	.LBB642:
ARM GAS  C:\msys64\tmp\ccIzHiui.s 			page 26


 1426              	.LBB643:
 1427              	.LBB644:
 1428              		.loc 5 77 0
 1429 000c DA62     		str	r2, [r3, #44]	@ float
 1430 000e 1A63     		str	r2, [r3, #48]	@ float
 1431 0010 5A63     		str	r2, [r3, #52]	@ float
 1432 0012 9A63     		str	r2, [r3, #56]	@ float
 1433 0014 DA63     		str	r2, [r3, #60]	@ float
 1434              	.LBE644:
 1435              	.LBE643:
 1436              		.loc 5 344 0
 1437 0016 1A64     		str	r2, [r3, #64]	@ float
 1438 0018 5A64     		str	r2, [r3, #68]	@ float
 1439              	.LBE642:
 1440              	.LBE641:
 1441              	.LBB645:
 1442              	.LBB646:
 1443              	.LBB647:
 1444              	.LBB648:
 1445              		.loc 5 77 0
 1446 001a 9A64     		str	r2, [r3, #72]	@ float
 1447 001c DA64     		str	r2, [r3, #76]	@ float
 1448 001e 1A65     		str	r2, [r3, #80]	@ float
 1449 0020 5A65     		str	r2, [r3, #84]	@ float
 1450 0022 9A65     		str	r2, [r3, #88]	@ float
 1451              	.LBE648:
 1452              	.LBE647:
 1453              		.loc 5 344 0
 1454 0024 DA65     		str	r2, [r3, #92]	@ float
 1455 0026 1A66     		str	r2, [r3, #96]	@ float
 1456              	.LBE646:
 1457              	.LBE645:
 1458              		.loc 3 66 0
 1459 0028 4FF07C52 		mov	r2, #1056964608
 1460              	.LBB649:
 1461              	.LBB639:
 1462              		.loc 3 54 0
 1463 002c 6FF30001 		bfc	r1, #0, #1
 1464              	.LBE639:
 1465              	.LBE649:
 1466              		.loc 3 66 0
 1467 0030 1A61     		str	r2, [r3, #16]	@ float
 1468 0032 5A61     		str	r2, [r3, #20]	@ float
 1469 0034 9A61     		str	r2, [r3, #24]	@ float
 1470 0036 DA61     		str	r2, [r3, #28]	@ float
 1471 0038 1A62     		str	r2, [r3, #32]	@ float
 1472 003a 5A62     		str	r2, [r3, #36]	@ float
 1473 003c 4FF07E52 		mov	r2, #1065353216
 1474              	.LBB650:
 1475              	.LBB640:
 1476              		.loc 3 54 0
 1477 0040 1973     		strb	r1, [r3, #12]
 1478              	.LVL114:
 1479              	.LBE640:
 1480              	.LBE650:
 1481              		.loc 3 66 0
 1482 0042 9A62     		str	r2, [r3, #40]	@ float
ARM GAS  C:\msys64\tmp\ccIzHiui.s 			page 27


 1483              	.LVL115:
 1484 0044 7047     		bx	lr
 1485              	.L97:
 1486 0046 00BF     		.align	2
 1487              	.L96:
 1488 0048 00000000 		.word	.LANCHOR0
 1489              	.LBE636:
 1490              	.LBE635:
 1491              	.LBE634:
 1492              	.LBE633:
 1493              		.cfi_endproc
 1494              	.LFE301:
 1495              		.size	_GLOBAL__sub_I__hook_init, .-_GLOBAL__sub_I__hook_init
 1496              		.section	.init_array,"aw",%init_array
 1497              		.align	2
 1498 0000 00000000 		.word	_GLOBAL__sub_I__hook_init(target1)
 1499              		.bss
 1500              		.align	2
 1501              		.set	.LANCHOR0,. + 0
 1502              		.type	_ZL4mvps, %object
 1503              		.size	_ZL4mvps, 100
 1504              	_ZL4mvps:
 1505 0000 00000000 		.space	100
 1505      00000000 
 1505      00000000 
 1505      00000000 
 1505      00000000 
 1506              		.text
 1507              	.Letext0:
 1508              		.file 6 "c:\\msys64\\home\\logue-sdk\\tools\\gcc\\gcc-arm-none-eabi-5_4-2016q3\\arm-none-eabi\\inc
 1509              		.file 7 "c:\\msys64\\home\\logue-sdk\\tools\\gcc\\gcc-arm-none-eabi-5_4-2016q3\\arm-none-eabi\\inc
 1510              		.file 8 "c:\\msys64\\home\\logue-sdk\\platform\\ext\\cmsis\\cmsis\\include\\arm_math.h"
 1511              		.file 9 "C:/msys64/home/logue-sdk/platform/nutekt-digital/inc/userosc.h"
 1512              		.file 10 "C:/msys64/home/logue-sdk/platform/nutekt-digital/inc/userprg.h"
 1513              		.file 11 "C:/msys64/home/logue-sdk/platform/nutekt-digital/inc/utils/int_math.h"