ARM GAS  C:\msys64\tmp\cc7cLfah.s 			page 1


   1              		.syntax unified
   2              		.cpu cortex-m4
   3              		.eabi_attribute 27, 1
   4              		.eabi_attribute 28, 1
   5              		.fpu fpv4-sp-d16
   6              		.eabi_attribute 20, 1
   7              		.eabi_attribute 21, 1
   8              		.eabi_attribute 23, 3
   9              		.eabi_attribute 24, 1
  10              		.eabi_attribute 25, 1
  11              		.eabi_attribute 26, 1
  12              		.eabi_attribute 30, 4
  13              		.eabi_attribute 34, 1
  14              		.eabi_attribute 18, 4
  15              		.thumb
  16              		.syntax unified
  17              		.file	"vps_lissajousmod.cpp"
  18              		.text
  19              	.Ltext0:
  20              		.cfi_sections	.debug_frame
  21              		.section	.text._ZN7VPSLJ2DC2Ev,"axG",%progbits,_ZN7VPSLJ2DC5Ev,comdat
  22              		.align	1
  23              		.weak	_ZN7VPSLJ2DC2Ev
  24              		.thumb
  25              		.thumb_func
  26              		.type	_ZN7VPSLJ2DC2Ev, %function
  27              	_ZN7VPSLJ2DC2Ev:
  28              	.LFB246:
  29              		.file 1 "vps_lissajousmod.hpp"
  30              		.loc 1 69 0
  31              		.cfi_startproc
  32              		@ args = 0, pretend = 0, frame = 0
  33              		@ frame_needed = 0, uses_anonymous_args = 0
  34              		@ link register save eliminated.
  35              	.LVL0:
  36              	.LBB134:
  37              		.loc 1 70 0
  38 0000 90F82010 		ldrb	r1, [r0, #32]	@ zero_extendqisi2
  39 0004 0022     		movs	r2, #0
  40 0006 62F30201 		bfi	r1, r2, #0, #3
  41 000a 80F82010 		strb	r1, [r0, #32]
  42              		.loc 1 71 0
  43 000e 4FF07C51 		mov	r1, #1056964608
  44 0012 4162     		str	r1, [r0, #36]	@ unaligned
  45 0014 4FF07E51 		mov	r1, #1065353216
  46 0018 8162     		str	r1, [r0, #40]	@ unaligned
  47 001a C162     		str	r1, [r0, #44]	@ unaligned
  48 001c 0163     		str	r1, [r0, #48]	@ unaligned
  49 001e 4163     		str	r1, [r0, #52]	@ unaligned
  50 0020 0121     		movs	r1, #1
  51              		.loc 1 70 0
  52 0022 0260     		str	r2, [r0]	@ unaligned
  53 0024 4260     		str	r2, [r0, #4]	@ unaligned
  54 0026 8260     		str	r2, [r0, #8]	@ unaligned
  55 0028 C260     		str	r2, [r0, #12]	@ unaligned
  56 002a 0261     		str	r2, [r0, #16]	@ unaligned
  57 002c 4261     		str	r2, [r0, #20]	@ unaligned
ARM GAS  C:\msys64\tmp\cc7cLfah.s 			page 2


  58 002e 8261     		str	r2, [r0, #24]	@ unaligned
  59 0030 C261     		str	r2, [r0, #28]	@ unaligned
  60              		.loc 1 71 0
  61 0032 8263     		str	r2, [r0, #56]	@ unaligned
  62 0034 80F83C10 		strb	r1, [r0, #60]
  63 0038 80F83D20 		strb	r2, [r0, #61]
  64              	.LBE134:
  65              		.loc 1 72 0
  66 003c 7047     		bx	lr
  67              		.cfi_endproc
  68              	.LFE246:
  69              		.size	_ZN7VPSLJ2DC2Ev, .-_ZN7VPSLJ2DC2Ev
  70              		.weak	_ZN7VPSLJ2DC1Ev
  71              		.thumb_set _ZN7VPSLJ2DC1Ev,_ZN7VPSLJ2DC2Ev
  72              		.section	.text._ZN7VPSLJ2D11PhaseShaperEfff,"axG",%progbits,_ZN7VPSLJ2D11PhaseShaperEfff,comdat
  73              		.align	1
  74              		.weak	_ZN7VPSLJ2D11PhaseShaperEfff
  75              		.thumb
  76              		.thumb_func
  77              		.type	_ZN7VPSLJ2D11PhaseShaperEfff, %function
  78              	_ZN7VPSLJ2D11PhaseShaperEfff:
  79              	.LFB248:
  80              		.loc 1 74 0
  81              		.cfi_startproc
  82              		@ args = 0, pretend = 0, frame = 0
  83              		@ frame_needed = 0, uses_anonymous_args = 0
  84              	.LVL1:
  85              	.LBB135:
  86              	.LBB136:
  87              		.file 2 "C:/msys64/home/logue-sdk/platform/nutekt-digital/inc/osc_api.h"
  88              		.loc 2 171 0
  89 0000 D0ED0E7A 		vldr.32	s15, [r0, #56]
  90              	.LBB137:
  91              	.LBB138:
  92              		.loc 2 160 0
  93 0004 A54B     		ldr	r3, .L29
  94              	.LBE138:
  95              	.LBE137:
  96              		.loc 2 171 0
  97 0006 70EEA70A 		vadd.f32	s1, s1, s15
  98              	.LVL2:
  99 000a B5EE007A 		vmov.f32	s14, #2.5e-1
 100 000e 70EE870A 		vadd.f32	s1, s1, s14
 101              	.LVL3:
 102              	.LBB149:
 103              	.LBB145:
 104              		.loc 2 154 0
 105 0012 DFEDA37A 		vldr.32	s15, .L29+4
 106 0016 FCEEE06A 		vcvt.u32.f32	s13, s1
 107              	.LBE145:
 108              	.LBE149:
 109              	.LBE136:
 110              	.LBE135:
 111              		.loc 1 74 0
 112 001a 10B5     		push	{r4, lr}
 113              		.cfi_def_cfa_offset 8
 114              		.cfi_offset 4, -8
ARM GAS  C:\msys64\tmp\cc7cLfah.s 			page 3


 115              		.cfi_offset 14, -4
 116              	.LBB156:
 117              	.LBB153:
 118              	.LBB150:
 119              	.LBB146:
 120              		.loc 2 154 0
 121 001c F8EE666A 		vcvt.f32.u32	s13, s13
 122 0020 B0EE675A 		vmov.f32	s10, s15
 123 0024 70EEE60A 		vsub.f32	s1, s1, s13
 124              	.LVL4:
 125              	.LBE146:
 126              	.LBE150:
 127              	.LBE153:
 128              	.LBE156:
 129              	.LBB157:
 130              	.LBB158:
 131              		.loc 2 171 0
 132 0028 31EE071A 		vadd.f32	s2, s2, s14
 133              	.LVL5:
 134              	.LBE158:
 135              	.LBE157:
 136              	.LBB177:
 137              	.LBB154:
 138              	.LBB151:
 139              	.LBB147:
 140              		.loc 2 154 0
 141 002c 60EEA70A 		vmul.f32	s1, s1, s15
 142              	.LVL6:
 143              		.loc 2 155 0
 144 0030 FCEEE06A 		vcvt.u32.f32	s13, s1
 145 0034 16EE901A 		vmov	r1, s13	@ int
 146              	.LVL7:
 147              		.loc 2 157 0
 148 0038 01F07F02 		and	r2, r1, #127
 149              	.LVL8:
 150              		.loc 2 160 0
 151 003c 03EB8204 		add	r4, r3, r2, lsl #2
 152 0040 0132     		adds	r2, r2, #1
 153              	.LVL9:
 154              	.LBB139:
 155              	.LBB140:
 156              		.file 3 "C:/msys64/home/logue-sdk/platform/nutekt-digital/inc/utils/float_math.h"
 157              		.loc 3 826 0
 158 0042 F8EE666A 		vcvt.f32.u32	s13, s13
 159              	.LBE140:
 160              	.LBE139:
 161              		.loc 2 160 0
 162 0046 02F07F02 		and	r2, r2, #127
 163              	.LVL10:
 164 004a 03EB8202 		add	r2, r3, r2, lsl #2
 165              	.LVL11:
 166 004e 94ED006A 		vldr.32	s12, [r4]
 167              	.LVL12:
 168              	.LBB143:
 169              	.LBB141:
 170              		.loc 3 826 0
 171 0052 70EEE60A 		vsub.f32	s1, s1, s13
ARM GAS  C:\msys64\tmp\cc7cLfah.s 			page 4


 172              	.LVL13:
 173 0056 D2ED006A 		vldr.32	s13, [r2]
 174 005a 76EEC66A 		vsub.f32	s13, s13, s12
 175              	.LBE141:
 176              	.LBE143:
 177              		.loc 2 161 0
 178 005e 7F29     		cmp	r1, #127
 179              	.LBB144:
 180              	.LBB142:
 181              		.loc 3 826 0
 182 0060 A0EEA66A 		vfma.f32	s12, s1, s13
 183              	.LVL14:
 184              	.LBE142:
 185              	.LBE144:
 186              	.LBE147:
 187              	.LBE151:
 188              	.LBE154:
 189              	.LBE177:
 190              		.loc 1 77 0
 191 0064 F6EE006A 		vmov.f32	s13, #5.0e-1
 192              	.LBB178:
 193              	.LBB155:
 194              	.LBB152:
 195              	.LBB148:
 196              		.loc 2 161 0
 197 0068 88BF     		it	hi
 198 006a B1EE466A 		vneghi.f32	s12, s12
 199              	.LVL15:
 200              	.LBE148:
 201              	.LBE152:
 202              	.LBE155:
 203              	.LBE178:
 204              		.loc 1 77 0
 205 006e F0EE667A 		vmov.f32	s15, s13
 206 0072 E6EE267A 		vfma.f32	s15, s12, s13
 207              	.LVL16:
 208              		.loc 1 78 0
 209 0076 90ED066A 		vldr.32	s12, [r0, #24]
 210              		.loc 1 79 0
 211 007a C0ED067A 		vstr.32	s15, [r0, #24]
 212              		.loc 1 78 0
 213 007e 77EEC65A 		vsub.f32	s11, s15, s12
 214 0082 A0EE256A 		vfma.f32	s12, s0, s11
 215 0086 D0ED0A5A 		vldr.32	s11, [r0, #40]
 216 008a 26EE256A 		vmul.f32	s12, s12, s11
 217              	.LVL17:
 218              	.LBB179:
 219              	.LBB173:
 220              	.LBB159:
 221              	.LBB160:
 222              		.loc 2 154 0
 223 008e FCEEC15A 		vcvt.u32.f32	s11, s2
 224              	.LBE160:
 225              	.LBE159:
 226              	.LBE173:
 227              	.LBE179:
 228              	.LBB180:
ARM GAS  C:\msys64\tmp\cc7cLfah.s 			page 5


 229              		.loc 1 86 0
 230 0092 B4EEC60A 		vcmpe.f32	s0, s12
 231              	.LBE180:
 232              	.LBB186:
 233              	.LBB174:
 234              	.LBB170:
 235              	.LBB167:
 236              		.loc 2 154 0
 237 0096 F8EE655A 		vcvt.f32.u32	s11, s11
 238 009a 31EE651A 		vsub.f32	s2, s2, s11
 239              	.LVL18:
 240 009e 21EE051A 		vmul.f32	s2, s2, s10
 241              	.LVL19:
 242              		.loc 2 155 0
 243 00a2 FCEEC17A 		vcvt.u32.f32	s15, s2
 244              	.LVL20:
 245 00a6 17EE901A 		vmov	r1, s15	@ int
 246              	.LVL21:
 247              		.loc 2 157 0
 248 00aa 01F07F02 		and	r2, r1, #127
 249              	.LVL22:
 250              		.loc 2 160 0
 251 00ae 03EB8204 		add	r4, r3, r2, lsl #2
 252 00b2 0132     		adds	r2, r2, #1
 253              	.LVL23:
 254 00b4 02F07F02 		and	r2, r2, #127
 255              	.LVL24:
 256 00b8 03EB8202 		add	r2, r3, r2, lsl #2
 257              	.LVL25:
 258 00bc D4ED005A 		vldr.32	s11, [r4]
 259              	.LVL26:
 260              	.LBB161:
 261              	.LBB162:
 262              		.loc 3 826 0
 263 00c0 D2ED004A 		vldr.32	s9, [r2]
 264              	.LBE162:
 265              	.LBE161:
 266              	.LBE167:
 267              	.LBE170:
 268              	.LBE174:
 269              	.LBE186:
 270              		.loc 1 97 0
 271 00c4 828F     		ldrh	r2, [r0, #60]
 272              	.LBB187:
 273              	.LBB175:
 274              	.LBB171:
 275              	.LBB168:
 276              	.LBB165:
 277              	.LBB163:
 278              		.loc 3 826 0
 279 00c6 F8EE677A 		vcvt.f32.u32	s15, s15
 280 00ca 74EEE54A 		vsub.f32	s9, s9, s11
 281 00ce 31EE671A 		vsub.f32	s2, s2, s15
 282              	.LVL27:
 283              	.LBE163:
 284              	.LBE165:
 285              		.loc 2 161 0
ARM GAS  C:\msys64\tmp\cc7cLfah.s 			page 6


 286 00d2 7F29     		cmp	r1, #127
 287              	.LBB166:
 288              	.LBB164:
 289              		.loc 3 826 0
 290 00d4 E1EE245A 		vfma.f32	s11, s2, s9
 291              	.LVL28:
 292              	.LBE164:
 293              	.LBE166:
 294              	.LBE168:
 295              	.LBE171:
 296              	.LBE175:
 297              	.LBE187:
 298              		.loc 1 97 0
 299 00d8 02F1FF32 		add	r2, r2, #-1
 300              	.LBB188:
 301              	.LBB176:
 302              	.LBB172:
 303              	.LBB169:
 304              		.loc 2 161 0
 305 00dc 88BF     		it	hi
 306 00de F1EE655A 		vneghi.f32	s11, s11
 307              	.LVL29:
 308              	.LBE169:
 309              	.LBE172:
 310              	.LBE176:
 311              	.LBE188:
 312              		.loc 1 81 0
 313 00e2 E5EEA66A 		vfma.f32	s13, s11, s13
 314              	.LBB189:
 315              		.loc 1 86 0
 316 00e6 F1EE10FA 		vmrs	APSR_nzcv, FPSCR
 317              	.LBE189:
 318              		.loc 1 81 0
 319 00ea F0EE665A 		vmov.f32	s11, s13
 320              	.LVL30:
 321              		.loc 1 82 0
 322 00ee D0ED076A 		vldr.32	s13, [r0, #28]
 323              		.loc 1 83 0
 324 00f2 C0ED075A 		vstr.32	s11, [r0, #28]
 325              		.loc 1 82 0
 326 00f6 75EEE67A 		vsub.f32	s15, s11, s13
 327 00fa E0EE276A 		vfma.f32	s13, s0, s15
 328 00fe D0ED0B7A 		vldr.32	s15, [r0, #44]
 329 0102 66EEA77A 		vmul.f32	s15, s13, s15
 330              	.LVL31:
 331              	.LBB190:
 332              	.LBB181:
 333              		.loc 1 94 0
 334 0106 5DBF     		ittte	pl
 335 0108 F7EE006A 		vmovpl.f32	s13, #1.0e+0
 336 010c 30EE460A 		vsubpl.f32	s0, s0, s12
 337              	.LVL32:
 338 0110 36EEC66A 		vsubpl.f32	s12, s13, s12
 339              	.LVL33:
 340              	.LBE181:
 341              	.LBB182:
 342              		.loc 1 88 0
ARM GAS  C:\msys64\tmp\cc7cLfah.s 			page 7


 343 0114 C0EE066A 		vdivmi.f32	s13, s0, s12
 344              	.LBE182:
 345              	.LBB183:
 346              		.loc 1 94 0
 347 0118 5BBF     		ittet	pl
 348 011a C0EE065A 		vdivpl.f32	s11, s0, s12
 349              	.LVL34:
 350 011e 76EEE76A 		vsubpl.f32	s13, s13, s15
 351              	.LBE183:
 352              	.LBB184:
 353              		.loc 1 88 0
 354 0122 66EEA77A 		vmulmi.f32	s15, s13, s15
 355              	.LVL35:
 356              	.LBE184:
 357              	.LBB185:
 358              		.loc 1 94 0
 359 0126 E5EEA67A 		vfmapl.f32	s15, s11, s13
 360              	.LVL36:
 361              	.LBE185:
 362              	.LBE190:
 363              		.loc 1 97 0
 364 012a 032A     		cmp	r2, #3
 365 012c 00F2B480 		bhi	.L8
 366 0130 DFE802F0 		tbb	[pc, r2]
 367              	.L10:
 368 0134 02       		.byte	(.L9-.L10)/2
 369 0135 3A       		.byte	(.L11-.L10)/2
 370 0136 64       		.byte	(.L12-.L10)/2
 371 0137 81       		.byte	(.L13-.L10)/2
 372              		.p2align 1
 373              	.L9:
 374              	.LVL37:
 375              	.LBB191:
 376              	.LBB192:
 377              		.loc 2 433 0
 378 0138 BCEEE77A 		vcvt.u32.f32	s14, s15
 379 013c B8EE477A 		vcvt.f32.u32	s14, s14
 380 0140 37EEC77A 		vsub.f32	s14, s15, s14
 381 0144 67EE057A 		vmul.f32	s15, s14, s10
 382              	.LVL38:
 383              		.loc 2 434 0
 384 0148 BCEEE77A 		vcvt.u32.f32	s14, s15
 385 014c 17EE103A 		vmov	r3, s14	@ int
 386              	.LVL39:
 387              		.loc 2 436 0
 388 0150 802B     		cmp	r3, #128
 389 0152 04D9     		bls	.L14
 390 0154 03F07F02 		and	r2, r3, #127
 391 0158 C2F18002 		rsb	r2, r2, #128
 392              	.LVL40:
 393 015c 09E0     		b	.L15
 394              	.LVL41:
 395              	.L14:
 396              		.loc 2 437 0
 397 015e 7E2B     		cmp	r3, #126
 398 0160 03D8     		bhi	.L16
 399 0162 581C     		adds	r0, r3, #1
ARM GAS  C:\msys64\tmp\cc7cLfah.s 			page 8


 400              	.LVL42:
 401 0164 17EE102A 		vmov	r2, s14	@ int
 402 0168 08E0     		b	.L17
 403              	.LVL43:
 404              	.L16:
 405 016a 7F2B     		cmp	r3, #127
 406 016c 03D0     		beq	.L18
 407 016e 17EE102A 		vmov	r2, s14	@ int
 408              	.LVL44:
 409              	.L15:
 410 0172 501E     		subs	r0, r2, #1
 411              	.LVL45:
 412 0174 02E0     		b	.L17
 413              	.LVL46:
 414              	.L18:
 415 0176 17EE102A 		vmov	r2, s14	@ int
 416 017a 8020     		movs	r0, #128
 417              	.LVL47:
 418              	.L17:
 419              	.LBE192:
 420              	.LBE191:
 421              		.loc 1 98 0
 422 017c 07EE103A 		vmov	s14, r3	@ int
 423              	.LBB195:
 424              	.LBB193:
 425              		.loc 2 438 0
 426 0180 4849     		ldr	r1, .L29+8
 427              	.LBE193:
 428              	.LBE195:
 429              		.loc 1 98 0
 430 0182 B8EE477A 		vcvt.f32.u32	s14, s14
 431              	.LBB196:
 432              	.LBB194:
 433              		.loc 2 438 0
 434 0186 01EB8202 		add	r2, r1, r2, lsl #2
 435              	.LVL48:
 436 018a 01EB8001 		add	r1, r1, r0, lsl #2
 437 018e 92ED000A 		vldr.32	s0, [r2]
 438              	.LVL49:
 439              	.LBE194:
 440              	.LBE196:
 441              		.loc 1 98 0
 442 0192 77EEC77A 		vsub.f32	s15, s15, s14
 443 0196 91ED007A 		vldr.32	s14, [r1]
 444 019a 37EE407A 		vsub.f32	s14, s14, s0
 445 019e A7EE870A 		vfma.f32	s0, s15, s14
 446 01a2 B1EE400A 		vneg.f32	s0, s0
 447 01a6 10BD     		pop	{r4, pc}
 448              	.LVL50:
 449              	.L11:
 450              	.LBB197:
 451              	.LBB198:
 452              		.loc 2 171 0
 453 01a8 37EE877A 		vadd.f32	s14, s15, s14
 454              	.LVL51:
 455              	.LBB199:
 456              	.LBB200:
ARM GAS  C:\msys64\tmp\cc7cLfah.s 			page 9


 457              		.loc 2 154 0
 458 01ac FCEEC77A 		vcvt.u32.f32	s15, s14
 459              	.LVL52:
 460 01b0 F8EE677A 		vcvt.f32.u32	s15, s15
 461 01b4 37EE677A 		vsub.f32	s14, s14, s15
 462              	.LVL53:
 463 01b8 67EE057A 		vmul.f32	s15, s14, s10
 464              	.LVL54:
 465              		.loc 2 155 0
 466 01bc BCEEE77A 		vcvt.u32.f32	s14, s15
 467 01c0 17EE101A 		vmov	r1, s14	@ int
 468              	.LVL55:
 469              		.loc 2 157 0
 470 01c4 01F07F02 		and	r2, r1, #127
 471              	.LVL56:
 472              		.loc 2 160 0
 473 01c8 03EB8200 		add	r0, r3, r2, lsl #2
 474              	.LVL57:
 475 01cc 0132     		adds	r2, r2, #1
 476              	.LVL58:
 477              	.LBB201:
 478              	.LBB202:
 479              		.loc 3 826 0
 480 01ce B8EE477A 		vcvt.f32.u32	s14, s14
 481              	.LBE202:
 482              	.LBE201:
 483              		.loc 2 160 0
 484 01d2 02F07F02 		and	r2, r2, #127
 485              	.LVL59:
 486 01d6 03EB8203 		add	r3, r3, r2, lsl #2
 487 01da 90ED000A 		vldr.32	s0, [r0]
 488              	.LVL60:
 489              	.LBB205:
 490              	.LBB203:
 491              		.loc 3 826 0
 492 01de 77EEC77A 		vsub.f32	s15, s15, s14
 493              	.LVL61:
 494 01e2 93ED007A 		vldr.32	s14, [r3]
 495 01e6 37EE407A 		vsub.f32	s14, s14, s0
 496              	.LBE203:
 497              	.LBE205:
 498              		.loc 2 161 0
 499 01ea 7F29     		cmp	r1, #127
 500              	.LBB206:
 501              	.LBB204:
 502              		.loc 3 826 0
 503 01ec A7EE870A 		vfma.f32	s0, s15, s14
 504              	.LVL62:
 505              	.LBE204:
 506              	.LBE206:
 507              		.loc 2 161 0
 508 01f0 88BF     		it	hi
 509 01f2 B1EE400A 		vneghi.f32	s0, s0
 510              	.LVL63:
 511              	.LBE200:
 512              	.LBE199:
 513              	.LBE198:
ARM GAS  C:\msys64\tmp\cc7cLfah.s 			page 10


 514              	.LBE197:
 515              		.loc 1 99 0
 516 01f6 B1EE400A 		vneg.f32	s0, s0
 517 01fa 10BD     		pop	{r4, pc}
 518              	.LVL64:
 519              	.L12:
 520              	.LBB207:
 521              	.LBB208:
 522              		.loc 2 318 0
 523 01fc BCEEE77A 		vcvt.u32.f32	s14, s15
 524              		.loc 2 329 0
 525 0200 2949     		ldr	r1, .L29+12
 526              		.loc 2 318 0
 527 0202 B8EE477A 		vcvt.f32.u32	s14, s14
 528 0206 37EEC77A 		vsub.f32	s14, s15, s14
 529 020a 67EE057A 		vmul.f32	s15, s14, s10
 530              	.LVL65:
 531              		.loc 2 319 0
 532 020e BCEEE77A 		vcvt.u32.f32	s14, s15
 533 0212 17EE103A 		vmov	r3, s14	@ int
 534              	.LVL66:
 535              		.loc 2 323 0
 536 0216 7F2B     		cmp	r3, #127
 537              		.loc 2 324 0
 538 0218 87BF     		ittee	hi
 539 021a 03F07F02 		andhi	r2, r3, #127
 540 021e C2F18000 		rsbhi	r0, r2, #128
 541              	.LVL67:
 542              		.loc 2 321 0
 543 0222 5A1C     		addls	r2, r3, #1
 544 0224 1846     		movls	r0, r3
 545              	.LVL68:
 546              		.loc 2 322 0
 547 0226 92BF     		itee	ls
 548 0228 B7EE007A 		vmovls.f32	s14, #1.0e+0
 549              		.loc 2 325 0
 550 022c C2F17F02 		rsbhi	r2, r2, #127
 551              	.LVL69:
 552              		.loc 2 326 0
 553 0230 BFEE007A 		vmovhi.f32	s14, #-1.0e+0
 554              	.LVL70:
 555 0234 1BE0     		b	.L27
 556              	.LVL71:
 557              	.L13:
 558              	.LBE208:
 559              	.LBE207:
 560              	.LBB209:
 561              	.LBB210:
 562              		.loc 2 205 0
 563 0236 BCEEE77A 		vcvt.u32.f32	s14, s15
 564              		.loc 2 216 0
 565 023a 1C49     		ldr	r1, .L29+16
 566              		.loc 2 205 0
 567 023c B8EE477A 		vcvt.f32.u32	s14, s14
 568 0240 37EEC77A 		vsub.f32	s14, s15, s14
 569 0244 67EE057A 		vmul.f32	s15, s14, s10
 570              	.LVL72:
ARM GAS  C:\msys64\tmp\cc7cLfah.s 			page 11


 571              		.loc 2 206 0
 572 0248 BCEEE77A 		vcvt.u32.f32	s14, s15
 573 024c 17EE103A 		vmov	r3, s14	@ int
 574              	.LVL73:
 575              		.loc 2 210 0
 576 0250 7F2B     		cmp	r3, #127
 577              		.loc 2 211 0
 578 0252 87BF     		ittee	hi
 579 0254 03F07F02 		andhi	r2, r3, #127
 580 0258 C2F18000 		rsbhi	r0, r2, #128
 581              	.LVL74:
 582              		.loc 2 208 0
 583 025c 5A1C     		addls	r2, r3, #1
 584 025e 1846     		movls	r0, r3
 585              	.LVL75:
 586              		.loc 2 209 0
 587 0260 92BF     		itee	ls
 588 0262 B7EE007A 		vmovls.f32	s14, #1.0e+0
 589              		.loc 2 212 0
 590 0266 C2F17F02 		rsbhi	r2, r2, #127
 591              	.LVL76:
 592              		.loc 2 213 0
 593 026a BFEE007A 		vmovhi.f32	s14, #-1.0e+0
 594              	.LVL77:
 595              	.L27:
 596              	.LBE210:
 597              	.LBE209:
 598              		.loc 1 101 0
 599 026e 06EE903A 		vmov	s13, r3	@ int
 600 0272 F8EE666A 		vcvt.f32.u32	s13, s13
 601              	.LBB212:
 602              	.LBB211:
 603              		.loc 2 216 0
 604 0276 01EB8000 		add	r0, r1, r0, lsl #2
 605 027a 01EB8202 		add	r2, r1, r2, lsl #2
 606 027e 90ED000A 		vldr.32	s0, [r0]
 607              	.LBE211:
 608              	.LBE212:
 609              		.loc 1 101 0
 610 0282 77EEE67A 		vsub.f32	s15, s15, s13
 611 0286 D2ED006A 		vldr.32	s13, [r2]
 612 028a 76EEC06A 		vsub.f32	s13, s13, s0
 613 028e A7EEA60A 		vfma.f32	s0, s15, s13
 614 0292 27EE400A 		vnmul.f32	s0, s14, s0
 615 0296 10BD     		pop	{r4, pc}
 616              	.LVL78:
 617              	.L8:
 618              		.loc 1 103 0
 619 0298 10BD     		pop	{r4, pc}
 620              	.L30:
 621 029a 00BF     		.align	2
 622              	.L29:
 623 029c 00000000 		.word	wt_sine_lut_f
 624 02a0 00008043 		.word	1132462080
 625 02a4 00000000 		.word	wt_par_lut_f
 626 02a8 00000000 		.word	wt_sqr_lut_f
 627 02ac 00000000 		.word	wt_saw_lut_f
ARM GAS  C:\msys64\tmp\cc7cLfah.s 			page 12


 628              		.cfi_endproc
 629              	.LFE248:
 630              		.size	_ZN7VPSLJ2D11PhaseShaperEfff, .-_ZN7VPSLJ2D11PhaseShaperEfff
 631              		.text
 632              		.align	1
 633              		.global	_hook_init
 634              		.thumb
 635              		.thumb_func
 636              		.type	_hook_init, %function
 637              	_hook_init:
 638              	.LFB250:
 639              		.file 4 "vps_lissajousmod.cpp"
 640              		.loc 4 15 0
 641              		.cfi_startproc
 642              		@ args = 0, pretend = 0, frame = 0
 643              		@ frame_needed = 0, uses_anonymous_args = 0
 644              		@ link register save eliminated.
 645              	.LVL79:
 646 0000 7047     		bx	lr
 647              		.cfi_endproc
 648              	.LFE250:
 649              		.size	_hook_init, .-_hook_init
 650              		.align	1
 651              		.global	_hook_cycle
 652              		.thumb
 653              		.thumb_func
 654              		.type	_hook_cycle, %function
 655              	_hook_cycle:
 656              	.LFB251:
 657              		.loc 4 20 0
 658              		.cfi_startproc
 659              		@ args = 0, pretend = 0, frame = 0
 660              		@ frame_needed = 0, uses_anonymous_args = 0
 661              	.LVL80:
 662              		.loc 4 20 0
 663 0002 70B5     		push	{r4, r5, r6, lr}
 664              		.cfi_def_cfa_offset 16
 665              		.cfi_offset 4, -16
 666              		.cfi_offset 5, -12
 667              		.cfi_offset 6, -8
 668              		.cfi_offset 14, -4
 669              		.loc 4 26 0
 670 0004 604C     		ldr	r4, .L59
 671              		.loc 4 31 0
 672 0006 8088     		ldrh	r0, [r0, #4]
 673              	.LVL81:
 674              		.loc 4 26 0
 675 0008 94F82030 		ldrb	r3, [r4, #32]	@ zero_extendqisi2
 676              	.LBB245:
 677              	.LBB246:
 678              	.LBB247:
 679              	.LBB248:
 680              		.loc 3 826 0
 681 000c 9FED5F7A 		vldr.32	s14, .L59+4
 682              	.LBE248:
 683              	.LBE247:
 684              	.LBE246:
ARM GAS  C:\msys64\tmp\cc7cLfah.s 			page 13


 685              	.LBE245:
 686              		.loc 4 26 0
 687 0010 03F00706 		and	r6, r3, #7
 688              	.LVL82:
 689              		.loc 4 28 0
 690 0014 6FF30203 		bfc	r3, #0, #3
 691              	.LVL83:
 692 0018 84F82030 		strb	r3, [r4, #32]
 693              		.loc 4 31 0
 694 001c 0312     		asrs	r3, r0, #8
 695              	.LVL84:
 696              	.LBB281:
 697              	.LBB275:
 698              	.LBB253:
 699              	.LBB254:
 700              		.loc 2 109 0
 701 001e 962B     		cmp	r3, #150
 702              	.LBE254:
 703              	.LBE253:
 704              	.LBE275:
 705              	.LBE281:
 706              		.loc 4 20 0
 707 0020 0D46     		mov	r5, r1
 708              		.loc 4 34 0
 709 0022 C1B2     		uxtb	r1, r0
 710              	.LVL85:
 711              	.LBB282:
 712              	.LBB276:
 713              	.LBB259:
 714              	.LBB255:
 715              		.loc 2 109 0
 716 0024 D8BF     		it	le
 717 0026 1846     		movle	r0, r3
 718              	.LBE255:
 719              	.LBE259:
 720              		.loc 2 120 0
 721 0028 03F10103 		add	r3, r3, #1
 722              	.LVL86:
 723 002c DBB2     		uxtb	r3, r3
 724              	.LVL87:
 725              	.LBE276:
 726              	.LBE282:
 727              		.loc 4 34 0
 728 002e 07EE901A 		vmov	s15, r1	@ int
 729              	.LVL88:
 730              	.LBB283:
 731              	.LBB277:
 732              	.LBB260:
 733              	.LBB256:
 734              		.loc 2 109 0
 735 0032 C8BF     		it	gt
 736 0034 9720     		movgt	r0, #151
 737              	.LVL89:
 738 0036 5649     		ldr	r1, .L59+8
 739              	.LVL90:
 740              	.LBE256:
 741              	.LBE260:
ARM GAS  C:\msys64\tmp\cc7cLfah.s 			page 14


 742              	.LBB261:
 743              	.LBB262:
 744 0038 962B     		cmp	r3, #150
 745 003a 88BF     		it	hi
 746 003c 9723     		movhi	r3, #151
 747              	.LBE262:
 748              	.LBE261:
 749              	.LBB264:
 750              	.LBB249:
 751              		.loc 3 826 0
 752 003e F8EEE77A 		vcvt.f32.s32	s15, s15
 753              	.LVL91:
 754              	.LBE249:
 755              	.LBE264:
 756              	.LBB265:
 757              	.LBB257:
 758              		.loc 2 109 0
 759 0042 01EB8000 		add	r0, r1, r0, lsl #2
 760              	.LBE257:
 761              	.LBE265:
 762              	.LBB266:
 763              	.LBB263:
 764 0046 01EB8303 		add	r3, r1, r3, lsl #2
 765              	.LBE263:
 766              	.LBE266:
 767              	.LBB267:
 768              	.LBB250:
 769              		.loc 3 826 0
 770 004a 67EE877A 		vmul.f32	s15, s15, s14
 771              	.LBE250:
 772              	.LBE267:
 773              	.LBE277:
 774              	.LBE283:
 775              		.loc 4 20 0
 776 004e 2DED088B 		vpush.64	{d8, d9, d10, d11}
 777              		.cfi_def_cfa_offset 48
 778              		.cfi_offset 80, -48
 779              		.cfi_offset 81, -44
 780              		.cfi_offset 82, -40
 781              		.cfi_offset 83, -36
 782              		.cfi_offset 84, -32
 783              		.cfi_offset 85, -28
 784              		.cfi_offset 86, -24
 785              		.cfi_offset 87, -20
 786              	.LBB284:
 787              	.LBB278:
 788              	.LBB268:
 789              	.LBB251:
 790              		.loc 3 826 0
 791 0052 93ED007A 		vldr.32	s14, [r3]
 792              	.LBE251:
 793              	.LBE268:
 794              	.LBB269:
 795              	.LBB258:
 796              		.loc 2 109 0
 797 0056 D0ED009A 		vldr.32	s19, [r0]
 798              	.LVL92:
ARM GAS  C:\msys64\tmp\cc7cLfah.s 			page 15


 799              	.LBE258:
 800              	.LBE269:
 801              	.LBB270:
 802              	.LBB252:
 803              		.loc 3 826 0
 804 005a 37EE697A 		vsub.f32	s14, s14, s19
 805 005e E7EE879A 		vfma.f32	s19, s15, s14
 806              	.LVL93:
 807              	.LBE252:
 808              	.LBE270:
 809              	.LBB271:
 810              	.LBB272:
 811              	.LBB273:
 812              	.LBB274:
 813              		.loc 3 193 0
 814 0062 DFED4C7A 		vldr.32	s15, .L59+12
 815 0066 F4EEE79A 		vcmpe.f32	s19, s15
 816 006a F1EE10FA 		vmrs	APSR_nzcv, FPSCR
 817 006e A8BF     		it	ge
 818 0070 F0EE679A 		vmovge.f32	s19, s15
 819              	.LVL94:
 820              	.LBE274:
 821              	.LBE273:
 822              	.LBE272:
 823              	.LBE271:
 824              	.LBE278:
 825              	.LBE284:
 826              		.loc 4 37 0
 827 0074 F007     		lsls	r0, r6, #31
 828              		.loc 4 38 0
 829 0076 48BF     		it	mi
 830 0078 94ED097A 		vldrmi.32	s14, [r4, #36]
 831              	.LBB285:
 832              	.LBB279:
 833              		.loc 2 124 0
 834 007c DFED467A 		vldr.32	s15, .L59+16
 835              	.LBE279:
 836              	.LBE285:
 837              		.loc 4 38 0
 838 0080 48BF     		it	mi
 839 0082 27EE277A 		vmulmi.f32	s14, s14, s15
 840              	.LBB286:
 841              	.LBB280:
 842              		.loc 2 124 0
 843 0086 69EEA79A 		vmul.f32	s19, s19, s15
 844              	.LVL95:
 845              	.LBE280:
 846              	.LBE286:
 847              		.loc 4 38 0
 848 008a 44BF     		itt	mi
 849 008c 84ED027A 		vstrmi.32	s14, [r4, #8]
 850              		.loc 4 39 0
 851 0090 84ED037A 		vstrmi.32	s14, [r4, #12]
 852              		.loc 4 42 0
 853 0094 B107     		lsls	r1, r6, #30
 854              		.loc 4 34 0
 855 0096 C4ED019A 		vstr.32	s19, [r4, #4]
ARM GAS  C:\msys64\tmp\cc7cLfah.s 			page 16


 856              	.LVL96:
 857              		.loc 4 42 0
 858 009a 0BD5     		bpl	.L37
 859              		.loc 4 43 0
 860 009c 94ED097A 		vldr.32	s14, [r4, #36]
 861              		.loc 4 44 0
 862 00a0 D4ED0C6A 		vldr.32	s13, [r4, #48]
 863              		.loc 4 43 0
 864 00a4 27EE277A 		vmul.f32	s14, s14, s15
 865 00a8 84ED037A 		vstr.32	s14, [r4, #12]
 866              		.loc 4 44 0
 867 00ac 26EE877A 		vmul.f32	s14, s13, s14
 868 00b0 84ED027A 		vstr.32	s14, [r4, #8]
 869              	.L37:
 870              		.loc 4 47 0
 871 00b4 7307     		lsls	r3, r6, #29
 872 00b6 0BD5     		bpl	.L38
 873              		.loc 4 48 0
 874 00b8 94ED097A 		vldr.32	s14, [r4, #36]
 875 00bc 67EE277A 		vmul.f32	s15, s14, s15
 876              		.loc 4 49 0
 877 00c0 94ED0D7A 		vldr.32	s14, [r4, #52]
 878              		.loc 4 48 0
 879 00c4 C4ED027A 		vstr.32	s15, [r4, #8]
 880              		.loc 4 49 0
 881 00c8 67EE277A 		vmul.f32	s15, s14, s15
 882 00cc C4ED037A 		vstr.32	s15, [r4, #12]
 883              	.L38:
 884              		.loc 4 53 0
 885 00d0 94ED009A 		vldr.32	s18, [r4]
 886              	.LVL97:
 887              		.loc 4 55 0
 888 00d4 D4ED048A 		vldr.32	s17, [r4, #16]
 889              	.LVL98:
 890              		.loc 4 57 0
 891 00d8 94ED058A 		vldr.32	s16, [r4, #20]
 892              	.LVL99:
 893              		.loc 4 59 0
 894 00dc 94ED02BA 		vldr.32	s22, [r4, #8]
 895              	.LVL100:
 896              		.loc 4 60 0
 897 00e0 D4ED03BA 		vldr.32	s23, [r4, #12]
 898              	.LVL101:
 899              	.LBB287:
 900              	.LBB288:
 901              		.loc 4 81 0
 902 00e4 DFED2DAA 		vldr.32	s21, .L59+20
 903 00e8 9FED2DAA 		vldr.32	s20, .L59+24
 904              	.LBE288:
 905              	.LBE287:
 906              		.loc 4 64 0
 907 00ec 05EB8206 		add	r6, r5, r2, lsl #2
 908              	.LVL102:
 909              	.L42:
 910              	.LBB314:
 911              		.loc 4 67 0
 912 00f0 B542     		cmp	r5, r6
ARM GAS  C:\msys64\tmp\cc7cLfah.s 			page 17


 913 00f2 40D0     		beq	.L39
 914              	.LVL103:
 915              	.LBB313:
 916              		.loc 4 70 0
 917 00f4 B0EE481A 		vmov.f32	s2, s16
 918 00f8 F0EE680A 		vmov.f32	s1, s17
 919 00fc B0EE490A 		vmov.f32	s0, s18
 920 0100 2148     		ldr	r0, .L59
 921 0102 FFF7FEFF 		bl	_ZN7VPSLJ2D11PhaseShaperEfff
 922              	.LVL104:
 923              	.LBB289:
 924              	.LBB290:
 925              		.loc 1 106 0
 926 0106 39EE299A 		vadd.f32	s18, s18, s19
 927              	.LVL105:
 928              	.LBE290:
 929              	.LBE289:
 930              	.LBB293:
 931              	.LBB294:
 932 010a 7BEE288A 		vadd.f32	s17, s22, s17
 933              	.LVL106:
 934              	.LBE294:
 935              	.LBE293:
 936              	.LBB296:
 937              	.LBB291:
 938              		.loc 1 107 0
 939 010e FCEEC97A 		vcvt.u32.f32	s15, s18
 940              	.LBE291:
 941              	.LBE296:
 942              	.LBB297:
 943              	.LBB298:
 944              		.loc 1 106 0
 945 0112 3BEE888A 		vadd.f32	s16, s23, s16
 946              	.LVL107:
 947              	.LBE298:
 948              	.LBE297:
 949              	.LBB300:
 950              	.LBB292:
 951              		.loc 1 107 0
 952 0116 F8EE677A 		vcvt.f32.u32	s15, s15
 953 011a 39EE679A 		vsub.f32	s18, s18, s15
 954              	.LVL108:
 955              	.LBE292:
 956              	.LBE300:
 957              	.LBB301:
 958              	.LBB295:
 959 011e FCEEE87A 		vcvt.u32.f32	s15, s17
 960 0122 F8EE677A 		vcvt.f32.u32	s15, s15
 961 0126 78EEE78A 		vsub.f32	s17, s17, s15
 962              	.LVL109:
 963              	.LBE295:
 964              	.LBE301:
 965              	.LBB302:
 966              	.LBB299:
 967 012a FCEEC87A 		vcvt.u32.f32	s15, s16
 968 012e F8EE677A 		vcvt.f32.u32	s15, s15
 969 0132 38EE678A 		vsub.f32	s16, s16, s15
ARM GAS  C:\msys64\tmp\cc7cLfah.s 			page 18


 970              	.LVL110:
 971              	.LBE299:
 972              	.LBE302:
 973              	.LBB303:
 974              	.LBB304:
 975              	.LBB305:
 976              	.LBB306:
 977              	.LBB307:
 978              	.LBB308:
 979              		.loc 3 193 0
 980 0136 FFEE007A 		vmov.f32	s15, #-1.0e+0
 981 013a B4EEE70A 		vcmpe.f32	s0, s15
 982 013e F1EE10FA 		vmrs	APSR_nzcv, FPSCR
 983 0142 09DB     		blt	.L58
 984              	.LVL111:
 985              	.LBE308:
 986              	.LBE307:
 987              	.LBB310:
 988              	.LBB311:
 989 0144 F7EE007A 		vmov.f32	s15, #1.0e+0
 990              	.LBE311:
 991              	.LBE310:
 992              	.LBB312:
 993              	.LBB309:
 994 0148 B4EEE70A 		vcmpe.f32	s0, s15
 995 014c F1EE10FA 		vmrs	APSR_nzcv, FPSCR
 996 0150 A8BF     		it	ge
 997 0152 B0EE670A 		vmovge.f32	s0, s15
 998              	.LVL112:
 999 0156 01E0     		b	.L40
 1000              	.LVL113:
 1001              	.L58:
 1002 0158 B0EE670A 		vmov.f32	s0, s15
 1003              	.LVL114:
 1004              	.L40:
 1005              	.LBE309:
 1006              	.LBE312:
 1007              	.LBE306:
 1008              	.LBE305:
 1009              	.LBE304:
 1010              	.LBE303:
 1011              		.loc 4 81 0
 1012 015c 60EE007A 		vmul.f32	s15, s0, s0
 1013 0160 60EE677A 		vnmul.f32	s15, s0, s15
 1014 0164 A7EEAA0A 		vfma.f32	s0, s15, s21
 1015 0168 20EE0A0A 		vmul.f32	s0, s0, s20
 1016 016c BDEEC00A 		vcvt.s32.f32	s0, s0
 1017 0170 A5EC010A 		vstmia.32	r5!, {s0}	@ int
 1018              	.LVL115:
 1019              	.LBE313:
 1020              		.loc 4 67 0
 1021 0174 BCE7     		b	.L42
 1022              	.LVL116:
 1023              	.L39:
 1024              	.LBE314:
 1025              		.loc 4 86 0
 1026 0176 84ED009A 		vstr.32	s18, [r4]
ARM GAS  C:\msys64\tmp\cc7cLfah.s 			page 19


 1027              		.loc 4 87 0
 1028 017a C4ED048A 		vstr.32	s17, [r4, #16]
 1029              		.loc 4 88 0
 1030 017e 84ED058A 		vstr.32	s16, [r4, #20]
 1031              	.LVL117:
 1032              		.loc 4 90 0
 1033 0182 BDEC088B 		vldm	sp!, {d8-d11}
 1034              		.cfi_restore 86
 1035              		.cfi_restore 87
 1036              		.cfi_restore 84
 1037              		.cfi_restore 85
 1038              		.cfi_restore 82
 1039              		.cfi_restore 83
 1040              		.cfi_restore 80
 1041              		.cfi_restore 81
 1042              		.cfi_def_cfa_offset 16
 1043              	.LVL118:
 1044 0186 70BD     		pop	{r4, r5, r6, pc}
 1045              	.LVL119:
 1046              	.L60:
 1047              		.align	2
 1048              	.L59:
 1049 0188 00000000 		.word	.LANCHOR0
 1050 018c 8180803B 		.word	998277249
 1051 0190 00000000 		.word	midi_to_hz_lut_f
 1052 0194 49FFB846 		.word	1186529097
 1053 0198 3EC3AE37 		.word	934200126
 1054 019c CDCC4C3D 		.word	1028443341
 1055 01a0 0000004F 		.word	1325400064
 1056              		.cfi_endproc
 1057              	.LFE251:
 1058              		.size	_hook_cycle, .-_hook_cycle
 1059              		.align	1
 1060              		.global	_hook_on
 1061              		.thumb
 1062              		.thumb_func
 1063              		.type	_hook_on, %function
 1064              	_hook_on:
 1065              	.LFB259:
 1066              		.cfi_startproc
 1067              		@ args = 0, pretend = 0, frame = 0
 1068              		@ frame_needed = 0, uses_anonymous_args = 0
 1069              		@ link register save eliminated.
 1070 01a4 7047     		bx	lr
 1071              		.cfi_endproc
 1072              	.LFE259:
 1073              		.size	_hook_on, .-_hook_on
 1074              		.align	1
 1075              		.global	_hook_off
 1076              		.thumb
 1077              		.thumb_func
 1078              		.type	_hook_off, %function
 1079              	_hook_off:
 1080              	.LFB253:
 1081              		.loc 4 97 0
 1082              		.cfi_startproc
 1083              		@ args = 0, pretend = 0, frame = 0
ARM GAS  C:\msys64\tmp\cc7cLfah.s 			page 20


 1084              		@ frame_needed = 0, uses_anonymous_args = 0
 1085              		@ link register save eliminated.
 1086              	.LVL120:
 1087 01a6 7047     		bx	lr
 1088              		.cfi_endproc
 1089              	.LFE253:
 1090              		.size	_hook_off, .-_hook_off
 1091              		.align	1
 1092              		.global	_hook_param
 1093              		.thumb
 1094              		.thumb_func
 1095              		.type	_hook_param, %function
 1096              	_hook_param:
 1097              	.LFB254:
 1098              		.loc 4 102 0
 1099              		.cfi_startproc
 1100              		@ args = 0, pretend = 0, frame = 8
 1101              		@ frame_needed = 0, uses_anonymous_args = 0
 1102              		@ link register save eliminated.
 1103              	.LVL121:
 1104              		.loc 4 102 0
 1105 01a8 82B0     		sub	sp, sp, #8
 1106              		.cfi_def_cfa_offset 8
 1107              		.loc 4 102 0
 1108 01aa 0191     		str	r1, [sp, #4]
 1109              		.loc 4 108 0
 1110 01ac 0628     		cmp	r0, #6
 1111 01ae 67D8     		bhi	.L63
 1112 01b0 DFE800F0 		tbb	[pc, r0]
 1113              	.L66:
 1114 01b4 04       		.byte	(.L65-.L66)/2
 1115 01b5 09       		.byte	(.L67-.L66)/2
 1116 01b6 1D       		.byte	(.L68-.L66)/2
 1117 01b7 31       		.byte	(.L69-.L66)/2
 1118 01b8 3D       		.byte	(.L70-.L66)/2
 1119 01b9 49       		.byte	(.L71-.L66)/2
 1120 01ba 55       		.byte	(.L72-.L66)/2
 1121 01bb 00       		.p2align 1
 1122              	.L65:
 1123              		.loc 4 111 0
 1124 01bc 314B     		ldr	r3, .L73
 1125 01be BDF80420 		ldrh	r2, [sp, #4]
 1126 01c2 9A87     		strh	r2, [r3, #60]	@ movhi
 1127              		.loc 4 112 0
 1128 01c4 5CE0     		b	.L63
 1129              	.L67:
 1130              		.loc 4 117 0
 1131 01c6 DDED017A 		vldr.32	s15, [sp, #4]	@ int
 1132 01ca 9FED2F7A 		vldr.32	s14, .L73+4
 1133 01ce 2D4B     		ldr	r3, .L73
 1134 01d0 F8EEE76A 		vcvt.f32.s32	s13, s15
 1135 01d4 F7EE007A 		vmov.f32	s15, #1.0e+0
 1136 01d8 E6EE877A 		vfma.f32	s15, s13, s14
 1137              		.loc 4 118 0
 1138 01dc 93F82020 		ldrb	r2, [r3, #32]	@ zero_extendqisi2
 1139 01e0 42F00202 		orr	r2, r2, #2
 1140              		.loc 4 117 0
ARM GAS  C:\msys64\tmp\cc7cLfah.s 			page 21


 1141 01e4 C3ED0C7A 		vstr.32	s15, [r3, #48]
 1142              		.loc 4 118 0
 1143 01e8 83F82020 		strb	r2, [r3, #32]
 1144              		.loc 4 119 0
 1145 01ec 48E0     		b	.L63
 1146              	.L68:
 1147              		.loc 4 124 0
 1148 01ee DDED017A 		vldr.32	s15, [sp, #4]	@ int
 1149 01f2 9FED257A 		vldr.32	s14, .L73+4
 1150 01f6 234B     		ldr	r3, .L73
 1151 01f8 F8EEE76A 		vcvt.f32.s32	s13, s15
 1152 01fc F7EE007A 		vmov.f32	s15, #1.0e+0
 1153 0200 E6EE877A 		vfma.f32	s15, s13, s14
 1154              		.loc 4 125 0
 1155 0204 93F82020 		ldrb	r2, [r3, #32]	@ zero_extendqisi2
 1156 0208 42F00402 		orr	r2, r2, #4
 1157              		.loc 4 124 0
 1158 020c C3ED0D7A 		vstr.32	s15, [r3, #52]
 1159              		.loc 4 125 0
 1160 0210 83F82020 		strb	r2, [r3, #32]
 1161              		.loc 4 126 0
 1162 0214 34E0     		b	.L63
 1163              	.L69:
 1164              		.loc 4 130 0
 1165 0216 DDED017A 		vldr.32	s15, [sp, #4]	@ int
 1166 021a 9FED1C7A 		vldr.32	s14, .L73+8
 1167 021e 194B     		ldr	r3, .L73
 1168 0220 F8EEE77A 		vcvt.f32.s32	s15, s15
 1169 0224 67EE877A 		vmul.f32	s15, s15, s14
 1170 0228 C3ED0A7A 		vstr.32	s15, [r3, #40]
 1171              		.loc 4 131 0
 1172 022c 28E0     		b	.L63
 1173              	.L70:
 1174              		.loc 4 135 0
 1175 022e DDED017A 		vldr.32	s15, [sp, #4]	@ int
 1176 0232 9FED157A 		vldr.32	s14, .L73+4
 1177 0236 134B     		ldr	r3, .L73
 1178 0238 F8EEE77A 		vcvt.f32.s32	s15, s15
 1179 023c 67EE877A 		vmul.f32	s15, s15, s14
 1180 0240 C3ED0B7A 		vstr.32	s15, [r3, #44]
 1181              		.loc 4 136 0
 1182 0244 1CE0     		b	.L63
 1183              	.L71:
 1184              		.loc 4 140 0
 1185 0246 DDED017A 		vldr.32	s15, [sp, #4]	@ int
 1186 024a 9FED107A 		vldr.32	s14, .L73+8
 1187 024e 0D4B     		ldr	r3, .L73
 1188 0250 F8EEE77A 		vcvt.f32.s32	s15, s15
 1189 0254 67EE877A 		vmul.f32	s15, s15, s14
 1190 0258 C3ED0E7A 		vstr.32	s15, [r3, #56]
 1191              		.loc 4 141 0
 1192 025c 10E0     		b	.L63
 1193              	.L72:
 1194              		.loc 4 145 0
 1195 025e DDED017A 		vldr.32	s15, [sp, #4]	@ int
 1196 0262 084B     		ldr	r3, .L73
 1197 0264 9FED0A7A 		vldr.32	s14, .L73+12
ARM GAS  C:\msys64\tmp\cc7cLfah.s 			page 22


 1198              		.loc 4 146 0
 1199 0268 93F82020 		ldrb	r2, [r3, #32]	@ zero_extendqisi2
 1200              		.loc 4 145 0
 1201 026c F8EEE77A 		vcvt.f32.s32	s15, s15
 1202              		.loc 4 146 0
 1203 0270 42F00102 		orr	r2, r2, #1
 1204              		.loc 4 145 0
 1205 0274 67EE877A 		vmul.f32	s15, s15, s14
 1206              		.loc 4 146 0
 1207 0278 83F82020 		strb	r2, [r3, #32]
 1208              		.loc 4 145 0
 1209 027c C3ED097A 		vstr.32	s15, [r3, #36]
 1210              	.L63:
 1211              		.loc 4 154 0
 1212 0280 02B0     		add	sp, sp, #8
 1213              		.cfi_def_cfa_offset 0
 1214              		@ sp needed
 1215 0282 7047     		bx	lr
 1216              	.L74:
 1217              		.align	2
 1218              	.L73:
 1219 0284 00000000 		.word	.LANCHOR0
 1220 0288 CDCC4C3D 		.word	1028443341
 1221 028c 0AD7233C 		.word	1008981770
 1222 0290 9A99993E 		.word	1050253722
 1223              		.cfi_endproc
 1224              	.LFE254:
 1225              		.size	_hook_param, .-_hook_param
 1226              		.section	.text.startup,"ax",%progbits
 1227              		.align	1
 1228              		.thumb
 1229              		.thumb_func
 1230              		.type	_GLOBAL__sub_I__hook_init, %function
 1231              	_GLOBAL__sub_I__hook_init:
 1232              	.LFB256:
 1233              		.loc 4 154 0
 1234              		.cfi_startproc
 1235              		@ args = 0, pretend = 0, frame = 0
 1236              		@ frame_needed = 0, uses_anonymous_args = 0
 1237              	.LVL122:
 1238 0000 08B5     		push	{r3, lr}
 1239              		.cfi_def_cfa_offset 8
 1240              		.cfi_offset 3, -8
 1241              		.cfi_offset 14, -4
 1242              	.LBB315:
 1243              	.LBB316:
 1244              		.loc 4 13 0
 1245 0002 0248     		ldr	r0, .L76
 1246 0004 FFF7FEFF 		bl	_ZN7VPSLJ2DC1Ev
 1247              	.LVL123:
 1248 0008 08BD     		pop	{r3, pc}
 1249              	.L77:
 1250 000a 00BF     		.align	2
 1251              	.L76:
 1252 000c 00000000 		.word	.LANCHOR0
 1253              	.LBE316:
 1254              	.LBE315:
ARM GAS  C:\msys64\tmp\cc7cLfah.s 			page 23


 1255              		.cfi_endproc
 1256              	.LFE256:
 1257              		.size	_GLOBAL__sub_I__hook_init, .-_GLOBAL__sub_I__hook_init
 1258              		.section	.init_array,"aw",%init_array
 1259              		.align	2
 1260 0000 00000000 		.word	_GLOBAL__sub_I__hook_init(target1)
 1261              		.bss
 1262              		.align	2
 1263              		.set	.LANCHOR0,. + 0
 1264              		.type	_ZL7vpslj2d, %object
 1265              		.size	_ZL7vpslj2d, 64
 1266              	_ZL7vpslj2d:
 1267 0000 00000000 		.space	64
 1267      00000000 
 1267      00000000 
 1267      00000000 
 1267      00000000 
 1268              		.text
 1269              	.Letext0:
 1270              		.file 5 "c:\\msys64\\home\\logue-sdk\\tools\\gcc\\gcc-arm-none-eabi-5_4-2016q3\\arm-none-eabi\\inc
 1271              		.file 6 "c:\\msys64\\home\\logue-sdk\\tools\\gcc\\gcc-arm-none-eabi-5_4-2016q3\\arm-none-eabi\\inc
 1272              		.file 7 "c:\\msys64\\home\\logue-sdk\\platform\\ext\\cmsis\\cmsis\\include\\arm_math.h"
 1273              		.file 8 "C:/msys64/home/logue-sdk/platform/nutekt-digital/inc/userosc.h"
 1274              		.file 9 "C:/msys64/home/logue-sdk/platform/nutekt-digital/inc/userprg.h"
 1275              		.file 10 "C:/msys64/home/logue-sdk/platform/nutekt-digital/inc/utils/int_math.h"