ARM GAS  C:\msys64\tmp\ccK4wHS9.s 			page 1


   1              		.syntax unified
   2              		.cpu cortex-m4
   3              		.eabi_attribute 27, 1
   4              		.eabi_attribute 28, 1
   5              		.fpu fpv4-sp-d16
   6              		.eabi_attribute 20, 1
   7              		.eabi_attribute 21, 1
   8              		.eabi_attribute 23, 3
   9              		.eabi_attribute 24, 1
  10              		.eabi_attribute 25, 1
  11              		.eabi_attribute 26, 1
  12              		.eabi_attribute 30, 4
  13              		.eabi_attribute 34, 1
  14              		.eabi_attribute 18, 4
  15              		.thumb
  16              		.syntax unified
  17              		.file	"vpslj_1.cpp"
  18              		.text
  19              	.Ltext0:
  20              		.cfi_sections	.debug_frame
  21              		.section	.text._ZN7VPSLJ2DC2Ev,"axG",%progbits,_ZN7VPSLJ2DC5Ev,comdat
  22              		.align	1
  23              		.weak	_ZN7VPSLJ2DC2Ev
  24              		.thumb
  25              		.thumb_func
  26              		.type	_ZN7VPSLJ2DC2Ev, %function
  27              	_ZN7VPSLJ2DC2Ev:
  28              	.LFB289:
  29              		.file 1 "vpslj_1.hpp"
  30              		.loc 1 75 0
  31              		.cfi_startproc
  32              		@ args = 0, pretend = 0, frame = 0
  33              		@ frame_needed = 0, uses_anonymous_args = 0
  34              	.LVL0:
  35 0000 10B5     		push	{r4, lr}
  36              		.cfi_def_cfa_offset 8
  37              		.cfi_offset 4, -8
  38              		.cfi_offset 14, -4
  39              	.LBB203:
  40              		.loc 1 76 0
  41 0002 017F     		ldrb	r1, [r0, #28]	@ zero_extendqisi2
  42              	.LBB204:
  43              	.LBB205:
  44              	.LBB206:
  45              	.LBB207:
  46              		.file 2 "c:\\msys64\\home\\logue-sdk\\platform\\nutekt-digital\\inc\\dsp\\biquad.hpp"
  47              		.loc 2 77 0
  48 0004 0022     		movs	r2, #0
  49              	.LBE207:
  50              	.LBE206:
  51              	.LBE205:
  52              	.LBE204:
  53              		.loc 1 76 0
  54 0006 62F30301 		bfi	r1, r2, #0, #4
  55              	.LBB211:
  56              	.LBB210:
  57              	.LBB209:
ARM GAS  C:\msys64\tmp\ccK4wHS9.s 			page 2


  58              	.LBB208:
  59              		.loc 2 77 0
  60 000a C263     		str	r2, [r0, #60]	@ float
  61 000c 0264     		str	r2, [r0, #64]	@ float
  62 000e 4264     		str	r2, [r0, #68]	@ float
  63 0010 8264     		str	r2, [r0, #72]	@ float
  64 0012 C264     		str	r2, [r0, #76]	@ float
  65              	.LVL1:
  66              	.LBE208:
  67              	.LBE209:
  68              		.loc 2 344 0
  69 0014 0265     		str	r2, [r0, #80]	@ float
  70 0016 4265     		str	r2, [r0, #84]	@ float
  71              	.LVL2:
  72              	.LBE210:
  73              	.LBE211:
  74              	.LBB212:
  75              	.LBB213:
  76              	.LBB214:
  77              	.LBB215:
  78              		.loc 2 77 0
  79 0018 8265     		str	r2, [r0, #88]	@ float
  80 001a C265     		str	r2, [r0, #92]	@ float
  81 001c 0266     		str	r2, [r0, #96]	@ float
  82 001e 4266     		str	r2, [r0, #100]	@ float
  83 0020 8266     		str	r2, [r0, #104]	@ float
  84              	.LVL3:
  85              	.LBE215:
  86              	.LBE214:
  87              		.loc 2 344 0
  88 0022 C266     		str	r2, [r0, #108]	@ float
  89 0024 0267     		str	r2, [r0, #112]	@ float
  90              	.LVL4:
  91              	.LBE213:
  92              	.LBE212:
  93              		.loc 1 76 0
  94 0026 0260     		str	r2, [r0]	@ unaligned
  95 0028 4260     		str	r2, [r0, #4]	@ unaligned
  96 002a 8260     		str	r2, [r0, #8]	@ unaligned
  97 002c C260     		str	r2, [r0, #12]	@ unaligned
  98 002e 0261     		str	r2, [r0, #16]	@ unaligned
  99 0030 4261     		str	r2, [r0, #20]	@ unaligned
 100 0032 8261     		str	r2, [r0, #24]	@ unaligned
 101              		.loc 1 77 0
 102 0034 0262     		str	r2, [r0, #32]	@ float
 103 0036 4FF07E52 		mov	r2, #1065353216
 104 003a 4262     		str	r2, [r0, #36]	@ float
 105 003c 8262     		str	r2, [r0, #40]	@ float
 106 003e C262     		str	r2, [r0, #44]	@ float
 107 0040 0263     		str	r2, [r0, #48]	@ float
 108 0042 4263     		str	r2, [r0, #52]	@ float
 109 0044 4FF07C52 		mov	r2, #1056964608
 110              		.loc 1 76 0
 111 0048 0177     		strb	r1, [r0, #28]
 112              		.loc 1 77 0
 113 004a 8263     		str	r2, [r0, #56]	@ float
 114              	.LBE203:
ARM GAS  C:\msys64\tmp\ccK4wHS9.s 			page 3


 115              		.loc 1 78 0
 116 004c 10BD     		pop	{r4, pc}
 117              		.cfi_endproc
 118              	.LFE289:
 119              		.size	_ZN7VPSLJ2DC2Ev, .-_ZN7VPSLJ2DC2Ev
 120              		.weak	_ZN7VPSLJ2DC1Ev
 121              		.thumb_set _ZN7VPSLJ2DC1Ev,_ZN7VPSLJ2DC2Ev
 122              		.section	.text._ZN7VPSLJ2D11PhaseShaperEfff,"axG",%progbits,_ZN7VPSLJ2D11PhaseShaperEfff,comdat
 123              		.align	1
 124              		.weak	_ZN7VPSLJ2D11PhaseShaperEfff
 125              		.thumb
 126              		.thumb_func
 127              		.type	_ZN7VPSLJ2D11PhaseShaperEfff, %function
 128              	_ZN7VPSLJ2D11PhaseShaperEfff:
 129              	.LFB293:
 130              		.loc 1 100 0
 131              		.cfi_startproc
 132              		@ args = 0, pretend = 0, frame = 0
 133              		@ frame_needed = 0, uses_anonymous_args = 0
 134              	.LVL5:
 135              	.LBB216:
 136              	.LBB217:
 137              		.file 3 "C:/msys64/home/logue-sdk/platform/nutekt-digital/inc/osc_api.h"
 138              		.loc 3 171 0
 139 0000 D0ED0E7A 		vldr.32	s15, [r0, #56]
 140              	.LBB218:
 141              	.LBB219:
 142              		.loc 3 160 0
 143 0004 6D4B     		ldr	r3, .L11
 144              	.LBE219:
 145              	.LBE218:
 146              		.loc 3 171 0
 147 0006 70EEA70A 		vadd.f32	s1, s1, s15
 148              	.LVL6:
 149 000a B5EE007A 		vmov.f32	s14, #2.5e-1
 150 000e 70EE870A 		vadd.f32	s1, s1, s14
 151              	.LVL7:
 152              	.LBB233:
 153              	.LBB228:
 154              		.loc 3 154 0
 155 0012 DFED6B7A 		vldr.32	s15, .L11+4
 156 0016 FCEEE06A 		vcvt.u32.f32	s13, s1
 157              	.LBE228:
 158              	.LBE233:
 159              	.LBE217:
 160              	.LBE216:
 161              		.loc 1 100 0
 162 001a 10B5     		push	{r4, lr}
 163              		.cfi_def_cfa_offset 8
 164              		.cfi_offset 4, -8
 165              		.cfi_offset 14, -4
 166              	.LBB242:
 167              	.LBB238:
 168              	.LBB234:
 169              	.LBB229:
 170              		.loc 3 154 0
 171 001c F8EE666A 		vcvt.f32.u32	s13, s13
ARM GAS  C:\msys64\tmp\ccK4wHS9.s 			page 4


 172 0020 F0EE675A 		vmov.f32	s11, s15
 173 0024 70EEE60A 		vsub.f32	s1, s1, s13
 174              	.LVL8:
 175 0028 B0EE475A 		vmov.f32	s10, s14
 176 002c 60EEA70A 		vmul.f32	s1, s1, s15
 177              	.LVL9:
 178              	.LBE229:
 179              	.LBE234:
 180              	.LBE238:
 181              	.LBE242:
 182              		.loc 1 104 0
 183 0030 F6EE007A 		vmov.f32	s15, #5.0e-1
 184              	.LBB243:
 185              	.LBB239:
 186              	.LBB235:
 187              	.LBB230:
 188              		.loc 3 155 0
 189 0034 FCEEE06A 		vcvt.u32.f32	s13, s1
 190              	.LBE230:
 191              	.LBE235:
 192              	.LBE239:
 193              	.LBE243:
 194              		.loc 1 104 0
 195 0038 B0EE677A 		vmov.f32	s14, s15
 196              	.LVL10:
 197              	.LBB244:
 198              	.LBB240:
 199              	.LBB236:
 200              	.LBB231:
 201              		.loc 3 155 0
 202 003c 16EE901A 		vmov	r1, s13	@ int
 203              	.LVL11:
 204              		.loc 3 157 0
 205 0040 01F07F02 		and	r2, r1, #127
 206              	.LVL12:
 207              	.LBB220:
 208              	.LBB221:
 209              		.file 4 "C:/msys64/home/logue-sdk/platform/nutekt-digital/inc/utils/float_math.h"
 210              		.loc 4 826 0
 211 0044 06EE101A 		vmov	s12, r1	@ int
 212              	.LBE221:
 213              	.LBE220:
 214              		.loc 3 160 0
 215 0048 03EB8204 		add	r4, r3, r2, lsl #2
 216 004c 0132     		adds	r2, r2, #1
 217              	.LVL13:
 218              	.LBB225:
 219              	.LBB222:
 220              		.loc 4 826 0
 221 004e B8EE466A 		vcvt.f32.u32	s12, s12
 222              	.LBE222:
 223              	.LBE225:
 224              		.loc 3 160 0
 225 0052 02F07F02 		and	r2, r2, #127
 226              	.LVL14:
 227 0056 03EB8202 		add	r2, r3, r2, lsl #2
 228              	.LVL15:
ARM GAS  C:\msys64\tmp\ccK4wHS9.s 			page 5


 229 005a D4ED006A 		vldr.32	s13, [r4]
 230              	.LVL16:
 231              	.LBB226:
 232              	.LBB223:
 233              		.loc 4 826 0
 234 005e 70EEC60A 		vsub.f32	s1, s1, s12
 235              	.LVL17:
 236 0062 92ED006A 		vldr.32	s12, [r2]
 237 0066 36EE666A 		vsub.f32	s12, s12, s13
 238              	.LBE223:
 239              	.LBE226:
 240              		.loc 3 161 0
 241 006a 7F29     		cmp	r1, #127
 242              	.LBB227:
 243              	.LBB224:
 244              		.loc 4 826 0
 245 006c E0EE866A 		vfma.f32	s13, s1, s12
 246              	.LVL18:
 247              	.LBE224:
 248              	.LBE227:
 249              	.LBE231:
 250              	.LBE236:
 251              	.LBE240:
 252              	.LBE244:
 253              	.LBB245:
 254              	.LBB246:
 255              		.loc 3 171 0
 256 0070 31EE051A 		vadd.f32	s2, s2, s10
 257              	.LVL19:
 258              	.LBE246:
 259              	.LBE245:
 260              	.LBB262:
 261              	.LBB241:
 262              	.LBB237:
 263              	.LBB232:
 264              		.loc 3 161 0
 265 0074 88BF     		it	hi
 266 0076 F1EE666A 		vneghi.f32	s13, s13
 267              	.LVL20:
 268              	.LBE232:
 269              	.LBE237:
 270              	.LBE241:
 271              	.LBE262:
 272              		.loc 1 104 0
 273 007a A6EEA77A 		vfma.f32	s14, s13, s15
 274              	.LVL21:
 275 007e F0EE476A 		vmov.f32	s13, s14
 276 0082 90ED097A 		vldr.32	s14, [r0, #36]
 277              	.LVL22:
 278 0086 66EE876A 		vmul.f32	s13, s13, s14
 279              	.LVL23:
 280              	.LBB263:
 281              	.LBB259:
 282              	.LBB247:
 283              	.LBB248:
 284              		.loc 3 154 0
 285 008a BCEEC17A 		vcvt.u32.f32	s14, s2
ARM GAS  C:\msys64\tmp\ccK4wHS9.s 			page 6


 286              	.LBE248:
 287              	.LBE247:
 288              	.LBE259:
 289              	.LBE263:
 290              		.loc 1 110 0
 291 008e F4EEC06A 		vcmpe.f32	s13, s0
 292              	.LBB264:
 293              	.LBB260:
 294              	.LBB257:
 295              	.LBB255:
 296              		.loc 3 154 0
 297 0092 B8EE477A 		vcvt.f32.u32	s14, s14
 298 0096 31EE471A 		vsub.f32	s2, s2, s14
 299              	.LVL24:
 300 009a 21EE251A 		vmul.f32	s2, s2, s11
 301              	.LVL25:
 302              		.loc 3 155 0
 303 009e BCEEC17A 		vcvt.u32.f32	s14, s2
 304 00a2 17EE101A 		vmov	r1, s14	@ int
 305              	.LVL26:
 306              		.loc 3 157 0
 307 00a6 01F07F02 		and	r2, r1, #127
 308              	.LVL27:
 309              		.loc 3 160 0
 310 00aa 03EB8204 		add	r4, r3, r2, lsl #2
 311              	.LVL28:
 312 00ae 0132     		adds	r2, r2, #1
 313              	.LVL29:
 314              	.LBB249:
 315              	.LBB250:
 316              		.loc 4 826 0
 317 00b0 B8EE477A 		vcvt.f32.u32	s14, s14
 318              	.LBE250:
 319              	.LBE249:
 320              		.loc 3 160 0
 321 00b4 02F07F02 		and	r2, r2, #127
 322              	.LVL30:
 323 00b8 03EB8202 		add	r2, r3, r2, lsl #2
 324              	.LVL31:
 325 00bc 94ED006A 		vldr.32	s12, [r4]
 326              	.LVL32:
 327              	.LBB253:
 328              	.LBB251:
 329              		.loc 4 826 0
 330 00c0 31EE471A 		vsub.f32	s2, s2, s14
 331              	.LVL33:
 332 00c4 92ED007A 		vldr.32	s14, [r2]
 333 00c8 37EE467A 		vsub.f32	s14, s14, s12
 334              	.LBE251:
 335              	.LBE253:
 336              		.loc 3 161 0
 337 00cc 7F29     		cmp	r1, #127
 338              	.LVL34:
 339              	.LBB254:
 340              	.LBB252:
 341              		.loc 4 826 0
 342 00ce A1EE076A 		vfma.f32	s12, s2, s14
ARM GAS  C:\msys64\tmp\ccK4wHS9.s 			page 7


 343              	.LVL35:
 344              	.LBE252:
 345              	.LBE254:
 346              	.LBE255:
 347              	.LBE257:
 348              	.LBE260:
 349              	.LBE264:
 350              		.loc 1 107 0
 351 00d2 90ED0A7A 		vldr.32	s14, [r0, #40]
 352              	.LBB265:
 353              	.LBB261:
 354              	.LBB258:
 355              	.LBB256:
 356              		.loc 3 161 0
 357 00d6 88BF     		it	hi
 358 00d8 B1EE466A 		vneghi.f32	s12, s12
 359              	.LVL36:
 360              	.LBE256:
 361              	.LBE258:
 362              	.LBE261:
 363              	.LBE265:
 364              		.loc 1 107 0
 365 00dc E6EE277A 		vfma.f32	s15, s12, s15
 366              	.LVL37:
 367              		.loc 1 110 0
 368 00e0 F1EE10FA 		vmrs	APSR_nzcv, FPSCR
 369              		.loc 1 107 0
 370 00e4 67EE877A 		vmul.f32	s15, s15, s14
 371              	.LVL38:
 372              		.loc 1 115 0
 373 00e8 DDBF     		ittte	le
 374 00ea B7EE007A 		vmovle.f32	s14, #1.0e+0
 375              		.loc 1 114 0
 376 00ee 70EE664A 		vsuble.f32	s9, s0, s13
 377              		.loc 1 115 0
 378 00f2 77EE666A 		vsuble.f32	s13, s14, s13
 379              	.LVL39:
 380              		.loc 1 111 0
 381 00f6 80EE267A 		vdivgt.f32	s14, s0, s13
 382              		.loc 1 115 0
 383 00fa DBBF     		ittet	le
 384 00fc 84EEA66A 		vdivle.f32	s12, s9, s13
 385              	.LVL40:
 386              		.loc 1 117 0
 387 0100 37EE677A 		vsuble.f32	s14, s14, s15
 388              		.loc 1 112 0
 389 0104 67EE877A 		vmulgt.f32	s15, s15, s14
 390              	.LVL41:
 391              		.loc 1 117 0
 392 0108 E6EE077A 		vfmale.f32	s15, s12, s14
 393              	.LVL42:
 394              	.LBB266:
 395              	.LBB267:
 396              		.loc 2 387 0
 397 010c 90ED106A 		vldr.32	s12, [r0, #64]
 398              	.LBE267:
 399              	.LBE266:
ARM GAS  C:\msys64\tmp\ccK4wHS9.s 			page 8


 400              	.LBB272:
 401              	.LBB273:
 402              		.loc 3 171 0
 403 0110 37EE857A 		vadd.f32	s14, s15, s10
 404              	.LVL43:
 405              	.LBB274:
 406              	.LBB275:
 407              		.loc 3 154 0
 408 0114 FCEEC77A 		vcvt.u32.f32	s15, s14
 409              	.LVL44:
 410 0118 F8EE677A 		vcvt.f32.u32	s15, s15
 411 011c 37EE677A 		vsub.f32	s14, s14, s15
 412              	.LVL45:
 413 0120 67EE257A 		vmul.f32	s15, s14, s11
 414              	.LVL46:
 415              		.loc 3 155 0
 416 0124 BCEEE77A 		vcvt.u32.f32	s14, s15
 417 0128 17EE101A 		vmov	r1, s14	@ int
 418              	.LVL47:
 419              		.loc 3 157 0
 420 012c 01F07F02 		and	r2, r1, #127
 421              	.LVL48:
 422              	.LBB276:
 423              	.LBB277:
 424              		.loc 4 826 0
 425 0130 06EE901A 		vmov	s13, r1	@ int
 426              	.LVL49:
 427              	.LBE277:
 428              	.LBE276:
 429              		.loc 3 160 0
 430 0134 03EB8204 		add	r4, r3, r2, lsl #2
 431              	.LVL50:
 432 0138 0132     		adds	r2, r2, #1
 433              	.LVL51:
 434              	.LBB282:
 435              	.LBB278:
 436              		.loc 4 826 0
 437 013a F8EE666A 		vcvt.f32.u32	s13, s13
 438              	.LBE278:
 439              	.LBE282:
 440              		.loc 3 160 0
 441 013e 02F07F02 		and	r2, r2, #127
 442              	.LVL52:
 443 0142 03EB8203 		add	r3, r3, r2, lsl #2
 444              	.LVL53:
 445 0146 94ED007A 		vldr.32	s14, [r4]
 446              	.LVL54:
 447              	.LBB283:
 448              	.LBB279:
 449              		.loc 4 826 0
 450 014a 77EEE67A 		vsub.f32	s15, s15, s13
 451              	.LVL55:
 452 014e D3ED006A 		vldr.32	s13, [r3]
 453 0152 76EEC76A 		vsub.f32	s13, s13, s14
 454              	.LBE279:
 455              	.LBE283:
 456              		.loc 3 161 0
ARM GAS  C:\msys64\tmp\ccK4wHS9.s 			page 9


 457 0156 7F29     		cmp	r1, #127
 458              	.LBB284:
 459              	.LBB280:
 460              		.loc 4 826 0
 461 0158 A7EEA67A 		vfma.f32	s14, s15, s13
 462              	.LVL56:
 463              	.LBE280:
 464              	.LBE284:
 465              	.LBE275:
 466              	.LBE274:
 467              	.LBE273:
 468              	.LBE272:
 469              	.LBB289:
 470              	.LBB268:
 471              		.loc 2 385 0
 472 015c D0ED146A 		vldr.32	s13, [r0, #80]
 473              	.LBE268:
 474              	.LBE289:
 475              	.LBB290:
 476              	.LBB288:
 477              	.LBB287:
 478              	.LBB286:
 479              	.LBB285:
 480              	.LBB281:
 481              		.loc 4 826 0
 482 0160 F0EE477A 		vmov.f32	s15, s14
 483              	.LVL57:
 484              	.LBE281:
 485              	.LBE285:
 486              		.loc 3 161 0
 487 0164 88BF     		it	hi
 488 0166 F1EE477A 		vneghi.f32	s15, s14
 489              	.LVL58:
 490              	.LBE286:
 491              	.LBE287:
 492              	.LBE288:
 493              	.LBE290:
 494              	.LBB291:
 495              	.LBB269:
 496              		.loc 2 385 0
 497 016a 90ED0F7A 		vldr.32	s14, [r0, #60]
 498              	.LBE269:
 499              	.LBE291:
 500              		.loc 1 120 0
 501 016e F1EE677A 		vneg.f32	s15, s15
 502              	.LVL59:
 503              	.LBB292:
 504              	.LBB270:
 505              		.loc 2 385 0
 506 0172 E7EE876A 		vfma.f32	s13, s15, s14
 507              	.LVL60:
 508              		.loc 2 387 0
 509 0176 90ED127A 		vldr.32	s14, [r0, #72]
 510 017a 27EE667A 		vnmul.f32	s14, s14, s13
 511 017e A7EE867A 		vfma.f32	s14, s15, s12
 512              	.LBE270:
 513              	.LBE292:
ARM GAS  C:\msys64\tmp\ccK4wHS9.s 			page 10


 514              	.LBB293:
 515              	.LBB294:
 516              		.loc 2 385 0
 517 0182 D0ED1B7A 		vldr.32	s15, [r0, #108]
 518              	.LVL61:
 519              	.LBE294:
 520              	.LBE293:
 521              	.LBB296:
 522              	.LBB271:
 523              		.loc 2 387 0
 524 0186 80ED147A 		vstr.32	s14, [r0, #80]
 525              	.LVL62:
 526              	.LBE271:
 527              	.LBE296:
 528              	.LBB297:
 529              	.LBB295:
 530              		.loc 2 385 0
 531 018a 90ED167A 		vldr.32	s14, [r0, #88]
 532              		.loc 2 387 0
 533 018e 90ED176A 		vldr.32	s12, [r0, #92]
 534              		.loc 2 385 0
 535 0192 E7EE267A 		vfma.f32	s15, s14, s13
 536              	.LVL63:
 537              		.loc 2 387 0
 538 0196 90ED197A 		vldr.32	s14, [r0, #100]
 539 019a 27EE677A 		vnmul.f32	s14, s14, s15
 540 019e A6EE267A 		vfma.f32	s14, s12, s13
 541 01a2 80ED1B7A 		vstr.32	s14, [r0, #108]
 542              	.LVL64:
 543              	.LBE295:
 544              	.LBE297:
 545              		.loc 1 123 0
 546 01a6 90ED067A 		vldr.32	s14, [r0, #24]
 547              	.LVL65:
 548              	.LBB298:
 549              	.LBB299:
 550              		.loc 4 826 0
 551 01aa 77EEC77A 		vsub.f32	s15, s15, s14
 552 01ae A0EE277A 		vfma.f32	s14, s0, s15
 553              	.LVL66:
 554 01b2 B0EE470A 		vmov.f32	s0, s14
 555              	.LVL67:
 556              	.LBE299:
 557              	.LBE298:
 558              		.loc 1 124 0
 559 01b6 80ED067A 		vstr.32	s14, [r0, #24]
 560              		.loc 1 126 0
 561 01ba 10BD     		pop	{r4, pc}
 562              	.L12:
 563              		.align	2
 564              	.L11:
 565 01bc 00000000 		.word	wt_sine_lut_f
 566 01c0 00008043 		.word	1132462080
 567              		.cfi_endproc
 568              	.LFE293:
 569              		.size	_ZN7VPSLJ2D11PhaseShaperEfff, .-_ZN7VPSLJ2D11PhaseShaperEfff
 570              		.text
ARM GAS  C:\msys64\tmp\ccK4wHS9.s 			page 11


 571              		.align	1
 572              		.global	_hook_init
 573              		.thumb
 574              		.thumb_func
 575              		.type	_hook_init, %function
 576              	_hook_init:
 577              	.LFB294:
 578              		.file 5 "vpslj_1.cpp"
 579              		.loc 5 15 0
 580              		.cfi_startproc
 581              		@ args = 0, pretend = 0, frame = 0
 582              		@ frame_needed = 0, uses_anonymous_args = 0
 583              		@ link register save eliminated.
 584              	.LVL68:
 585 0000 7047     		bx	lr
 586              		.cfi_endproc
 587              	.LFE294:
 588              		.size	_hook_init, .-_hook_init
 589              		.align	1
 590              		.global	_hook_cycle
 591              		.thumb
 592              		.thumb_func
 593              		.type	_hook_cycle, %function
 594              	_hook_cycle:
 595              	.LFB295:
 596              		.loc 5 20 0
 597              		.cfi_startproc
 598              		@ args = 0, pretend = 0, frame = 0
 599              		@ frame_needed = 0, uses_anonymous_args = 0
 600              	.LVL69:
 601              		.loc 5 20 0
 602 0002 F8B5     		push	{r3, r4, r5, r6, r7, lr}
 603              		.cfi_def_cfa_offset 24
 604              		.cfi_offset 3, -24
 605              		.cfi_offset 4, -20
 606              		.cfi_offset 5, -16
 607              		.cfi_offset 6, -12
 608              		.cfi_offset 7, -8
 609              		.cfi_offset 14, -4
 610              		.loc 5 27 0
 611 0004 9F4C     		ldr	r4, .L50
 612              		.loc 5 38 0
 613 0006 8088     		ldrh	r0, [r0, #4]
 614              	.LVL70:
 615              		.loc 5 27 0
 616 0008 237F     		ldrb	r3, [r4, #28]	@ zero_extendqisi2
 617 000a DFED9F5A 		vldr.32	s11, .L50+4
 618              	.LBB358:
 619              	.LBB359:
 620              	.LBB360:
 621              	.LBB361:
 622              		.loc 4 826 0
 623 000e 9FED9F7A 		vldr.32	s14, .L50+8
 624              	.LBE361:
 625              	.LBE360:
 626              		.loc 3 124 0
 627 0012 9FED9F6A 		vldr.32	s12, .L50+12
ARM GAS  C:\msys64\tmp\ccK4wHS9.s 			page 12


 628              	.LBE359:
 629              	.LBE358:
 630              	.LBB402:
 631              	.LBB403:
 632              		.loc 1 87 0
 633 0016 D4ED0B6A 		vldr.32	s13, [r4, #44]
 634              	.LBB404:
 635              	.LBB405:
 636              		.loc 3 615 0
 637 001a DFED9E4A 		vldr.32	s9, .L50+16
 638              	.LBE405:
 639              	.LBE404:
 640              	.LBB414:
 641              	.LBB415:
 642              		.loc 2 143 0
 643 001e C4ED115A 		vstr.32	s11, [r4, #68]
 644              	.LBE415:
 645              	.LBE414:
 646              	.LBE403:
 647              	.LBE402:
 648              		.loc 5 27 0
 649 0022 03F00F06 		and	r6, r3, #15
 650              	.LVL71:
 651              		.loc 5 30 0
 652 0026 6FF30303 		bfc	r3, #0, #4
 653              	.LVL72:
 654              		.loc 5 33 0
 655 002a 16F0080F 		tst	r6, #8
 656              		.loc 5 30 0
 657 002e 2377     		strb	r3, [r4, #28]
 658              		.loc 5 38 0
 659 0030 4FEA2023 		asr	r3, r0, #8
 660              	.LVL73:
 661              	.LBB479:
 662              	.LBB480:
 663              		.loc 1 71 0
 664 0034 18BF     		it	ne
 665 0036 C4ED005A 		vstrne.32	s11, [r4]
 666              	.LBE480:
 667              	.LBE479:
 668              	.LBB481:
 669              	.LBB394:
 670              	.LBB367:
 671              	.LBB368:
 672              		.loc 3 109 0
 673 003a 962B     		cmp	r3, #150
 674              	.LBE368:
 675              	.LBE367:
 676              	.LBE394:
 677              	.LBE481:
 678              		.loc 5 20 0
 679 003c 0D46     		mov	r5, r1
 680              		.loc 5 41 0
 681 003e C1B2     		uxtb	r1, r0
 682              	.LVL74:
 683              	.LBB482:
 684              	.LBB395:
ARM GAS  C:\msys64\tmp\ccK4wHS9.s 			page 13


 685              	.LBB373:
 686              	.LBB369:
 687              		.loc 3 109 0
 688 0040 D8BF     		it	le
 689 0042 1846     		movle	r0, r3
 690              	.LBE369:
 691              	.LBE373:
 692              		.loc 3 120 0
 693 0044 03F10103 		add	r3, r3, #1
 694              	.LVL75:
 695 0048 DBB2     		uxtb	r3, r3
 696              	.LVL76:
 697              	.LBE395:
 698              	.LBE482:
 699              		.loc 5 41 0
 700 004a 07EE901A 		vmov	s15, r1	@ int
 701              	.LVL77:
 702              	.LBB483:
 703              	.LBB396:
 704              	.LBB374:
 705              	.LBB370:
 706              		.loc 3 109 0
 707 004e C8BF     		it	gt
 708 0050 9720     		movgt	r0, #151
 709              	.LVL78:
 710 0052 9149     		ldr	r1, .L50+20
 711              	.LVL79:
 712              	.LBE370:
 713              	.LBE374:
 714              	.LBE396:
 715              	.LBE483:
 716              	.LBB484:
 717              	.LBB471:
 718              	.LBB420:
 719              	.LBB416:
 720              		.loc 2 143 0
 721 0054 C4ED135A 		vstr.32	s11, [r4, #76]
 722              	.LBE416:
 723              	.LBE420:
 724              	.LBE471:
 725              	.LBE484:
 726              	.LBB485:
 727              	.LBB397:
 728              	.LBB375:
 729              	.LBB376:
 730              		.loc 3 109 0
 731 0058 962B     		cmp	r3, #150
 732 005a 88BF     		it	hi
 733 005c 9723     		movhi	r3, #151
 734              	.LBE376:
 735              	.LBE375:
 736              	.LBB378:
 737              	.LBB362:
 738              		.loc 4 826 0
 739 005e F8EEE77A 		vcvt.f32.s32	s15, s15
 740              	.LVL80:
 741              	.LBE362:
ARM GAS  C:\msys64\tmp\ccK4wHS9.s 			page 14


 742              	.LBE378:
 743              	.LBB379:
 744              	.LBB371:
 745              		.loc 3 109 0
 746 0062 01EB8000 		add	r0, r1, r0, lsl #2
 747              	.LBE371:
 748              	.LBE379:
 749              	.LBB380:
 750              	.LBB377:
 751 0066 01EB8303 		add	r3, r1, r3, lsl #2
 752              	.LBE377:
 753              	.LBE380:
 754              	.LBE397:
 755              	.LBE485:
 756              		.loc 5 20 0
 757 006a 2DED0A8B 		vpush.64	{d8, d9, d10, d11, d12}
 758              		.cfi_def_cfa_offset 64
 759              		.cfi_offset 80, -64
 760              		.cfi_offset 81, -60
 761              		.cfi_offset 82, -56
 762              		.cfi_offset 83, -52
 763              		.cfi_offset 84, -48
 764              		.cfi_offset 85, -44
 765              		.cfi_offset 86, -40
 766              		.cfi_offset 87, -36
 767              		.cfi_offset 88, -32
 768              		.cfi_offset 89, -28
 769              	.LBB486:
 770              	.LBB398:
 771              	.LBB381:
 772              	.LBB363:
 773              		.loc 4 826 0
 774 006e 67EE877A 		vmul.f32	s15, s15, s14
 775              	.LBE363:
 776              	.LBE381:
 777              	.LBB382:
 778              	.LBB372:
 779              		.loc 3 109 0
 780 0072 90ED008A 		vldr.32	s16, [r0]
 781              	.LVL81:
 782              	.LBE372:
 783              	.LBE382:
 784              	.LBB383:
 785              	.LBB364:
 786              		.loc 4 826 0
 787 0076 93ED007A 		vldr.32	s14, [r3]
 788              	.LBE364:
 789              	.LBE383:
 790              	.LBE398:
 791              	.LBE486:
 792              	.LBB487:
 793              	.LBB472:
 794              	.LBB421:
 795              	.LBB410:
 796              		.loc 3 617 0
 797 007a 884B     		ldr	r3, .L50+24
 798              	.LBE410:
ARM GAS  C:\msys64\tmp\ccK4wHS9.s 			page 15


 799              	.LBE421:
 800              	.LBB422:
 801              	.LBB423:
 802              		.loc 2 159 0
 803 007c C4ED185A 		vstr.32	s11, [r4, #96]
 804              	.LBE423:
 805              	.LBE422:
 806              	.LBE472:
 807              	.LBE487:
 808              	.LBB488:
 809              	.LBB399:
 810              	.LBB384:
 811              	.LBB365:
 812              		.loc 4 826 0
 813 0080 37EE487A 		vsub.f32	s14, s14, s16
 814              	.LBE365:
 815              	.LBE384:
 816              	.LBE399:
 817              	.LBE488:
 818              	.LBB489:
 819              	.LBB473:
 820              		.loc 1 89 0
 821 0084 F7EE008A 		vmov.f32	s17, #1.0e+0
 822              	.LBE473:
 823              	.LBE489:
 824              	.LBB490:
 825              	.LBB400:
 826              	.LBB385:
 827              	.LBB366:
 828              		.loc 4 826 0
 829 0088 A7EE878A 		vfma.f32	s16, s15, s14
 830              	.LVL82:
 831              	.LBE366:
 832              	.LBE385:
 833              	.LBB386:
 834              	.LBB387:
 835              	.LBB388:
 836              	.LBB389:
 837              		.loc 4 193 0
 838 008c DFED847A 		vldr.32	s15, .L50+28
 839              	.LBE389:
 840              	.LBE388:
 841              	.LBE387:
 842              	.LBE386:
 843              	.LBE400:
 844              	.LBE490:
 845              	.LBB491:
 846              	.LBB474:
 847              	.LBB428:
 848              	.LBB424:
 849              		.loc 2 159 0
 850 0090 C4ED1A5A 		vstr.32	s11, [r4, #104]
 851              	.LBE424:
 852              	.LBE428:
 853              	.LBE474:
 854              	.LBE491:
 855              	.LBB492:
ARM GAS  C:\msys64\tmp\ccK4wHS9.s 			page 16


 856              	.LBB401:
 857              	.LBB393:
 858              	.LBB392:
 859              	.LBB391:
 860              	.LBB390:
 861              		.loc 4 193 0
 862 0094 B4EEE78A 		vcmpe.f32	s16, s15
 863 0098 F1EE10FA 		vmrs	APSR_nzcv, FPSCR
 864 009c A8BF     		it	ge
 865 009e B0EE678A 		vmovge.f32	s16, s15
 866              	.LVL83:
 867              	.LBE390:
 868              	.LBE391:
 869              	.LBE392:
 870              	.LBE393:
 871              		.loc 3 124 0
 872 00a2 28EE068A 		vmul.f32	s16, s16, s12
 873              	.LVL84:
 874              	.LBE401:
 875              	.LBE492:
 876              	.LBB493:
 877              	.LBB475:
 878              	.LBB429:
 879              	.LBB430:
 880              	.LBB431:
 881              	.LBB432:
 882              	.LBB433:
 883              		.loc 4 193 0
 884 00a6 DFED7F7A 		vldr.32	s15, .L50+32
 885              	.LBE433:
 886              	.LBE432:
 887              	.LBE431:
 888              	.LBE430:
 889              	.LBE429:
 890              	.LBE475:
 891              	.LBE493:
 892              		.loc 5 41 0
 893 00aa 84ED018A 		vstr.32	s16, [r4, #4]
 894              	.LVL85:
 895              	.LBB494:
 896              	.LBB476:
 897              		.loc 1 88 0
 898 00ae 28EE267A 		vmul.f32	s14, s16, s13
 899              	.LVL86:
 900              	.LBB438:
 901              	.LBB437:
 902              	.LBB436:
 903              	.LBB435:
 904              	.LBB434:
 905              		.loc 4 193 0
 906 00b2 37EE675A 		vsub.f32	s10, s14, s15
 907              	.LVL87:
 908 00b6 B5EEC05A 		vcmpe.f32	s10, #0
 909 00ba F1EE10FA 		vmrs	APSR_nzcv, FPSCR
 910 00be B8BF     		it	lt
 911 00c0 F0EE477A 		vmovlt.f32	s15, s14
 912              	.LVL88:
ARM GAS  C:\msys64\tmp\ccK4wHS9.s 			page 17


 913              	.LBE434:
 914              	.LBE435:
 915              	.LBE436:
 916              	.LBE437:
 917              	.LBE438:
 918              		.loc 1 89 0
 919 00c4 88EEA67A 		vdiv.f32	s14, s17, s13
 920              	.LBB439:
 921              	.LBB411:
 922              		.loc 3 615 0
 923 00c8 67EEA47A 		vmul.f32	s15, s15, s9
 924              	.LBE411:
 925              	.LBE439:
 926              		.loc 1 89 0
 927 00cc 67EE086A 		vmul.f32	s13, s14, s16
 928              	.LVL89:
 929              	.LBB440:
 930              	.LBB441:
 931              	.LBB442:
 932              	.LBB443:
 933              	.LBB444:
 934              		.loc 4 193 0
 935 00d0 35EEE67A 		vsub.f32	s14, s11, s13
 936              	.LVL90:
 937 00d4 B5EEC07A 		vcmpe.f32	s14, #0
 938 00d8 9FED6B7A 		vldr.32	s14, .L50+4
 939              	.LVL91:
 940 00dc F1EE10FA 		vmrs	APSR_nzcv, FPSCR
 941 00e0 B8BF     		it	lt
 942 00e2 B0EE667A 		vmovlt.f32	s14, s13
 943              	.LVL92:
 944              	.LBE444:
 945              	.LBE443:
 946              	.LBE442:
 947              	.LBE441:
 948              	.LBE440:
 949              	.LBB445:
 950              	.LBB412:
 951              		.loc 3 616 0
 952 00e6 FCEEE76A 		vcvt.u32.f32	s13, s15
 953 00ea 16EE901A 		vmov	r1, s13	@ int
 954              	.LVL93:
 955              	.LBB406:
 956              	.LBB407:
 957              		.loc 4 826 0
 958 00ee 05EE101A 		vmov	s10, r1	@ int
 959 00f2 B8EE455A 		vcvt.f32.u32	s10, s10
 960              	.LBE407:
 961              	.LBE406:
 962              		.loc 3 617 0
 963 00f6 03EB8100 		add	r0, r3, r1, lsl #2
 964 00fa D0ED006A 		vldr.32	s13, [r0]
 965              	.LVL94:
 966              	.LBE412:
 967              	.LBE445:
 968              	.LBB446:
 969              	.LBB417:
ARM GAS  C:\msys64\tmp\ccK4wHS9.s 			page 18


 970              		.loc 2 141 0
 971 00fe 6149     		ldr	r1, .L50
 972              	.LVL95:
 973              	.LBE417:
 974              	.LBE446:
 975              	.LBB447:
 976              	.LBB413:
 977              	.LBB409:
 978              	.LBB408:
 979              		.loc 4 826 0
 980 0100 77EEC57A 		vsub.f32	s15, s15, s10
 981              	.LVL96:
 982 0104 90ED015A 		vldr.32	s10, [r0, #4]
 983 0108 35EE665A 		vsub.f32	s10, s10, s13
 984 010c E7EE856A 		vfma.f32	s13, s15, s10
 985              	.LVL97:
 986              	.LBE408:
 987              	.LBE409:
 988              	.LBE413:
 989              	.LBE447:
 990              	.LBB448:
 991              	.LBB418:
 992              		.loc 2 139 0
 993 0110 76EEA87A 		vadd.f32	s15, s13, s17
 994              	.LVL98:
 995              		.loc 2 141 0
 996 0114 86EEA75A 		vdiv.f32	s10, s13, s15
 997              		.loc 2 142 0
 998 0118 76EEE86A 		vsub.f32	s13, s13, s17
 999              		.loc 2 141 0
 1000 011c 84ED105A 		vstr.32	s10, [r4, #64]
 1001 0120 84ED0F5A 		vstr.32	s10, [r4, #60]
 1002              		.loc 2 142 0
 1003 0124 86EEA75A 		vdiv.f32	s10, s13, s15
 1004              	.LBE418:
 1005              	.LBE448:
 1006              	.LBB449:
 1007              	.LBB450:
 1008              		.loc 3 615 0
 1009 0128 67EE247A 		vmul.f32	s15, s14, s9
 1010              	.LVL99:
 1011              	.LBE450:
 1012              	.LBE449:
 1013              	.LBB464:
 1014              	.LBB419:
 1015              		.loc 2 142 0
 1016 012c 84ED125A 		vstr.32	s10, [r4, #72]
 1017              	.LBE419:
 1018              	.LBE464:
 1019              	.LBB465:
 1020              	.LBB461:
 1021              		.loc 3 616 0
 1022 0130 BCEEE77A 		vcvt.u32.f32	s14, s15
 1023 0134 17EE100A 		vmov	r0, s14	@ int
 1024              	.LVL100:
 1025              	.LBB451:
 1026              	.LBB452:
ARM GAS  C:\msys64\tmp\ccK4wHS9.s 			page 19


 1027              		.loc 4 826 0
 1028 0138 06EE900A 		vmov	s13, r0	@ int
 1029 013c F8EE666A 		vcvt.f32.u32	s13, s13
 1030              	.LBE452:
 1031              	.LBE451:
 1032              		.loc 3 617 0
 1033 0140 03EB8007 		add	r7, r3, r0, lsl #2
 1034              	.LBB457:
 1035              	.LBB453:
 1036              		.loc 4 826 0
 1037 0144 77EEE67A 		vsub.f32	s15, s15, s13
 1038              	.LVL101:
 1039              	.LBE453:
 1040              	.LBE457:
 1041              		.loc 3 617 0
 1042 0148 97ED007A 		vldr.32	s14, [r7]
 1043              	.LVL102:
 1044              	.LBB458:
 1045              	.LBB454:
 1046              		.loc 4 826 0
 1047 014c D7ED016A 		vldr.32	s13, [r7, #4]
 1048 0150 76EEC76A 		vsub.f32	s13, s13, s14
 1049              	.LBE454:
 1050              	.LBE458:
 1051              	.LBE461:
 1052              	.LBE465:
 1053              	.LBE476:
 1054              	.LBE494:
 1055              		.loc 5 47 0
 1056 0154 F007     		lsls	r0, r6, #31
 1057              	.LVL103:
 1058              	.LBB495:
 1059              	.LBB477:
 1060              	.LBB466:
 1061              	.LBB462:
 1062              	.LBB459:
 1063              	.LBB455:
 1064              		.loc 4 826 0
 1065 0156 A7EEA67A 		vfma.f32	s14, s15, s13
 1066              	.LVL104:
 1067              	.LBE455:
 1068              	.LBE459:
 1069              	.LBE462:
 1070              	.LBE466:
 1071              	.LBB467:
 1072              	.LBB425:
 1073              		.loc 2 154 0
 1074 015a 77EE286A 		vadd.f32	s13, s14, s17
 1075              	.LBE425:
 1076              	.LBE467:
 1077              	.LBB468:
 1078              	.LBB463:
 1079              	.LBB460:
 1080              	.LBB456:
 1081              		.loc 4 826 0
 1082 015e F0EE477A 		vmov.f32	s15, s14
 1083              	.LVL105:
ARM GAS  C:\msys64\tmp\ccK4wHS9.s 			page 20


 1084              	.LBE456:
 1085              	.LBE460:
 1086              	.LBE463:
 1087              	.LBE468:
 1088              	.LBB469:
 1089              	.LBB426:
 1090              		.loc 2 156 0
 1091 0162 88EEA67A 		vdiv.f32	s14, s17, s13
 1092              		.loc 2 158 0
 1093 0166 77EEE87A 		vsub.f32	s15, s15, s17
 1094              		.loc 2 156 0
 1095 016a 84ED167A 		vstr.32	s14, [r4, #88]
 1096              		.loc 2 157 0
 1097 016e B1EE477A 		vneg.f32	s14, s14
 1098 0172 84ED177A 		vstr.32	s14, [r4, #92]
 1099              		.loc 2 158 0
 1100 0176 87EEA67A 		vdiv.f32	s14, s15, s13
 1101              	.LBE426:
 1102              	.LBE469:
 1103              	.LBE477:
 1104              	.LBE495:
 1105              		.loc 5 48 0
 1106 017a 48BF     		it	mi
 1107 017c D1ED087A 		vldrmi.32	s15, [r1, #32]
 1108              	.LBB496:
 1109              	.LBB478:
 1110              	.LBB470:
 1111              	.LBB427:
 1112              		.loc 2 158 0
 1113 0180 84ED197A 		vstr.32	s14, [r4, #100]
 1114              	.LBE427:
 1115              	.LBE470:
 1116              	.LBE478:
 1117              	.LBE496:
 1118              		.loc 5 48 0
 1119 0184 42BF     		ittt	mi
 1120 0186 67EE867A 		vmulmi.f32	s15, s15, s12
 1121 018a C1ED027A 		vstrmi.32	s15, [r1, #8]
 1122              		.loc 5 49 0
 1123 018e C1ED037A 		vstrmi.32	s15, [r1, #12]
 1124              		.loc 5 53 0
 1125 0192 B107     		lsls	r1, r6, #30
 1126 0194 0BD5     		bpl	.L22
 1127              		.loc 5 54 0
 1128 0196 D4ED087A 		vldr.32	s15, [r4, #32]
 1129              		.loc 5 55 0
 1130 019a 94ED0C7A 		vldr.32	s14, [r4, #48]
 1131              		.loc 5 54 0
 1132 019e 67EE867A 		vmul.f32	s15, s15, s12
 1133 01a2 C4ED037A 		vstr.32	s15, [r4, #12]
 1134              		.loc 5 55 0
 1135 01a6 67EE277A 		vmul.f32	s15, s14, s15
 1136 01aa C4ED027A 		vstr.32	s15, [r4, #8]
 1137              	.L22:
 1138              		.loc 5 59 0
 1139 01ae 7307     		lsls	r3, r6, #29
 1140 01b0 0BD5     		bpl	.L23
ARM GAS  C:\msys64\tmp\ccK4wHS9.s 			page 21


 1141              		.loc 5 60 0
 1142 01b2 D4ED087A 		vldr.32	s15, [r4, #32]
 1143 01b6 27EE866A 		vmul.f32	s12, s15, s12
 1144              		.loc 5 61 0
 1145 01ba D4ED0D7A 		vldr.32	s15, [r4, #52]
 1146              		.loc 5 60 0
 1147 01be 84ED026A 		vstr.32	s12, [r4, #8]
 1148              		.loc 5 61 0
 1149 01c2 27EE866A 		vmul.f32	s12, s15, s12
 1150 01c6 84ED036A 		vstr.32	s12, [r4, #12]
 1151              	.L23:
 1152              		.loc 5 65 0
 1153 01ca 94ED00AA 		vldr.32	s20, [r4]
 1154              	.LVL106:
 1155              		.loc 5 67 0
 1156 01ce D4ED049A 		vldr.32	s19, [r4, #16]
 1157              	.LVL107:
 1158              		.loc 5 69 0
 1159 01d2 94ED059A 		vldr.32	s18, [r4, #20]
 1160              	.LVL108:
 1161              		.loc 5 71 0
 1162 01d6 D4ED02BA 		vldr.32	s23, [r4, #8]
 1163              	.LVL109:
 1164              		.loc 5 72 0
 1165 01da 94ED03CA 		vldr.32	s24, [r4, #12]
 1166              	.LVL110:
 1167              	.LBB497:
 1168              	.LBB498:
 1169              		.loc 5 95 0
 1170 01de 9FED32BA 		vldr.32	s22, .L50+36
 1171 01e2 DFED32AA 		vldr.32	s21, .L50+40
 1172              	.LBE498:
 1173              	.LBE497:
 1174              		.loc 5 78 0
 1175 01e6 05EB8206 		add	r6, r5, r2, lsl #2
 1176              	.LVL111:
 1177              	.L27:
 1178              	.LBB520:
 1179              		.loc 5 81 0
 1180 01ea B542     		cmp	r5, r6
 1181 01ec 40D0     		beq	.L24
 1182              	.LBB519:
 1183              		.loc 5 84 0
 1184 01ee B0EE491A 		vmov.f32	s2, s18
 1185 01f2 F0EE690A 		vmov.f32	s1, s19
 1186 01f6 B0EE4A0A 		vmov.f32	s0, s20
 1187 01fa 2248     		ldr	r0, .L50
 1188 01fc FFF7FEFF 		bl	_ZN7VPSLJ2D11PhaseShaperEfff
 1189              	.LVL112:
 1190              	.LBB499:
 1191              	.LBB500:
 1192              		.loc 1 96 0
 1193 0200 3AEE08AA 		vadd.f32	s20, s20, s16
 1194              	.LVL113:
 1195              	.LBE500:
 1196              	.LBE499:
 1197              	.LBB503:
ARM GAS  C:\msys64\tmp\ccK4wHS9.s 			page 22


 1198              	.LBB504:
 1199 0204 7BEEA99A 		vadd.f32	s19, s23, s19
 1200              	.LVL114:
 1201              	.LBE504:
 1202              	.LBE503:
 1203              	.LBB506:
 1204              	.LBB501:
 1205              		.loc 1 97 0
 1206 0208 FCEECA7A 		vcvt.u32.f32	s15, s20
 1207              	.LBE501:
 1208              	.LBE506:
 1209              	.LBB507:
 1210              	.LBB508:
 1211              		.loc 1 96 0
 1212 020c 3CEE099A 		vadd.f32	s18, s24, s18
 1213              	.LVL115:
 1214              	.LBE508:
 1215              	.LBE507:
 1216              	.LBB510:
 1217              	.LBB502:
 1218              		.loc 1 97 0
 1219 0210 F8EE677A 		vcvt.f32.u32	s15, s15
 1220 0214 3AEE67AA 		vsub.f32	s20, s20, s15
 1221              	.LVL116:
 1222              	.LBE502:
 1223              	.LBE510:
 1224              	.LBB511:
 1225              	.LBB505:
 1226 0218 FCEEE97A 		vcvt.u32.f32	s15, s19
 1227 021c F8EE677A 		vcvt.f32.u32	s15, s15
 1228 0220 79EEE79A 		vsub.f32	s19, s19, s15
 1229              	.LVL117:
 1230              	.LBE505:
 1231              	.LBE511:
 1232              	.LBB512:
 1233              	.LBB509:
 1234 0224 FCEEC97A 		vcvt.u32.f32	s15, s18
 1235 0228 F8EE677A 		vcvt.f32.u32	s15, s15
 1236 022c 39EE679A 		vsub.f32	s18, s18, s15
 1237              	.LVL118:
 1238              	.LBE509:
 1239              	.LBE512:
 1240              	.LBB513:
 1241              	.LBB514:
 1242              	.LBB515:
 1243              	.LBB516:
 1244              	.LBB517:
 1245              	.LBB518:
 1246              		.loc 4 193 0
 1247 0230 FFEE007A 		vmov.f32	s15, #-1.0e+0
 1248 0234 B4EEE70A 		vcmpe.f32	s0, s15
 1249 0238 F1EE10FA 		vmrs	APSR_nzcv, FPSCR
 1250 023c 09DB     		blt	.L48
 1251              	.LVL119:
 1252 023e B4EEE80A 		vcmpe.f32	s0, s17
 1253 0242 F1EE10FA 		vmrs	APSR_nzcv, FPSCR
 1254 0246 F7EE007A 		vmov.f32	s15, #1.0e+0
ARM GAS  C:\msys64\tmp\ccK4wHS9.s 			page 23


 1255 024a A8BF     		it	ge
 1256 024c B0EE670A 		vmovge.f32	s0, s15
 1257              	.LVL120:
 1258 0250 01E0     		b	.L25
 1259              	.LVL121:
 1260              	.L48:
 1261 0252 B0EE670A 		vmov.f32	s0, s15
 1262              	.LVL122:
 1263              	.L25:
 1264              	.LBE518:
 1265              	.LBE517:
 1266              	.LBE516:
 1267              	.LBE515:
 1268              	.LBE514:
 1269              	.LBE513:
 1270              		.loc 5 95 0
 1271 0256 60EE007A 		vmul.f32	s15, s0, s0
 1272 025a 60EE677A 		vnmul.f32	s15, s0, s15
 1273 025e A7EE8B0A 		vfma.f32	s0, s15, s22
 1274 0262 20EE2A0A 		vmul.f32	s0, s0, s21
 1275 0266 BDEEC00A 		vcvt.s32.f32	s0, s0
 1276 026a A5EC010A 		vstmia.32	r5!, {s0}	@ int
 1277              	.LVL123:
 1278              	.LBE519:
 1279              		.loc 5 81 0
 1280 026e BCE7     		b	.L27
 1281              	.LVL124:
 1282              	.L24:
 1283              	.LBE520:
 1284              		.loc 5 100 0
 1285 0270 84ED00AA 		vstr.32	s20, [r4]
 1286              		.loc 5 101 0
 1287 0274 C4ED049A 		vstr.32	s19, [r4, #16]
 1288              		.loc 5 102 0
 1289 0278 84ED059A 		vstr.32	s18, [r4, #20]
 1290              	.LVL125:
 1291              		.loc 5 104 0
 1292 027c BDEC0A8B 		vldm	sp!, {d8-d12}
 1293              		.cfi_restore 88
 1294              		.cfi_restore 89
 1295              		.cfi_restore 86
 1296              		.cfi_restore 87
 1297              		.cfi_restore 84
 1298              		.cfi_restore 85
 1299              		.cfi_restore 82
 1300              		.cfi_restore 83
 1301              		.cfi_restore 80
 1302              		.cfi_restore 81
 1303              		.cfi_def_cfa_offset 24
 1304              	.LVL126:
 1305 0280 F8BD     		pop	{r3, r4, r5, r6, r7, pc}
 1306              	.LVL127:
 1307              	.L51:
 1308 0282 00BF     		.align	2
 1309              	.L50:
 1310 0284 00000000 		.word	.LANCHOR0
 1311 0288 00000000 		.word	0
ARM GAS  C:\msys64\tmp\ccK4wHS9.s 			page 24


 1312 028c 8180803B 		.word	998277249
 1313 0290 3EC3AE37 		.word	934200126
 1314 0294 BC9C0244 		.word	1141021884
 1315 0298 00000000 		.word	midi_to_hz_lut_f
 1316 029c 00000000 		.word	tanpi_lut_f
 1317 02a0 49FFB846 		.word	1186529097
 1318 02a4 48E1FA3E 		.word	1056629064
 1319 02a8 CDCC4C3C 		.word	1011666125
 1320 02ac 0000004F 		.word	1325400064
 1321              		.cfi_endproc
 1322              	.LFE295:
 1323              		.size	_hook_cycle, .-_hook_cycle
 1324              		.align	1
 1325              		.global	_hook_on
 1326              		.thumb
 1327              		.thumb_func
 1328              		.type	_hook_on, %function
 1329              	_hook_on:
 1330              	.LFB296:
 1331              		.loc 5 106 0
 1332              		.cfi_startproc
 1333              		@ args = 0, pretend = 0, frame = 0
 1334              		@ frame_needed = 0, uses_anonymous_args = 0
 1335              		@ link register save eliminated.
 1336              	.LVL128:
 1337              		.loc 5 109 0
 1338 02b0 024A     		ldr	r2, .L53
 1339 02b2 137F     		ldrb	r3, [r2, #28]	@ zero_extendqisi2
 1340 02b4 43F00803 		orr	r3, r3, #8
 1341 02b8 1377     		strb	r3, [r2, #28]
 1342 02ba 7047     		bx	lr
 1343              	.L54:
 1344              		.align	2
 1345              	.L53:
 1346 02bc 00000000 		.word	.LANCHOR0
 1347              		.cfi_endproc
 1348              	.LFE296:
 1349              		.size	_hook_on, .-_hook_on
 1350              		.align	1
 1351              		.global	_hook_off
 1352              		.thumb
 1353              		.thumb_func
 1354              		.type	_hook_off, %function
 1355              	_hook_off:
 1356              	.LFB297:
 1357              		.loc 5 112 0
 1358              		.cfi_startproc
 1359              		@ args = 0, pretend = 0, frame = 0
 1360              		@ frame_needed = 0, uses_anonymous_args = 0
 1361              		@ link register save eliminated.
 1362              	.LVL129:
 1363 02c0 7047     		bx	lr
 1364              		.cfi_endproc
 1365              	.LFE297:
 1366              		.size	_hook_off, .-_hook_off
 1367              		.align	1
 1368              		.global	_hook_param
ARM GAS  C:\msys64\tmp\ccK4wHS9.s 			page 25


 1369              		.thumb
 1370              		.thumb_func
 1371              		.type	_hook_param, %function
 1372              	_hook_param:
 1373              	.LFB298:
 1374              		.loc 5 117 0
 1375              		.cfi_startproc
 1376              		@ args = 0, pretend = 0, frame = 0
 1377              		@ frame_needed = 0, uses_anonymous_args = 0
 1378              		@ link register save eliminated.
 1379              	.LVL130:
 1380              		.loc 5 123 0
 1381 02c2 07EE901A 		vmov	s15, r1	@ int
 1382 02c6 F8EEE77A 		vcvt.f32.s32	s15, s15
 1383              	.LVL131:
 1384              		.loc 5 125 0
 1385 02ca 0628     		cmp	r0, #6
 1386 02cc 63D8     		bhi	.L56
 1387 02ce DFE800F0 		tbb	[pc, r0]
 1388              	.L59:
 1389 02d2 04       		.byte	(.L58-.L59)/2
 1390 02d3 10       		.byte	(.L60-.L59)/2
 1391 02d4 1E       		.byte	(.L61-.L59)/2
 1392 02d5 2C       		.byte	(.L62-.L59)/2
 1393 02d6 34       		.byte	(.L63-.L59)/2
 1394 02d7 3C       		.byte	(.L64-.L59)/2
 1395 02d8 55       		.byte	(.L65-.L59)/2
 1396 02d9 00       		.p2align 1
 1397              	.L58:
 1398              		.loc 5 128 0
 1399 02da 2F4B     		ldr	r3, .L72
 1400 02dc 9FED2F7A 		vldr.32	s14, .L72+4
 1401              		.loc 5 129 0
 1402 02e0 1A7F     		ldrb	r2, [r3, #28]	@ zero_extendqisi2
 1403              		.loc 5 128 0
 1404 02e2 67EE877A 		vmul.f32	s15, s15, s14
 1405              	.LVL132:
 1406              		.loc 5 129 0
 1407 02e6 42F00102 		orr	r2, r2, #1
 1408              		.loc 5 128 0
 1409 02ea C3ED087A 		vstr.32	s15, [r3, #32]
 1410              		.loc 5 129 0
 1411 02ee 1A77     		strb	r2, [r3, #28]
 1412              		.loc 5 130 0
 1413 02f0 7047     		bx	lr
 1414              	.LVL133:
 1415              	.L60:
 1416              		.loc 5 134 0
 1417 02f2 DFED2B6A 		vldr.32	s13, .L72+8
 1418 02f6 284B     		ldr	r3, .L72
 1419 02f8 B7EE007A 		vmov.f32	s14, #1.0e+0
 1420 02fc A7EEA67A 		vfma.f32	s14, s15, s13
 1421              		.loc 5 135 0
 1422 0300 1A7F     		ldrb	r2, [r3, #28]	@ zero_extendqisi2
 1423 0302 42F00202 		orr	r2, r2, #2
 1424              		.loc 5 134 0
 1425 0306 83ED0C7A 		vstr.32	s14, [r3, #48]
ARM GAS  C:\msys64\tmp\ccK4wHS9.s 			page 26


 1426              		.loc 5 135 0
 1427 030a 1A77     		strb	r2, [r3, #28]
 1428              		.loc 5 136 0
 1429 030c 7047     		bx	lr
 1430              	.L61:
 1431              		.loc 5 140 0
 1432 030e DFED246A 		vldr.32	s13, .L72+8
 1433 0312 214B     		ldr	r3, .L72
 1434 0314 B7EE007A 		vmov.f32	s14, #1.0e+0
 1435 0318 A7EEA67A 		vfma.f32	s14, s15, s13
 1436              		.loc 5 141 0
 1437 031c 1A7F     		ldrb	r2, [r3, #28]	@ zero_extendqisi2
 1438 031e 42F00402 		orr	r2, r2, #4
 1439              		.loc 5 140 0
 1440 0322 83ED0D7A 		vstr.32	s14, [r3, #52]
 1441              		.loc 5 141 0
 1442 0326 1A77     		strb	r2, [r3, #28]
 1443              		.loc 5 142 0
 1444 0328 7047     		bx	lr
 1445              	.L62:
 1446              		.loc 5 146 0
 1447 032a 9FED1E7A 		vldr.32	s14, .L72+12
 1448 032e 1A4B     		ldr	r3, .L72
 1449 0330 67EE877A 		vmul.f32	s15, s15, s14
 1450              	.LVL134:
 1451 0334 C3ED097A 		vstr.32	s15, [r3, #36]
 1452              		.loc 5 147 0
 1453 0338 7047     		bx	lr
 1454              	.LVL135:
 1455              	.L63:
 1456              		.loc 5 151 0
 1457 033a 9FED1A7A 		vldr.32	s14, .L72+12
 1458 033e 164B     		ldr	r3, .L72
 1459 0340 67EE877A 		vmul.f32	s15, s15, s14
 1460              	.LVL136:
 1461 0344 C3ED0A7A 		vstr.32	s15, [r3, #40]
 1462              		.loc 5 152 0
 1463 0348 7047     		bx	lr
 1464              	.LVL137:
 1465              	.L64:
 1466              		.loc 5 156 0
 1467 034a 9FED177A 		vldr.32	s14, .L72+16
 1468 034e 67EE877A 		vmul.f32	s15, s15, s14
 1469              	.LVL138:
 1470              	.LBB521:
 1471              	.LBB522:
 1472              	.LBB523:
 1473              	.LBB524:
 1474              		.loc 4 193 0
 1475 0352 F5EEC07A 		vcmpe.f32	s15, #0
 1476 0356 F1EE10FA 		vmrs	APSR_nzcv, FPSCR
 1477 035a 09DB     		blt	.L71
 1478              	.LVL139:
 1479              	.LBE524:
 1480              	.LBE523:
 1481              	.LBB526:
 1482              	.LBB527:
ARM GAS  C:\msys64\tmp\ccK4wHS9.s 			page 27


 1483 035c B7EE007A 		vmov.f32	s14, #1.0e+0
 1484              	.LBE527:
 1485              	.LBE526:
 1486              	.LBB528:
 1487              	.LBB525:
 1488 0360 F4EEC77A 		vcmpe.f32	s15, s14
 1489 0364 F1EE10FA 		vmrs	APSR_nzcv, FPSCR
 1490 0368 A8BF     		it	ge
 1491 036a F0EE477A 		vmovge.f32	s15, s14
 1492              	.LVL140:
 1493 036e 01E0     		b	.L66
 1494              	.LVL141:
 1495              	.L71:
 1496 0370 DFED0E7A 		vldr.32	s15, .L72+20
 1497              	.LVL142:
 1498              	.L66:
 1499              	.LBE525:
 1500              	.LBE528:
 1501              	.LBE522:
 1502              	.LBE521:
 1503              		.loc 5 156 0
 1504 0374 084B     		ldr	r3, .L72
 1505 0376 C3ED0E7A 		vstr.32	s15, [r3, #56]
 1506              		.loc 5 157 0
 1507 037a 7047     		bx	lr
 1508              	.LVL143:
 1509              	.L65:
 1510              		.loc 5 161 0
 1511 037c 9FED0C7A 		vldr.32	s14, .L72+24
 1512 0380 DFED0C6A 		vldr.32	s13, .L72+28
 1513 0384 044B     		ldr	r3, .L72
 1514 0386 67EE877A 		vmul.f32	s15, s15, s14
 1515              	.LVL144:
 1516 038a B7EE007A 		vmov.f32	s14, #1.0e+0
 1517 038e A7EEA67A 		vfma.f32	s14, s15, s13
 1518 0392 83ED0B7A 		vstr.32	s14, [r3, #44]
 1519              	.L56:
 1520 0396 7047     		bx	lr
 1521              	.L73:
 1522              		.align	2
 1523              	.L72:
 1524 0398 00000000 		.word	.LANCHOR0
 1525 039c 9A99193E 		.word	1041865114
 1526 03a0 0AD7A33C 		.word	1017370378
 1527 03a4 CDCCCC3C 		.word	1020054733
 1528 03a8 0AD7A33B 		.word	1000593162
 1529 03ac 00000000 		.word	0
 1530 03b0 0820803A 		.word	981475336
 1531 03b4 0000C842 		.word	1120403456
 1532              		.cfi_endproc
 1533              	.LFE298:
 1534              		.size	_hook_param, .-_hook_param
 1535              		.section	.text.startup,"ax",%progbits
 1536              		.align	1
 1537              		.thumb
 1538              		.thumb_func
 1539              		.type	_GLOBAL__sub_I__hook_init, %function
ARM GAS  C:\msys64\tmp\ccK4wHS9.s 			page 28


 1540              	_GLOBAL__sub_I__hook_init:
 1541              	.LFB300:
 1542              		.loc 5 169 0
 1543              		.cfi_startproc
 1544              		@ args = 0, pretend = 0, frame = 0
 1545              		@ frame_needed = 0, uses_anonymous_args = 0
 1546              	.LVL145:
 1547 0000 08B5     		push	{r3, lr}
 1548              		.cfi_def_cfa_offset 8
 1549              		.cfi_offset 3, -8
 1550              		.cfi_offset 14, -4
 1551              	.LBB529:
 1552              	.LBB530:
 1553              		.loc 5 13 0
 1554 0002 0248     		ldr	r0, .L75
 1555 0004 FFF7FEFF 		bl	_ZN7VPSLJ2DC1Ev
 1556              	.LVL146:
 1557 0008 08BD     		pop	{r3, pc}
 1558              	.L76:
 1559 000a 00BF     		.align	2
 1560              	.L75:
 1561 000c 00000000 		.word	.LANCHOR0
 1562              	.LBE530:
 1563              	.LBE529:
 1564              		.cfi_endproc
 1565              	.LFE300:
 1566              		.size	_GLOBAL__sub_I__hook_init, .-_GLOBAL__sub_I__hook_init
 1567              		.section	.init_array,"aw",%init_array
 1568              		.align	2
 1569 0000 00000000 		.word	_GLOBAL__sub_I__hook_init(target1)
 1570              		.bss
 1571              		.align	2
 1572              		.set	.LANCHOR0,. + 0
 1573              		.type	_ZL7vpslj2d, %object
 1574              		.size	_ZL7vpslj2d, 116
 1575              	_ZL7vpslj2d:
 1576 0000 00000000 		.space	116
 1576      00000000 
 1576      00000000 
 1576      00000000 
 1576      00000000 
 1577              		.text
 1578              	.Letext0:
 1579              		.file 6 "c:\\msys64\\home\\logue-sdk\\tools\\gcc\\gcc-arm-none-eabi-5_4-2016q3\\arm-none-eabi\\inc
 1580              		.file 7 "c:\\msys64\\home\\logue-sdk\\tools\\gcc\\gcc-arm-none-eabi-5_4-2016q3\\arm-none-eabi\\inc
 1581              		.file 8 "c:\\msys64\\home\\logue-sdk\\platform\\ext\\cmsis\\cmsis\\include\\arm_math.h"
 1582              		.file 9 "C:/msys64/home/logue-sdk/platform/nutekt-digital/inc/userosc.h"
 1583              		.file 10 "C:/msys64/home/logue-sdk/platform/nutekt-digital/inc/userprg.h"
 1584              		.file 11 "C:/msys64/home/logue-sdk/platform/nutekt-digital/inc/utils/int_math.h"