ARM GAS  C:\msys64\tmp\ccv7SfAI.s 			page 1


   1              		.syntax unified
   2              		.cpu cortex-m4
   3              		.eabi_attribute 27, 1
   4              		.eabi_attribute 28, 1
   5              		.fpu fpv4-sp-d16
   6              		.eabi_attribute 20, 1
   7              		.eabi_attribute 21, 1
   8              		.eabi_attribute 23, 3
   9              		.eabi_attribute 24, 1
  10              		.eabi_attribute 25, 1
  11              		.eabi_attribute 26, 1
  12              		.eabi_attribute 30, 4
  13              		.eabi_attribute 34, 1
  14              		.eabi_attribute 18, 4
  15              		.thumb
  16              		.syntax unified
  17              		.file	"pd_2.cpp"
  18              		.text
  19              	.Ltext0:
  20              		.cfi_sections	.debug_frame
  21              		.align	1
  22              		.global	_hook_init
  23              		.thumb
  24              		.thumb_func
  25              		.type	_hook_init, %function
  26              	_hook_init:
  27              	.LFB293:
  28              		.file 1 "pd_2.cpp"
  29              		.loc 1 14 0
  30              		.cfi_startproc
  31              		@ args = 0, pretend = 0, frame = 0
  32              		@ frame_needed = 0, uses_anonymous_args = 0
  33              		@ link register save eliminated.
  34              	.LVL0:
  35 0000 7047     		bx	lr
  36              		.cfi_endproc
  37              	.LFE293:
  38              		.size	_hook_init, .-_hook_init
  39              		.align	1
  40              		.global	_hook_cycle
  41              		.thumb
  42              		.thumb_func
  43              		.type	_hook_cycle, %function
  44              	_hook_cycle:
  45              	.LFB294:
  46              		.loc 1 19 0
  47              		.cfi_startproc
  48              		@ args = 0, pretend = 0, frame = 0
  49              		@ frame_needed = 0, uses_anonymous_args = 0
  50              	.LVL1:
  51              		.loc 1 25 0
  52 0002 594B     		ldr	r3, .L23
  53              	.LBB173:
  54              	.LBB174:
  55              		.loc 1 55 0
  56 0004 DFED592A 		vldr.32	s5, .L23+4
  57              	.LBE174:
ARM GAS  C:\msys64\tmp\ccv7SfAI.s 			page 2


  58              	.LBE173:
  59              		.loc 1 25 0
  60 0008 187A     		ldrb	r0, [r3, #8]	@ zero_extendqisi2
  61              	.LVL2:
  62              		.loc 1 37 0
  63 000a D3ED013A 		vldr.32	s7, [r3, #4]
  64              	.LBB245:
  65              	.LBB241:
  66              	.LBB175:
  67              	.LBB176:
  68              		.file 2 "pd_2.hpp"
  69              		.loc 2 62 0
  70 000e 93ED035A 		vldr.32	s10, [r3, #12]
  71              	.LBB177:
  72              	.LBB178:
  73              		.file 3 "c:\\msys64\\home\\logue-sdk\\platform\\nutekt-digital\\inc\\dsp\\biquad.hpp"
  74              		.loc 3 385 0
  75 0012 93ED042A 		vldr.32	s4, [r3, #16]
  76              		.loc 3 386 0
  77 0016 D3ED051A 		vldr.32	s3, [r3, #20]
  78              		.loc 3 387 0
  79 001a 93ED071A 		vldr.32	s2, [r3, #28]
  80 001e D3ED095A 		vldr.32	s11, [r3, #36]
  81              	.LBE178:
  82              	.LBE177:
  83              	.LBB180:
  84              	.LBB181:
  85              		.loc 3 385 0
  86 0022 D3ED0B0A 		vldr.32	s1, [r3, #44]
  87              		.loc 3 386 0
  88 0026 93ED0C0A 		vldr.32	s0, [r3, #48]
  89 002a 93ED106A 		vldr.32	s12, [r3, #64]
  90              	.LBE181:
  91              	.LBE180:
  92              	.LBE176:
  93              	.LBE175:
  94              		.loc 1 55 0
  95 002e 9FED503A 		vldr.32	s6, .L23+8
  96              	.LBE241:
  97              	.LBE245:
  98              		.loc 1 19 0
  99 0032 70B5     		push	{r4, r5, r6, lr}
 100              		.cfi_def_cfa_offset 16
 101              		.cfi_offset 4, -16
 102              		.cfi_offset 5, -12
 103              		.cfi_offset 6, -8
 104              		.cfi_offset 14, -4
 105              		.loc 1 28 0
 106 0034 0446     		mov	r4, r0
 107              		.loc 1 31 0
 108 0036 C007     		lsls	r0, r0, #31
 109              	.LVL3:
 110              	.LBB246:
 111              	.LBB247:
 112              		.loc 2 46 0
 113 0038 48BF     		it	mi
 114 003a 0020     		movmi	r0, #0
ARM GAS  C:\msys64\tmp\ccv7SfAI.s 			page 3


 115              	.LBE247:
 116              	.LBE246:
 117              		.loc 1 19 0
 118 003c 2DED068B 		vpush.64	{d8, d9, d10}
 119              		.cfi_def_cfa_offset 40
 120              		.cfi_offset 80, -40
 121              		.cfi_offset 81, -36
 122              		.cfi_offset 82, -32
 123              		.cfi_offset 83, -28
 124              		.cfi_offset 84, -24
 125              		.cfi_offset 85, -20
 126              	.LBB249:
 127              	.LBB248:
 128              		.loc 2 46 0
 129 0040 48BF     		it	mi
 130 0042 1860     		strmi	r0, [r3]	@ float
 131              	.LBE248:
 132              	.LBE249:
 133              		.loc 1 28 0
 134 0044 6FF30004 		bfc	r4, #0, #1
 135              		.loc 1 36 0
 136 0048 D3ED006A 		vldr.32	s13, [r3]
 137              	.LVL4:
 138              	.LBB250:
 139              	.LBB242:
 140              	.LBB219:
 141              	.LBB215:
 142              	.LBB185:
 143              	.LBB182:
 144              		.loc 3 387 0
 145 004c 93ED0E8A 		vldr.32	s16, [r3, #56]
 146              	.LBE182:
 147              	.LBE185:
 148              	.LBB186:
 149              	.LBB187:
 150              	.LBB188:
 151              	.LBB189:
 152              		.file 4 "C:/msys64/home/logue-sdk/platform/nutekt-digital/inc/osc_api.h"
 153              		.loc 4 154 0
 154 0050 9FED489A 		vldr.32	s18, .L23+12
 155              		.loc 4 160 0
 156 0054 484D     		ldr	r5, .L23+16
 157              	.LBE189:
 158              	.LBE188:
 159              	.LBE187:
 160              	.LBE186:
 161              	.LBE215:
 162              	.LBE219:
 163              	.LBE242:
 164              	.LBE250:
 165              		.loc 1 28 0
 166 0056 1C72     		strb	r4, [r3, #8]
 167              		.loc 1 43 0
 168 0058 01EB8202 		add	r2, r1, r2, lsl #2
 169              	.LVL5:
 170 005c B6EE004A 		vmov.f32	s8, #5.0e-1
 171              	.LBB251:
ARM GAS  C:\msys64\tmp\ccv7SfAI.s 			page 4


 172              	.LBB243:
 173              	.LBB220:
 174              	.LBB216:
 175              	.LBB204:
 176              	.LBB205:
 177              		.loc 2 72 0
 178 0060 F7EE004A 		vmov.f32	s9, #1.0e+0
 179              	.LBE205:
 180              	.LBE204:
 181              	.LBB209:
 182              	.LBB202:
 183              		.loc 4 171 0
 184 0064 F5EE008A 		vmov.f32	s17, #2.5e-1
 185              	.LBE202:
 186              	.LBE209:
 187              	.LBE216:
 188              	.LBE220:
 189              	.LBB221:
 190              	.LBB222:
 191              	.LBB223:
 192              	.LBB224:
 193              	.LBB225:
 194              	.LBB226:
 195              		.file 5 "C:/msys64/home/logue-sdk/platform/nutekt-digital/inc/utils/float_math.h"
 196              		.loc 5 193 0
 197 0068 FFEE009A 		vmov.f32	s19, #-1.0e+0
 198              	.LVL6:
 199              	.L11:
 200              	.LBE226:
 201              	.LBE225:
 202              	.LBE224:
 203              	.LBE223:
 204              	.LBE222:
 205              	.LBE221:
 206              	.LBE243:
 207              		.loc 1 46 0
 208 006c 9142     		cmp	r1, r2
 209 006e 72D0     		beq	.L4
 210              	.LVL7:
 211              	.LBB244:
 212              	.LBB237:
 213              	.LBB217:
 214              	.LBB210:
 215              		.loc 2 65 0
 216 0070 F4EEC56A 		vcmpe.f32	s13, s10
 217 0074 F1EE10FA 		vmrs	APSR_nzcv, FPSCR
 218              	.LVL8:
 219              	.LBB206:
 220              		.loc 2 72 0
 221 0078 5BBF     		ittet	pl
 222 007a 76EEC57A 		vsubpl.f32	s15, s13, s10
 223 007e 34EEC5AA 		vsubpl.f32	s20, s9, s10
 224              	.LBE206:
 225              	.LBB207:
 226              		.loc 2 67 0
 227 0082 86EE857A 		vdivmi.f32	s14, s13, s10
 228              	.LVL9:
ARM GAS  C:\msys64\tmp\ccv7SfAI.s 			page 5


 229              	.LBE207:
 230              	.LBB208:
 231              		.loc 2 72 0
 232 0086 87EE8A7A 		vdivpl.f32	s14, s15, s20
 233 008a 58BF     		it	pl
 234 008c 37EE247A 		vaddpl.f32	s14, s14, s9
 235 0090 27EE047A 		vmul.f32	s14, s14, s8
 236              	.LVL10:
 237              	.LBE208:
 238              	.LBE210:
 239              	.LBB211:
 240              	.LBB203:
 241              		.loc 4 171 0
 242 0094 37EE287A 		vadd.f32	s14, s14, s17
 243              	.LVL11:
 244              	.LBB201:
 245              	.LBB200:
 246              		.loc 4 154 0
 247 0098 FCEEC77A 		vcvt.u32.f32	s15, s14
 248 009c F8EE677A 		vcvt.f32.u32	s15, s15
 249 00a0 77EE677A 		vsub.f32	s15, s14, s15
 250 00a4 67EE897A 		vmul.f32	s15, s15, s18
 251              	.LVL12:
 252              		.loc 4 155 0
 253 00a8 BCEEE77A 		vcvt.u32.f32	s14, s15
 254              	.LVL13:
 255 00ac 17EE104A 		vmov	r4, s14	@ int
 256              	.LVL14:
 257              		.loc 4 157 0
 258 00b0 04F07F00 		and	r0, r4, #127
 259              	.LVL15:
 260              	.LBB190:
 261              	.LBB191:
 262              		.loc 5 826 0
 263 00b4 0AEE104A 		vmov	s20, r4	@ int
 264              	.LBE191:
 265              	.LBE190:
 266              		.loc 4 160 0
 267 00b8 05EB8006 		add	r6, r5, r0, lsl #2
 268 00bc 0130     		adds	r0, r0, #1
 269              	.LVL16:
 270              	.LBB196:
 271              	.LBB192:
 272              		.loc 5 826 0
 273 00be B8EE4AAA 		vcvt.f32.u32	s20, s20
 274              	.LBE192:
 275              	.LBE196:
 276              		.loc 4 160 0
 277 00c2 00F07F00 		and	r0, r0, #127
 278              	.LVL17:
 279 00c6 05EB8000 		add	r0, r5, r0, lsl #2
 280              	.LVL18:
 281              	.LBB197:
 282              	.LBB193:
 283              		.loc 5 826 0
 284 00ca 77EECA7A 		vsub.f32	s15, s15, s20
 285              	.LVL19:
ARM GAS  C:\msys64\tmp\ccv7SfAI.s 			page 6


 286              	.LBE193:
 287              	.LBE197:
 288              		.loc 4 160 0
 289 00ce 96ED007A 		vldr.32	s14, [r6]
 290              	.LVL20:
 291              	.LBB198:
 292              	.LBB194:
 293              		.loc 5 826 0
 294 00d2 90ED00AA 		vldr.32	s20, [r0]
 295 00d6 3AEE47AA 		vsub.f32	s20, s20, s14
 296              	.LBE194:
 297              	.LBE198:
 298              		.loc 4 161 0
 299 00da 7F2C     		cmp	r4, #127
 300              	.LBB199:
 301              	.LBB195:
 302              		.loc 5 826 0
 303 00dc A7EE8A7A 		vfma.f32	s14, s15, s20
 304              	.LVL21:
 305 00e0 F0EE477A 		vmov.f32	s15, s14
 306              	.LVL22:
 307              	.LBE195:
 308              	.LBE199:
 309              		.loc 4 161 0
 310 00e4 88BF     		it	hi
 311 00e6 F1EE477A 		vneghi.f32	s15, s14
 312              	.LVL23:
 313              	.LBE200:
 314              	.LBE201:
 315              	.LBE203:
 316              	.LBE211:
 317              		.loc 2 75 0
 318 00ea F1EE677A 		vneg.f32	s15, s15
 319              	.LVL24:
 320              	.LBB212:
 321              	.LBB179:
 322              		.loc 3 385 0
 323 00ee B0EE657A 		vmov.f32	s14, s11
 324 00f2 A7EE827A 		vfma.f32	s14, s15, s4
 325              	.LVL25:
 326              		.loc 3 387 0
 327 00f6 61EE475A 		vnmul.f32	s11, s2, s14
 328 00fa E7EEA15A 		vfma.f32	s11, s15, s3
 329              	.LVL26:
 330              	.LBE179:
 331              	.LBE212:
 332              	.LBB213:
 333              	.LBB183:
 334              		.loc 3 385 0
 335 00fe F0EE467A 		vmov.f32	s15, s12
 336 0102 E7EE207A 		vfma.f32	s15, s14, s1
 337              	.LVL27:
 338              		.loc 3 387 0
 339 0106 28EE676A 		vnmul.f32	s12, s16, s15
 340              	.LBE183:
 341              	.LBE213:
 342              	.LBE217:
ARM GAS  C:\msys64\tmp\ccv7SfAI.s 			page 7


 343              	.LBE237:
 344              	.LBB238:
 345              	.LBB235:
 346              	.LBB233:
 347              	.LBB231:
 348              	.LBB229:
 349              	.LBB227:
 350              		.loc 5 193 0
 351 010a F4EEE97A 		vcmpe.f32	s15, s19
 352 010e F1EE10FA 		vmrs	APSR_nzcv, FPSCR
 353              	.LBE227:
 354              	.LBE229:
 355              	.LBE231:
 356              	.LBE233:
 357              	.LBE235:
 358              	.LBE238:
 359              	.LBB239:
 360              	.LBB218:
 361              	.LBB214:
 362              	.LBB184:
 363              		.loc 3 387 0
 364 0112 A7EE006A 		vfma.f32	s12, s14, s0
 365              	.LVL28:
 366              	.LBE184:
 367              	.LBE214:
 368              	.LBE218:
 369              	.LBE239:
 370              	.LBB240:
 371              	.LBB236:
 372              	.LBB234:
 373              	.LBB232:
 374              	.LBB230:
 375              	.LBB228:
 376              		.loc 5 193 0
 377 0116 07DB     		blt	.L21
 378              	.LVL29:
 379 0118 F4EEE47A 		vcmpe.f32	s15, s9
 380 011c F1EE10FA 		vmrs	APSR_nzcv, FPSCR
 381 0120 A8BF     		it	ge
 382 0122 F0EE647A 		vmovge.f32	s15, s9
 383              	.LVL30:
 384 0126 01E0     		b	.L9
 385              	.LVL31:
 386              	.L21:
 387 0128 FFEE007A 		vmov.f32	s15, #-1.0e+0
 388              	.LVL32:
 389              	.L9:
 390              	.LBE228:
 391              	.LBE230:
 392              	.LBE232:
 393              	.LBE234:
 394              	.LBE236:
 395              	.LBE240:
 396              		.loc 1 55 0
 397 012c 27EEA77A 		vmul.f32	s14, s15, s15
 398              		.loc 1 58 0
 399 0130 76EEA36A 		vadd.f32	s13, s13, s7
ARM GAS  C:\msys64\tmp\ccv7SfAI.s 			page 8


 400              	.LVL33:
 401              		.loc 1 55 0
 402 0134 27EEC77A 		vnmul.f32	s14, s15, s14
 403 0138 E7EE227A 		vfma.f32	s15, s14, s5
 404 013c 67EE837A 		vmul.f32	s15, s15, s6
 405 0140 FDEEE77A 		vcvt.s32.f32	s15, s15
 406 0144 E1EC017A 		vstmia.32	r1!, {s15}	@ int
 407              	.LVL34:
 408              		.loc 1 59 0
 409 0148 FCEEE67A 		vcvt.u32.f32	s15, s13
 410 014c F8EE677A 		vcvt.f32.u32	s15, s15
 411 0150 76EEE76A 		vsub.f32	s13, s13, s15
 412              	.LVL35:
 413              	.LBE244:
 414              		.loc 1 46 0
 415 0154 8AE7     		b	.L11
 416              	.LVL36:
 417              	.L4:
 418              	.LBE251:
 419              		.loc 1 64 0
 420 0156 BDEC068B 		vldm	sp!, {d8-d10}
 421              		.cfi_restore 84
 422              		.cfi_restore 85
 423              		.cfi_restore 82
 424              		.cfi_restore 83
 425              		.cfi_restore 80
 426              		.cfi_restore 81
 427              		.cfi_def_cfa_offset 16
 428 015a C3ED095A 		vstr.32	s11, [r3, #36]
 429 015e 83ED106A 		vstr.32	s12, [r3, #64]
 430              		.loc 1 63 0
 431 0162 C3ED006A 		vstr.32	s13, [r3]
 432              		.loc 1 64 0
 433 0166 70BD     		pop	{r4, r5, r6, pc}
 434              	.L24:
 435              		.align	2
 436              	.L23:
 437 0168 00000000 		.word	.LANCHOR0
 438 016c CDCC4C3D 		.word	1028443341
 439 0170 0000004F 		.word	1325400064
 440 0174 00008043 		.word	1132462080
 441 0178 00000000 		.word	wt_sine_lut_f
 442              		.cfi_endproc
 443              	.LFE294:
 444              		.size	_hook_cycle, .-_hook_cycle
 445              		.align	1
 446              		.global	_hook_on
 447              		.thumb
 448              		.thumb_func
 449              		.type	_hook_on, %function
 450              	_hook_on:
 451              	.LFB295:
 452              		.loc 1 66 0
 453              		.cfi_startproc
 454              		@ args = 0, pretend = 0, frame = 0
 455              		@ frame_needed = 0, uses_anonymous_args = 0
 456              	.LVL37:
ARM GAS  C:\msys64\tmp\ccv7SfAI.s 			page 9


 457              		.loc 1 69 0
 458 017c 4C4B     		ldr	r3, .L32
 459              		.loc 1 72 0
 460 017e 8188     		ldrh	r1, [r0, #4]
 461              		.loc 1 69 0
 462 0180 1A7A     		ldrb	r2, [r3, #8]	@ zero_extendqisi2
 463              	.LBB282:
 464              	.LBB283:
 465              	.LBB284:
 466              	.LBB285:
 467              		.loc 5 826 0
 468 0182 DFED4C7A 		vldr.32	s15, .L32+4
 469              	.LBE285:
 470              	.LBE284:
 471              	.LBE283:
 472              	.LBE282:
 473              	.LBB319:
 474              	.LBB320:
 475              	.LBB321:
 476              	.LBB322:
 477              		.loc 4 615 0
 478 0186 DFED4C5A 		vldr.32	s11, .L32+8
 479              	.LBE322:
 480              	.LBE321:
 481              	.LBE320:
 482              	.LBE319:
 483              		.loc 1 69 0
 484 018a 42F00102 		orr	r2, r2, #1
 485              		.loc 1 66 0
 486 018e 10B5     		push	{r4, lr}
 487              		.cfi_def_cfa_offset 8
 488              		.cfi_offset 4, -8
 489              		.cfi_offset 14, -4
 490              		.loc 1 69 0
 491 0190 1A72     		strb	r2, [r3, #8]
 492              		.loc 1 72 0
 493 0192 0A12     		asrs	r2, r1, #8
 494              	.LVL38:
 495              	.LBB375:
 496              	.LBB314:
 497              	.LBB290:
 498              	.LBB291:
 499              	.LBB292:
 500              	.LBB293:
 501              		.file 6 "C:/msys64/home/logue-sdk/platform/nutekt-digital/inc/utils/int_math.h"
 502              		.loc 6 85 0
 503 0194 962A     		cmp	r2, #150
 504              	.LBE293:
 505              	.LBE292:
 506              		.loc 4 109 0
 507 0196 D8BF     		it	le
 508 0198 1046     		movle	r0, r2
 509              	.LVL39:
 510              	.LBE291:
 511              	.LBE290:
 512              	.LBE314:
 513              	.LBE375:
ARM GAS  C:\msys64\tmp\ccv7SfAI.s 			page 10


 514              		.loc 1 75 0
 515 019a C9B2     		uxtb	r1, r1
 516              	.LBB376:
 517              	.LBB315:
 518              		.loc 4 120 0
 519 019c 02F10102 		add	r2, r2, #1
 520              	.LVL40:
 521 01a0 D2B2     		uxtb	r2, r2
 522              	.LVL41:
 523              	.LBE315:
 524              	.LBE376:
 525              		.loc 1 75 0
 526 01a2 06EE901A 		vmov	s13, r1	@ int
 527              	.LVL42:
 528              	.LBB377:
 529              	.LBB316:
 530              	.LBB297:
 531              	.LBB294:
 532              		.loc 4 109 0
 533 01a6 C8BF     		it	gt
 534 01a8 9720     		movgt	r0, #151
 535              	.LVL43:
 536 01aa 4449     		ldr	r1, .L32+12
 537              	.LVL44:
 538              	.LBE294:
 539              	.LBE297:
 540              	.LBB298:
 541              	.LBB299:
 542              	.LBB300:
 543              	.LBB301:
 544              		.loc 6 85 0
 545 01ac 962A     		cmp	r2, #150
 546              	.LBE301:
 547              	.LBE300:
 548              		.loc 4 109 0
 549 01ae 88BF     		it	hi
 550 01b0 9722     		movhi	r2, #151
 551              	.LBE299:
 552              	.LBE298:
 553              	.LBB303:
 554              	.LBB286:
 555              		.loc 5 826 0
 556 01b2 F8EEE66A 		vcvt.f32.s32	s13, s13
 557              	.LVL45:
 558              	.LBE286:
 559              	.LBE303:
 560              	.LBB304:
 561              	.LBB295:
 562              		.loc 4 109 0
 563 01b6 01EB8000 		add	r0, r1, r0, lsl #2
 564              	.LBE295:
 565              	.LBE304:
 566              	.LBB305:
 567              	.LBB302:
 568 01ba 01EB8202 		add	r2, r1, r2, lsl #2
 569              	.LBE302:
 570              	.LBE305:
ARM GAS  C:\msys64\tmp\ccv7SfAI.s 			page 11


 571              	.LBB306:
 572              	.LBB296:
 573 01be 90ED007A 		vldr.32	s14, [r0]
 574              	.LVL46:
 575              	.LBE296:
 576              	.LBE306:
 577              	.LBB307:
 578              	.LBB287:
 579              		.loc 5 826 0
 580 01c2 66EEA76A 		vmul.f32	s13, s13, s15
 581 01c6 D2ED007A 		vldr.32	s15, [r2]
 582              	.LBE287:
 583              	.LBE307:
 584              	.LBE316:
 585              	.LBE377:
 586              	.LBB378:
 587              	.LBB371:
 588              	.LBB334:
 589              	.LBB329:
 590              		.loc 4 617 0
 591 01ca 3D4A     		ldr	r2, .L32+16
 592              	.LBE329:
 593              	.LBE334:
 594              	.LBE371:
 595              	.LBE378:
 596              	.LBB379:
 597              	.LBB317:
 598              	.LBB308:
 599              	.LBB288:
 600              		.loc 5 826 0
 601 01cc 77EEC77A 		vsub.f32	s15, s15, s14
 602 01d0 A6EEA77A 		vfma.f32	s14, s13, s15
 603              	.LBE288:
 604              	.LBE308:
 605              	.LBE317:
 606              	.LBE379:
 607              	.LBB380:
 608              	.LBB372:
 609              	.LBB335:
 610              	.LBB330:
 611              		.loc 4 615 0
 612 01d4 F2EE006A 		vmov.f32	s13, #8.0e+0
 613              	.LBE330:
 614              	.LBE335:
 615              	.LBE372:
 616              	.LBE380:
 617              	.LBB381:
 618              	.LBB318:
 619              	.LBB309:
 620              	.LBB289:
 621              		.loc 5 826 0
 622 01d8 F0EE477A 		vmov.f32	s15, s14
 623              	.LVL47:
 624              	.LBE289:
 625              	.LBE309:
 626              	.LBB310:
 627              	.LBB311:
ARM GAS  C:\msys64\tmp\ccv7SfAI.s 			page 12


 628              	.LBB312:
 629              	.LBB313:
 630              		.loc 5 193 0
 631 01dc 9FED397A 		vldr.32	s14, .L32+20
 632              	.LVL48:
 633 01e0 F4EEC77A 		vcmpe.f32	s15, s14
 634 01e4 F1EE10FA 		vmrs	APSR_nzcv, FPSCR
 635 01e8 B8BF     		it	lt
 636 01ea B0EE677A 		vmovlt.f32	s14, s15
 637              	.LVL49:
 638              	.LBE313:
 639              	.LBE312:
 640              	.LBE311:
 641              	.LBE310:
 642              		.loc 4 124 0
 643 01ee DFED367A 		vldr.32	s15, .L32+24
 644 01f2 67EE277A 		vmul.f32	s15, s14, s15
 645              	.LVL50:
 646              	.LBE318:
 647              	.LBE381:
 648              	.LBB382:
 649              	.LBB373:
 650              	.LBB336:
 651              	.LBB331:
 652              		.loc 4 615 0
 653 01f6 67EEA66A 		vmul.f32	s13, s15, s13
 654              	.LBE331:
 655              	.LBE336:
 656              	.LBE373:
 657              	.LBE382:
 658              		.loc 1 75 0
 659 01fa C3ED017A 		vstr.32	s15, [r3, #4]
 660              	.LVL51:
 661              	.LBB383:
 662              	.LBB374:
 663              	.LBB337:
 664              	.LBB332:
 665              		.loc 4 615 0
 666 01fe 66EEA56A 		vmul.f32	s13, s13, s11
 667              	.LVL52:
 668              		.loc 4 616 0
 669 0202 BCEEE67A 		vcvt.u32.f32	s14, s13
 670 0206 17EE101A 		vmov	r1, s14	@ int
 671              	.LVL53:
 672              	.LBB323:
 673              	.LBB324:
 674              		.loc 5 826 0
 675 020a 06EE101A 		vmov	s12, r1	@ int
 676 020e B8EE466A 		vcvt.f32.u32	s12, s12
 677              	.LBE324:
 678              	.LBE323:
 679              		.loc 4 617 0
 680 0212 02EB8100 		add	r0, r2, r1, lsl #2
 681 0216 90ED007A 		vldr.32	s14, [r0]
 682              	.LVL54:
 683              	.LBB327:
 684              	.LBB325:
ARM GAS  C:\msys64\tmp\ccv7SfAI.s 			page 13


 685              		.loc 5 826 0
 686 021a 76EEC66A 		vsub.f32	s13, s13, s12
 687              	.LVL55:
 688 021e 90ED016A 		vldr.32	s12, [r0, #4]
 689 0222 36EE476A 		vsub.f32	s12, s12, s14
 690              	.LBE325:
 691              	.LBE327:
 692              	.LBE332:
 693              	.LBE337:
 694              	.LBB338:
 695              	.LBB339:
 696              		.loc 3 143 0
 697 0226 0021     		movs	r1, #0
 698              	.LVL56:
 699              	.LBE339:
 700              	.LBE338:
 701              	.LBB344:
 702              	.LBB333:
 703              	.LBB328:
 704              	.LBB326:
 705              		.loc 5 826 0
 706 0228 A6EE867A 		vfma.f32	s14, s13, s12
 707              	.LVL57:
 708              	.LBE326:
 709              	.LBE328:
 710              	.LBE333:
 711              	.LBE344:
 712              	.LBB345:
 713              	.LBB340:
 714              		.loc 3 143 0
 715 022c 9961     		str	r1, [r3, #24]	@ float
 716 022e 1962     		str	r1, [r3, #32]	@ float
 717              		.loc 3 139 0
 718 0230 F7EE006A 		vmov.f32	s13, #1.0e+0
 719 0234 37EE266A 		vadd.f32	s12, s14, s13
 720              	.LVL58:
 721              	.LBE340:
 722              	.LBE345:
 723              	.LBB346:
 724              	.LBB347:
 725              		.loc 3 159 0
 726 0238 5963     		str	r1, [r3, #52]	@ float
 727              	.LBE347:
 728              	.LBE346:
 729              	.LBB351:
 730              	.LBB341:
 731              		.loc 3 141 0
 732 023a 87EE065A 		vdiv.f32	s10, s14, s12
 733              	.LBE341:
 734              	.LBE351:
 735              	.LBB352:
 736              	.LBB348:
 737              		.loc 3 159 0
 738 023e D963     		str	r1, [r3, #60]	@ float
 739              	.LBE348:
 740              	.LBE352:
 741              	.LBB353:
ARM GAS  C:\msys64\tmp\ccv7SfAI.s 			page 14


 742              	.LBB342:
 743              		.loc 3 142 0
 744 0240 37EE667A 		vsub.f32	s14, s14, s13
 745              		.loc 3 141 0
 746 0244 83ED055A 		vstr.32	s10, [r3, #20]
 747 0248 83ED045A 		vstr.32	s10, [r3, #16]
 748              		.loc 3 142 0
 749 024c 87EE065A 		vdiv.f32	s10, s14, s12
 750              	.LBE342:
 751              	.LBE353:
 752              	.LBB354:
 753              	.LBB355:
 754              		.loc 4 615 0
 755 0250 B4EE007A 		vmov.f32	s14, #1.25e-1
 756 0254 67EE877A 		vmul.f32	s15, s15, s14
 757              	.LVL59:
 758              	.LBE355:
 759              	.LBE354:
 760              	.LBB366:
 761              	.LBB343:
 762              		.loc 3 142 0
 763 0258 83ED075A 		vstr.32	s10, [r3, #28]
 764              	.LBE343:
 765              	.LBE366:
 766              	.LBB367:
 767              	.LBB364:
 768              		.loc 4 615 0
 769 025c 67EEA57A 		vmul.f32	s15, s15, s11
 770              	.LVL60:
 771              		.loc 4 616 0
 772 0260 BCEEE77A 		vcvt.u32.f32	s14, s15
 773 0264 17EE100A 		vmov	r0, s14	@ int
 774              	.LVL61:
 775              	.LBB356:
 776              	.LBB357:
 777              		.loc 5 826 0
 778 0268 06EE100A 		vmov	s12, r0	@ int
 779 026c B8EE466A 		vcvt.f32.u32	s12, s12
 780              	.LBE357:
 781              	.LBE356:
 782              		.loc 4 617 0
 783 0270 02EB8004 		add	r4, r2, r0, lsl #2
 784              	.LBB361:
 785              	.LBB358:
 786              		.loc 5 826 0
 787 0274 77EEC67A 		vsub.f32	s15, s15, s12
 788              	.LVL62:
 789              	.LBE358:
 790              	.LBE361:
 791              		.loc 4 617 0
 792 0278 94ED007A 		vldr.32	s14, [r4]
 793              	.LVL63:
 794              	.LBB362:
 795              	.LBB359:
 796              		.loc 5 826 0
 797 027c 94ED016A 		vldr.32	s12, [r4, #4]
 798 0280 36EE476A 		vsub.f32	s12, s12, s14
ARM GAS  C:\msys64\tmp\ccv7SfAI.s 			page 15


 799 0284 A7EE867A 		vfma.f32	s14, s15, s12
 800              	.LVL64:
 801              	.LBE359:
 802              	.LBE362:
 803              	.LBE364:
 804              	.LBE367:
 805              	.LBB368:
 806              	.LBB349:
 807              		.loc 3 154 0
 808 0288 37EE266A 		vadd.f32	s12, s14, s13
 809              	.LBE349:
 810              	.LBE368:
 811              	.LBB369:
 812              	.LBB365:
 813              	.LBB363:
 814              	.LBB360:
 815              		.loc 5 826 0
 816 028c F0EE477A 		vmov.f32	s15, s14
 817              	.LVL65:
 818              	.LBE360:
 819              	.LBE363:
 820              	.LBE365:
 821              	.LBE369:
 822              	.LBB370:
 823              	.LBB350:
 824              		.loc 3 156 0
 825 0290 86EE867A 		vdiv.f32	s14, s13, s12
 826              		.loc 3 158 0
 827 0294 77EEE67A 		vsub.f32	s15, s15, s13
 828              		.loc 3 156 0
 829 0298 83ED0B7A 		vstr.32	s14, [r3, #44]
 830              		.loc 3 157 0
 831 029c B1EE477A 		vneg.f32	s14, s14
 832 02a0 83ED0C7A 		vstr.32	s14, [r3, #48]
 833              		.loc 3 158 0
 834 02a4 87EE867A 		vdiv.f32	s14, s15, s12
 835 02a8 83ED0E7A 		vstr.32	s14, [r3, #56]
 836              		.loc 3 159 0
 837 02ac 10BD     		pop	{r4, pc}
 838              	.L33:
 839 02ae 00BF     		.align	2
 840              	.L32:
 841 02b0 00000000 		.word	.LANCHOR0
 842 02b4 8180803B 		.word	998277249
 843 02b8 BC9C0244 		.word	1141021884
 844 02bc 00000000 		.word	midi_to_hz_lut_f
 845 02c0 00000000 		.word	tanpi_lut_f
 846 02c4 49FFB846 		.word	1186529097
 847 02c8 3EC3AE37 		.word	934200126
 848              	.LBE350:
 849              	.LBE370:
 850              	.LBE374:
 851              	.LBE383:
 852              		.cfi_endproc
 853              	.LFE295:
 854              		.size	_hook_on, .-_hook_on
 855              		.align	1
ARM GAS  C:\msys64\tmp\ccv7SfAI.s 			page 16


 856              		.global	_hook_off
 857              		.thumb
 858              		.thumb_func
 859              		.type	_hook_off, %function
 860              	_hook_off:
 861              	.LFB296:
 862              		.loc 1 82 0
 863              		.cfi_startproc
 864              		@ args = 0, pretend = 0, frame = 0
 865              		@ frame_needed = 0, uses_anonymous_args = 0
 866              		@ link register save eliminated.
 867              	.LVL66:
 868 02cc 7047     		bx	lr
 869              		.cfi_endproc
 870              	.LFE296:
 871              		.size	_hook_off, .-_hook_off
 872              		.align	1
 873              		.global	_hook_param
 874              		.thumb
 875              		.thumb_func
 876              		.type	_hook_param, %function
 877              	_hook_param:
 878              	.LFB297:
 879              		.loc 1 87 0
 880              		.cfi_startproc
 881              		@ args = 0, pretend = 0, frame = 0
 882              		@ frame_needed = 0, uses_anonymous_args = 0
 883              		@ link register save eliminated.
 884              	.LVL67:
 885              		.loc 1 87 0
 886 02ce 07EE901A 		vmov	s15, r1	@ int
 887              		.loc 1 92 0
 888 02d2 C8B9     		cbnz	r0, .L35
 889              		.loc 1 96 0
 890 02d4 F8EEE77A 		vcvt.f32.s32	s15, s15
 891 02d8 9FED0C7A 		vldr.32	s14, .L44
 892 02dc 67EE877A 		vmul.f32	s15, s15, s14
 893              	.LVL68:
 894              	.LBB384:
 895              	.LBB385:
 896              	.LBB386:
 897              	.LBB387:
 898              		.loc 5 193 0
 899 02e0 F5EEC07A 		vcmpe.f32	s15, #0
 900 02e4 F1EE10FA 		vmrs	APSR_nzcv, FPSCR
 901 02e8 09DB     		blt	.L43
 902              	.LVL69:
 903              	.LBE387:
 904              	.LBE386:
 905              	.LBB389:
 906              	.LBB390:
 907 02ea B7EE007A 		vmov.f32	s14, #1.0e+0
 908              	.LBE390:
 909              	.LBE389:
 910              	.LBB391:
 911              	.LBB388:
 912 02ee F4EEC77A 		vcmpe.f32	s15, s14
ARM GAS  C:\msys64\tmp\ccv7SfAI.s 			page 17


 913 02f2 F1EE10FA 		vmrs	APSR_nzcv, FPSCR
 914 02f6 A8BF     		it	ge
 915 02f8 F0EE477A 		vmovge.f32	s15, s14
 916              	.LVL70:
 917 02fc 01E0     		b	.L38
 918              	.LVL71:
 919              	.L43:
 920 02fe DFED047A 		vldr.32	s15, .L44+4
 921              	.LVL72:
 922              	.L38:
 923              	.LBE388:
 924              	.LBE391:
 925              	.LBE385:
 926              	.LBE384:
 927              		.loc 1 96 0
 928 0302 044B     		ldr	r3, .L44+8
 929 0304 C3ED037A 		vstr.32	s15, [r3, #12]
 930              	.L35:
 931 0308 7047     		bx	lr
 932              	.L45:
 933 030a 00BF     		.align	2
 934              	.L44:
 935 030c 0AD7233C 		.word	1008981770
 936 0310 00000000 		.word	0
 937 0314 00000000 		.word	.LANCHOR0
 938              		.cfi_endproc
 939              	.LFE297:
 940              		.size	_hook_param, .-_hook_param
 941              		.section	.text.startup,"ax",%progbits
 942              		.align	1
 943              		.thumb
 944              		.thumb_func
 945              		.type	_GLOBAL__sub_I__hook_init, %function
 946              	_GLOBAL__sub_I__hook_init:
 947              	.LFB299:
 948              		.loc 1 122 0
 949              		.cfi_startproc
 950              		@ args = 0, pretend = 0, frame = 0
 951              		@ frame_needed = 0, uses_anonymous_args = 0
 952              		@ link register save eliminated.
 953              	.LVL73:
 954              	.LBB415:
 955              	.LBB416:
 956              	.LBB417:
 957              	.LBB418:
 958              	.LBB419:
 959              		.loc 2 40 0
 960 0000 0C4B     		ldr	r3, .L47
 961 0002 197A     		ldrb	r1, [r3, #8]	@ zero_extendqisi2
 962 0004 6FF30001 		bfc	r1, #0, #1
 963 0008 0022     		movs	r2, #0
 964 000a 1972     		strb	r1, [r3, #8]
 965              	.LVL74:
 966              	.LBE419:
 967              	.LBE418:
 968              	.LBB421:
 969              	.LBB422:
ARM GAS  C:\msys64\tmp\ccv7SfAI.s 			page 18


 970              		.loc 2 28 0
 971 000c 4FF07C51 		mov	r1, #1056964608
 972              	.LBE422:
 973              	.LBE421:
 974              	.LBB424:
 975              	.LBB420:
 976              		.loc 2 40 0
 977 0010 1A60     		str	r2, [r3]	@ float
 978 0012 5A60     		str	r2, [r3, #4]	@ float
 979              	.LBE420:
 980              	.LBE424:
 981              	.LBB425:
 982              	.LBB423:
 983              		.loc 2 28 0
 984 0014 D960     		str	r1, [r3, #12]	@ float
 985              	.LVL75:
 986              	.LBE423:
 987              	.LBE425:
 988              	.LBB426:
 989              	.LBB427:
 990              	.LBB428:
 991              	.LBB429:
 992              		.loc 3 77 0
 993 0016 1A61     		str	r2, [r3, #16]	@ float
 994 0018 5A61     		str	r2, [r3, #20]	@ float
 995 001a 9A61     		str	r2, [r3, #24]	@ float
 996 001c DA61     		str	r2, [r3, #28]	@ float
 997 001e 1A62     		str	r2, [r3, #32]	@ float
 998              	.LVL76:
 999              	.LBE429:
 1000              	.LBE428:
 1001              		.loc 3 344 0
 1002 0020 5A62     		str	r2, [r3, #36]	@ float
 1003 0022 9A62     		str	r2, [r3, #40]	@ float
 1004              	.LVL77:
 1005              	.LBE427:
 1006              	.LBE426:
 1007              	.LBB430:
 1008              	.LBB431:
 1009              	.LBB432:
 1010              	.LBB433:
 1011              		.loc 3 77 0
 1012 0024 DA62     		str	r2, [r3, #44]	@ float
 1013 0026 1A63     		str	r2, [r3, #48]	@ float
 1014 0028 5A63     		str	r2, [r3, #52]	@ float
 1015 002a 9A63     		str	r2, [r3, #56]	@ float
 1016 002c DA63     		str	r2, [r3, #60]	@ float
 1017              	.LVL78:
 1018              	.LBE433:
 1019              	.LBE432:
 1020              		.loc 3 344 0
 1021 002e 1A64     		str	r2, [r3, #64]	@ float
 1022 0030 5A64     		str	r2, [r3, #68]	@ float
 1023              	.LVL79:
 1024 0032 7047     		bx	lr
 1025              	.L48:
 1026              		.align	2
ARM GAS  C:\msys64\tmp\ccv7SfAI.s 			page 19


 1027              	.L47:
 1028 0034 00000000 		.word	.LANCHOR0
 1029              	.LBE431:
 1030              	.LBE430:
 1031              	.LBE417:
 1032              	.LBE416:
 1033              	.LBE415:
 1034              		.cfi_endproc
 1035              	.LFE299:
 1036              		.size	_GLOBAL__sub_I__hook_init, .-_GLOBAL__sub_I__hook_init
 1037              		.section	.init_array,"aw",%init_array
 1038              		.align	2
 1039 0000 00000000 		.word	_GLOBAL__sub_I__hook_init(target1)
 1040              		.bss
 1041              		.align	2
 1042              		.set	.LANCHOR0,. + 0
 1043              		.type	_ZL2pd, %object
 1044              		.size	_ZL2pd, 72
 1045              	_ZL2pd:
 1046 0000 00000000 		.space	72
 1046      00000000 
 1046      00000000 
 1046      00000000 
 1046      00000000 
 1047              		.text
 1048              	.Letext0:
 1049              		.file 7 "c:\\msys64\\home\\logue-sdk\\tools\\gcc\\gcc-arm-none-eabi-5_4-2016q3\\arm-none-eabi\\inc
 1050              		.file 8 "c:\\msys64\\home\\logue-sdk\\tools\\gcc\\gcc-arm-none-eabi-5_4-2016q3\\arm-none-eabi\\inc
 1051              		.file 9 "c:\\msys64\\home\\logue-sdk\\platform\\ext\\cmsis\\cmsis\\include\\arm_math.h"
 1052              		.file 10 "C:/msys64/home/logue-sdk/platform/nutekt-digital/inc/userosc.h"
 1053              		.file 11 "C:/msys64/home/logue-sdk/platform/nutekt-digital/inc/userprg.h"