ARM GAS  C:\msys64\tmp\ccFdFk3l.s 			page 1


   1              		.syntax unified
   2              		.cpu cortex-m4
   3              		.eabi_attribute 27, 1
   4              		.eabi_attribute 28, 1
   5              		.fpu fpv4-sp-d16
   6              		.eabi_attribute 20, 1
   7              		.eabi_attribute 21, 1
   8              		.eabi_attribute 23, 3
   9              		.eabi_attribute 24, 1
  10              		.eabi_attribute 25, 1
  11              		.eabi_attribute 26, 1
  12              		.eabi_attribute 30, 4
  13              		.eabi_attribute 34, 1
  14              		.eabi_attribute 18, 4
  15              		.thumb
  16              		.syntax unified
  17              		.file	"vps_lissajous.cpp"
  18              		.text
  19              	.Ltext0:
  20              		.cfi_sections	.debug_frame
  21              		.section	.text._ZN5VPSLJ11PhaseShaperEfff,"axG",%progbits,_ZN5VPSLJ11PhaseShaperEfff,comdat
  22              		.align	1
  23              		.weak	_ZN5VPSLJ11PhaseShaperEfff
  24              		.thumb
  25              		.thumb_func
  26              		.type	_ZN5VPSLJ11PhaseShaperEfff, %function
  27              	_ZN5VPSLJ11PhaseShaperEfff:
  28              	.LFB248:
  29              		.file 1 "vps_lissajous.hpp"
  30              		.loc 1 58 0
  31              		.cfi_startproc
  32              		@ args = 0, pretend = 0, frame = 0
  33              		@ frame_needed = 0, uses_anonymous_args = 0
  34              	.LVL0:
  35              	.LBB110:
  36              	.LBB111:
  37              		.file 2 "C:/msys64/home/logue-sdk/platform/nutekt-digital/inc/osc_api.h"
  38              		.loc 2 171 0
  39 0000 B5EE007A 		vmov.f32	s14, #2.5e-1
  40 0004 70EE870A 		vadd.f32	s1, s1, s14
  41              	.LVL1:
  42              	.LBB112:
  43              	.LBB113:
  44              		.loc 2 160 0
  45 0008 5B4B     		ldr	r3, .L10
  46              	.LBE113:
  47              	.LBE112:
  48              		.loc 2 171 0
  49 000a 70EE870A 		vadd.f32	s1, s1, s14
  50              	.LVL2:
  51              	.LBE111:
  52              	.LBE110:
  53              		.loc 1 58 0
  54 000e 10B5     		push	{r4, lr}
  55              		.cfi_def_cfa_offset 8
  56              		.cfi_offset 4, -8
  57              		.cfi_offset 14, -4
ARM GAS  C:\msys64\tmp\ccFdFk3l.s 			page 2


  58              	.LBB131:
  59              	.LBB128:
  60              	.LBB125:
  61              	.LBB122:
  62              		.loc 2 154 0
  63 0010 FCEEE07A 		vcvt.u32.f32	s15, s1
  64              	.LBE122:
  65              	.LBE125:
  66              	.LBE128:
  67              	.LBE131:
  68              	.LBB132:
  69              	.LBB133:
  70              		.loc 2 171 0
  71 0014 31EE071A 		vadd.f32	s2, s2, s14
  72              	.LVL3:
  73              	.LBE133:
  74              	.LBE132:
  75              	.LBB147:
  76              	.LBB129:
  77              	.LBB126:
  78              	.LBB123:
  79              		.loc 2 154 0
  80 0018 F8EE677A 		vcvt.f32.u32	s15, s15
  81 001c 70EEE70A 		vsub.f32	s1, s1, s15
  82              	.LVL4:
  83 0020 DFED567A 		vldr.32	s15, .L10+4
  84 0024 60EEA70A 		vmul.f32	s1, s1, s15
  85              	.LVL5:
  86 0028 B0EE675A 		vmov.f32	s10, s15
  87              		.loc 2 155 0
  88 002c FCEEE06A 		vcvt.u32.f32	s13, s1
  89 0030 16EE901A 		vmov	r1, s13	@ int
  90              	.LVL6:
  91              		.loc 2 157 0
  92 0034 01F07F02 		and	r2, r1, #127
  93              	.LVL7:
  94              	.LBB114:
  95              	.LBB115:
  96              		.file 3 "C:/msys64/home/logue-sdk/platform/nutekt-digital/inc/utils/float_math.h"
  97              		.loc 3 826 0
  98 0038 06EE101A 		vmov	s12, r1	@ int
  99              	.LBE115:
 100              	.LBE114:
 101              		.loc 2 160 0
 102 003c 03EB8204 		add	r4, r3, r2, lsl #2
 103 0040 0132     		adds	r2, r2, #1
 104              	.LVL8:
 105              	.LBB119:
 106              	.LBB116:
 107              		.loc 3 826 0
 108 0042 B8EE466A 		vcvt.f32.u32	s12, s12
 109              	.LBE116:
 110              	.LBE119:
 111              		.loc 2 160 0
 112 0046 02F07F02 		and	r2, r2, #127
 113              	.LVL9:
 114 004a 03EB8202 		add	r2, r3, r2, lsl #2
ARM GAS  C:\msys64\tmp\ccFdFk3l.s 			page 3


 115              	.LVL10:
 116 004e D4ED006A 		vldr.32	s13, [r4]
 117              	.LVL11:
 118              	.LBB120:
 119              	.LBB117:
 120              		.loc 3 826 0
 121 0052 70EEC60A 		vsub.f32	s1, s1, s12
 122              	.LVL12:
 123 0056 92ED006A 		vldr.32	s12, [r2]
 124 005a 36EE666A 		vsub.f32	s12, s12, s13
 125              	.LBE117:
 126              	.LBE120:
 127              		.loc 2 161 0
 128 005e 7F29     		cmp	r1, #127
 129              	.LBB121:
 130              	.LBB118:
 131              		.loc 3 826 0
 132 0060 E0EE866A 		vfma.f32	s13, s1, s12
 133              	.LVL13:
 134              	.LBE118:
 135              	.LBE121:
 136              	.LBE123:
 137              	.LBE126:
 138              	.LBE129:
 139              	.LBE147:
 140              		.loc 1 61 0
 141 0064 B6EE006A 		vmov.f32	s12, #5.0e-1
 142              	.LBB148:
 143              	.LBB130:
 144              	.LBB127:
 145              	.LBB124:
 146              		.loc 2 161 0
 147 0068 88BF     		it	hi
 148 006a F1EE666A 		vneghi.f32	s13, s13
 149              	.LVL14:
 150              	.LBE124:
 151              	.LBE127:
 152              	.LBE130:
 153              	.LBE148:
 154              		.loc 1 61 0
 155 006e F0EE467A 		vmov.f32	s15, s12
 156 0072 E6EE867A 		vfma.f32	s15, s13, s12
 157              	.LVL15:
 158              		.loc 1 62 0
 159 0076 D0ED066A 		vldr.32	s13, [r0, #24]
 160              		.loc 1 63 0
 161 007a C0ED067A 		vstr.32	s15, [r0, #24]
 162              		.loc 1 62 0
 163 007e 77EEE65A 		vsub.f32	s11, s15, s13
 164 0082 E0EE256A 		vfma.f32	s13, s0, s11
 165 0086 D0ED085A 		vldr.32	s11, [r0, #32]
 166 008a 66EEA56A 		vmul.f32	s13, s13, s11
 167              	.LVL16:
 168              	.LBB149:
 169              	.LBB144:
 170              	.LBB134:
 171              	.LBB135:
ARM GAS  C:\msys64\tmp\ccFdFk3l.s 			page 4


 172              		.loc 2 154 0
 173 008e FCEEC15A 		vcvt.u32.f32	s11, s2
 174              	.LBE135:
 175              	.LBE134:
 176              	.LBE144:
 177              	.LBE149:
 178              	.LBB150:
 179              		.loc 1 70 0
 180 0092 B4EEE60A 		vcmpe.f32	s0, s13
 181              	.LBE150:
 182              	.LBB158:
 183              	.LBB145:
 184              	.LBB142:
 185              	.LBB140:
 186              		.loc 2 154 0
 187 0096 F8EE655A 		vcvt.f32.u32	s11, s11
 188 009a 31EE651A 		vsub.f32	s2, s2, s11
 189              	.LVL17:
 190 009e 21EE051A 		vmul.f32	s2, s2, s10
 191              	.LVL18:
 192              		.loc 2 155 0
 193 00a2 FCEEC17A 		vcvt.u32.f32	s15, s2
 194              	.LVL19:
 195 00a6 17EE901A 		vmov	r1, s15	@ int
 196              	.LVL20:
 197              		.loc 2 157 0
 198 00aa 01F07F02 		and	r2, r1, #127
 199              	.LVL21:
 200              		.loc 2 160 0
 201 00ae 03EB8204 		add	r4, r3, r2, lsl #2
 202 00b2 0132     		adds	r2, r2, #1
 203              	.LVL22:
 204 00b4 02F07F02 		and	r2, r2, #127
 205              	.LVL23:
 206 00b8 03EB8202 		add	r2, r3, r2, lsl #2
 207              	.LVL24:
 208 00bc D4ED005A 		vldr.32	s11, [r4]
 209              	.LVL25:
 210              	.LBB136:
 211              	.LBB137:
 212              		.loc 3 826 0
 213 00c0 D2ED004A 		vldr.32	s9, [r2]
 214 00c4 F8EE677A 		vcvt.f32.u32	s15, s15
 215 00c8 74EEE54A 		vsub.f32	s9, s9, s11
 216 00cc 31EE671A 		vsub.f32	s2, s2, s15
 217              	.LVL26:
 218              	.LBE137:
 219              	.LBE136:
 220              		.loc 2 161 0
 221 00d0 7F29     		cmp	r1, #127
 222              	.LBB139:
 223              	.LBB138:
 224              		.loc 3 826 0
 225 00d2 E1EE245A 		vfma.f32	s11, s2, s9
 226              	.LVL27:
 227              	.LBE138:
 228              	.LBE139:
ARM GAS  C:\msys64\tmp\ccFdFk3l.s 			page 5


 229              	.LBE140:
 230              	.LBE142:
 231              	.LBE145:
 232              	.LBE158:
 233              		.loc 1 66 0
 234 00d6 D0ED077A 		vldr.32	s15, [r0, #28]
 235              	.LBB159:
 236              	.LBB146:
 237              	.LBB143:
 238              	.LBB141:
 239              		.loc 2 161 0
 240 00da 88BF     		it	hi
 241 00dc F1EE655A 		vneghi.f32	s11, s11
 242              	.LVL28:
 243              	.LBE141:
 244              	.LBE143:
 245              	.LBE146:
 246              	.LBE159:
 247              		.loc 1 65 0
 248 00e0 A5EE866A 		vfma.f32	s12, s11, s12
 249              	.LVL29:
 250              	.LBB160:
 251              		.loc 1 70 0
 252 00e4 F1EE10FA 		vmrs	APSR_nzcv, FPSCR
 253              	.LBE160:
 254              		.loc 1 66 0
 255 00e8 76EE675A 		vsub.f32	s11, s12, s15
 256              		.loc 1 67 0
 257 00ec 80ED076A 		vstr.32	s12, [r0, #28]
 258              		.loc 1 66 0
 259 00f0 E0EE257A 		vfma.f32	s15, s0, s11
 260              	.LBB161:
 261              	.LBB151:
 262              		.loc 1 77 0
 263 00f4 58BF     		it	pl
 264 00f6 B7EE006A 		vmovpl.f32	s12, #1.0e+0
 265              	.LVL30:
 266              	.LBE151:
 267              	.LBE161:
 268              		.loc 1 66 0
 269 00fa D0ED095A 		vldr.32	s11, [r0, #36]
 270              	.LBB162:
 271              	.LBB152:
 272              		.loc 1 77 0
 273 00fe 5CBF     		itt	pl
 274 0100 30EE660A 		vsubpl.f32	s0, s0, s13
 275              	.LVL31:
 276 0104 76EE666A 		vsubpl.f32	s13, s12, s13
 277              	.LVL32:
 278              	.LBE152:
 279              	.LBE162:
 280              		.loc 1 66 0
 281 0108 67EEA57A 		vmul.f32	s15, s15, s11
 282              	.LVL33:
 283              	.LBB163:
 284              	.LBB153:
 285              		.loc 1 77 0
ARM GAS  C:\msys64\tmp\ccFdFk3l.s 			page 6


 286 010c 55BF     		itete	pl
 287 010e C0EE265A 		vdivpl.f32	s11, s0, s13
 288              	.LBE153:
 289              	.LBB154:
 290              		.loc 1 72 0
 291 0112 80EE266A 		vdivmi.f32	s12, s0, s13
 292              	.LBE154:
 293              	.LBB155:
 294              		.loc 1 77 0
 295 0116 36EE676A 		vsubpl.f32	s12, s12, s15
 296              	.LBE155:
 297              	.LBB156:
 298              		.loc 1 72 0
 299 011a 66EE277A 		vmulmi.f32	s15, s12, s15
 300              	.LVL34:
 301              	.LBE156:
 302              	.LBB157:
 303              		.loc 1 77 0
 304 011e 58BF     		it	pl
 305 0120 E5EE867A 		vfmapl.f32	s15, s11, s12
 306              	.LVL35:
 307              	.LBE157:
 308              	.LBE163:
 309              	.LBB164:
 310              	.LBB165:
 311              		.loc 2 171 0
 312 0124 37EE877A 		vadd.f32	s14, s15, s14
 313              	.LVL36:
 314              	.LBB166:
 315              	.LBB167:
 316              		.loc 2 154 0
 317 0128 FCEEC77A 		vcvt.u32.f32	s15, s14
 318              	.LVL37:
 319 012c F8EE677A 		vcvt.f32.u32	s15, s15
 320 0130 37EE677A 		vsub.f32	s14, s14, s15
 321              	.LVL38:
 322 0134 67EE057A 		vmul.f32	s15, s14, s10
 323              	.LVL39:
 324              		.loc 2 155 0
 325 0138 BCEEE77A 		vcvt.u32.f32	s14, s15
 326 013c 17EE101A 		vmov	r1, s14	@ int
 327              	.LVL40:
 328              		.loc 2 157 0
 329 0140 01F07F02 		and	r2, r1, #127
 330              	.LVL41:
 331              		.loc 2 160 0
 332 0144 03EB8200 		add	r0, r3, r2, lsl #2
 333              	.LVL42:
 334 0148 0132     		adds	r2, r2, #1
 335              	.LVL43:
 336              	.LBB168:
 337              	.LBB169:
 338              		.loc 3 826 0
 339 014a B8EE477A 		vcvt.f32.u32	s14, s14
 340              	.LBE169:
 341              	.LBE168:
 342              		.loc 2 160 0
ARM GAS  C:\msys64\tmp\ccFdFk3l.s 			page 7


 343 014e 02F07F02 		and	r2, r2, #127
 344              	.LVL44:
 345 0152 03EB8203 		add	r3, r3, r2, lsl #2
 346 0156 90ED000A 		vldr.32	s0, [r0]
 347              	.LVL45:
 348              	.LBB172:
 349              	.LBB170:
 350              		.loc 3 826 0
 351 015a 77EEC77A 		vsub.f32	s15, s15, s14
 352              	.LVL46:
 353 015e 93ED007A 		vldr.32	s14, [r3]
 354 0162 37EE407A 		vsub.f32	s14, s14, s0
 355              	.LBE170:
 356              	.LBE172:
 357              		.loc 2 161 0
 358 0166 7F29     		cmp	r1, #127
 359              	.LBB173:
 360              	.LBB171:
 361              		.loc 3 826 0
 362 0168 A7EE870A 		vfma.f32	s0, s15, s14
 363              	.LVL47:
 364              	.LBE171:
 365              	.LBE173:
 366              		.loc 2 161 0
 367 016c 88BF     		it	hi
 368 016e B1EE400A 		vneghi.f32	s0, s0
 369              	.LVL48:
 370              	.LBE167:
 371              	.LBE166:
 372              	.LBE165:
 373              	.LBE164:
 374              		.loc 1 81 0
 375 0172 B1EE400A 		vneg.f32	s0, s0
 376 0176 10BD     		pop	{r4, pc}
 377              	.L11:
 378              		.align	2
 379              	.L10:
 380 0178 00000000 		.word	wt_sine_lut_f
 381 017c 00008043 		.word	1132462080
 382              		.cfi_endproc
 383              	.LFE248:
 384              		.size	_ZN5VPSLJ11PhaseShaperEfff, .-_ZN5VPSLJ11PhaseShaperEfff
 385              		.text
 386              		.align	1
 387              		.global	_hook_init
 388              		.thumb
 389              		.thumb_func
 390              		.type	_hook_init, %function
 391              	_hook_init:
 392              	.LFB250:
 393              		.file 4 "vps_lissajous.cpp"
 394              		.loc 4 14 0
 395              		.cfi_startproc
 396              		@ args = 0, pretend = 0, frame = 0
 397              		@ frame_needed = 0, uses_anonymous_args = 0
 398              		@ link register save eliminated.
 399              	.LVL49:
ARM GAS  C:\msys64\tmp\ccFdFk3l.s 			page 8


 400 0000 7047     		bx	lr
 401              		.cfi_endproc
 402              	.LFE250:
 403              		.size	_hook_init, .-_hook_init
 404              		.align	1
 405              		.global	_hook_cycle
 406              		.thumb
 407              		.thumb_func
 408              		.type	_hook_cycle, %function
 409              	_hook_cycle:
 410              	.LFB251:
 411              		.loc 4 19 0
 412              		.cfi_startproc
 413              		@ args = 0, pretend = 0, frame = 0
 414              		@ frame_needed = 0, uses_anonymous_args = 0
 415              	.LVL50:
 416              		.loc 4 19 0
 417 0002 70B5     		push	{r4, r5, r6, lr}
 418              		.cfi_def_cfa_offset 16
 419              		.cfi_offset 4, -16
 420              		.cfi_offset 5, -12
 421              		.cfi_offset 6, -8
 422              		.cfi_offset 14, -4
 423              		.loc 4 25 0
 424 0004 8488     		ldrh	r4, [r0, #4]
 425              	.LBB202:
 426              	.LBB203:
 427              	.LBB204:
 428              	.LBB205:
 429              		.loc 3 826 0
 430 0006 9FED4E7A 		vldr.32	s14, .L29
 431              	.LBE205:
 432              	.LBE204:
 433              	.LBE203:
 434              	.LBE202:
 435              		.loc 4 25 0
 436 000a 2312     		asrs	r3, r4, #8
 437              	.LVL51:
 438              	.LBB246:
 439              	.LBB238:
 440              	.LBB211:
 441              	.LBB212:
 442              		.loc 2 109 0
 443 000c 962B     		cmp	r3, #150
 444              	.LBE212:
 445              	.LBE211:
 446              	.LBE238:
 447              	.LBE246:
 448              		.loc 4 19 0
 449 000e 0D46     		mov	r5, r1
 450              		.loc 4 28 0
 451 0010 E1B2     		uxtb	r1, r4
 452              	.LVL52:
 453              	.LBB247:
 454              	.LBB239:
 455              	.LBB217:
 456              	.LBB213:
ARM GAS  C:\msys64\tmp\ccFdFk3l.s 			page 9


 457              		.loc 2 109 0
 458 0012 D8BF     		it	le
 459 0014 1C46     		movle	r4, r3
 460              	.LBE213:
 461              	.LBE217:
 462              		.loc 2 120 0
 463 0016 03F10103 		add	r3, r3, #1
 464              	.LVL53:
 465 001a DBB2     		uxtb	r3, r3
 466              	.LVL54:
 467              	.LBE239:
 468              	.LBE247:
 469              		.loc 4 28 0
 470 001c 07EE901A 		vmov	s15, r1	@ int
 471              	.LVL55:
 472              	.LBB248:
 473              	.LBB240:
 474              	.LBB218:
 475              	.LBB214:
 476              		.loc 2 109 0
 477 0020 C8BF     		it	gt
 478 0022 9724     		movgt	r4, #151
 479              	.LVL56:
 480 0024 4749     		ldr	r1, .L29+4
 481              	.LVL57:
 482              	.LBE214:
 483              	.LBE218:
 484              	.LBB219:
 485              	.LBB220:
 486 0026 962B     		cmp	r3, #150
 487 0028 88BF     		it	hi
 488 002a 9723     		movhi	r3, #151
 489              	.LBE220:
 490              	.LBE219:
 491              	.LBB222:
 492              	.LBB206:
 493              		.loc 3 826 0
 494 002c F8EEE77A 		vcvt.f32.s32	s15, s15
 495              	.LVL58:
 496              	.LBE206:
 497              	.LBE222:
 498              	.LBB223:
 499              	.LBB215:
 500              		.loc 2 109 0
 501 0030 01EB8404 		add	r4, r1, r4, lsl #2
 502              	.LBE215:
 503              	.LBE223:
 504              	.LBB224:
 505              	.LBB221:
 506 0034 01EB8303 		add	r3, r1, r3, lsl #2
 507              	.LBE221:
 508              	.LBE224:
 509              	.LBE240:
 510              	.LBE248:
 511              		.loc 4 19 0
 512 0038 2DED088B 		vpush.64	{d8, d9, d10, d11}
 513              		.cfi_def_cfa_offset 48
ARM GAS  C:\msys64\tmp\ccFdFk3l.s 			page 10


 514              		.cfi_offset 80, -48
 515              		.cfi_offset 81, -44
 516              		.cfi_offset 82, -40
 517              		.cfi_offset 83, -36
 518              		.cfi_offset 84, -32
 519              		.cfi_offset 85, -28
 520              		.cfi_offset 86, -24
 521              		.cfi_offset 87, -20
 522              	.LBB249:
 523              	.LBB241:
 524              	.LBB225:
 525              	.LBB207:
 526              		.loc 3 826 0
 527 003c 67EE877A 		vmul.f32	s15, s15, s14
 528              	.LBE207:
 529              	.LBE225:
 530              	.LBB226:
 531              	.LBB216:
 532              		.loc 2 109 0
 533 0040 D4ED008A 		vldr.32	s17, [r4]
 534              	.LVL59:
 535              	.LBE216:
 536              	.LBE226:
 537              	.LBB227:
 538              	.LBB208:
 539              		.loc 3 826 0
 540 0044 93ED007A 		vldr.32	s14, [r3]
 541              	.LBE208:
 542              	.LBE227:
 543              	.LBE241:
 544              	.LBE249:
 545              		.loc 4 28 0
 546 0048 3F4B     		ldr	r3, .L29+8
 547              	.LBB250:
 548              	.LBB251:
 549              		.loc 4 64 0
 550 004a DFED40AA 		vldr.32	s21, .L29+12
 551              	.LBE251:
 552              	.LBE250:
 553              		.loc 4 37 0
 554 004e 93ED049A 		vldr.32	s18, [r3, #16]
 555              		.loc 4 38 0
 556 0052 D3ED059A 		vldr.32	s19, [r3, #20]
 557              		.loc 4 31 0
 558 0056 93ED008A 		vldr.32	s16, [r3]
 559              	.LBB270:
 560              	.LBB268:
 561              		.loc 4 64 0
 562 005a 9FED3DAA 		vldr.32	s20, .L29+16
 563              	.LBE268:
 564              	.LBE270:
 565              	.LBB271:
 566              	.LBB242:
 567              	.LBB228:
 568              	.LBB209:
 569              		.loc 3 826 0
 570 005e 37EE687A 		vsub.f32	s14, s14, s17
ARM GAS  C:\msys64\tmp\ccFdFk3l.s 			page 11


 571              	.LBE209:
 572              	.LBE228:
 573              	.LBE242:
 574              	.LBE271:
 575              		.loc 4 39 0
 576 0062 06EE902A 		vmov	s13, r2	@ int
 577              	.LBB272:
 578              	.LBB243:
 579              	.LBB229:
 580              	.LBB210:
 581              		.loc 3 826 0
 582 0066 E7EE878A 		vfma.f32	s17, s15, s14
 583              	.LVL60:
 584              	.LBE210:
 585              	.LBE229:
 586              	.LBE243:
 587              	.LBE272:
 588              		.loc 4 45 0
 589 006a 05EB8206 		add	r6, r5, r2, lsl #2
 590 006e 1C46     		mov	r4, r3
 591              	.LBB273:
 592              	.LBB244:
 593              	.LBB230:
 594              	.LBB231:
 595              	.LBB232:
 596              	.LBB233:
 597              		.loc 3 193 0
 598 0070 DFED387A 		vldr.32	s15, .L29+20
 599              	.LBE233:
 600              	.LBE232:
 601              	.LBE231:
 602              	.LBE230:
 603              	.LBE244:
 604              	.LBE273:
 605              		.loc 4 35 0
 606 0074 90ED007A 		vldr.32	s14, [r0]	@ int
 607              	.LBB274:
 608              	.LBB245:
 609              	.LBB237:
 610              	.LBB236:
 611              	.LBB235:
 612              	.LBB234:
 613              		.loc 3 193 0
 614 0078 F4EEE78A 		vcmpe.f32	s17, s15
 615 007c F1EE10FA 		vmrs	APSR_nzcv, FPSCR
 616 0080 B8BF     		it	lt
 617 0082 F0EE687A 		vmovlt.f32	s15, s17
 618              	.LVL61:
 619              	.LBE234:
 620              	.LBE235:
 621              	.LBE236:
 622              	.LBE237:
 623              		.loc 2 124 0
 624 0086 DFED348A 		vldr.32	s17, .L29+24
 625 008a 67EEA88A 		vmul.f32	s17, s15, s17
 626              	.LVL62:
 627              	.LBE245:
ARM GAS  C:\msys64\tmp\ccFdFk3l.s 			page 12


 628              	.LBE274:
 629              		.loc 4 36 0
 630 008e D3ED0A7A 		vldr.32	s15, [r3, #40]	@ int
 631              		.loc 4 28 0
 632 0092 C3ED018A 		vstr.32	s17, [r3, #4]
 633              	.LVL63:
 634              		.loc 4 35 0
 635 0096 BAEEE07A 		vcvt.f32.s32	s14, s14, #31
 636              		.loc 4 36 0
 637 009a F8EE677A 		vcvt.f32.u32	s15, s15
 638              		.loc 4 39 0
 639 009e F8EE666A 		vcvt.f32.u32	s13, s13
 640              		.loc 4 36 0
 641 00a2 67EE877A 		vmul.f32	s15, s15, s14
 642              		.loc 4 35 0
 643 00a6 83ED027A 		vstr.32	s14, [r3, #8]
 644              	.LVL64:
 645              		.loc 4 36 0
 646 00aa C3ED037A 		vstr.32	s15, [r3, #12]
 647              	.LVL65:
 648              		.loc 4 39 0
 649 00ae 37EE497A 		vsub.f32	s14, s14, s18
 650              	.LVL66:
 651              		.loc 4 40 0
 652 00b2 77EEE97A 		vsub.f32	s15, s15, s19
 653              	.LVL67:
 654              		.loc 4 39 0
 655 00b6 87EE26BA 		vdiv.f32	s22, s14, s13
 656              	.LVL68:
 657              		.loc 4 40 0
 658 00ba C7EEA6BA 		vdiv.f32	s23, s15, s13
 659              	.LVL69:
 660              	.L20:
 661              	.LBB275:
 662              		.loc 4 48 0
 663 00be B542     		cmp	r5, r6
 664 00c0 34D0     		beq	.L17
 665              	.LVL70:
 666              	.LBB269:
 667              		.loc 4 51 0
 668 00c2 2148     		ldr	r0, .L29+8
 669 00c4 B0EE691A 		vmov.f32	s2, s19
 670 00c8 F0EE490A 		vmov.f32	s1, s18
 671 00cc B0EE480A 		vmov.f32	s0, s16
 672 00d0 FFF7FEFF 		bl	_ZN5VPSLJ11PhaseShaperEfff
 673              	.LVL71:
 674              	.LBB252:
 675              	.LBB253:
 676              		.loc 1 84 0
 677 00d4 38EE288A 		vadd.f32	s16, s16, s17
 678              	.LVL72:
 679              	.LBE253:
 680              	.LBE252:
 681              		.loc 4 54 0
 682 00d8 39EE0B9A 		vadd.f32	s18, s18, s22
 683              	.LVL73:
 684              	.LBB256:
ARM GAS  C:\msys64\tmp\ccFdFk3l.s 			page 13


 685              	.LBB254:
 686              		.loc 1 85 0
 687 00dc FCEEC87A 		vcvt.u32.f32	s15, s16
 688              	.LBE254:
 689              	.LBE256:
 690              		.loc 4 55 0
 691 00e0 79EEAB9A 		vadd.f32	s19, s19, s23
 692              	.LVL74:
 693              	.LBB257:
 694              	.LBB255:
 695              		.loc 1 85 0
 696 00e4 F8EE677A 		vcvt.f32.u32	s15, s15
 697 00e8 38EE678A 		vsub.f32	s16, s16, s15
 698              	.LVL75:
 699              	.LBE255:
 700              	.LBE257:
 701              	.LBB258:
 702              	.LBB259:
 703              	.LBB260:
 704              	.LBB261:
 705              	.LBB262:
 706              	.LBB263:
 707              		.loc 3 193 0
 708 00ec FFEE007A 		vmov.f32	s15, #-1.0e+0
 709 00f0 B4EEE70A 		vcmpe.f32	s0, s15
 710 00f4 F1EE10FA 		vmrs	APSR_nzcv, FPSCR
 711 00f8 09DB     		blt	.L27
 712              	.LVL76:
 713              	.LBE263:
 714              	.LBE262:
 715              	.LBB265:
 716              	.LBB266:
 717 00fa F7EE007A 		vmov.f32	s15, #1.0e+0
 718              	.LBE266:
 719              	.LBE265:
 720              	.LBB267:
 721              	.LBB264:
 722 00fe B4EEE70A 		vcmpe.f32	s0, s15
 723 0102 F1EE10FA 		vmrs	APSR_nzcv, FPSCR
 724 0106 A8BF     		it	ge
 725 0108 B0EE670A 		vmovge.f32	s0, s15
 726              	.LVL77:
 727 010c 01E0     		b	.L18
 728              	.LVL78:
 729              	.L27:
 730 010e B0EE670A 		vmov.f32	s0, s15
 731              	.LVL79:
 732              	.L18:
 733              	.LBE264:
 734              	.LBE267:
 735              	.LBE261:
 736              	.LBE260:
 737              	.LBE259:
 738              	.LBE258:
 739              		.loc 4 64 0
 740 0112 60EE007A 		vmul.f32	s15, s0, s0
 741 0116 60EE677A 		vnmul.f32	s15, s0, s15
ARM GAS  C:\msys64\tmp\ccFdFk3l.s 			page 14


 742 011a A7EEAA0A 		vfma.f32	s0, s15, s21
 743 011e 20EE0A0A 		vmul.f32	s0, s0, s20
 744 0122 BDEEC00A 		vcvt.s32.f32	s0, s0
 745 0126 A5EC010A 		vstmia.32	r5!, {s0}	@ int
 746              	.LVL80:
 747              	.LBE269:
 748              		.loc 4 48 0
 749 012a C8E7     		b	.L20
 750              	.LVL81:
 751              	.L17:
 752              	.LBE275:
 753              		.loc 4 68 0
 754 012c 84ED008A 		vstr.32	s16, [r4]
 755              		.loc 4 71 0
 756 0130 84ED049A 		vstr.32	s18, [r4, #16]
 757              		.loc 4 72 0
 758 0134 84ED059A 		vstr.32	s18, [r4, #20]
 759              	.LVL82:
 760              		.loc 4 74 0
 761 0138 BDEC088B 		vldm	sp!, {d8-d11}
 762              		.cfi_restore 86
 763              		.cfi_restore 87
 764              		.cfi_restore 84
 765              		.cfi_restore 85
 766              		.cfi_restore 82
 767              		.cfi_restore 83
 768              		.cfi_restore 80
 769              		.cfi_restore 81
 770              		.cfi_def_cfa_offset 16
 771              	.LVL83:
 772 013c 70BD     		pop	{r4, r5, r6, pc}
 773              	.LVL84:
 774              	.L30:
 775 013e 00BF     		.align	2
 776              	.L29:
 777 0140 8180803B 		.word	998277249
 778 0144 00000000 		.word	midi_to_hz_lut_f
 779 0148 00000000 		.word	.LANCHOR0
 780 014c CDCC4C3D 		.word	1028443341
 781 0150 0000004F 		.word	1325400064
 782 0154 49FFB846 		.word	1186529097
 783 0158 3EC3AE37 		.word	934200126
 784              		.cfi_endproc
 785              	.LFE251:
 786              		.size	_hook_cycle, .-_hook_cycle
 787              		.align	1
 788              		.global	_hook_on
 789              		.thumb
 790              		.thumb_func
 791              		.type	_hook_on, %function
 792              	_hook_on:
 793              	.LFB259:
 794              		.cfi_startproc
 795              		@ args = 0, pretend = 0, frame = 0
 796              		@ frame_needed = 0, uses_anonymous_args = 0
 797              		@ link register save eliminated.
 798 015c 7047     		bx	lr
ARM GAS  C:\msys64\tmp\ccFdFk3l.s 			page 15


 799              		.cfi_endproc
 800              	.LFE259:
 801              		.size	_hook_on, .-_hook_on
 802              		.align	1
 803              		.global	_hook_off
 804              		.thumb
 805              		.thumb_func
 806              		.type	_hook_off, %function
 807              	_hook_off:
 808              	.LFB253:
 809              		.loc 4 81 0
 810              		.cfi_startproc
 811              		@ args = 0, pretend = 0, frame = 0
 812              		@ frame_needed = 0, uses_anonymous_args = 0
 813              		@ link register save eliminated.
 814              	.LVL85:
 815 015e 7047     		bx	lr
 816              		.cfi_endproc
 817              	.LFE253:
 818              		.size	_hook_off, .-_hook_off
 819              		.align	1
 820              		.global	_hook_param
 821              		.thumb
 822              		.thumb_func
 823              		.type	_hook_param, %function
 824              	_hook_param:
 825              	.LFB254:
 826              		.loc 4 86 0
 827              		.cfi_startproc
 828              		@ args = 0, pretend = 0, frame = 0
 829              		@ frame_needed = 0, uses_anonymous_args = 0
 830              		@ link register save eliminated.
 831              	.LVL86:
 832              		.loc 4 90 0
 833 0160 07EE901A 		vmov	s15, r1	@ int
 834              		.loc 4 91 0
 835 0164 0128     		cmp	r0, #1
 836              		.loc 4 90 0
 837 0166 F8EEE77A 		vcvt.f32.s32	s15, s15
 838              	.LVL87:
 839              		.loc 4 91 0
 840 016a 0BD0     		beq	.L35
 841 016c 02D3     		bcc	.L36
 842 016e 0228     		cmp	r0, #2
 843 0170 10D0     		beq	.L37
 844 0172 7047     		bx	lr
 845              	.L36:
 846              		.loc 4 94 0
 847 0174 9FED097A 		vldr.32	s14, .L38
 848 0178 094B     		ldr	r3, .L38+4
 849 017a 67EE877A 		vmul.f32	s15, s15, s14
 850              	.LVL88:
 851 017e C3ED087A 		vstr.32	s15, [r3, #32]
 852              		.loc 4 95 0
 853 0182 7047     		bx	lr
 854              	.LVL89:
 855              	.L35:
ARM GAS  C:\msys64\tmp\ccFdFk3l.s 			page 16


 856              		.loc 4 99 0
 857 0184 9FED077A 		vldr.32	s14, .L38+8
 858 0188 054B     		ldr	r3, .L38+4
 859 018a 67EE877A 		vmul.f32	s15, s15, s14
 860              	.LVL90:
 861 018e C3ED097A 		vstr.32	s15, [r3, #36]
 862              		.loc 4 100 0
 863 0192 7047     		bx	lr
 864              	.LVL91:
 865              	.L37:
 866              		.loc 4 104 0
 867 0194 024B     		ldr	r3, .L38+4
 868 0196 9962     		str	r1, [r3, #40]
 869 0198 7047     		bx	lr
 870              	.L39:
 871 019a 00BF     		.align	2
 872              	.L38:
 873 019c 0AD7233C 		.word	1008981770
 874 01a0 00000000 		.word	.LANCHOR0
 875 01a4 CDCC4C3D 		.word	1028443341
 876              		.cfi_endproc
 877              	.LFE254:
 878              		.size	_hook_param, .-_hook_param
 879              		.section	.text.startup,"ax",%progbits
 880              		.align	1
 881              		.thumb
 882              		.thumb_func
 883              		.type	_GLOBAL__sub_I__hook_init, %function
 884              	_GLOBAL__sub_I__hook_init:
 885              	.LFB256:
 886              		.loc 4 124 0
 887              		.cfi_startproc
 888              		@ args = 0, pretend = 0, frame = 0
 889              		@ frame_needed = 0, uses_anonymous_args = 0
 890              		@ link register save eliminated.
 891              	.LVL92:
 892              	.LBB290:
 893              	.LBB291:
 894              	.LBB292:
 895              	.LBB293:
 896              	.LBB294:
 897              	.LBB295:
 898              		.loc 1 27 0
 899 0000 084B     		ldr	r3, .L41
 900 0002 4FF07E52 		mov	r2, #1065353216
 901 0006 1A62     		str	r2, [r3, #32]	@ float
 902 0008 5A62     		str	r2, [r3, #36]	@ float
 903 000a 0122     		movs	r2, #1
 904 000c 9A62     		str	r2, [r3, #40]
 905              	.LVL93:
 906              	.LBE295:
 907              	.LBE294:
 908              		.loc 1 54 0
 909 000e 0022     		movs	r2, #0
 910 0010 1A60     		str	r2, [r3]	@ float
 911 0012 5A60     		str	r2, [r3, #4]	@ float
 912 0014 9A60     		str	r2, [r3, #8]	@ float
ARM GAS  C:\msys64\tmp\ccFdFk3l.s 			page 17


 913 0016 DA60     		str	r2, [r3, #12]	@ float
 914 0018 1A61     		str	r2, [r3, #16]	@ float
 915 001a 5A61     		str	r2, [r3, #20]	@ float
 916 001c 9A61     		str	r2, [r3, #24]	@ float
 917 001e DA61     		str	r2, [r3, #28]	@ float
 918              	.LVL94:
 919 0020 7047     		bx	lr
 920              	.L42:
 921 0022 00BF     		.align	2
 922              	.L41:
 923 0024 00000000 		.word	.LANCHOR0
 924              	.LBE293:
 925              	.LBE292:
 926              	.LBE291:
 927              	.LBE290:
 928              		.cfi_endproc
 929              	.LFE256:
 930              		.size	_GLOBAL__sub_I__hook_init, .-_GLOBAL__sub_I__hook_init
 931              		.section	.init_array,"aw",%init_array
 932              		.align	2
 933 0000 00000000 		.word	_GLOBAL__sub_I__hook_init(target1)
 934              		.bss
 935              		.align	2
 936              		.set	.LANCHOR0,. + 0
 937              		.type	_ZL5vpsLJ, %object
 938              		.size	_ZL5vpsLJ, 44
 939              	_ZL5vpsLJ:
 940 0000 00000000 		.space	44
 940      00000000 
 940      00000000 
 940      00000000 
 940      00000000 
 941              		.text
 942              	.Letext0:
 943              		.file 5 "c:\\msys64\\home\\logue-sdk\\tools\\gcc\\gcc-arm-none-eabi-5_4-2016q3\\arm-none-eabi\\inc
 944              		.file 6 "c:\\msys64\\home\\logue-sdk\\tools\\gcc\\gcc-arm-none-eabi-5_4-2016q3\\arm-none-eabi\\inc
 945              		.file 7 "c:\\msys64\\home\\logue-sdk\\platform\\ext\\cmsis\\cmsis\\include\\arm_math.h"
 946              		.file 8 "C:/msys64/home/logue-sdk/platform/nutekt-digital/inc/userosc.h"
 947              		.file 9 "C:/msys64/home/logue-sdk/platform/nutekt-digital/inc/utils/int_math.h"
 948              		.file 10 "C:/msys64/home/logue-sdk/platform/nutekt-digital/inc/userprg.h"