ARM GAS  C:\msys64\tmp\cc4tCRqG.s 			page 1


   1              		.syntax unified
   2              		.cpu cortex-m4
   3              		.eabi_attribute 27, 1
   4              		.eabi_attribute 28, 1
   5              		.fpu fpv4-sp-d16
   6              		.eabi_attribute 20, 1
   7              		.eabi_attribute 21, 1
   8              		.eabi_attribute 23, 3
   9              		.eabi_attribute 24, 1
  10              		.eabi_attribute 25, 1
  11              		.eabi_attribute 26, 1
  12              		.eabi_attribute 30, 4
  13              		.eabi_attribute 34, 1
  14              		.eabi_attribute 18, 4
  15              		.thumb
  16              		.syntax unified
  17              		.file	"mvps.cpp"
  18              		.text
  19              	.Ltext0:
  20              		.cfi_sections	.debug_frame
  21              		.section	.text._ZN4MVPS16MultiPhaseShaperEf,"axG",%progbits,_ZN4MVPS16MultiPhaseShaperEf,comdat
  22              		.align	1
  23              		.weak	_ZN4MVPS16MultiPhaseShaperEf
  24              		.thumb
  25              		.thumb_func
  26              		.type	_ZN4MVPS16MultiPhaseShaperEf, %function
  27              	_ZN4MVPS16MultiPhaseShaperEf:
  28              	.LFB248:
  29              		.file 1 "mvps.hpp"
  30              		.loc 1 54 0
  31              		.cfi_startproc
  32              		@ args = 0, pretend = 0, frame = 0
  33              		@ frame_needed = 0, uses_anonymous_args = 0
  34              		@ link register save eliminated.
  35              	.LVL0:
  36              		.loc 1 55 0
  37 0000 90ED026A 		vldr.32	s12, [r0, #8]
  38 0004 D0ED046A 		vldr.32	s13, [r0, #16]
  39              		.loc 1 56 0
  40 0008 D0ED037A 		vldr.32	s15, [r0, #12]
  41 000c 90ED077A 		vldr.32	s14, [r0, #28]
  42              		.loc 1 57 0
  43 0010 90ED055A 		vldr.32	s10, [r0, #20]
  44              		.loc 1 58 0
  45 0014 D0ED084A 		vldr.32	s9, [r0, #32]
  46              		.loc 1 59 0
  47 0018 D0ED063A 		vldr.32	s7, [r0, #24]
  48              		.loc 1 60 0
  49 001c 90ED094A 		vldr.32	s8, [r0, #36]
  50              		.loc 1 55 0
  51 0020 66EE266A 		vmul.f32	s13, s12, s13
  52              	.LVL1:
  53              		.loc 1 56 0
  54 0024 27EE877A 		vmul.f32	s14, s15, s14
  55              	.LVL2:
  56              	.LBB98:
  57              		.loc 1 63 0
ARM GAS  C:\msys64\tmp\cc4tCRqG.s 			page 2


  58 0028 F4EEC06A 		vcmpe.f32	s13, s0
  59 002c F1EE10FA 		vmrs	APSR_nzcv, FPSCR
  60 0030 04DD     		ble	.L13
  61              	.LVL3:
  62              	.LBB99:
  63              		.loc 1 65 0
  64 0032 C0EE267A 		vdiv.f32	s15, s0, s13
  65              	.LVL4:
  66 0036 67EE877A 		vmul.f32	s15, s15, s14
  67              	.LVL5:
  68              	.LBE99:
  69 003a 37E0     		b	.L4
  70              	.LVL6:
  71              	.L13:
  72              	.LBE98:
  73              		.loc 1 57 0
  74 003c 66EE055A 		vmul.f32	s11, s12, s10
  75              		.loc 1 58 0
  76 0040 27EEA45A 		vmul.f32	s10, s15, s9
  77              	.LVL7:
  78              	.LBB106:
  79              	.LBB100:
  80              		.loc 1 66 0
  81 0044 F4EEC05A 		vcmpe.f32	s11, s0
  82 0048 F1EE10FA 		vmrs	APSR_nzcv, FPSCR
  83 004c 0CDD     		ble	.L14
  84              	.LVL8:
  85              	.LBB101:
  86              		.loc 1 71 0
  87 004e 30EE660A 		vsub.f32	s0, s0, s13
  88              	.LVL9:
  89 0052 75EEE66A 		vsub.f32	s13, s11, s13
  90              	.LVL10:
  91 0056 75EE477A 		vsub.f32	s15, s10, s14
  92              	.LVL11:
  93 005a 80EE266A 		vdiv.f32	s12, s0, s13
  94              	.LVL12:
  95 005e A7EE867A 		vfma.f32	s14, s15, s12
  96              	.LVL13:
  97 0062 F0EE477A 		vmov.f32	s15, s14
  98              	.LVL14:
  99              	.LBE101:
 100 0066 21E0     		b	.L4
 101              	.LVL15:
 102              	.L14:
 103              	.LBE100:
 104              	.LBE106:
 105              		.loc 1 59 0
 106 0068 66EE236A 		vmul.f32	s13, s12, s7
 107              	.LVL16:
 108              		.loc 1 60 0
 109 006c 67EE847A 		vmul.f32	s15, s15, s8
 110              	.LVL17:
 111              	.LBB107:
 112              	.LBB105:
 113              	.LBB102:
 114              		.loc 1 72 0
ARM GAS  C:\msys64\tmp\cc4tCRqG.s 			page 3


 115 0070 F4EEC06A 		vcmpe.f32	s13, s0
 116 0074 F1EE10FA 		vmrs	APSR_nzcv, FPSCR
 117 0078 0CDD     		ble	.L15
 118              	.LVL18:
 119              	.LBB103:
 120              		.loc 1 77 0
 121 007a 30EE650A 		vsub.f32	s0, s0, s11
 122              	.LVL19:
 123 007e 76EEE56A 		vsub.f32	s13, s13, s11
 124              	.LVL20:
 125 0082 37EEC57A 		vsub.f32	s14, s15, s10
 126              	.LVL21:
 127 0086 C0EE267A 		vdiv.f32	s15, s0, s13
 128              	.LVL22:
 129 008a A7EE275A 		vfma.f32	s10, s14, s15
 130 008e F0EE457A 		vmov.f32	s15, s10
 131              	.LVL23:
 132              	.LBE103:
 133 0092 0BE0     		b	.L4
 134              	.LVL24:
 135              	.L15:
 136              	.LBB104:
 137              		.loc 1 83 0
 138 0094 B7EE007A 		vmov.f32	s14, #1.0e+0
 139              	.LVL25:
 140 0098 30EE660A 		vsub.f32	s0, s0, s13
 141              	.LVL26:
 142 009c 77EE666A 		vsub.f32	s13, s14, s13
 143              	.LVL27:
 144 00a0 37EE676A 		vsub.f32	s12, s14, s15
 145              	.LVL28:
 146 00a4 80EE267A 		vdiv.f32	s14, s0, s13
 147              	.LVL29:
 148 00a8 E6EE077A 		vfma.f32	s15, s12, s14
 149              	.LVL30:
 150              	.L4:
 151              	.LBE104:
 152              	.LBE102:
 153              	.LBE105:
 154              	.LBE107:
 155              	.LBB108:
 156              	.LBB109:
 157              	.LBB110:
 158              	.LBB111:
 159              		.file 2 "C:/msys64/home/logue-sdk/platform/nutekt-digital/inc/osc_api.h"
 160              		.loc 2 160 0
 161 00ac 174A     		ldr	r2, .L17
 162              	.LBE111:
 163              	.LBE110:
 164              		.loc 2 171 0
 165 00ae B5EE007A 		vmov.f32	s14, #2.5e-1
 166 00b2 77EE877A 		vadd.f32	s15, s15, s14
 167              	.LVL31:
 168              	.LBB119:
 169              	.LBB118:
 170              		.loc 2 154 0
 171 00b6 BCEEE77A 		vcvt.u32.f32	s14, s15
ARM GAS  C:\msys64\tmp\cc4tCRqG.s 			page 4


 172 00ba B8EE477A 		vcvt.f32.u32	s14, s14
 173 00be 77EEC77A 		vsub.f32	s15, s15, s14
 174              	.LVL32:
 175 00c2 9FED137A 		vldr.32	s14, .L17+4
 176 00c6 67EE877A 		vmul.f32	s15, s15, s14
 177              	.LVL33:
 178              		.loc 2 155 0
 179 00ca BCEEE77A 		vcvt.u32.f32	s14, s15
 180 00ce 17EE101A 		vmov	r1, s14	@ int
 181              	.LVL34:
 182              		.loc 2 157 0
 183 00d2 01F07F03 		and	r3, r1, #127
 184              	.LVL35:
 185              		.loc 2 160 0
 186 00d6 02EB8300 		add	r0, r2, r3, lsl #2
 187              	.LVL36:
 188 00da 0133     		adds	r3, r3, #1
 189              	.LVL37:
 190              	.LBB112:
 191              	.LBB113:
 192              		.file 3 "C:/msys64/home/logue-sdk/platform/nutekt-digital/inc/utils/float_math.h"
 193              		.loc 3 826 0
 194 00dc B8EE477A 		vcvt.f32.u32	s14, s14
 195              	.LBE113:
 196              	.LBE112:
 197              		.loc 2 160 0
 198 00e0 03F07F03 		and	r3, r3, #127
 199              	.LVL38:
 200 00e4 02EB8303 		add	r3, r2, r3, lsl #2
 201              	.LVL39:
 202 00e8 90ED000A 		vldr.32	s0, [r0]
 203              	.LVL40:
 204              	.LBB116:
 205              	.LBB114:
 206              		.loc 3 826 0
 207 00ec 77EEC77A 		vsub.f32	s15, s15, s14
 208              	.LVL41:
 209 00f0 93ED007A 		vldr.32	s14, [r3]
 210 00f4 37EE407A 		vsub.f32	s14, s14, s0
 211              	.LBE114:
 212              	.LBE116:
 213              		.loc 2 161 0
 214 00f8 7F29     		cmp	r1, #127
 215              	.LBB117:
 216              	.LBB115:
 217              		.loc 3 826 0
 218 00fa A7EE870A 		vfma.f32	s0, s15, s14
 219              	.LVL42:
 220              	.LBE115:
 221              	.LBE117:
 222              		.loc 2 161 0
 223 00fe 88BF     		it	hi
 224 0100 B1EE400A 		vneghi.f32	s0, s0
 225              	.LVL43:
 226              	.LBE118:
 227              	.LBE119:
 228              	.LBE109:
ARM GAS  C:\msys64\tmp\cc4tCRqG.s 			page 5


 229              	.LBE108:
 230              		.loc 1 87 0
 231 0104 B1EE400A 		vneg.f32	s0, s0
 232 0108 7047     		bx	lr
 233              	.L18:
 234 010a 00BF     		.align	2
 235              	.L17:
 236 010c 00000000 		.word	wt_sine_lut_f
 237 0110 00008043 		.word	1132462080
 238              		.cfi_endproc
 239              	.LFE248:
 240              		.size	_ZN4MVPS16MultiPhaseShaperEf, .-_ZN4MVPS16MultiPhaseShaperEf
 241              		.text
 242              		.align	1
 243              		.global	_hook_init
 244              		.thumb
 245              		.thumb_func
 246              		.type	_hook_init, %function
 247              	_hook_init:
 248              	.LFB250:
 249              		.file 4 "mvps.cpp"
 250              		.loc 4 14 0
 251              		.cfi_startproc
 252              		@ args = 0, pretend = 0, frame = 0
 253              		@ frame_needed = 0, uses_anonymous_args = 0
 254              		@ link register save eliminated.
 255              	.LVL44:
 256 0000 7047     		bx	lr
 257              		.cfi_endproc
 258              	.LFE250:
 259              		.size	_hook_init, .-_hook_init
 260              		.align	1
 261              		.global	_hook_cycle
 262              		.thumb
 263              		.thumb_func
 264              		.type	_hook_cycle, %function
 265              	_hook_cycle:
 266              	.LFB251:
 267              		.loc 4 19 0
 268              		.cfi_startproc
 269              		@ args = 0, pretend = 0, frame = 0
 270              		@ frame_needed = 0, uses_anonymous_args = 0
 271              	.LVL45:
 272              		.loc 4 25 0
 273 0002 8088     		ldrh	r0, [r0, #4]
 274              	.LVL46:
 275              	.LBB148:
 276              	.LBB149:
 277              	.LBB150:
 278              	.LBB151:
 279              		.loc 3 826 0
 280 0004 9FED397A 		vldr.32	s14, .L35
 281              	.LBE151:
 282              	.LBE150:
 283              	.LBE149:
 284              	.LBE148:
 285              		.loc 4 25 0
ARM GAS  C:\msys64\tmp\cc4tCRqG.s 			page 6


 286 0008 0312     		asrs	r3, r0, #8
 287              	.LVL47:
 288              	.LBB186:
 289              	.LBB180:
 290              	.LBB157:
 291              	.LBB158:
 292              		.loc 2 109 0
 293 000a 962B     		cmp	r3, #150
 294              	.LBE158:
 295              	.LBE157:
 296              	.LBE180:
 297              	.LBE186:
 298              		.loc 4 19 0
 299 000c 70B5     		push	{r4, r5, r6, lr}
 300              		.cfi_def_cfa_offset 16
 301              		.cfi_offset 4, -16
 302              		.cfi_offset 5, -12
 303              		.cfi_offset 6, -8
 304              		.cfi_offset 14, -4
 305 000e 0D46     		mov	r5, r1
 306              		.loc 4 28 0
 307 0010 C1B2     		uxtb	r1, r0
 308              	.LVL48:
 309              	.LBB187:
 310              	.LBB181:
 311              	.LBB163:
 312              	.LBB159:
 313              		.loc 2 109 0
 314 0012 D8BF     		it	le
 315 0014 1846     		movle	r0, r3
 316              	.LBE159:
 317              	.LBE163:
 318              		.loc 2 120 0
 319 0016 03F10103 		add	r3, r3, #1
 320              	.LVL49:
 321 001a DBB2     		uxtb	r3, r3
 322              	.LVL50:
 323              	.LBE181:
 324              	.LBE187:
 325              		.loc 4 28 0
 326 001c 07EE901A 		vmov	s15, r1	@ int
 327              	.LVL51:
 328              	.LBB188:
 329              	.LBB182:
 330              	.LBB164:
 331              	.LBB160:
 332              		.loc 2 109 0
 333 0020 C8BF     		it	gt
 334 0022 9720     		movgt	r0, #151
 335              	.LVL52:
 336 0024 3249     		ldr	r1, .L35+4
 337              	.LVL53:
 338              	.LBE160:
 339              	.LBE164:
 340              	.LBB165:
 341              	.LBB166:
 342 0026 962B     		cmp	r3, #150
ARM GAS  C:\msys64\tmp\cc4tCRqG.s 			page 7


 343 0028 88BF     		it	hi
 344 002a 9723     		movhi	r3, #151
 345              	.LBE166:
 346              	.LBE165:
 347              	.LBB168:
 348              	.LBB152:
 349              		.loc 3 826 0
 350 002c F8EEE77A 		vcvt.f32.s32	s15, s15
 351              	.LVL54:
 352              	.LBE152:
 353              	.LBE168:
 354              	.LBB169:
 355              	.LBB167:
 356              		.loc 2 109 0
 357 0030 01EB8303 		add	r3, r1, r3, lsl #2
 358              	.LBE167:
 359              	.LBE169:
 360              	.LBB170:
 361              	.LBB161:
 362 0034 01EB8000 		add	r0, r1, r0, lsl #2
 363              	.LBE161:
 364              	.LBE170:
 365              	.LBE182:
 366              	.LBE188:
 367              		.loc 4 19 0
 368 0038 2DED068B 		vpush.64	{d8, d9, d10}
 369              		.cfi_def_cfa_offset 40
 370              		.cfi_offset 80, -40
 371              		.cfi_offset 81, -36
 372              		.cfi_offset 82, -32
 373              		.cfi_offset 83, -28
 374              		.cfi_offset 84, -24
 375              		.cfi_offset 85, -20
 376              	.LBB189:
 377              	.LBB183:
 378              	.LBB171:
 379              	.LBB153:
 380              		.loc 3 826 0
 381 003c 67EE877A 		vmul.f32	s15, s15, s14
 382              	.LBE153:
 383              	.LBE171:
 384              	.LBB172:
 385              	.LBB162:
 386              		.loc 2 109 0
 387 0040 D0ED008A 		vldr.32	s17, [r0]
 388              	.LVL55:
 389              	.LBE162:
 390              	.LBE172:
 391              	.LBB173:
 392              	.LBB154:
 393              		.loc 3 826 0
 394 0044 93ED007A 		vldr.32	s14, [r3]
 395              	.LBE154:
 396              	.LBE173:
 397              	.LBE183:
 398              	.LBE189:
 399              		.loc 4 28 0
ARM GAS  C:\msys64\tmp\cc4tCRqG.s 			page 8


 400 0048 2A4B     		ldr	r3, .L35+8
 401              	.LBB190:
 402              	.LBB191:
 403              		.loc 4 51 0
 404 004a 9FED2BAA 		vldr.32	s20, .L35+12
 405              	.LBE191:
 406              	.LBE190:
 407              		.loc 4 31 0
 408 004e 93ED008A 		vldr.32	s16, [r3]
 409              	.LBB234:
 410              	.LBB230:
 411              		.loc 4 51 0
 412 0052 DFED2A9A 		vldr.32	s19, .L35+16
 413              	.LBE230:
 414              	.LBE234:
 415              	.LBB235:
 416              	.LBB184:
 417              	.LBB174:
 418              	.LBB155:
 419              		.loc 3 826 0
 420 0056 37EE687A 		vsub.f32	s14, s14, s17
 421              	.LBE155:
 422              	.LBE174:
 423              	.LBE184:
 424              	.LBE235:
 425              		.loc 4 36 0
 426 005a 05EB8206 		add	r6, r5, r2, lsl #2
 427              	.LBB236:
 428              	.LBB185:
 429              	.LBB175:
 430              	.LBB156:
 431              		.loc 3 826 0
 432 005e E7EE878A 		vfma.f32	s17, s15, s14
 433              	.LVL56:
 434 0062 1C46     		mov	r4, r3
 435              	.LBE156:
 436              	.LBE175:
 437              	.LBB176:
 438              	.LBB177:
 439              	.LBB178:
 440              	.LBB179:
 441              		.loc 3 193 0
 442 0064 DFED267A 		vldr.32	s15, .L35+20
 443 0068 F4EEE78A 		vcmpe.f32	s17, s15
 444 006c F1EE10FA 		vmrs	APSR_nzcv, FPSCR
 445 0070 B8BF     		it	lt
 446 0072 F0EE687A 		vmovlt.f32	s15, s17
 447              	.LVL57:
 448              	.LBE179:
 449              	.LBE178:
 450              	.LBE177:
 451              	.LBE176:
 452              		.loc 2 124 0
 453 0076 DFED238A 		vldr.32	s17, .L35+24
 454 007a 67EEA88A 		vmul.f32	s17, s15, s17
 455              	.LVL58:
 456              	.LBE185:
ARM GAS  C:\msys64\tmp\cc4tCRqG.s 			page 9


 457              	.LBE236:
 458              	.LBB237:
 459              	.LBB231:
 460              	.LBB192:
 461              	.LBB193:
 462              	.LBB194:
 463              	.LBB195:
 464              	.LBB196:
 465              	.LBB197:
 466              		.loc 3 193 0
 467 007e FFEE00AA 		vmov.f32	s21, #-1.0e+0
 468              	.LBE197:
 469              	.LBE196:
 470              	.LBE195:
 471              	.LBE194:
 472              	.LBE193:
 473              	.LBE192:
 474              	.LBE231:
 475              	.LBE237:
 476              		.loc 4 28 0
 477 0082 C3ED018A 		vstr.32	s17, [r3, #4]
 478              	.LVL59:
 479              	.LBB238:
 480              	.LBB232:
 481              	.LBB218:
 482              	.LBB214:
 483              	.LBB210:
 484              	.LBB206:
 485              	.LBB201:
 486              	.LBB202:
 487              		.loc 3 193 0
 488 0086 B7EE009A 		vmov.f32	s18, #1.0e+0
 489              	.LVL60:
 490              	.L27:
 491              	.LBE202:
 492              	.LBE201:
 493              	.LBE206:
 494              	.LBE210:
 495              	.LBE214:
 496              	.LBE218:
 497              	.LBE232:
 498              		.loc 4 39 0
 499 008a B542     		cmp	r5, r6
 500 008c 28D0     		beq	.L24
 501              	.LVL61:
 502              	.LBB233:
 503              		.loc 4 42 0
 504 008e B0EE480A 		vmov.f32	s0, s16
 505 0092 1848     		ldr	r0, .L35+8
 506              	.LBB219:
 507              	.LBB220:
 508              		.loc 1 90 0
 509 0094 38EE288A 		vadd.f32	s16, s16, s17
 510              	.LVL62:
 511              	.LBE220:
 512              	.LBE219:
 513              		.loc 4 42 0
ARM GAS  C:\msys64\tmp\cc4tCRqG.s 			page 10


 514 0098 FFF7FEFF 		bl	_ZN4MVPS16MultiPhaseShaperEf
 515              	.LVL63:
 516              	.LBB224:
 517              	.LBB221:
 518              		.loc 1 91 0
 519 009c FCEEC87A 		vcvt.u32.f32	s15, s16
 520              	.LBE221:
 521              	.LBE224:
 522              	.LBB225:
 523              	.LBB215:
 524              	.LBB211:
 525              	.LBB207:
 526              	.LBB203:
 527              	.LBB198:
 528              		.loc 3 193 0
 529 00a0 B4EEEA0A 		vcmpe.f32	s0, s21
 530              	.LBE198:
 531              	.LBE203:
 532              	.LBE207:
 533              	.LBE211:
 534              	.LBE215:
 535              	.LBE225:
 536              	.LBB226:
 537              	.LBB222:
 538              		.loc 1 91 0
 539 00a4 F8EE677A 		vcvt.f32.u32	s15, s15
 540              	.LBE222:
 541              	.LBE226:
 542              	.LBB227:
 543              	.LBB216:
 544              	.LBB212:
 545              	.LBB208:
 546              	.LBB204:
 547              	.LBB199:
 548              		.loc 3 193 0
 549 00a8 F1EE10FA 		vmrs	APSR_nzcv, FPSCR
 550              	.LBE199:
 551              	.LBE204:
 552              	.LBE208:
 553              	.LBE212:
 554              	.LBE216:
 555              	.LBE227:
 556              	.LBB228:
 557              	.LBB223:
 558              		.loc 1 91 0
 559 00ac 38EE678A 		vsub.f32	s16, s16, s15
 560              	.LVL64:
 561              	.LBE223:
 562              	.LBE228:
 563              	.LBB229:
 564              	.LBB217:
 565              	.LBB213:
 566              	.LBB209:
 567              	.LBB205:
 568              	.LBB200:
 569              		.loc 3 193 0
 570 00b0 07DB     		blt	.L34
ARM GAS  C:\msys64\tmp\cc4tCRqG.s 			page 11


 571              	.LVL65:
 572 00b2 B4EEC90A 		vcmpe.f32	s0, s18
 573 00b6 F1EE10FA 		vmrs	APSR_nzcv, FPSCR
 574 00ba A8BF     		it	ge
 575 00bc B0EE490A 		vmovge.f32	s0, s18
 576              	.LVL66:
 577 00c0 01E0     		b	.L25
 578              	.LVL67:
 579              	.L34:
 580 00c2 BFEE000A 		vmov.f32	s0, #-1.0e+0
 581              	.LVL68:
 582              	.L25:
 583              	.LBE200:
 584              	.LBE205:
 585              	.LBE209:
 586              	.LBE213:
 587              	.LBE217:
 588              	.LBE229:
 589              		.loc 4 51 0
 590 00c6 60EE007A 		vmul.f32	s15, s0, s0
 591 00ca 60EE677A 		vnmul.f32	s15, s0, s15
 592 00ce A7EE8A0A 		vfma.f32	s0, s15, s20
 593 00d2 20EE290A 		vmul.f32	s0, s0, s19
 594 00d6 BDEEC00A 		vcvt.s32.f32	s0, s0
 595 00da A5EC010A 		vstmia.32	r5!, {s0}	@ int
 596              	.LVL69:
 597              	.LBE233:
 598              		.loc 4 39 0
 599 00de D4E7     		b	.L27
 600              	.LVL70:
 601              	.L24:
 602              	.LBE238:
 603              		.loc 4 56 0
 604 00e0 84ED008A 		vstr.32	s16, [r4]
 605              	.LVL71:
 606              		.loc 4 58 0
 607 00e4 BDEC068B 		vldm	sp!, {d8-d10}
 608              		.cfi_restore 84
 609              		.cfi_restore 85
 610              		.cfi_restore 82
 611              		.cfi_restore 83
 612              		.cfi_restore 80
 613              		.cfi_restore 81
 614              		.cfi_def_cfa_offset 16
 615 00e8 70BD     		pop	{r4, r5, r6, pc}
 616              	.LVL72:
 617              	.L36:
 618 00ea 00BF     		.align	2
 619              	.L35:
 620 00ec 8180803B 		.word	998277249
 621 00f0 00000000 		.word	midi_to_hz_lut_f
 622 00f4 00000000 		.word	.LANCHOR0
 623 00f8 CDCC4C3D 		.word	1028443341
 624 00fc 0000004F 		.word	1325400064
 625 0100 49FFB846 		.word	1186529097
 626 0104 3EC3AE37 		.word	934200126
 627              		.cfi_endproc
ARM GAS  C:\msys64\tmp\cc4tCRqG.s 			page 12


 628              	.LFE251:
 629              		.size	_hook_cycle, .-_hook_cycle
 630              		.align	1
 631              		.global	_hook_on
 632              		.thumb
 633              		.thumb_func
 634              		.type	_hook_on, %function
 635              	_hook_on:
 636              	.LFB259:
 637              		.cfi_startproc
 638              		@ args = 0, pretend = 0, frame = 0
 639              		@ frame_needed = 0, uses_anonymous_args = 0
 640              		@ link register save eliminated.
 641 0108 7047     		bx	lr
 642              		.cfi_endproc
 643              	.LFE259:
 644              		.size	_hook_on, .-_hook_on
 645              		.align	1
 646              		.global	_hook_off
 647              		.thumb
 648              		.thumb_func
 649              		.type	_hook_off, %function
 650              	_hook_off:
 651              	.LFB253:
 652              		.loc 4 65 0
 653              		.cfi_startproc
 654              		@ args = 0, pretend = 0, frame = 0
 655              		@ frame_needed = 0, uses_anonymous_args = 0
 656              		@ link register save eliminated.
 657              	.LVL73:
 658 010a 7047     		bx	lr
 659              		.cfi_endproc
 660              	.LFE253:
 661              		.size	_hook_off, .-_hook_off
 662              		.align	1
 663              		.global	_hook_param
 664              		.thumb
 665              		.thumb_func
 666              		.type	_hook_param, %function
 667              	_hook_param:
 668              	.LFB254:
 669              		.loc 4 70 0
 670              		.cfi_startproc
 671              		@ args = 0, pretend = 0, frame = 0
 672              		@ frame_needed = 0, uses_anonymous_args = 0
 673              		@ link register save eliminated.
 674              	.LVL74:
 675              		.loc 4 74 0
 676 010c 07EE901A 		vmov	s15, r1	@ int
 677 0110 9FED247A 		vldr.32	s14, .L50
 678 0114 F8EEE77A 		vcvt.f32.s32	s15, s15
 679 0118 27EE877A 		vmul.f32	s14, s15, s14
 680              	.LVL75:
 681              		.loc 4 75 0
 682 011c 0728     		cmp	r0, #7
 683 011e 40D8     		bhi	.L39
 684 0120 DFE800F0 		tbb	[pc, r0]
ARM GAS  C:\msys64\tmp\cc4tCRqG.s 			page 13


 685              	.L42:
 686 0124 04       		.byte	(.L41-.L42)/2
 687 0125 0C       		.byte	(.L43-.L42)/2
 688 0126 14       		.byte	(.L44-.L42)/2
 689 0127 1E       		.byte	(.L45-.L42)/2
 690 0128 26       		.byte	(.L46-.L42)/2
 691 0129 30       		.byte	(.L47-.L42)/2
 692 012a 38       		.byte	(.L48-.L42)/2
 693 012b 3C       		.byte	(.L49-.L42)/2
 694              		.p2align 1
 695              	.L41:
 696              		.loc 4 78 0
 697 012c 9FED1E7A 		vldr.32	s14, .L50+4
 698              	.LVL76:
 699 0130 1E4B     		ldr	r3, .L50+8
 700 0132 67EE877A 		vmul.f32	s15, s15, s14
 701              	.LVL77:
 702 0136 C3ED047A 		vstr.32	s15, [r3, #16]
 703              		.loc 4 79 0
 704 013a 7047     		bx	lr
 705              	.LVL78:
 706              	.L43:
 707              		.loc 4 83 0
 708 013c 9FED1C7A 		vldr.32	s14, .L50+12
 709              	.LVL79:
 710 0140 1A4B     		ldr	r3, .L50+8
 711 0142 67EE877A 		vmul.f32	s15, s15, s14
 712              	.LVL80:
 713 0146 C3ED077A 		vstr.32	s15, [r3, #28]
 714              		.loc 4 84 0
 715 014a 7047     		bx	lr
 716              	.LVL81:
 717              	.L44:
 718              		.loc 4 88 0
 719 014c 9FED197A 		vldr.32	s14, .L50+16
 720              	.LVL82:
 721 0150 DFED156A 		vldr.32	s13, .L50+4
 722 0154 154B     		ldr	r3, .L50+8
 723 0156 A7EEA67A 		vfma.f32	s14, s15, s13
 724 015a 83ED057A 		vstr.32	s14, [r3, #20]
 725              		.loc 4 89 0
 726 015e 7047     		bx	lr
 727              	.LVL83:
 728              	.L45:
 729              		.loc 4 93 0
 730 0160 9FED137A 		vldr.32	s14, .L50+12
 731              	.LVL84:
 732 0164 114B     		ldr	r3, .L50+8
 733 0166 67EE877A 		vmul.f32	s15, s15, s14
 734              	.LVL85:
 735 016a C3ED087A 		vstr.32	s15, [r3, #32]
 736              		.loc 4 94 0
 737 016e 7047     		bx	lr
 738              	.LVL86:
 739              	.L46:
 740              		.loc 4 98 0
 741 0170 9FED117A 		vldr.32	s14, .L50+20
ARM GAS  C:\msys64\tmp\cc4tCRqG.s 			page 14


 742              	.LVL87:
 743 0174 DFED116A 		vldr.32	s13, .L50+24
 744 0178 0C4B     		ldr	r3, .L50+8
 745 017a A7EEA67A 		vfma.f32	s14, s15, s13
 746 017e 83ED067A 		vstr.32	s14, [r3, #24]
 747              		.loc 4 99 0
 748 0182 7047     		bx	lr
 749              	.LVL88:
 750              	.L47:
 751              		.loc 4 103 0
 752 0184 9FED0A7A 		vldr.32	s14, .L50+12
 753              	.LVL89:
 754 0188 084B     		ldr	r3, .L50+8
 755 018a 67EE877A 		vmul.f32	s15, s15, s14
 756              	.LVL90:
 757 018e C3ED097A 		vstr.32	s15, [r3, #36]
 758              		.loc 4 104 0
 759 0192 7047     		bx	lr
 760              	.LVL91:
 761              	.L48:
 762              		.loc 4 108 0
 763 0194 054B     		ldr	r3, .L50+8
 764 0196 83ED027A 		vstr.32	s14, [r3, #8]
 765              		.loc 4 109 0
 766 019a 7047     		bx	lr
 767              	.L49:
 768              		.loc 4 113 0
 769 019c 034B     		ldr	r3, .L50+8
 770 019e 83ED037A 		vstr.32	s14, [r3, #12]
 771              	.L39:
 772 01a2 7047     		bx	lr
 773              	.L51:
 774              		.align	2
 775              	.L50:
 776 01a4 0820803A 		.word	981475336
 777 01a8 A69B443B 		.word	994352038
 778 01ac 00000000 		.word	.LANCHOR0
 779 01b0 0AD7233C 		.word	1008981770
 780 01b4 9A99993E 		.word	1050253722
 781 01b8 9A99193F 		.word	1058642330
 782 01bc 6F12833B 		.word	998445679
 783              		.cfi_endproc
 784              	.LFE254:
 785              		.size	_hook_param, .-_hook_param
 786              		.section	.text.startup,"ax",%progbits
 787              		.align	1
 788              		.thumb
 789              		.thumb_func
 790              		.type	_GLOBAL__sub_I__hook_init, %function
 791              	_GLOBAL__sub_I__hook_init:
 792              	.LFB256:
 793              		.loc 4 118 0
 794              		.cfi_startproc
 795              		@ args = 0, pretend = 0, frame = 0
 796              		@ frame_needed = 0, uses_anonymous_args = 0
 797              		@ link register save eliminated.
 798              	.LVL92:
ARM GAS  C:\msys64\tmp\cc4tCRqG.s 			page 15


 799              	.LBB253:
 800              	.LBB254:
 801              	.LBB255:
 802              	.LBB256:
 803              	.LBB257:
 804              	.LBB258:
 805              		.loc 1 45 0
 806 0000 074B     		ldr	r3, .L53
 807 0002 0022     		movs	r2, #0
 808 0004 1A60     		str	r2, [r3]	@ float
 809 0006 5A60     		str	r2, [r3, #4]	@ float
 810              	.LVL93:
 811              	.LBE258:
 812              	.LBE257:
 813              		.loc 1 51 0
 814 0008 4FF07C52 		mov	r2, #1056964608
 815 000c 9A60     		str	r2, [r3, #8]	@ float
 816 000e DA60     		str	r2, [r3, #12]	@ float
 817 0010 1A61     		str	r2, [r3, #16]	@ float
 818 0012 5A61     		str	r2, [r3, #20]	@ float
 819 0014 9A61     		str	r2, [r3, #24]	@ float
 820 0016 DA61     		str	r2, [r3, #28]	@ float
 821 0018 1A62     		str	r2, [r3, #32]	@ float
 822 001a 5A62     		str	r2, [r3, #36]	@ float
 823              	.LVL94:
 824 001c 7047     		bx	lr
 825              	.L54:
 826 001e 00BF     		.align	2
 827              	.L53:
 828 0020 00000000 		.word	.LANCHOR0
 829              	.LBE256:
 830              	.LBE255:
 831              	.LBE254:
 832              	.LBE253:
 833              		.cfi_endproc
 834              	.LFE256:
 835              		.size	_GLOBAL__sub_I__hook_init, .-_GLOBAL__sub_I__hook_init
 836              		.section	.init_array,"aw",%init_array
 837              		.align	2
 838 0000 00000000 		.word	_GLOBAL__sub_I__hook_init(target1)
 839              		.bss
 840              		.align	2
 841              		.set	.LANCHOR0,. + 0
 842              		.type	_ZL4mvps, %object
 843              		.size	_ZL4mvps, 40
 844              	_ZL4mvps:
 845 0000 00000000 		.space	40
 845      00000000 
 845      00000000 
 845      00000000 
 845      00000000 
 846              		.text
 847              	.Letext0:
 848              		.file 5 "c:\\msys64\\home\\logue-sdk\\tools\\gcc\\gcc-arm-none-eabi-5_4-2016q3\\arm-none-eabi\\inc
 849              		.file 6 "c:\\msys64\\home\\logue-sdk\\tools\\gcc\\gcc-arm-none-eabi-5_4-2016q3\\arm-none-eabi\\inc
 850              		.file 7 "c:\\msys64\\home\\logue-sdk\\platform\\ext\\cmsis\\cmsis\\include\\arm_math.h"
 851              		.file 8 "C:/msys64/home/logue-sdk/platform/nutekt-digital/inc/userosc.h"
ARM GAS  C:\msys64\tmp\cc4tCRqG.s 			page 16


 852              		.file 9 "C:/msys64/home/logue-sdk/platform/nutekt-digital/inc/utils/int_math.h"
 853              		.file 10 "C:/msys64/home/logue-sdk/platform/nutekt-digital/inc/userprg.h"